
FreeRTOS.elf:     file format elf32-littlearm

Sections:
Idx Name          Size      VMA       LMA       File off  Algn
  0 .text         00008be4  00080000  00080000  00010000  2**3
                  CONTENTS, ALLOC, LOAD, READONLY, CODE
  1 .ARM.exidx    00000008  00088be4  00088be4  00018be4  2**2
                  CONTENTS, ALLOC, LOAD, READONLY, DATA
  2 .relocate     00000b70  20070000  00088bec  00020000  2**3
                  CONTENTS, ALLOC, LOAD, CODE
  3 .bss          0000a548  20070b70  00089760  00020b70  2**3
                  ALLOC
  4 .stack        00002000  2007b0b8  00093ca8  00020b70  2**0
                  ALLOC
  5 .ARM.attributes 00000029  00000000  00000000  00020b70  2**0
                  CONTENTS, READONLY
  6 .comment      00000059  00000000  00000000  00020b99  2**0
                  CONTENTS, READONLY
  7 .debug_info   0002946c  00000000  00000000  00020bf2  2**0
                  CONTENTS, READONLY, DEBUGGING
  8 .debug_abbrev 00005dfa  00000000  00000000  0004a05e  2**0
                  CONTENTS, READONLY, DEBUGGING
  9 .debug_loc    0000a2fd  00000000  00000000  0004fe58  2**0
                  CONTENTS, READONLY, DEBUGGING
 10 .debug_aranges 000011a8  00000000  00000000  0005a155  2**0
                  CONTENTS, READONLY, DEBUGGING
 11 .debug_ranges 00001130  00000000  00000000  0005b2fd  2**0
                  CONTENTS, READONLY, DEBUGGING
 12 .debug_macro  0000e0c8  00000000  00000000  0005c42d  2**0
                  CONTENTS, READONLY, DEBUGGING
 13 .debug_line   0001c2e8  00000000  00000000  0006a4f5  2**0
                  CONTENTS, READONLY, DEBUGGING
 14 .debug_str    0006c682  00000000  00000000  000867dd  2**0
                  CONTENTS, READONLY, DEBUGGING
 15 .debug_frame  00003a24  00000000  00000000  000f2e60  2**2
                  CONTENTS, READONLY, DEBUGGING

Disassembly of section .text:

00080000 <exception_table>:
   80000:	b8 d0 07 20 5d 3f 08 00 59 3f 08 00 59 3f 08 00     ... ]?..Y?..Y?..
   80010:	59 3f 08 00 59 3f 08 00 59 3f 08 00 00 00 00 00     Y?..Y?..Y?......
	...
   8002c:	4d 24 08 00 59 3f 08 00 00 00 00 00 cd 24 08 00     M$..Y?.......$..
   8003c:	09 25 08 00 59 3f 08 00 59 3f 08 00 59 3f 08 00     .%..Y?..Y?..Y?..
   8004c:	59 3f 08 00 59 3f 08 00 59 3f 08 00 59 3f 08 00     Y?..Y?..Y?..Y?..
   8005c:	59 3f 08 00 59 3f 08 00 59 3f 08 00 00 00 00 00     Y?..Y?..Y?......
   8006c:	cd 3d 08 00 e1 3d 08 00 f5 3d 08 00 09 3e 08 00     .=...=...=...>..
	...
   80084:	59 3f 08 00 59 3f 08 00 59 3f 08 00 59 3f 08 00     Y?..Y?..Y?..Y?..
   80094:	59 3f 08 00 59 3f 08 00 59 3f 08 00 59 3f 08 00     Y?..Y?..Y?..Y?..
   800a4:	00 00 00 00 59 3f 08 00 59 3f 08 00 59 3f 08 00     ....Y?..Y?..Y?..
   800b4:	59 3f 08 00 59 3f 08 00 59 3f 08 00 59 3f 08 00     Y?..Y?..Y?..Y?..
   800c4:	59 3f 08 00 59 3f 08 00 59 3f 08 00 59 3f 08 00     Y?..Y?..Y?..Y?..
   800d4:	59 3f 08 00 59 3f 08 00 59 3f 08 00 59 3f 08 00     Y?..Y?..Y?..Y?..
   800e4:	59 3f 08 00 59 3f 08 00 59 3f 08 00 59 3f 08 00     Y?..Y?..Y?..Y?..

000800f4 <__do_global_dtors_aux>:
   800f4:	b510      	push	{r4, lr}
   800f6:	4c05      	ldr	r4, [pc, #20]	; (8010c <__do_global_dtors_aux+0x18>)
   800f8:	7823      	ldrb	r3, [r4, #0]
   800fa:	b933      	cbnz	r3, 8010a <__do_global_dtors_aux+0x16>
   800fc:	4b04      	ldr	r3, [pc, #16]	; (80110 <__do_global_dtors_aux+0x1c>)
   800fe:	b113      	cbz	r3, 80106 <__do_global_dtors_aux+0x12>
   80100:	4804      	ldr	r0, [pc, #16]	; (80114 <__do_global_dtors_aux+0x20>)
   80102:	f3af 8000 	nop.w
   80106:	2301      	movs	r3, #1
   80108:	7023      	strb	r3, [r4, #0]
   8010a:	bd10      	pop	{r4, pc}
   8010c:	20070b70 	.word	0x20070b70
   80110:	00000000 	.word	0x00000000
   80114:	00088bec 	.word	0x00088bec

00080118 <frame_dummy>:
   80118:	4b0c      	ldr	r3, [pc, #48]	; (8014c <frame_dummy+0x34>)
   8011a:	b143      	cbz	r3, 8012e <frame_dummy+0x16>
   8011c:	480c      	ldr	r0, [pc, #48]	; (80150 <frame_dummy+0x38>)
   8011e:	b510      	push	{r4, lr}
   80120:	490c      	ldr	r1, [pc, #48]	; (80154 <frame_dummy+0x3c>)
   80122:	f3af 8000 	nop.w
   80126:	480c      	ldr	r0, [pc, #48]	; (80158 <frame_dummy+0x40>)
   80128:	6803      	ldr	r3, [r0, #0]
   8012a:	b923      	cbnz	r3, 80136 <frame_dummy+0x1e>
   8012c:	bd10      	pop	{r4, pc}
   8012e:	480a      	ldr	r0, [pc, #40]	; (80158 <frame_dummy+0x40>)
   80130:	6803      	ldr	r3, [r0, #0]
   80132:	b933      	cbnz	r3, 80142 <frame_dummy+0x2a>
   80134:	4770      	bx	lr
   80136:	4b09      	ldr	r3, [pc, #36]	; (8015c <frame_dummy+0x44>)
   80138:	2b00      	cmp	r3, #0
   8013a:	d0f7      	beq.n	8012c <frame_dummy+0x14>
   8013c:	e8bd 4010 	ldmia.w	sp!, {r4, lr}
   80140:	4718      	bx	r3
   80142:	4b06      	ldr	r3, [pc, #24]	; (8015c <frame_dummy+0x44>)
   80144:	2b00      	cmp	r3, #0
   80146:	d0f5      	beq.n	80134 <frame_dummy+0x1c>
   80148:	4718      	bx	r3
   8014a:	bf00      	nop
   8014c:	00000000 	.word	0x00000000
   80150:	00088bec 	.word	0x00088bec
   80154:	20070b74 	.word	0x20070b74
   80158:	00088bec 	.word	0x00088bec
   8015c:	00000000 	.word	0x00000000

00080160 <binaryLEDS>:
#include <stdio.h>
#include "../initializations/pins_init.h"


void binaryLEDS(int number){
	switch(number){
   80160:	2863      	cmp	r0, #99	; 0x63
   80162:	f200 810d 	bhi.w	80380 <binaryLEDS+0x220>
   80166:	e8df f010 	tbh	[pc, r0, lsl #1]
   8016a:	0064      	.short	0x0064
   8016c:	00800072 	.word	0x00800072
   80170:	009c008e 	.word	0x009c008e
   80174:	00b800aa 	.word	0x00b800aa
   80178:	00d400c6 	.word	0x00d400c6
   8017c:	00f000e2 	.word	0x00f000e2
   80180:	010b010b 	.word	0x010b010b
   80184:	010b010b 	.word	0x010b010b
   80188:	010b010b 	.word	0x010b010b
   8018c:	010b010b 	.word	0x010b010b
   80190:	010b010b 	.word	0x010b010b
   80194:	010b010b 	.word	0x010b010b
   80198:	010b010b 	.word	0x010b010b
   8019c:	010b010b 	.word	0x010b010b
   801a0:	010b010b 	.word	0x010b010b
   801a4:	010b010b 	.word	0x010b010b
   801a8:	010b010b 	.word	0x010b010b
   801ac:	010b010b 	.word	0x010b010b
   801b0:	010b010b 	.word	0x010b010b
   801b4:	010b010b 	.word	0x010b010b
   801b8:	010b010b 	.word	0x010b010b
   801bc:	010b010b 	.word	0x010b010b
   801c0:	010b010b 	.word	0x010b010b
   801c4:	010b010b 	.word	0x010b010b
   801c8:	010b010b 	.word	0x010b010b
   801cc:	010b010b 	.word	0x010b010b
   801d0:	010b010b 	.word	0x010b010b
   801d4:	010b010b 	.word	0x010b010b
   801d8:	010b010b 	.word	0x010b010b
   801dc:	010b010b 	.word	0x010b010b
   801e0:	010b010b 	.word	0x010b010b
   801e4:	010b010b 	.word	0x010b010b
   801e8:	010b010b 	.word	0x010b010b
   801ec:	010b010b 	.word	0x010b010b
   801f0:	010b010b 	.word	0x010b010b
   801f4:	010b010b 	.word	0x010b010b
   801f8:	010b010b 	.word	0x010b010b
   801fc:	010b010b 	.word	0x010b010b
   80200:	010b010b 	.word	0x010b010b
   80204:	010b010b 	.word	0x010b010b
   80208:	010b010b 	.word	0x010b010b
   8020c:	010b010b 	.word	0x010b010b
   80210:	010b010b 	.word	0x010b010b
   80214:	010b010b 	.word	0x010b010b
   80218:	010b010b 	.word	0x010b010b
   8021c:	010b010b 	.word	0x010b010b
   80220:	010b010b 	.word	0x010b010b
   80224:	010b010b 	.word	0x010b010b
   80228:	010b010b 	.word	0x010b010b
   8022c:	010b010b 	.word	0x010b010b
   80230:	00fe      	.short	0x00fe
		bool level)
{
	Pio *base = arch_ioport_pin_to_base(pin);

	if (level) {
		base->PIO_SODR = arch_ioport_pin_to_mask(pin);
   80232:	4b54      	ldr	r3, [pc, #336]	; (80384 <binaryLEDS+0x224>)
   80234:	f44f 4200 	mov.w	r2, #32768	; 0x8000
   80238:	631a      	str	r2, [r3, #48]	; 0x30
   8023a:	f44f 4280 	mov.w	r2, #16384	; 0x4000
   8023e:	631a      	str	r2, [r3, #48]	; 0x30
   80240:	f44f 5200 	mov.w	r2, #8192	; 0x2000
   80244:	631a      	str	r2, [r3, #48]	; 0x30
   80246:	f44f 5280 	mov.w	r2, #4096	; 0x1000
   8024a:	631a      	str	r2, [r3, #48]	; 0x30
   8024c:	4770      	bx	lr
   8024e:	4b4d      	ldr	r3, [pc, #308]	; (80384 <binaryLEDS+0x224>)
   80250:	f44f 4200 	mov.w	r2, #32768	; 0x8000
   80254:	631a      	str	r2, [r3, #48]	; 0x30
	} else {
		base->PIO_CODR = arch_ioport_pin_to_mask(pin);
   80256:	f44f 4280 	mov.w	r2, #16384	; 0x4000
   8025a:	635a      	str	r2, [r3, #52]	; 0x34
   8025c:	f44f 5200 	mov.w	r2, #8192	; 0x2000
   80260:	635a      	str	r2, [r3, #52]	; 0x34
   80262:	f44f 5280 	mov.w	r2, #4096	; 0x1000
   80266:	635a      	str	r2, [r3, #52]	; 0x34
   80268:	4770      	bx	lr
   8026a:	4b46      	ldr	r3, [pc, #280]	; (80384 <binaryLEDS+0x224>)
   8026c:	f44f 4200 	mov.w	r2, #32768	; 0x8000
   80270:	635a      	str	r2, [r3, #52]	; 0x34
		base->PIO_SODR = arch_ioport_pin_to_mask(pin);
   80272:	f44f 4280 	mov.w	r2, #16384	; 0x4000
   80276:	631a      	str	r2, [r3, #48]	; 0x30
		base->PIO_CODR = arch_ioport_pin_to_mask(pin);
   80278:	f44f 5200 	mov.w	r2, #8192	; 0x2000
   8027c:	635a      	str	r2, [r3, #52]	; 0x34
   8027e:	f44f 5280 	mov.w	r2, #4096	; 0x1000
   80282:	635a      	str	r2, [r3, #52]	; 0x34
   80284:	4770      	bx	lr
		base->PIO_SODR = arch_ioport_pin_to_mask(pin);
   80286:	4b3f      	ldr	r3, [pc, #252]	; (80384 <binaryLEDS+0x224>)
   80288:	f44f 4200 	mov.w	r2, #32768	; 0x8000
   8028c:	631a      	str	r2, [r3, #48]	; 0x30
   8028e:	f44f 4280 	mov.w	r2, #16384	; 0x4000
   80292:	631a      	str	r2, [r3, #48]	; 0x30
		base->PIO_CODR = arch_ioport_pin_to_mask(pin);
   80294:	f44f 5200 	mov.w	r2, #8192	; 0x2000
   80298:	635a      	str	r2, [r3, #52]	; 0x34
   8029a:	f44f 5280 	mov.w	r2, #4096	; 0x1000
   8029e:	635a      	str	r2, [r3, #52]	; 0x34
   802a0:	4770      	bx	lr
   802a2:	4b38      	ldr	r3, [pc, #224]	; (80384 <binaryLEDS+0x224>)
   802a4:	f44f 4200 	mov.w	r2, #32768	; 0x8000
   802a8:	635a      	str	r2, [r3, #52]	; 0x34
   802aa:	f44f 4280 	mov.w	r2, #16384	; 0x4000
   802ae:	635a      	str	r2, [r3, #52]	; 0x34
		base->PIO_SODR = arch_ioport_pin_to_mask(pin);
   802b0:	f44f 5200 	mov.w	r2, #8192	; 0x2000
   802b4:	631a      	str	r2, [r3, #48]	; 0x30
		base->PIO_CODR = arch_ioport_pin_to_mask(pin);
   802b6:	f44f 5280 	mov.w	r2, #4096	; 0x1000
   802ba:	635a      	str	r2, [r3, #52]	; 0x34
   802bc:	4770      	bx	lr
		base->PIO_SODR = arch_ioport_pin_to_mask(pin);
   802be:	4b31      	ldr	r3, [pc, #196]	; (80384 <binaryLEDS+0x224>)
   802c0:	f44f 4200 	mov.w	r2, #32768	; 0x8000
   802c4:	631a      	str	r2, [r3, #48]	; 0x30
		base->PIO_CODR = arch_ioport_pin_to_mask(pin);
   802c6:	f44f 4280 	mov.w	r2, #16384	; 0x4000
   802ca:	635a      	str	r2, [r3, #52]	; 0x34
		base->PIO_SODR = arch_ioport_pin_to_mask(pin);
   802cc:	f44f 5200 	mov.w	r2, #8192	; 0x2000
   802d0:	631a      	str	r2, [r3, #48]	; 0x30
		base->PIO_CODR = arch_ioport_pin_to_mask(pin);
   802d2:	f44f 5280 	mov.w	r2, #4096	; 0x1000
   802d6:	635a      	str	r2, [r3, #52]	; 0x34
   802d8:	4770      	bx	lr
   802da:	4b2a      	ldr	r3, [pc, #168]	; (80384 <binaryLEDS+0x224>)
   802dc:	f44f 4200 	mov.w	r2, #32768	; 0x8000
   802e0:	635a      	str	r2, [r3, #52]	; 0x34
		base->PIO_SODR = arch_ioport_pin_to_mask(pin);
   802e2:	f44f 4280 	mov.w	r2, #16384	; 0x4000
   802e6:	631a      	str	r2, [r3, #48]	; 0x30
   802e8:	f44f 5200 	mov.w	r2, #8192	; 0x2000
   802ec:	631a      	str	r2, [r3, #48]	; 0x30
		base->PIO_CODR = arch_ioport_pin_to_mask(pin);
   802ee:	f44f 5280 	mov.w	r2, #4096	; 0x1000
   802f2:	635a      	str	r2, [r3, #52]	; 0x34
   802f4:	4770      	bx	lr
		base->PIO_SODR = arch_ioport_pin_to_mask(pin);
   802f6:	4b23      	ldr	r3, [pc, #140]	; (80384 <binaryLEDS+0x224>)
   802f8:	f44f 4200 	mov.w	r2, #32768	; 0x8000
   802fc:	631a      	str	r2, [r3, #48]	; 0x30
   802fe:	f44f 4280 	mov.w	r2, #16384	; 0x4000
   80302:	631a      	str	r2, [r3, #48]	; 0x30
   80304:	f44f 5200 	mov.w	r2, #8192	; 0x2000
   80308:	631a      	str	r2, [r3, #48]	; 0x30
		base->PIO_CODR = arch_ioport_pin_to_mask(pin);
   8030a:	f44f 5280 	mov.w	r2, #4096	; 0x1000
   8030e:	635a      	str	r2, [r3, #52]	; 0x34
   80310:	4770      	bx	lr
   80312:	4b1c      	ldr	r3, [pc, #112]	; (80384 <binaryLEDS+0x224>)
   80314:	f44f 4200 	mov.w	r2, #32768	; 0x8000
   80318:	635a      	str	r2, [r3, #52]	; 0x34
   8031a:	f44f 4280 	mov.w	r2, #16384	; 0x4000
   8031e:	635a      	str	r2, [r3, #52]	; 0x34
   80320:	f44f 5200 	mov.w	r2, #8192	; 0x2000
   80324:	635a      	str	r2, [r3, #52]	; 0x34
		base->PIO_SODR = arch_ioport_pin_to_mask(pin);
   80326:	f44f 5280 	mov.w	r2, #4096	; 0x1000
   8032a:	631a      	str	r2, [r3, #48]	; 0x30
   8032c:	4770      	bx	lr
   8032e:	4b15      	ldr	r3, [pc, #84]	; (80384 <binaryLEDS+0x224>)
   80330:	f44f 4200 	mov.w	r2, #32768	; 0x8000
   80334:	631a      	str	r2, [r3, #48]	; 0x30
		base->PIO_CODR = arch_ioport_pin_to_mask(pin);
   80336:	f44f 4280 	mov.w	r2, #16384	; 0x4000
   8033a:	635a      	str	r2, [r3, #52]	; 0x34
   8033c:	f44f 5200 	mov.w	r2, #8192	; 0x2000
   80340:	635a      	str	r2, [r3, #52]	; 0x34
		base->PIO_SODR = arch_ioport_pin_to_mask(pin);
   80342:	f44f 5280 	mov.w	r2, #4096	; 0x1000
   80346:	631a      	str	r2, [r3, #48]	; 0x30
   80348:	4770      	bx	lr
		base->PIO_CODR = arch_ioport_pin_to_mask(pin);
   8034a:	4b0e      	ldr	r3, [pc, #56]	; (80384 <binaryLEDS+0x224>)
   8034c:	f44f 4200 	mov.w	r2, #32768	; 0x8000
   80350:	635a      	str	r2, [r3, #52]	; 0x34
		base->PIO_SODR = arch_ioport_pin_to_mask(pin);
   80352:	f44f 4280 	mov.w	r2, #16384	; 0x4000
   80356:	631a      	str	r2, [r3, #48]	; 0x30
		base->PIO_CODR = arch_ioport_pin_to_mask(pin);
   80358:	f44f 5200 	mov.w	r2, #8192	; 0x2000
   8035c:	635a      	str	r2, [r3, #52]	; 0x34
		base->PIO_SODR = arch_ioport_pin_to_mask(pin);
   8035e:	f44f 5280 	mov.w	r2, #4096	; 0x1000
   80362:	631a      	str	r2, [r3, #48]	; 0x30
   80364:	4770      	bx	lr
		base->PIO_CODR = arch_ioport_pin_to_mask(pin);
   80366:	4b07      	ldr	r3, [pc, #28]	; (80384 <binaryLEDS+0x224>)
   80368:	f44f 4200 	mov.w	r2, #32768	; 0x8000
   8036c:	635a      	str	r2, [r3, #52]	; 0x34
   8036e:	f44f 4280 	mov.w	r2, #16384	; 0x4000
   80372:	635a      	str	r2, [r3, #52]	; 0x34
   80374:	f44f 5200 	mov.w	r2, #8192	; 0x2000
   80378:	635a      	str	r2, [r3, #52]	; 0x34
   8037a:	f44f 5280 	mov.w	r2, #4096	; 0x1000
   8037e:	635a      	str	r2, [r3, #52]	; 0x34
   80380:	4770      	bx	lr
   80382:	bf00      	nop
   80384:	400e1200 	.word	0x400e1200

00080388 <setDesiredSpeed>:
float desiredLeftSpeed = 0;
float desiredRightSpeed = 0;
		
		//Sets desired speed for each wheel
		void setDesiredSpeed(float dSpeedL, float dSpeedR){
			desiredLeftSpeed = dSpeedL;
   80388:	4b02      	ldr	r3, [pc, #8]	; (80394 <setDesiredSpeed+0xc>)
   8038a:	6018      	str	r0, [r3, #0]
			desiredRightSpeed = dSpeedR;		
   8038c:	4b02      	ldr	r3, [pc, #8]	; (80398 <setDesiredSpeed+0x10>)
   8038e:	6019      	str	r1, [r3, #0]
   80390:	4770      	bx	lr
   80392:	bf00      	nop
   80394:	20070b8c 	.word	0x20070b8c
   80398:	20070b90 	.word	0x20070b90

0008039c <getDesiredSpeedLeft>:
		}
		
		//Returns the desired speed for left wheel
		float getDesiredSpeedLeft(){
			return desiredLeftSpeed;
		}
   8039c:	4b01      	ldr	r3, [pc, #4]	; (803a4 <getDesiredSpeedLeft+0x8>)
   8039e:	6818      	ldr	r0, [r3, #0]
   803a0:	4770      	bx	lr
   803a2:	bf00      	nop
   803a4:	20070b8c 	.word	0x20070b8c

000803a8 <getDesiredSpeedRight>:
		//Returns the desired speed for right wheel
		float getDesiredSpeedRight(){
			return desiredRightSpeed;
		}
   803a8:	4b01      	ldr	r3, [pc, #4]	; (803b0 <getDesiredSpeedRight+0x8>)
   803aa:	6818      	ldr	r0, [r3, #0]
   803ac:	4770      	bx	lr
   803ae:	bf00      	nop
   803b0:	20070b90 	.word	0x20070b90

000803b4 <driveCm>:
		//Returns the difference between the actual position of the robot and the disposal box where the object will be dropped of
		int getDistanceToDropOff(){
			return sqrt(pow(abs(getPositionX()-getDisposalX()),2) +pow(abs(getPositionY()-getDisposalY()),2));
		}

		void driveCm(float cm,float velocity) {
   803b4:	e92d 43f8 	stmdb	sp!, {r3, r4, r5, r6, r7, r8, r9, lr}
   803b8:	4681      	mov	r9, r0
   803ba:	460c      	mov	r4, r1
			float startline = getDisplacementAverage();
   803bc:	4b0f      	ldr	r3, [pc, #60]	; (803fc <driveCm+0x48>)
   803be:	4798      	blx	r3
   803c0:	4680      	mov	r8, r0
			while((abs(getDisplacementAverage()-startline))<cm){
   803c2:	4f0e      	ldr	r7, [pc, #56]	; (803fc <driveCm+0x48>)
   803c4:	4e0e      	ldr	r6, [pc, #56]	; (80400 <driveCm+0x4c>)
   803c6:	4d0f      	ldr	r5, [pc, #60]	; (80404 <driveCm+0x50>)
   803c8:	e003      	b.n	803d2 <driveCm+0x1e>
				drive(velocity,velocity);
   803ca:	4621      	mov	r1, r4
   803cc:	4620      	mov	r0, r4
   803ce:	4b0e      	ldr	r3, [pc, #56]	; (80408 <driveCm+0x54>)
   803d0:	4798      	blx	r3
			while((abs(getDisplacementAverage()-startline))<cm){
   803d2:	47b8      	blx	r7
   803d4:	4641      	mov	r1, r8
   803d6:	47b0      	blx	r6
   803d8:	47a8      	blx	r5
   803da:	2800      	cmp	r0, #0
   803dc:	bfb8      	it	lt
   803de:	4240      	neglt	r0, r0
   803e0:	4b0a      	ldr	r3, [pc, #40]	; (8040c <driveCm+0x58>)
   803e2:	4798      	blx	r3
   803e4:	4649      	mov	r1, r9
   803e6:	4b0a      	ldr	r3, [pc, #40]	; (80410 <driveCm+0x5c>)
   803e8:	4798      	blx	r3
   803ea:	2800      	cmp	r0, #0
   803ec:	d1ed      	bne.n	803ca <driveCm+0x16>
			}	
			drive(0,0);
   803ee:	2000      	movs	r0, #0
   803f0:	4601      	mov	r1, r0
   803f2:	4b05      	ldr	r3, [pc, #20]	; (80408 <driveCm+0x54>)
   803f4:	4798      	blx	r3
   803f6:	e8bd 83f8 	ldmia.w	sp!, {r3, r4, r5, r6, r7, r8, r9, pc}
   803fa:	bf00      	nop
   803fc:	00081229 	.word	0x00081229
   80400:	000850d9 	.word	0x000850d9
   80404:	00085679 	.word	0x00085679
   80408:	00081ded 	.word	0x00081ded
   8040c:	00085245 	.word	0x00085245
   80410:	00085629 	.word	0x00085629
   80414:	00000000 	.word	0x00000000

00080418 <rotate>:
		}

		void rotate(int degree) { //degree 1 - 180 or -1 - -180
   80418:	e92d 47f0 	stmdb	sp!, {r4, r5, r6, r7, r8, r9, sl, lr}
			//resetCounter();
			float radian = (degree * PI) / 180;
   8041c:	4b30      	ldr	r3, [pc, #192]	; (804e0 <rotate+0xc8>)
   8041e:	4798      	blx	r3
   80420:	4c30      	ldr	r4, [pc, #192]	; (804e4 <rotate+0xcc>)
   80422:	a329      	add	r3, pc, #164	; (adr r3, 804c8 <rotate+0xb0>)
   80424:	e9d3 2300 	ldrd	r2, r3, [r3]
   80428:	47a0      	blx	r4
   8042a:	4e2f      	ldr	r6, [pc, #188]	; (804e8 <rotate+0xd0>)
   8042c:	2200      	movs	r2, #0
   8042e:	4b2f      	ldr	r3, [pc, #188]	; (804ec <rotate+0xd4>)
   80430:	47b0      	blx	r6
   80432:	4b2f      	ldr	r3, [pc, #188]	; (804f0 <rotate+0xd8>)
   80434:	4798      	blx	r3
   80436:	4605      	mov	r5, r0
			int p = (radian * 0.4 * 144) / (PI * 0.16);
			int pLStart = getPulsesSinceStartLeft();
   80438:	4b2e      	ldr	r3, [pc, #184]	; (804f4 <rotate+0xdc>)
   8043a:	4798      	blx	r3
   8043c:	4607      	mov	r7, r0
			int pRStart = getPulsesSinceStartRight();
   8043e:	4b2e      	ldr	r3, [pc, #184]	; (804f8 <rotate+0xe0>)
   80440:	4798      	blx	r3
   80442:	4680      	mov	r8, r0
			int p = (radian * 0.4 * 144) / (PI * 0.16);
   80444:	4628      	mov	r0, r5
   80446:	4b2d      	ldr	r3, [pc, #180]	; (804fc <rotate+0xe4>)
   80448:	4798      	blx	r3
   8044a:	a321      	add	r3, pc, #132	; (adr r3, 804d0 <rotate+0xb8>)
   8044c:	e9d3 2300 	ldrd	r2, r3, [r3]
   80450:	47a0      	blx	r4
   80452:	2200      	movs	r2, #0
   80454:	4b2a      	ldr	r3, [pc, #168]	; (80500 <rotate+0xe8>)
   80456:	47a0      	blx	r4
   80458:	a31f      	add	r3, pc, #124	; (adr r3, 804d8 <rotate+0xc0>)
   8045a:	e9d3 2300 	ldrd	r2, r3, [r3]
   8045e:	47b0      	blx	r6
   80460:	4b28      	ldr	r3, [pc, #160]	; (80504 <rotate+0xec>)
   80462:	4798      	blx	r3
			while((getPulsesSinceStartLeft() - pLStart) < p/2 && (getPulsesSinceStartRight() - pRStart) < p/2) {
   80464:	eb00 70d0 	add.w	r0, r0, r0, lsr #31
   80468:	1044      	asrs	r4, r0, #1
				if(radian > 0) {
   8046a:	2600      	movs	r6, #0
					drive(-100,100);
					} else if(radian < 0) {
					drive(100,-100);
   8046c:	f8df a0a4 	ldr.w	sl, [pc, #164]	; 80514 <rotate+0xfc>
   80470:	f8df 90a4 	ldr.w	r9, [pc, #164]	; 80518 <rotate+0x100>
			while((getPulsesSinceStartLeft() - pLStart) < p/2 && (getPulsesSinceStartRight() - pRStart) < p/2) {
   80474:	e004      	b.n	80480 <rotate+0x68>
					} else if(radian < 0) {
   80476:	4631      	mov	r1, r6
   80478:	4628      	mov	r0, r5
   8047a:	4b23      	ldr	r3, [pc, #140]	; (80508 <rotate+0xf0>)
   8047c:	4798      	blx	r3
   8047e:	b9a8      	cbnz	r0, 804ac <rotate+0x94>
			while((getPulsesSinceStartLeft() - pLStart) < p/2 && (getPulsesSinceStartRight() - pRStart) < p/2) {
   80480:	4b1c      	ldr	r3, [pc, #112]	; (804f4 <rotate+0xdc>)
   80482:	4798      	blx	r3
   80484:	1bc0      	subs	r0, r0, r7
   80486:	42a0      	cmp	r0, r4
   80488:	da15      	bge.n	804b6 <rotate+0x9e>
   8048a:	4b1b      	ldr	r3, [pc, #108]	; (804f8 <rotate+0xe0>)
   8048c:	4798      	blx	r3
   8048e:	eba0 0008 	sub.w	r0, r0, r8
   80492:	4284      	cmp	r4, r0
   80494:	dd0f      	ble.n	804b6 <rotate+0x9e>
				if(radian > 0) {
   80496:	4631      	mov	r1, r6
   80498:	4628      	mov	r0, r5
   8049a:	4b1c      	ldr	r3, [pc, #112]	; (8050c <rotate+0xf4>)
   8049c:	4798      	blx	r3
   8049e:	2800      	cmp	r0, #0
   804a0:	d0e9      	beq.n	80476 <rotate+0x5e>
					drive(-100,100);
   804a2:	4649      	mov	r1, r9
   804a4:	4650      	mov	r0, sl
   804a6:	4b1a      	ldr	r3, [pc, #104]	; (80510 <rotate+0xf8>)
   804a8:	4798      	blx	r3
   804aa:	e7e9      	b.n	80480 <rotate+0x68>
					drive(100,-100);
   804ac:	4651      	mov	r1, sl
   804ae:	4648      	mov	r0, r9
   804b0:	4b17      	ldr	r3, [pc, #92]	; (80510 <rotate+0xf8>)
   804b2:	4798      	blx	r3
   804b4:	e7e4      	b.n	80480 <rotate+0x68>
				}
			}
			drive(0,0);
   804b6:	2000      	movs	r0, #0
   804b8:	4601      	mov	r1, r0
   804ba:	4b15      	ldr	r3, [pc, #84]	; (80510 <rotate+0xf8>)
   804bc:	4798      	blx	r3
   804be:	e8bd 87f0 	ldmia.w	sp!, {r4, r5, r6, r7, r8, r9, sl, pc}
   804c2:	bf00      	nop
   804c4:	f3af 8000 	nop.w
   804c8:	53c8d4f1 	.word	0x53c8d4f1
   804cc:	400921fb 	.word	0x400921fb
   804d0:	9999999a 	.word	0x9999999a
   804d4:	3fd99999 	.word	0x3fd99999
   804d8:	91c8365d 	.word	0x91c8365d
   804dc:	3fe015bf 	.word	0x3fe015bf
   804e0:	000849e1 	.word	0x000849e1
   804e4:	00084aad 	.word	0x00084aad
   804e8:	00084d01 	.word	0x00084d01
   804ec:	40668000 	.word	0x40668000
   804f0:	00085031 	.word	0x00085031
   804f4:	000811c9 	.word	0x000811c9
   804f8:	000811d5 	.word	0x000811d5
   804fc:	00084a05 	.word	0x00084a05
   80500:	40620000 	.word	0x40620000
   80504:	00084fe1 	.word	0x00084fe1
   80508:	00085629 	.word	0x00085629
   8050c:	00085665 	.word	0x00085665
   80510:	00081ded 	.word	0x00081ded
   80514:	c2c80000 	.word	0xc2c80000
   80518:	42c80000 	.word	0x42c80000
   8051c:	00000000 	.word	0x00000000

00080520 <getAngle>:
					drive(((-1)*angVel),angVel);
			} 
			drive(0,0);
		}
		*/
		int getAngle(int p1X, int p1Y, int p2X, int p2Y) {
   80520:	e92d 41f0 	stmdb	sp!, {r4, r5, r6, r7, r8, lr}
   80524:	4688      	mov	r8, r1
   80526:	461d      	mov	r5, r3
			// atan2 returns angle in radians, we multiply by (180/PI) to change it to degrees and add 180 to change the reference
			int angle = (int)((atan2(p1Y-p2Y, p1X-p2X) * (180/M_PI)) + 180);
   80528:	4c11      	ldr	r4, [pc, #68]	; (80570 <getAngle+0x50>)
   8052a:	1a80      	subs	r0, r0, r2
   8052c:	47a0      	blx	r4
   8052e:	4606      	mov	r6, r0
   80530:	460f      	mov	r7, r1
   80532:	eba8 0005 	sub.w	r0, r8, r5
   80536:	47a0      	blx	r4
   80538:	4632      	mov	r2, r6
   8053a:	463b      	mov	r3, r7
   8053c:	4c0d      	ldr	r4, [pc, #52]	; (80574 <getAngle+0x54>)
   8053e:	47a0      	blx	r4
   80540:	a309      	add	r3, pc, #36	; (adr r3, 80568 <getAngle+0x48>)
   80542:	e9d3 2300 	ldrd	r2, r3, [r3]
   80546:	4c0c      	ldr	r4, [pc, #48]	; (80578 <getAngle+0x58>)
   80548:	47a0      	blx	r4
   8054a:	2200      	movs	r2, #0
   8054c:	4b0b      	ldr	r3, [pc, #44]	; (8057c <getAngle+0x5c>)
   8054e:	4c0c      	ldr	r4, [pc, #48]	; (80580 <getAngle+0x60>)
   80550:	47a0      	blx	r4
   80552:	4b0c      	ldr	r3, [pc, #48]	; (80584 <getAngle+0x64>)
   80554:	4798      	blx	r3
			if(angle == 360)
				angle = 0;
   80556:	f5b0 7fb4 	cmp.w	r0, #360	; 0x168
			return angle;
		}
   8055a:	bf08      	it	eq
   8055c:	2000      	moveq	r0, #0
   8055e:	e8bd 81f0 	ldmia.w	sp!, {r4, r5, r6, r7, r8, pc}
   80562:	bf00      	nop
   80564:	f3af 8000 	nop.w
   80568:	1a63c1f8 	.word	0x1a63c1f8
   8056c:	404ca5dc 	.word	0x404ca5dc
   80570:	000849e1 	.word	0x000849e1
   80574:	00084215 	.word	0x00084215
   80578:	00084aad 	.word	0x00084aad
   8057c:	40668000 	.word	0x40668000
   80580:	00084749 	.word	0x00084749
   80584:	00084fe1 	.word	0x00084fe1

00080588 <angleCorrection>:
	
	
		float angleCorrection(int rX,int rY,int cX,int cY,int u1) { // r = robotic position, c = coordinate position, u1 = angle of robot.
   80588:	e92d 41f0 	stmdb	sp!, {r4, r5, r6, r7, r8, lr}
   8058c:	4688      	mov	r8, r1
   8058e:	461d      	mov	r5, r3
		// atan2 returns angle in radians, we multiply by (180/PI) to change it to degrees and add 180 to change the reference

		
			int v1 = atan2(rY-cY, rX-cX) *(180/M_PI) + 180; // the angle we want to change.
   80590:	4c17      	ldr	r4, [pc, #92]	; (805f0 <angleCorrection+0x68>)
   80592:	1a80      	subs	r0, r0, r2
   80594:	47a0      	blx	r4
   80596:	4606      	mov	r6, r0
   80598:	460f      	mov	r7, r1
   8059a:	eba8 0005 	sub.w	r0, r8, r5
   8059e:	47a0      	blx	r4
   805a0:	4632      	mov	r2, r6
   805a2:	463b      	mov	r3, r7
   805a4:	4c13      	ldr	r4, [pc, #76]	; (805f4 <angleCorrection+0x6c>)
   805a6:	47a0      	blx	r4
   805a8:	a30f      	add	r3, pc, #60	; (adr r3, 805e8 <angleCorrection+0x60>)
   805aa:	e9d3 2300 	ldrd	r2, r3, [r3]
   805ae:	4c12      	ldr	r4, [pc, #72]	; (805f8 <angleCorrection+0x70>)
   805b0:	47a0      	blx	r4
   805b2:	2200      	movs	r2, #0
   805b4:	4b11      	ldr	r3, [pc, #68]	; (805fc <angleCorrection+0x74>)
   805b6:	4c12      	ldr	r4, [pc, #72]	; (80600 <angleCorrection+0x78>)
   805b8:	47a0      	blx	r4
   805ba:	4b12      	ldr	r3, [pc, #72]	; (80604 <angleCorrection+0x7c>)
   805bc:	4798      	blx	r3
		// The method "rotate" does only take values in the range of 1 to 180 and  -1 to -180. 
		//Because of this we have to check the value that where suppose to be returned and change it with a shift to make it in the acceptable range.					
			if((v1-u1) > 180)
   805be:	9b06      	ldr	r3, [sp, #24]
   805c0:	1ac0      	subs	r0, r0, r3
   805c2:	28b4      	cmp	r0, #180	; 0xb4
   805c4:	dc08      	bgt.n	805d8 <angleCorrection+0x50>
				return -360 + (v1-u1);
			else if(v1-u1 < -180)
   805c6:	f110 0fb4 	cmn.w	r0, #180	; 0xb4
				return 360+(v1-u1);
   805ca:	bfb8      	it	lt
   805cc:	f500 70b4 	addlt.w	r0, r0, #360	; 0x168
			else
				return (v1-u1);
   805d0:	4b0d      	ldr	r3, [pc, #52]	; (80608 <angleCorrection+0x80>)
   805d2:	4798      	blx	r3
	//skickar så många pulser som behövs för att svänga correctionAngle många grader.
		}
   805d4:	e8bd 81f0 	ldmia.w	sp!, {r4, r5, r6, r7, r8, pc}
				return -360 + (v1-u1);
   805d8:	f5a0 70b4 	sub.w	r0, r0, #360	; 0x168
   805dc:	4b0a      	ldr	r3, [pc, #40]	; (80608 <angleCorrection+0x80>)
   805de:	4798      	blx	r3
   805e0:	e8bd 81f0 	ldmia.w	sp!, {r4, r5, r6, r7, r8, pc}
   805e4:	f3af 8000 	nop.w
   805e8:	1a63c1f8 	.word	0x1a63c1f8
   805ec:	404ca5dc 	.word	0x404ca5dc
   805f0:	000849e1 	.word	0x000849e1
   805f4:	00084215 	.word	0x00084215
   805f8:	00084aad 	.word	0x00084aad
   805fc:	40668000 	.word	0x40668000
   80600:	00084749 	.word	0x00084749
   80604:	00084fe1 	.word	0x00084fe1
   80608:	00085245 	.word	0x00085245

0008060c <controlCenter>:
#define victorydance 9

	
	
void controlCenter(void *pvParamters)
{	
   8060c:	e92d 4ff0 	stmdb	sp!, {r4, r5, r6, r7, r8, r9, sl, fp, lr}
   80610:	b089      	sub	sp, #36	; 0x24
	portTickType xLastWakeTime;
	portTickType xTimeIncrement = ccSampleTime/portTICK_RATE_MS; /* set ticks (xTimeT1) in milliseconds */
	xLastWakeTime = xTaskGetTickCount();					/* the count of ticks since vTaskStartScheduler was called */
   80612:	4bbb      	ldr	r3, [pc, #748]	; (80900 <controlCenter+0x2f4>)
   80614:	4798      	blx	r3
   80616:	9007      	str	r0, [sp, #28]
	int oldPositionX;		// Stores old position in X (State 0)
	int oldPositionY;		// Stores old position in Y (State 0)
	int actualPositionX;		// Stores new position in X (State 1)
	int actualPositionY;		// Stores new position in Y (State 1)
	int objectPositionX = 0;		// Object position X
	int objectPositionY = 0;		// Object position Y
   80618:	2600      	movs	r6, #0
	int current_case = initialization;   //witch case we start on. 
   8061a:	4634      	mov	r4, r6
	int previous_case;
	Bool not_sent;
	
			
	while(1){
		vTaskDelayUntil(&xLastWakeTime, xTimeIncrement); /* constant period, independent of execution time */
   8061c:	f04f 08c8 	mov.w	r8, #200	; 0xc8
   80620:	4fb8      	ldr	r7, [pc, #736]	; (80904 <controlCenter+0x2f8>)
   80622:	4641      	mov	r1, r8
   80624:	a807      	add	r0, sp, #28
   80626:	47b8      	blx	r7
		
		switch(current_case){
   80628:	2c63      	cmp	r4, #99	; 0x63
   8062a:	d8fa      	bhi.n	80622 <controlCenter+0x16>
   8062c:	a301      	add	r3, pc, #4	; (adr r3, 80634 <controlCenter+0x28>)
   8062e:	f853 f024 	ldr.w	pc, [r3, r4, lsl #2]
   80632:	bf00      	nop
   80634:	00080841 	.word	0x00080841
   80638:	000808c1 	.word	0x000808c1
   8063c:	00080995 	.word	0x00080995
   80640:	000809c5 	.word	0x000809c5
   80644:	000809d9 	.word	0x000809d9
   80648:	00080a21 	.word	0x00080a21
   8064c:	00080a8d 	.word	0x00080a8d
   80650:	00080aa7 	.word	0x00080aa7
   80654:	00080ad1 	.word	0x00080ad1
   80658:	00080aed 	.word	0x00080aed
   8065c:	00080623 	.word	0x00080623
   80660:	00080623 	.word	0x00080623
   80664:	00080623 	.word	0x00080623
   80668:	00080623 	.word	0x00080623
   8066c:	00080623 	.word	0x00080623
   80670:	00080623 	.word	0x00080623
   80674:	00080623 	.word	0x00080623
   80678:	00080623 	.word	0x00080623
   8067c:	00080623 	.word	0x00080623
   80680:	00080623 	.word	0x00080623
   80684:	00080623 	.word	0x00080623
   80688:	00080623 	.word	0x00080623
   8068c:	00080623 	.word	0x00080623
   80690:	00080623 	.word	0x00080623
   80694:	00080623 	.word	0x00080623
   80698:	00080623 	.word	0x00080623
   8069c:	00080623 	.word	0x00080623
   806a0:	00080623 	.word	0x00080623
   806a4:	00080623 	.word	0x00080623
   806a8:	00080623 	.word	0x00080623
   806ac:	00080623 	.word	0x00080623
   806b0:	00080623 	.word	0x00080623
   806b4:	00080623 	.word	0x00080623
   806b8:	00080623 	.word	0x00080623
   806bc:	00080623 	.word	0x00080623
   806c0:	00080623 	.word	0x00080623
   806c4:	00080623 	.word	0x00080623
   806c8:	00080623 	.word	0x00080623
   806cc:	00080623 	.word	0x00080623
   806d0:	00080623 	.word	0x00080623
   806d4:	00080623 	.word	0x00080623
   806d8:	00080623 	.word	0x00080623
   806dc:	00080623 	.word	0x00080623
   806e0:	00080623 	.word	0x00080623
   806e4:	00080623 	.word	0x00080623
   806e8:	00080623 	.word	0x00080623
   806ec:	00080623 	.word	0x00080623
   806f0:	00080623 	.word	0x00080623
   806f4:	00080623 	.word	0x00080623
   806f8:	00080623 	.word	0x00080623
   806fc:	00080623 	.word	0x00080623
   80700:	00080623 	.word	0x00080623
   80704:	00080623 	.word	0x00080623
   80708:	00080623 	.word	0x00080623
   8070c:	00080623 	.word	0x00080623
   80710:	00080623 	.word	0x00080623
   80714:	00080623 	.word	0x00080623
   80718:	00080623 	.word	0x00080623
   8071c:	00080623 	.word	0x00080623
   80720:	00080623 	.word	0x00080623
   80724:	00080623 	.word	0x00080623
   80728:	00080623 	.word	0x00080623
   8072c:	00080623 	.word	0x00080623
   80730:	00080623 	.word	0x00080623
   80734:	00080623 	.word	0x00080623
   80738:	00080623 	.word	0x00080623
   8073c:	00080623 	.word	0x00080623
   80740:	00080623 	.word	0x00080623
   80744:	00080623 	.word	0x00080623
   80748:	00080623 	.word	0x00080623
   8074c:	00080623 	.word	0x00080623
   80750:	00080623 	.word	0x00080623
   80754:	00080623 	.word	0x00080623
   80758:	00080623 	.word	0x00080623
   8075c:	00080623 	.word	0x00080623
   80760:	00080623 	.word	0x00080623
   80764:	00080623 	.word	0x00080623
   80768:	00080623 	.word	0x00080623
   8076c:	00080623 	.word	0x00080623
   80770:	00080623 	.word	0x00080623
   80774:	00080623 	.word	0x00080623
   80778:	00080623 	.word	0x00080623
   8077c:	00080623 	.word	0x00080623
   80780:	00080623 	.word	0x00080623
   80784:	00080623 	.word	0x00080623
   80788:	00080623 	.word	0x00080623
   8078c:	00080623 	.word	0x00080623
   80790:	00080623 	.word	0x00080623
   80794:	00080623 	.word	0x00080623
   80798:	00080623 	.word	0x00080623
   8079c:	00080623 	.word	0x00080623
   807a0:	00080623 	.word	0x00080623
   807a4:	00080623 	.word	0x00080623
   807a8:	00080623 	.word	0x00080623
   807ac:	00080623 	.word	0x00080623
   807b0:	00080623 	.word	0x00080623
   807b4:	00080623 	.word	0x00080623
   807b8:	00080623 	.word	0x00080623
   807bc:	00080623 	.word	0x00080623
   807c0:	000807cf 	.word	0x000807cf
			angle = getAngle(oldPositionX,oldPositionY,actualPositionX,actualPositionY);		// Gets angle we are looking at 
			
			printf("startAngle %i\n",angle);
			printf(current_case);
			if(previous_case==initialization)
				current_case = destination_pickup_reference;
   807c4:	2401      	movs	r4, #1
   807c6:	e729      	b.n	8061c <controlCenter+0x10>

			// Reads package to see that the object has been picked up.
			if(read_package(TWI_SLAVE_ADR_PAB) == DATA_READ && !not_sent){
				if(rec_data_pab[0] == 0x14)								// Lift successful
				{
					previous_case = current_case;
   807c8:	46a1      	mov	r9, r4
					current_case = orientation;
   807ca:	2463      	movs	r4, #99	; 0x63
   807cc:	e726      	b.n	8061c <controlCenter+0x10>
			printf("Test_print: Case X entered");
   807ce:	484e      	ldr	r0, [pc, #312]	; (80908 <controlCenter+0x2fc>)
   807d0:	4f4e      	ldr	r7, [pc, #312]	; (8090c <controlCenter+0x300>)
   807d2:	47b8      	blx	r7
			binaryLEDS(10);
   807d4:	200a      	movs	r0, #10
   807d6:	4b4e      	ldr	r3, [pc, #312]	; (80910 <controlCenter+0x304>)
   807d8:	4798      	blx	r3
			vTaskDelay(5000);
   807da:	f241 3088 	movw	r0, #5000	; 0x1388
   807de:	4b4d      	ldr	r3, [pc, #308]	; (80914 <controlCenter+0x308>)
   807e0:	4798      	blx	r3
			oldPositionX = getPositionX();
   807e2:	4d4d      	ldr	r5, [pc, #308]	; (80918 <controlCenter+0x30c>)
   807e4:	47a8      	blx	r5
   807e6:	4682      	mov	sl, r0
			oldPositionY = getPositionY();
   807e8:	f8df 81a0 	ldr.w	r8, [pc, #416]	; 8098c <controlCenter+0x380>
   807ec:	47c0      	blx	r8
   807ee:	9003      	str	r0, [sp, #12]
			printf("before drive");
   807f0:	484a      	ldr	r0, [pc, #296]	; (8091c <controlCenter+0x310>)
   807f2:	47b8      	blx	r7
			driveCm(10,100);		// Drive short distance 10cm with speedPulse 150
   807f4:	494a      	ldr	r1, [pc, #296]	; (80920 <controlCenter+0x314>)
   807f6:	484b      	ldr	r0, [pc, #300]	; (80924 <controlCenter+0x318>)
   807f8:	4b4b      	ldr	r3, [pc, #300]	; (80928 <controlCenter+0x31c>)
   807fa:	4798      	blx	r3
			printf("after drive");
   807fc:	484b      	ldr	r0, [pc, #300]	; (8092c <controlCenter+0x320>)
   807fe:	47b8      	blx	r7
			actualPositionX = getPositionX();
   80800:	47a8      	blx	r5
   80802:	4605      	mov	r5, r0
			actualPositionY = getPositionY();
   80804:	47c0      	blx	r8
   80806:	4680      	mov	r8, r0
   80808:	9002      	str	r0, [sp, #8]
			printf("actualPositionX AF 10cm %i\n",actualPositionX);
   8080a:	4629      	mov	r1, r5
   8080c:	4848      	ldr	r0, [pc, #288]	; (80930 <controlCenter+0x324>)
   8080e:	47b8      	blx	r7
			printf("actualPositionY AF 10cm %i\n",actualPositionY);
   80810:	4641      	mov	r1, r8
   80812:	4848      	ldr	r0, [pc, #288]	; (80934 <controlCenter+0x328>)
   80814:	47b8      	blx	r7
			angle = getAngle(oldPositionX,oldPositionY,actualPositionX,actualPositionY);		// Gets angle we are looking at 
   80816:	4643      	mov	r3, r8
   80818:	462a      	mov	r2, r5
   8081a:	9903      	ldr	r1, [sp, #12]
   8081c:	4650      	mov	r0, sl
   8081e:	f8df 8170 	ldr.w	r8, [pc, #368]	; 80990 <controlCenter+0x384>
   80822:	47c0      	blx	r8
   80824:	4601      	mov	r1, r0
   80826:	9003      	str	r0, [sp, #12]
			printf("startAngle %i\n",angle);
   80828:	4843      	ldr	r0, [pc, #268]	; (80938 <controlCenter+0x32c>)
   8082a:	47b8      	blx	r7
			printf(current_case);
   8082c:	2063      	movs	r0, #99	; 0x63
   8082e:	47b8      	blx	r7
			if(previous_case==initialization)
   80830:	f1b9 0f00 	cmp.w	r9, #0
   80834:	d0c6      	beq.n	807c4 <controlCenter+0x1b8>
				current_case = destination_dropoff_reference;
   80836:	f1b9 0f04 	cmp.w	r9, #4
   8083a:	bf08      	it	eq
   8083c:	2405      	moveq	r4, #5
   8083e:	e6ed      	b.n	8061c <controlCenter+0x10>
			printf("Test_print: Case 0 entered\n");
   80840:	483e      	ldr	r0, [pc, #248]	; (8093c <controlCenter+0x330>)
   80842:	f8df a0c8 	ldr.w	sl, [pc, #200]	; 8090c <controlCenter+0x300>
   80846:	47d0      	blx	sl
			binaryLEDS(0);
   80848:	2000      	movs	r0, #0
   8084a:	4b31      	ldr	r3, [pc, #196]	; (80910 <controlCenter+0x304>)
   8084c:	4798      	blx	r3
			setExtension(1); //skall vara getExtension()
   8084e:	2001      	movs	r0, #1
   80850:	4b3b      	ldr	r3, [pc, #236]	; (80940 <controlCenter+0x334>)
   80852:	4798      	blx	r3
			dropOffPositionX = getDisposalX();
   80854:	4b3b      	ldr	r3, [pc, #236]	; (80944 <controlCenter+0x338>)
   80856:	4798      	blx	r3
   80858:	4680      	mov	r8, r0
			dropOffPositionY = getDisposalY();
   8085a:	4b3b      	ldr	r3, [pc, #236]	; (80948 <controlCenter+0x33c>)
   8085c:	4798      	blx	r3
   8085e:	4607      	mov	r7, r0
			objectPositionX = getPickupX();
   80860:	4b3a      	ldr	r3, [pc, #232]	; (8094c <controlCenter+0x340>)
   80862:	4798      	blx	r3
   80864:	9004      	str	r0, [sp, #16]
			objectPositionY = getPickupY();
   80866:	4b3a      	ldr	r3, [pc, #232]	; (80950 <controlCenter+0x344>)
   80868:	4798      	blx	r3
   8086a:	4606      	mov	r6, r0
			dropOffReferenceX = dropOffPositionX - 15;
   8086c:	f1a8 0b0f 	sub.w	fp, r8, #15
			dropOffReferenceY = dropOffPositionY - 30 - 45/2; 
   80870:	f1a7 0234 	sub.w	r2, r7, #52	; 0x34
   80874:	9205      	str	r2, [sp, #20]
			printf("CC - dropOffPositionX %i\n", dropOffPositionX);	
   80876:	4641      	mov	r1, r8
   80878:	4836      	ldr	r0, [pc, #216]	; (80954 <controlCenter+0x348>)
   8087a:	47d0      	blx	sl
			printf("CC - dropOffPositionY %i\n", dropOffPositionY);	
   8087c:	4639      	mov	r1, r7
   8087e:	4836      	ldr	r0, [pc, #216]	; (80958 <controlCenter+0x34c>)
   80880:	47d0      	blx	sl
			if(objectPositionX > 0 && objectPositionY > 0 && dropOffPositionX  > 0 && dropOffPositionY > 0)  
   80882:	9b04      	ldr	r3, [sp, #16]
   80884:	2b00      	cmp	r3, #0
   80886:	dd17      	ble.n	808b8 <controlCenter+0x2ac>
   80888:	2e00      	cmp	r6, #0
   8088a:	dd15      	ble.n	808b8 <controlCenter+0x2ac>
   8088c:	f1b8 0f00 	cmp.w	r8, #0
   80890:	dd12      	ble.n	808b8 <controlCenter+0x2ac>
   80892:	2f00      	cmp	r7, #0
   80894:	dd10      	ble.n	808b8 <controlCenter+0x2ac>
				printf("SUCCESS: received coordinates!\n");
   80896:	4831      	ldr	r0, [pc, #196]	; (8095c <controlCenter+0x350>)
   80898:	47d0      	blx	sl
				printf("objectPositionX AF %i\n",objectPositionX);
   8089a:	9904      	ldr	r1, [sp, #16]
   8089c:	4830      	ldr	r0, [pc, #192]	; (80960 <controlCenter+0x354>)
   8089e:	47d0      	blx	sl
				printf("objectPositionY AF %i\n",objectPositionY);
   808a0:	4631      	mov	r1, r6
   808a2:	4830      	ldr	r0, [pc, #192]	; (80964 <controlCenter+0x358>)
   808a4:	47d0      	blx	sl
				printf("dropOffPositionX AF %i\n",dropOffPositionX);
   808a6:	4641      	mov	r1, r8
   808a8:	482f      	ldr	r0, [pc, #188]	; (80968 <controlCenter+0x35c>)
   808aa:	47d0      	blx	sl
				printf("dropOffPositionY AF %i\n",dropOffPositionY);
   808ac:	4639      	mov	r1, r7
   808ae:	482f      	ldr	r0, [pc, #188]	; (8096c <controlCenter+0x360>)
   808b0:	47d0      	blx	sl
				previous_case = current_case;
   808b2:	46a1      	mov	r9, r4
				current_case = orientation;
   808b4:	2463      	movs	r4, #99	; 0x63
				printf("dropOffPositionY AF %i\n",dropOffPositionY);
   808b6:	e6b1      	b.n	8061c <controlCenter+0x10>
				printf("ERROR: No coordinates received from MEGA!\n");
   808b8:	482d      	ldr	r0, [pc, #180]	; (80970 <controlCenter+0x364>)
   808ba:	4b14      	ldr	r3, [pc, #80]	; (8090c <controlCenter+0x300>)
   808bc:	4798      	blx	r3
   808be:	e6ad      	b.n	8061c <controlCenter+0x10>
			printf("Test_print: Case 1 entered\n");
   808c0:	482c      	ldr	r0, [pc, #176]	; (80974 <controlCenter+0x368>)
   808c2:	4c12      	ldr	r4, [pc, #72]	; (8090c <controlCenter+0x300>)
   808c4:	47a0      	blx	r4
			binaryLEDS(1);
   808c6:	2001      	movs	r0, #1
   808c8:	4b11      	ldr	r3, [pc, #68]	; (80910 <controlCenter+0x304>)
   808ca:	4798      	blx	r3
			vTaskDelay(5000);		
   808cc:	f241 3088 	movw	r0, #5000	; 0x1388
   808d0:	4b10      	ldr	r3, [pc, #64]	; (80914 <controlCenter+0x308>)
   808d2:	4798      	blx	r3
			correction = angleCorrection(actualPositionX,actualPositionY,actualPositionX+20,actualPositionY,angle);
   808d4:	9b03      	ldr	r3, [sp, #12]
   808d6:	9300      	str	r3, [sp, #0]
   808d8:	9902      	ldr	r1, [sp, #8]
   808da:	460b      	mov	r3, r1
   808dc:	f105 0214 	add.w	r2, r5, #20
   808e0:	4628      	mov	r0, r5
   808e2:	4d25      	ldr	r5, [pc, #148]	; (80978 <controlCenter+0x36c>)
   808e4:	47a8      	blx	r5
   808e6:	4b25      	ldr	r3, [pc, #148]	; (8097c <controlCenter+0x370>)
   808e8:	4798      	blx	r3
   808ea:	4605      	mov	r5, r0
			printf("%i", correction);
   808ec:	4601      	mov	r1, r0
   808ee:	4824      	ldr	r0, [pc, #144]	; (80980 <controlCenter+0x374>)
   808f0:	47a0      	blx	r4
			rotate(correction);	
   808f2:	4628      	mov	r0, r5
   808f4:	4b23      	ldr	r3, [pc, #140]	; (80984 <controlCenter+0x378>)
   808f6:	4798      	blx	r3
			printf("END");
   808f8:	4823      	ldr	r0, [pc, #140]	; (80988 <controlCenter+0x37c>)
   808fa:	47a0      	blx	r4
   808fc:	e7fe      	b.n	808fc <controlCenter+0x2f0>
   808fe:	bf00      	nop
   80900:	00082f1d 	.word	0x00082f1d
   80904:	00083185 	.word	0x00083185
   80908:	000885a8 	.word	0x000885a8
   8090c:	00085715 	.word	0x00085715
   80910:	00080161 	.word	0x00080161
   80914:	00083211 	.word	0x00083211
   80918:	00080c6d 	.word	0x00080c6d
   8091c:	000885c4 	.word	0x000885c4
   80920:	42c80000 	.word	0x42c80000
   80924:	41200000 	.word	0x41200000
   80928:	000803b5 	.word	0x000803b5
   8092c:	000885d4 	.word	0x000885d4
   80930:	000885e0 	.word	0x000885e0
   80934:	000885fc 	.word	0x000885fc
   80938:	00088618 	.word	0x00088618
   8093c:	00088628 	.word	0x00088628
   80940:	00080c49 	.word	0x00080c49
   80944:	00080c85 	.word	0x00080c85
   80948:	00080c91 	.word	0x00080c91
   8094c:	00080c55 	.word	0x00080c55
   80950:	00080c61 	.word	0x00080c61
   80954:	00088644 	.word	0x00088644
   80958:	00088660 	.word	0x00088660
   8095c:	0008867c 	.word	0x0008867c
   80960:	0008869c 	.word	0x0008869c
   80964:	000886b4 	.word	0x000886b4
   80968:	000886cc 	.word	0x000886cc
   8096c:	000886e4 	.word	0x000886e4
   80970:	000886fc 	.word	0x000886fc
   80974:	00088728 	.word	0x00088728
   80978:	00080589 	.word	0x00080589
   8097c:	00085679 	.word	0x00085679
   80980:	00088744 	.word	0x00088744
   80984:	00080419 	.word	0x00080419
   80988:	00088748 	.word	0x00088748
   8098c:	00080c79 	.word	0x00080c79
   80990:	00080521 	.word	0x00080521
			printf("Test_print: Case 2 entered");
   80994:	485c      	ldr	r0, [pc, #368]	; (80b08 <controlCenter+0x4fc>)
   80996:	4b5d      	ldr	r3, [pc, #372]	; (80b0c <controlCenter+0x500>)
   80998:	4798      	blx	r3
			binaryLEDS(2);
   8099a:	2002      	movs	r0, #2
   8099c:	4b5c      	ldr	r3, [pc, #368]	; (80b10 <controlCenter+0x504>)
   8099e:	4798      	blx	r3
			float cmToSensorZone = (float)(objectPositionY-getPositionY()-20-sensorZoneDepth-22.5); 
   809a0:	4b5c      	ldr	r3, [pc, #368]	; (80b14 <controlCenter+0x508>)
   809a2:	4798      	blx	r3
   809a4:	1a30      	subs	r0, r6, r0
   809a6:	381e      	subs	r0, #30
   809a8:	4b5b      	ldr	r3, [pc, #364]	; (80b18 <controlCenter+0x50c>)
   809aa:	4798      	blx	r3
   809ac:	2200      	movs	r2, #0
   809ae:	4b5b      	ldr	r3, [pc, #364]	; (80b1c <controlCenter+0x510>)
   809b0:	4f5b      	ldr	r7, [pc, #364]	; (80b20 <controlCenter+0x514>)
   809b2:	47b8      	blx	r7
   809b4:	4b5b      	ldr	r3, [pc, #364]	; (80b24 <controlCenter+0x518>)
   809b6:	4798      	blx	r3
			driveCm(cmToSensorZone,150); //The robot is supposed to be at pickUpSensorPosition
   809b8:	495b      	ldr	r1, [pc, #364]	; (80b28 <controlCenter+0x51c>)
   809ba:	4b5c      	ldr	r3, [pc, #368]	; (80b2c <controlCenter+0x520>)
   809bc:	4798      	blx	r3
			previous_case = current_case;
   809be:	46a1      	mov	r9, r4
			current_case = destination_pickup_zone;
   809c0:	2403      	movs	r4, #3
			break;
   809c2:	e62b      	b.n	8061c <controlCenter+0x10>
			printf("Test_print: Case 3 entered\n");
   809c4:	485a      	ldr	r0, [pc, #360]	; (80b30 <controlCenter+0x524>)
   809c6:	4b51      	ldr	r3, [pc, #324]	; (80b0c <controlCenter+0x500>)
   809c8:	4798      	blx	r3
			binaryLEDS(3);
   809ca:	2003      	movs	r0, #3
   809cc:	4b50      	ldr	r3, [pc, #320]	; (80b10 <controlCenter+0x504>)
   809ce:	4798      	blx	r3
			Navigate();
   809d0:	4b58      	ldr	r3, [pc, #352]	; (80b34 <controlCenter+0x528>)
   809d2:	4798      	blx	r3
			current_case = pickup;
   809d4:	2404      	movs	r4, #4
			break;
   809d6:	e621      	b.n	8061c <controlCenter+0x10>
			printf("Test_print: Case 4 entered\n");
   809d8:	4857      	ldr	r0, [pc, #348]	; (80b38 <controlCenter+0x52c>)
   809da:	4b4c      	ldr	r3, [pc, #304]	; (80b0c <controlCenter+0x500>)
   809dc:	4798      	blx	r3
			binaryLEDS(4);
   809de:	2004      	movs	r0, #4
   809e0:	4b4b      	ldr	r3, [pc, #300]	; (80b10 <controlCenter+0x504>)
   809e2:	4798      	blx	r3
			if(send_package(BORJA_PLOCKA, TWI_SLAVE_ADR_PAB) == DATA_SENT && not_sent){
   809e4:	2108      	movs	r1, #8
   809e6:	2022      	movs	r0, #34	; 0x22
   809e8:	4b54      	ldr	r3, [pc, #336]	; (80b3c <controlCenter+0x530>)
   809ea:	4798      	blx	r3
   809ec:	2801      	cmp	r0, #1
   809ee:	d003      	beq.n	809f8 <controlCenter+0x3ec>
			if(read_package(TWI_SLAVE_ADR_PAB) == DATA_READ && !not_sent){
   809f0:	2008      	movs	r0, #8
   809f2:	4b53      	ldr	r3, [pc, #332]	; (80b40 <controlCenter+0x534>)
   809f4:	4798      	blx	r3
   809f6:	e611      	b.n	8061c <controlCenter+0x10>
				printf("case 3: send_package SUCCESFUL... \n");
   809f8:	4852      	ldr	r0, [pc, #328]	; (80b44 <controlCenter+0x538>)
   809fa:	4b44      	ldr	r3, [pc, #272]	; (80b0c <controlCenter+0x500>)
   809fc:	4798      	blx	r3
			if(read_package(TWI_SLAVE_ADR_PAB) == DATA_READ && !not_sent){
   809fe:	2008      	movs	r0, #8
   80a00:	4b4f      	ldr	r3, [pc, #316]	; (80b40 <controlCenter+0x534>)
   80a02:	4798      	blx	r3
   80a04:	2801      	cmp	r0, #1
   80a06:	f47f ae09 	bne.w	8061c <controlCenter+0x10>
				if(rec_data_pab[0] == 0x14)								// Lift successful
   80a0a:	4b4f      	ldr	r3, [pc, #316]	; (80b48 <controlCenter+0x53c>)
   80a0c:	781b      	ldrb	r3, [r3, #0]
   80a0e:	2b14      	cmp	r3, #20
   80a10:	f43f aeda 	beq.w	807c8 <controlCenter+0x1bc>
				}
				else
				{
					driveCm(10,150);
   80a14:	4944      	ldr	r1, [pc, #272]	; (80b28 <controlCenter+0x51c>)
   80a16:	484d      	ldr	r0, [pc, #308]	; (80b4c <controlCenter+0x540>)
   80a18:	4b44      	ldr	r3, [pc, #272]	; (80b2c <controlCenter+0x520>)
   80a1a:	4798      	blx	r3
					current_case = destination_pickup_zone;
   80a1c:	2403      	movs	r4, #3
   80a1e:	e5fd      	b.n	8061c <controlCenter+0x10>

//¤¤¤¤¤¤¤¤¤¤¤¤¤¤¤¤¤¤¤¤¤¤¤¤¤¤¤¤¤¤¤¤¤¤¤¤¤¤¤¤¤¤¤¤¤¤¤¤¤¤¤¤¤¤¤¤¤¤¤¤¤¤¤¤¤¤¤¤¤¤¤¤¤¤¤¤
///////////////   CASE: 5 DESTINATION DROP OFF REFERENCE   ///////////////////
//¤¤¤¤¤¤¤¤¤¤¤¤¤¤¤¤¤¤¤¤¤¤¤¤¤¤¤¤¤¤¤¤¤¤¤¤¤¤¤¤¤¤¤¤¤¤¤¤¤¤¤¤¤¤¤¤¤¤¤¤¤¤¤¤¤¤¤¤¤¤¤¤¤¤¤¤ 		
			case(destination_dropoff_reference):
			printf("Test_print: Case 5 entered\n");
   80a20:	484b      	ldr	r0, [pc, #300]	; (80b50 <controlCenter+0x544>)
   80a22:	4b3a      	ldr	r3, [pc, #232]	; (80b0c <controlCenter+0x500>)
   80a24:	4798      	blx	r3
			binaryLEDS(5);
   80a26:	2005      	movs	r0, #5
   80a28:	4b39      	ldr	r3, [pc, #228]	; (80b10 <controlCenter+0x504>)
   80a2a:	4798      	blx	r3
			// CAR Section - Will be used in case 1, 4 and 5
			correction = angleCorrection(actualPositionX, actualPositionY, actualPositionX+20, actualPositionY, angle);
   80a2c:	9b03      	ldr	r3, [sp, #12]
   80a2e:	9300      	str	r3, [sp, #0]
   80a30:	9902      	ldr	r1, [sp, #8]
   80a32:	460b      	mov	r3, r1
   80a34:	f105 0214 	add.w	r2, r5, #20
   80a38:	4628      	mov	r0, r5
   80a3a:	4f46      	ldr	r7, [pc, #280]	; (80b54 <controlCenter+0x548>)
   80a3c:	47b8      	blx	r7
   80a3e:	4b46      	ldr	r3, [pc, #280]	; (80b58 <controlCenter+0x54c>)
   80a40:	4798      	blx	r3
			rotate(correction);
   80a42:	4b46      	ldr	r3, [pc, #280]	; (80b5c <controlCenter+0x550>)
   80a44:	4798      	blx	r3
			
			while(getPositionX() < dropOffReferenceX){
   80a46:	f8df 8144 	ldr.w	r8, [pc, #324]	; 80b8c <controlCenter+0x580>
				setDesiredSpeed(150,150);
   80a4a:	4f45      	ldr	r7, [pc, #276]	; (80b60 <controlCenter+0x554>)
			while(getPositionX() < dropOffReferenceX){
   80a4c:	e002      	b.n	80a54 <controlCenter+0x448>
				setDesiredSpeed(150,150);
   80a4e:	4936      	ldr	r1, [pc, #216]	; (80b28 <controlCenter+0x51c>)
   80a50:	4608      	mov	r0, r1
   80a52:	47b8      	blx	r7
			while(getPositionX() < dropOffReferenceX){
   80a54:	47c0      	blx	r8
   80a56:	4583      	cmp	fp, r0
   80a58:	dcf9      	bgt.n	80a4e <controlCenter+0x442>
			}
			setDesiredSpeed(0,0);
   80a5a:	2100      	movs	r1, #0
   80a5c:	4608      	mov	r0, r1
   80a5e:	4b40      	ldr	r3, [pc, #256]	; (80b60 <controlCenter+0x554>)
   80a60:	4798      	blx	r3
			rotate(90);
   80a62:	205a      	movs	r0, #90	; 0x5a
   80a64:	4b3d      	ldr	r3, [pc, #244]	; (80b5c <controlCenter+0x550>)
   80a66:	4798      	blx	r3
			while(getPositionY() < dropOffReferenceY){
   80a68:	f8df 80a8 	ldr.w	r8, [pc, #168]	; 80b14 <controlCenter+0x508>
				setDesiredSpeed(150,150);
   80a6c:	4f3c      	ldr	r7, [pc, #240]	; (80b60 <controlCenter+0x554>)
			while(getPositionY() < dropOffReferenceY){
   80a6e:	e002      	b.n	80a76 <controlCenter+0x46a>
				setDesiredSpeed(150,150);
   80a70:	492d      	ldr	r1, [pc, #180]	; (80b28 <controlCenter+0x51c>)
   80a72:	4608      	mov	r0, r1
   80a74:	47b8      	blx	r7
			while(getPositionY() < dropOffReferenceY){
   80a76:	47c0      	blx	r8
   80a78:	9b05      	ldr	r3, [sp, #20]
   80a7a:	4283      	cmp	r3, r0
   80a7c:	dcf8      	bgt.n	80a70 <controlCenter+0x464>
			}	
			setDesiredSpeed(0,0);
   80a7e:	2100      	movs	r1, #0
   80a80:	4608      	mov	r0, r1
   80a82:	4b37      	ldr	r3, [pc, #220]	; (80b60 <controlCenter+0x554>)
   80a84:	4798      	blx	r3
			previous_case = current_case;
   80a86:	46a1      	mov	r9, r4
			current_case = destination_dropoff_sensorzone;
   80a88:	2406      	movs	r4, #6
			break;
   80a8a:	e5c7      	b.n	8061c <controlCenter+0x10>

//¤¤¤¤¤¤¤¤¤¤¤¤¤¤¤¤¤¤¤¤¤¤¤¤¤¤¤¤¤¤¤¤¤¤¤¤¤¤¤¤¤¤¤¤¤¤¤¤¤¤¤¤¤¤¤¤¤¤¤¤¤¤¤¤¤¤¤¤¤¤¤¤¤¤¤¤
///////////////   CASE: 6 DESTINATION DROP OFF SENSOR ZONE   /////////////////
//¤¤¤¤¤¤¤¤¤¤¤¤¤¤¤¤¤¤¤¤¤¤¤¤¤¤¤¤¤¤¤¤¤¤¤¤¤¤¤¤¤¤¤¤¤¤¤¤¤¤¤¤¤¤¤¤¤¤¤¤¤¤¤¤¤¤¤¤¤¤¤¤¤¤¤¤	
			case(destination_dropoff_sensorzone):
			printf("Test_print: Case 6 entered\n");
   80a8c:	4835      	ldr	r0, [pc, #212]	; (80b64 <controlCenter+0x558>)
   80a8e:	4b1f      	ldr	r3, [pc, #124]	; (80b0c <controlCenter+0x500>)
   80a90:	4798      	blx	r3
			binaryLEDS(6);
   80a92:	2006      	movs	r0, #6
   80a94:	4b1e      	ldr	r3, [pc, #120]	; (80b10 <controlCenter+0x504>)
   80a96:	4798      	blx	r3
			driveCm(15, 150); // kör från referenspunk till skannings avstånd
   80a98:	4923      	ldr	r1, [pc, #140]	; (80b28 <controlCenter+0x51c>)
   80a9a:	4833      	ldr	r0, [pc, #204]	; (80b68 <controlCenter+0x55c>)
   80a9c:	4b23      	ldr	r3, [pc, #140]	; (80b2c <controlCenter+0x520>)
   80a9e:	4798      	blx	r3
			previous_case = current_case;
   80aa0:	46a1      	mov	r9, r4
			current_case = destination_dropoff_zone;
   80aa2:	2407      	movs	r4, #7
			break;
   80aa4:	e5ba      	b.n	8061c <controlCenter+0x10>
			
//¤¤¤¤¤¤¤¤¤¤¤¤¤¤¤¤¤¤¤¤¤¤¤¤¤¤¤¤¤¤¤¤¤¤¤¤¤¤¤¤¤¤¤¤¤¤¤¤¤¤¤¤¤¤¤¤¤¤¤¤¤¤¤¤¤¤¤¤¤¤¤¤¤¤¤¤
///////////////   CASE: 7 DESTINATION DROP OFF ZONE   /////////////////////
//¤¤¤¤¤¤¤¤¤¤¤¤¤¤¤¤¤¤¤¤¤¤¤¤¤¤¤¤¤¤¤¤¤¤¤¤¤¤¤¤¤¤¤¤¤¤¤¤¤¤¤¤¤¤¤¤¤¤¤¤¤¤¤¤¤¤¤¤¤¤¤¤¤¤¤¤
			case(destination_dropoff_zone):
			printf("Test_print: Case 7 entered\n");
   80aa6:	4831      	ldr	r0, [pc, #196]	; (80b6c <controlCenter+0x560>)
   80aa8:	4b18      	ldr	r3, [pc, #96]	; (80b0c <controlCenter+0x500>)
   80aaa:	4798      	blx	r3
			binaryLEDS(7);
   80aac:	2007      	movs	r0, #7
   80aae:	4b18      	ldr	r3, [pc, #96]	; (80b10 <controlCenter+0x504>)
   80ab0:	4798      	blx	r3
			uint8_t dis;
			usTrigM();
   80ab2:	4b2f      	ldr	r3, [pc, #188]	; (80b70 <controlCenter+0x564>)
   80ab4:	4798      	blx	r3
			dis=distansUsM();
   80ab6:	4b2f      	ldr	r3, [pc, #188]	; (80b74 <controlCenter+0x568>)
   80ab8:	4798      	blx	r3
			if (dis >5)
   80aba:	b2c3      	uxtb	r3, r0
   80abc:	2b05      	cmp	r3, #5
   80abe:	f67f adad 	bls.w	8061c <controlCenter+0x10>
				driveCm(dis-5,5);
   80ac2:	1f58      	subs	r0, r3, #5
   80ac4:	4b2c      	ldr	r3, [pc, #176]	; (80b78 <controlCenter+0x56c>)
   80ac6:	4798      	blx	r3
   80ac8:	492c      	ldr	r1, [pc, #176]	; (80b7c <controlCenter+0x570>)
   80aca:	4b18      	ldr	r3, [pc, #96]	; (80b2c <controlCenter+0x520>)
   80acc:	4798      	blx	r3
   80ace:	e5a5      	b.n	8061c <controlCenter+0x10>

//¤¤¤¤¤¤¤¤¤¤¤¤¤¤¤¤¤¤¤¤¤¤¤¤¤¤¤¤¤¤¤¤¤¤¤¤¤¤¤¤¤¤¤¤¤¤¤¤¤¤¤¤¤¤¤¤¤¤¤¤¤¤¤¤¤¤¤¤¤¤¤¤¤¤¤¤
///////////////				CASE: 8 DROP OFF			  ////////////////////
//¤¤¤¤¤¤¤¤¤¤¤¤¤¤¤¤¤¤¤¤¤¤¤¤¤¤¤¤¤¤¤¤¤¤¤¤¤¤¤¤¤¤¤¤¤¤¤¤¤¤¤¤¤¤¤¤¤¤¤¤¤¤¤¤¤¤¤¤¤¤¤¤¤¤¤¤
			case(dropoff):
			printf("Test_print: Case 8 entered\n");
   80ad0:	482b      	ldr	r0, [pc, #172]	; (80b80 <controlCenter+0x574>)
   80ad2:	4b0e      	ldr	r3, [pc, #56]	; (80b0c <controlCenter+0x500>)
   80ad4:	4798      	blx	r3
			binaryLEDS(8);
   80ad6:	2008      	movs	r0, #8
   80ad8:	4b0d      	ldr	r3, [pc, #52]	; (80b10 <controlCenter+0x504>)
   80ada:	4798      	blx	r3
			if(send_package(LAMNA_OBJEKT, TWI_SLAVE_ADR_PAB) == DATA_SENT)
   80adc:	2108      	movs	r1, #8
   80ade:	2025      	movs	r0, #37	; 0x25
   80ae0:	4b16      	ldr	r3, [pc, #88]	; (80b3c <controlCenter+0x530>)
   80ae2:	4798      	blx	r3
			{
				current_case = victorydance;
   80ae4:	2801      	cmp	r0, #1
   80ae6:	bf08      	it	eq
   80ae8:	2409      	moveq	r4, #9
   80aea:	e597      	b.n	8061c <controlCenter+0x10>
			
//¤¤¤¤¤¤¤¤¤¤¤¤¤¤¤¤¤¤¤¤¤¤¤¤¤¤¤¤¤¤¤¤¤¤¤¤¤¤¤¤¤¤¤¤¤¤¤¤¤¤¤¤¤¤¤¤¤¤¤¤¤¤¤¤¤¤¤¤¤¤¤¤¤¤¤¤
///////////////				CASE: 9 VICTORY DANCE			  ////////////////
//¤¤¤¤¤¤¤¤¤¤¤¤¤¤¤¤¤¤¤¤¤¤¤¤¤¤¤¤¤¤¤¤¤¤¤¤¤¤¤¤¤¤¤¤¤¤¤¤¤¤¤¤¤¤¤¤¤¤¤¤¤¤¤¤¤¤¤¤¤¤¤¤¤¤¤¤
			case(victorydance):
			printf("Test_print: Case 8 entered\n");
   80aec:	4824      	ldr	r0, [pc, #144]	; (80b80 <controlCenter+0x574>)
   80aee:	4b07      	ldr	r3, [pc, #28]	; (80b0c <controlCenter+0x500>)
   80af0:	4798      	blx	r3
			binaryLEDS(9);
   80af2:	2009      	movs	r0, #9
   80af4:	4b06      	ldr	r3, [pc, #24]	; (80b10 <controlCenter+0x504>)
   80af6:	4798      	blx	r3
			
			driveCm(-30,450);
   80af8:	4922      	ldr	r1, [pc, #136]	; (80b84 <controlCenter+0x578>)
   80afa:	4823      	ldr	r0, [pc, #140]	; (80b88 <controlCenter+0x57c>)
   80afc:	4b0b      	ldr	r3, [pc, #44]	; (80b2c <controlCenter+0x520>)
   80afe:	4798      	blx	r3
			rotate(180);
   80b00:	20b4      	movs	r0, #180	; 0xb4
   80b02:	4b16      	ldr	r3, [pc, #88]	; (80b5c <controlCenter+0x550>)
   80b04:	4798      	blx	r3
			
			break;	
   80b06:	e589      	b.n	8061c <controlCenter+0x10>
   80b08:	0008874c 	.word	0x0008874c
   80b0c:	00085715 	.word	0x00085715
   80b10:	00080161 	.word	0x00080161
   80b14:	00080c79 	.word	0x00080c79
   80b18:	000849e1 	.word	0x000849e1
   80b1c:	40368000 	.word	0x40368000
   80b20:	00084745 	.word	0x00084745
   80b24:	00085031 	.word	0x00085031
   80b28:	43160000 	.word	0x43160000
   80b2c:	000803b5 	.word	0x000803b5
   80b30:	00088768 	.word	0x00088768
   80b34:	0008137d 	.word	0x0008137d
   80b38:	00088784 	.word	0x00088784
   80b3c:	00081b1d 	.word	0x00081b1d
   80b40:	00081b99 	.word	0x00081b99
   80b44:	000887a0 	.word	0x000887a0
   80b48:	20070c5c 	.word	0x20070c5c
   80b4c:	41200000 	.word	0x41200000
   80b50:	000887c4 	.word	0x000887c4
   80b54:	00080589 	.word	0x00080589
   80b58:	00085679 	.word	0x00085679
   80b5c:	00080419 	.word	0x00080419
   80b60:	00080389 	.word	0x00080389
   80b64:	000887e0 	.word	0x000887e0
   80b68:	41700000 	.word	0x41700000
   80b6c:	000887fc 	.word	0x000887fc
   80b70:	00081259 	.word	0x00081259
   80b74:	00081289 	.word	0x00081289
   80b78:	00085245 	.word	0x00085245
   80b7c:	40a00000 	.word	0x40a00000
   80b80:	00088818 	.word	0x00088818
   80b84:	43e10000 	.word	0x43e10000
   80b88:	c1f00000 	.word	0xc1f00000
   80b8c:	00080c6d 	.word	0x00080c6d

00080b90 <position>:
	int disposalX = 0; //X-coordinates for the disposal area
	int disposalY = 0; //Y-coordinates for the disposal area
	int ex = 0;

void position(void *pvParamters)
{
   80b90:	b570      	push	{r4, r5, r6, lr}
   80b92:	b082      	sub	sp, #8
	printf("inside position task");
   80b94:	481e      	ldr	r0, [pc, #120]	; (80c10 <position+0x80>)
   80b96:	4b1f      	ldr	r3, [pc, #124]	; (80c14 <position+0x84>)
   80b98:	4798      	blx	r3
	portTickType xLastWakeTime;
	portTickType xTimeIncrement = posSampleTime/portTICK_RATE_MS; /* set ticks (xTimeT1) in milliseconds */
	xLastWakeTime = xTaskGetTickCount();					/* the count of ticks since vTaskStartScheduler was called */
   80b9a:	4b1f      	ldr	r3, [pc, #124]	; (80c18 <position+0x88>)
   80b9c:	4798      	blx	r3
   80b9e:	9001      	str	r0, [sp, #4]
	
	while (1) /* the task must be looping infinitely */
	{
		vTaskDelayUntil(&xLastWakeTime, xTimeIncrement); /* constant period, independent of execution time */
   80ba0:	4d1e      	ldr	r5, [pc, #120]	; (80c1c <position+0x8c>)
		if (read_package(TWI_SLAVE_ADR_POS)==DATA_READ) //retrieves data from the positioning-squad
   80ba2:	4c1f      	ldr	r4, [pc, #124]	; (80c20 <position+0x90>)
		{
			disposalX=2*rec_data_pos[0]; //Factor 2 because data sent is divided to save space 
   80ba4:	4e1f      	ldr	r6, [pc, #124]	; (80c24 <position+0x94>)
   80ba6:	e012      	b.n	80bce <position+0x3e>
			//printf("posX %i",rec_data_pos[8]);
			//printf("posY %i",rec_data_pos[9]);
			
			//target byts ut mot getExtensionID om vi har tid, annars hårdkodar vi det
			if(extensionID==1){
				pickupX=2*rec_data_pos[2];
   80ba8:	4a1f      	ldr	r2, [pc, #124]	; (80c28 <position+0x98>)
   80baa:	7893      	ldrb	r3, [r2, #2]
   80bac:	005b      	lsls	r3, r3, #1
   80bae:	491f      	ldr	r1, [pc, #124]	; (80c2c <position+0x9c>)
   80bb0:	600b      	str	r3, [r1, #0]
				pickupY=2*rec_data_pos[3];
   80bb2:	78d3      	ldrb	r3, [r2, #3]
   80bb4:	005b      	lsls	r3, r3, #1
   80bb6:	4a1e      	ldr	r2, [pc, #120]	; (80c30 <position+0xa0>)
   80bb8:	6013      	str	r3, [r2, #0]
   80bba:	e008      	b.n	80bce <position+0x3e>
			}
			else if(extensionID==2){
				pickupX=2*rec_data_pos[6];
   80bbc:	4a1a      	ldr	r2, [pc, #104]	; (80c28 <position+0x98>)
   80bbe:	7993      	ldrb	r3, [r2, #6]
   80bc0:	005b      	lsls	r3, r3, #1
   80bc2:	491a      	ldr	r1, [pc, #104]	; (80c2c <position+0x9c>)
   80bc4:	600b      	str	r3, [r1, #0]
				pickupY=2*rec_data_pos[7];
   80bc6:	79d3      	ldrb	r3, [r2, #7]
   80bc8:	005b      	lsls	r3, r3, #1
   80bca:	4a19      	ldr	r2, [pc, #100]	; (80c30 <position+0xa0>)
   80bcc:	6013      	str	r3, [r2, #0]
		vTaskDelayUntil(&xLastWakeTime, xTimeIncrement); /* constant period, independent of execution time */
   80bce:	21c8      	movs	r1, #200	; 0xc8
   80bd0:	a801      	add	r0, sp, #4
   80bd2:	47a8      	blx	r5
		if (read_package(TWI_SLAVE_ADR_POS)==DATA_READ) //retrieves data from the positioning-squad
   80bd4:	2010      	movs	r0, #16
   80bd6:	47a0      	blx	r4
   80bd8:	2801      	cmp	r0, #1
   80bda:	d1f8      	bne.n	80bce <position+0x3e>
			disposalX=2*rec_data_pos[0]; //Factor 2 because data sent is divided to save space 
   80bdc:	4b12      	ldr	r3, [pc, #72]	; (80c28 <position+0x98>)
   80bde:	781a      	ldrb	r2, [r3, #0]
   80be0:	0052      	lsls	r2, r2, #1
   80be2:	6032      	str	r2, [r6, #0]
			disposalY=2*rec_data_pos[1];
   80be4:	785a      	ldrb	r2, [r3, #1]
   80be6:	0052      	lsls	r2, r2, #1
   80be8:	4912      	ldr	r1, [pc, #72]	; (80c34 <position+0xa4>)
   80bea:	600a      	str	r2, [r1, #0]
			posX=2*rec_data_pos[8];
   80bec:	7a1a      	ldrb	r2, [r3, #8]
   80bee:	0052      	lsls	r2, r2, #1
   80bf0:	4911      	ldr	r1, [pc, #68]	; (80c38 <position+0xa8>)
   80bf2:	600a      	str	r2, [r1, #0]
			posY=2*rec_data_pos[9];
   80bf4:	7a5b      	ldrb	r3, [r3, #9]
   80bf6:	005b      	lsls	r3, r3, #1
   80bf8:	4a10      	ldr	r2, [pc, #64]	; (80c3c <position+0xac>)
   80bfa:	6013      	str	r3, [r2, #0]
			if(extensionID==1){
   80bfc:	4b10      	ldr	r3, [pc, #64]	; (80c40 <position+0xb0>)
   80bfe:	681b      	ldr	r3, [r3, #0]
   80c00:	2b01      	cmp	r3, #1
   80c02:	d0d1      	beq.n	80ba8 <position+0x18>
			else if(extensionID==2){
   80c04:	2b02      	cmp	r3, #2
   80c06:	d0d9      	beq.n	80bbc <position+0x2c>
			}else{
				//possibly add some error handling here;
				printf("ERROR: failed to fetch position data from MEGA\n");
   80c08:	480e      	ldr	r0, [pc, #56]	; (80c44 <position+0xb4>)
   80c0a:	4b02      	ldr	r3, [pc, #8]	; (80c14 <position+0x84>)
   80c0c:	4798      	blx	r3
   80c0e:	e7de      	b.n	80bce <position+0x3e>
   80c10:	00088834 	.word	0x00088834
   80c14:	00085715 	.word	0x00085715
   80c18:	00082f1d 	.word	0x00082f1d
   80c1c:	00083185 	.word	0x00083185
   80c20:	00081b99 	.word	0x00081b99
   80c24:	20070b94 	.word	0x20070b94
   80c28:	20070c60 	.word	0x20070c60
   80c2c:	20070ba0 	.word	0x20070ba0
   80c30:	20070ba4 	.word	0x20070ba4
   80c34:	20070b98 	.word	0x20070b98
   80c38:	20070ba8 	.word	0x20070ba8
   80c3c:	20070bac 	.word	0x20070bac
   80c40:	20070b9c 	.word	0x20070b9c
   80c44:	0008884c 	.word	0x0008884c

00080c48 <setExtension>:
		}
	
	}
}
	void setExtension(int extension){ //sets which item to target
		extensionID=extension;
   80c48:	4b01      	ldr	r3, [pc, #4]	; (80c50 <setExtension+0x8>)
   80c4a:	6018      	str	r0, [r3, #0]
   80c4c:	4770      	bx	lr
   80c4e:	bf00      	nop
   80c50:	20070b9c 	.word	0x20070b9c

00080c54 <getPickupX>:
	}
	int getPickupX(){ //returns the X-coordinates for the pickup
		return pickupX;
	}
   80c54:	4b01      	ldr	r3, [pc, #4]	; (80c5c <getPickupX+0x8>)
   80c56:	6818      	ldr	r0, [r3, #0]
   80c58:	4770      	bx	lr
   80c5a:	bf00      	nop
   80c5c:	20070ba0 	.word	0x20070ba0

00080c60 <getPickupY>:
	int getPickupY(){ //returns the Y-coordinates for the pickup
		return pickupY;
	}
   80c60:	4b01      	ldr	r3, [pc, #4]	; (80c68 <getPickupY+0x8>)
   80c62:	6818      	ldr	r0, [r3, #0]
   80c64:	4770      	bx	lr
   80c66:	bf00      	nop
   80c68:	20070ba4 	.word	0x20070ba4

00080c6c <getPositionX>:
	int getPositionX(){ //returns current X-coordinate
		return posX;
	}
   80c6c:	4b01      	ldr	r3, [pc, #4]	; (80c74 <getPositionX+0x8>)
   80c6e:	6818      	ldr	r0, [r3, #0]
   80c70:	4770      	bx	lr
   80c72:	bf00      	nop
   80c74:	20070ba8 	.word	0x20070ba8

00080c78 <getPositionY>:
	int getPositionY(){ //returns current Y-coordinate
		return posY;
	}
   80c78:	4b01      	ldr	r3, [pc, #4]	; (80c80 <getPositionY+0x8>)
   80c7a:	6818      	ldr	r0, [r3, #0]
   80c7c:	4770      	bx	lr
   80c7e:	bf00      	nop
   80c80:	20070bac 	.word	0x20070bac

00080c84 <getDisposalX>:
	int getDisposalX(){ //returns the X-coordinates for the disposal-area
		return disposalX;
	}
   80c84:	4b01      	ldr	r3, [pc, #4]	; (80c8c <getDisposalX+0x8>)
   80c86:	6818      	ldr	r0, [r3, #0]
   80c88:	4770      	bx	lr
   80c8a:	bf00      	nop
   80c8c:	20070b94 	.word	0x20070b94

00080c90 <getDisposalY>:
	int getDisposalY(){ //returns the Y-coordinates for the disposal-area
		return disposalY;
   80c90:	4b01      	ldr	r3, [pc, #4]	; (80c98 <getDisposalY+0x8>)
   80c92:	6818      	ldr	r0, [r3, #0]
   80c94:	4770      	bx	lr
   80c96:	bf00      	nop
   80c98:	20070b98 	.word	0x20070b98

00080c9c <regulator>:
float	linearSpeedMargin = 5.0;
int	leftTrue = 0;
int	rightTrue = 0;

void regulator(void *pvParamters)
{
   80c9c:	e92d 4ff0 	stmdb	sp!, {r4, r5, r6, r7, r8, r9, sl, fp, lr}
   80ca0:	b08d      	sub	sp, #52	; 0x34
	portTickType xLastWakeTime;
	portTickType xTimeIncrement = sampleTime/portTICK_RATE_MS; /* set ticks (xTimeT1) in milliseconds */
	xLastWakeTime = xTaskGetTickCount();					/* the count of ticks since vTaskStartScheduler was called */
   80ca2:	4b02      	ldr	r3, [pc, #8]	; (80cac <regulator+0x10>)
   80ca4:	4798      	blx	r3
   80ca6:	900b      	str	r0, [sp, #44]	; 0x2c
		//printf("N_RIGHT %li \n",N_Right);
		//printf("N_LEFT %li \n",N_Left);
		//Beräkna distansen som varje hjul färdats
		//printf("RES: %i\n",resolution);
		//printf("CIRC: %i\n",(int)(WheelCircum*doubleToIntFactor));
		distanceLeft = (float)(WheelCircum * N_Left / resolution); //Distans färdad är produkten av hjul revolutioner och omkretsen
   80ca8:	4f01      	ldr	r7, [pc, #4]	; (80cb0 <regulator+0x14>)
   80caa:	e05d      	b.n	80d68 <regulator+0xcc>
   80cac:	00082f1d 	.word	0x00082f1d
   80cb0:	000852ed 	.word	0x000852ed
		//printf("mcPulseLeft BF correction %i\n",(int)(mcPulseLeft*doubleToIntFactor));
		//printf("mcPulseRight BF correction %i\n",(int)(mcPulseRight*doubleToIntFactor));
	
		if( !((int)(mcPulseLeft*doubleToIntFactor) == (int)(getSetLeftSpeed()*doubleToIntFactor) || ((abs(linearLeftActual - linearLeftDesired)>linearSpeedMargin) && !((int)(linearLeftActual*doubleToIntFactor)==(int)(linearRightActual*doubleToIntFactor))))){
					//Begränsa styrvärdet för vänstra motorkontrollerar pulsen till 100-475
			if(mcPulseLeft>475){
   80cb4:	4b90      	ldr	r3, [pc, #576]	; (80ef8 <regulator+0x25c>)
   80cb6:	681d      	ldr	r5, [r3, #0]
   80cb8:	4990      	ldr	r1, [pc, #576]	; (80efc <regulator+0x260>)
   80cba:	4628      	mov	r0, r5
   80cbc:	4b90      	ldr	r3, [pc, #576]	; (80f00 <regulator+0x264>)
   80cbe:	4798      	blx	r3
   80cc0:	2800      	cmp	r0, #0
   80cc2:	f000 821d 	beq.w	81100 <regulator+0x464>
				mcPulseLeft = 475;
   80cc6:	4b8d      	ldr	r3, [pc, #564]	; (80efc <regulator+0x260>)
   80cc8:	4a8b      	ldr	r2, [pc, #556]	; (80ef8 <regulator+0x25c>)
   80cca:	6013      	str	r3, [r2, #0]
			}else if(mcPulseLeft<-475){
				mcPulseLeft = -475;
			}
			leftTrue = 1;
   80ccc:	2201      	movs	r2, #1
   80cce:	4b8d      	ldr	r3, [pc, #564]	; (80f04 <regulator+0x268>)
   80cd0:	601a      	str	r2, [r3, #0]
		}	
																	
		if( !((int)(mcPulseRight*doubleToIntFactor) == (int)(getSetRightSpeed()*doubleToIntFactor) || ((abs(linearRightActual - linearRightDesired)>linearSpeedMargin) && !((int)(linearRightActual*doubleToIntFactor)==(int)(linearLeftActual*doubleToIntFactor))))){
   80cd2:	4b8d      	ldr	r3, [pc, #564]	; (80f08 <regulator+0x26c>)
   80cd4:	6819      	ldr	r1, [r3, #0]
   80cd6:	4620      	mov	r0, r4
   80cd8:	47b8      	blx	r7
   80cda:	4c8c      	ldr	r4, [pc, #560]	; (80f0c <regulator+0x270>)
   80cdc:	47a0      	blx	r4
   80cde:	4606      	mov	r6, r0
   80ce0:	4b8b      	ldr	r3, [pc, #556]	; (80f10 <regulator+0x274>)
   80ce2:	4798      	blx	r3
   80ce4:	4680      	mov	r8, r0
   80ce6:	4b8b      	ldr	r3, [pc, #556]	; (80f14 <regulator+0x278>)
   80ce8:	6818      	ldr	r0, [r3, #0]
   80cea:	4b8b      	ldr	r3, [pc, #556]	; (80f18 <regulator+0x27c>)
   80cec:	4798      	blx	r3
   80cee:	4605      	mov	r5, r0
   80cf0:	4601      	mov	r1, r0
   80cf2:	4640      	mov	r0, r8
   80cf4:	47b8      	blx	r7
   80cf6:	47a0      	blx	r4
   80cf8:	4286      	cmp	r6, r0
   80cfa:	d022      	beq.n	80d42 <regulator+0xa6>
   80cfc:	4b87      	ldr	r3, [pc, #540]	; (80f1c <regulator+0x280>)
   80cfe:	681c      	ldr	r4, [r3, #0]
   80d00:	4b87      	ldr	r3, [pc, #540]	; (80f20 <regulator+0x284>)
   80d02:	6819      	ldr	r1, [r3, #0]
   80d04:	4620      	mov	r0, r4
   80d06:	4b87      	ldr	r3, [pc, #540]	; (80f24 <regulator+0x288>)
   80d08:	4798      	blx	r3
   80d0a:	4b80      	ldr	r3, [pc, #512]	; (80f0c <regulator+0x270>)
   80d0c:	4798      	blx	r3
   80d0e:	2800      	cmp	r0, #0
   80d10:	bfb8      	it	lt
   80d12:	4240      	neglt	r0, r0
   80d14:	4b80      	ldr	r3, [pc, #512]	; (80f18 <regulator+0x27c>)
   80d16:	4798      	blx	r3
   80d18:	4b83      	ldr	r3, [pc, #524]	; (80f28 <regulator+0x28c>)
   80d1a:	6819      	ldr	r1, [r3, #0]
   80d1c:	4b78      	ldr	r3, [pc, #480]	; (80f00 <regulator+0x264>)
   80d1e:	4798      	blx	r3
   80d20:	2800      	cmp	r0, #0
   80d22:	f000 81f8 	beq.w	81116 <regulator+0x47a>
   80d26:	4621      	mov	r1, r4
   80d28:	4628      	mov	r0, r5
   80d2a:	47b8      	blx	r7
   80d2c:	4c77      	ldr	r4, [pc, #476]	; (80f0c <regulator+0x270>)
   80d2e:	47a0      	blx	r4
   80d30:	4606      	mov	r6, r0
   80d32:	4b7e      	ldr	r3, [pc, #504]	; (80f2c <regulator+0x290>)
   80d34:	6819      	ldr	r1, [r3, #0]
   80d36:	4628      	mov	r0, r5
   80d38:	47b8      	blx	r7
   80d3a:	47a0      	blx	r4
   80d3c:	4286      	cmp	r6, r0
   80d3e:	f000 81ea 	beq.w	81116 <regulator+0x47a>
			}
			rightTrue = 1;
		}
		
		//Skicka ut de nya PWM pulserna till motorkontrollerarna
		if(leftTrue){
   80d42:	4b70      	ldr	r3, [pc, #448]	; (80f04 <regulator+0x268>)
   80d44:	681b      	ldr	r3, [r3, #0]
   80d46:	2b00      	cmp	r3, #0
   80d48:	f040 8204 	bne.w	81154 <regulator+0x4b8>
			testDriveL(mcPulseLeft);
		}
		if(rightTrue){
   80d4c:	4b78      	ldr	r3, [pc, #480]	; (80f30 <regulator+0x294>)
   80d4e:	681b      	ldr	r3, [r3, #0]
   80d50:	2b00      	cmp	r3, #0
   80d52:	f040 81f0 	bne.w	81136 <regulator+0x49a>
			testDriveR(mcPulseRight);
		}
		leftTrue = 0;
   80d56:	2300      	movs	r3, #0
   80d58:	4a6a      	ldr	r2, [pc, #424]	; (80f04 <regulator+0x268>)
   80d5a:	6013      	str	r3, [r2, #0]
		rightTrue = 0;
   80d5c:	4a74      	ldr	r2, [pc, #464]	; (80f30 <regulator+0x294>)
   80d5e:	6013      	str	r3, [r2, #0]
   80d60:	f04f 6300 	mov.w	r3, #134217728	; 0x8000000
   80d64:	4a73      	ldr	r2, [pc, #460]	; (80f34 <regulator+0x298>)
   80d66:	6353      	str	r3, [r2, #52]	; 0x34
			vTaskDelayUntil(&xLastWakeTime, xTimeIncrement); //Taskdelay = SampleTime
   80d68:	f44f 7196 	mov.w	r1, #300	; 0x12c
   80d6c:	a80b      	add	r0, sp, #44	; 0x2c
   80d6e:	4b72      	ldr	r3, [pc, #456]	; (80f38 <regulator+0x29c>)
   80d70:	4798      	blx	r3
		base->PIO_SODR = arch_ioport_pin_to_mask(pin);
   80d72:	f04f 6300 	mov.w	r3, #134217728	; 0x8000000
   80d76:	4a6f      	ldr	r2, [pc, #444]	; (80f34 <regulator+0x298>)
   80d78:	6313      	str	r3, [r2, #48]	; 0x30
			linearLeftDesired = getDesiredSpeedLeft(); // Börvärden i cm/s ,lika stora värden om den ska köra rakt 
   80d7a:	4b70      	ldr	r3, [pc, #448]	; (80f3c <regulator+0x2a0>)
   80d7c:	4798      	blx	r3
   80d7e:	4d70      	ldr	r5, [pc, #448]	; (80f40 <regulator+0x2a4>)
   80d80:	6028      	str	r0, [r5, #0]
			linearRightDesired = getDesiredSpeedRight();
   80d82:	4b70      	ldr	r3, [pc, #448]	; (80f44 <regulator+0x2a8>)
   80d84:	4798      	blx	r3
   80d86:	4e66      	ldr	r6, [pc, #408]	; (80f20 <regulator+0x284>)
   80d88:	6030      	str	r0, [r6, #0]
		N_Left = getLeftPulses(); 
   80d8a:	4b6f      	ldr	r3, [pc, #444]	; (80f48 <regulator+0x2ac>)
   80d8c:	4798      	blx	r3
   80d8e:	f8df 9218 	ldr.w	r9, [pc, #536]	; 80fa8 <regulator+0x30c>
   80d92:	f8c9 0000 	str.w	r0, [r9]
		N_Right = getRightPulses(); 
   80d96:	4b6d      	ldr	r3, [pc, #436]	; (80f4c <regulator+0x2b0>)
   80d98:	4798      	blx	r3
   80d9a:	f8df a210 	ldr.w	sl, [pc, #528]	; 80fac <regulator+0x310>
   80d9e:	f8ca 0000 	str.w	r0, [sl]
		N_ss_Left += N_Left;
   80da2:	4b6b      	ldr	r3, [pc, #428]	; (80f50 <regulator+0x2b4>)
   80da4:	681a      	ldr	r2, [r3, #0]
   80da6:	f8d9 1000 	ldr.w	r1, [r9]
   80daa:	440a      	add	r2, r1
   80dac:	601a      	str	r2, [r3, #0]
		N_ss_Right += N_Right;
   80dae:	4a69      	ldr	r2, [pc, #420]	; (80f54 <regulator+0x2b8>)
   80db0:	6813      	ldr	r3, [r2, #0]
   80db2:	4403      	add	r3, r0
   80db4:	6013      	str	r3, [r2, #0]
		resetCounter(); //Nollställ pulsräknarna
   80db6:	4b68      	ldr	r3, [pc, #416]	; (80f58 <regulator+0x2bc>)
   80db8:	4798      	blx	r3
		distanceLeft = (float)(WheelCircum * N_Left / resolution); //Distans färdad är produkten av hjul revolutioner och omkretsen
   80dba:	4b68      	ldr	r3, [pc, #416]	; (80f5c <regulator+0x2c0>)
   80dbc:	f8d3 8000 	ldr.w	r8, [r3]
   80dc0:	4b67      	ldr	r3, [pc, #412]	; (80f60 <regulator+0x2c4>)
   80dc2:	6818      	ldr	r0, [r3, #0]
   80dc4:	4b54      	ldr	r3, [pc, #336]	; (80f18 <regulator+0x27c>)
   80dc6:	4798      	blx	r3
   80dc8:	4604      	mov	r4, r0
   80dca:	f8d9 0000 	ldr.w	r0, [r9]
   80dce:	4b52      	ldr	r3, [pc, #328]	; (80f18 <regulator+0x27c>)
   80dd0:	4798      	blx	r3
   80dd2:	4641      	mov	r1, r8
   80dd4:	47b8      	blx	r7
   80dd6:	4621      	mov	r1, r4
   80dd8:	4b62      	ldr	r3, [pc, #392]	; (80f64 <regulator+0x2c8>)
   80dda:	4798      	blx	r3
   80ddc:	4681      	mov	r9, r0
   80dde:	4b62      	ldr	r3, [pc, #392]	; (80f68 <regulator+0x2cc>)
   80de0:	6018      	str	r0, [r3, #0]
		distanceRight = (float)(WheelCircum * N_Right / resolution);
   80de2:	f8da 0000 	ldr.w	r0, [sl]
   80de6:	4b4c      	ldr	r3, [pc, #304]	; (80f18 <regulator+0x27c>)
   80de8:	4798      	blx	r3
   80dea:	4641      	mov	r1, r8
   80dec:	47b8      	blx	r7
   80dee:	4621      	mov	r1, r4
   80df0:	4b5c      	ldr	r3, [pc, #368]	; (80f64 <regulator+0x2c8>)
   80df2:	4798      	blx	r3
   80df4:	4604      	mov	r4, r0
   80df6:	4b5d      	ldr	r3, [pc, #372]	; (80f6c <regulator+0x2d0>)
   80df8:	6018      	str	r0, [r3, #0]
		linearLeftActual = (float)(distanceLeft/Ts);
   80dfa:	4b5d      	ldr	r3, [pc, #372]	; (80f70 <regulator+0x2d4>)
   80dfc:	f8d3 8000 	ldr.w	r8, [r3]
   80e00:	4641      	mov	r1, r8
   80e02:	4648      	mov	r0, r9
   80e04:	4b57      	ldr	r3, [pc, #348]	; (80f64 <regulator+0x2c8>)
   80e06:	4798      	blx	r3
   80e08:	4683      	mov	fp, r0
   80e0a:	4b48      	ldr	r3, [pc, #288]	; (80f2c <regulator+0x290>)
   80e0c:	6018      	str	r0, [r3, #0]
		linearRightActual = (float)(distanceRight/Ts);
   80e0e:	4641      	mov	r1, r8
   80e10:	4620      	mov	r0, r4
   80e12:	4b54      	ldr	r3, [pc, #336]	; (80f64 <regulator+0x2c8>)
   80e14:	4798      	blx	r3
   80e16:	4682      	mov	sl, r0
   80e18:	4b40      	ldr	r3, [pc, #256]	; (80f1c <regulator+0x280>)
   80e1a:	6018      	str	r0, [r3, #0]
		OldP_err_Left = P_err_Left;
   80e1c:	4b55      	ldr	r3, [pc, #340]	; (80f74 <regulator+0x2d8>)
   80e1e:	f8d3 9000 	ldr.w	r9, [r3]
   80e22:	4b55      	ldr	r3, [pc, #340]	; (80f78 <regulator+0x2dc>)
   80e24:	f8c3 9000 	str.w	r9, [r3]
		OldP_err_Right = P_err_Right;
   80e28:	4b54      	ldr	r3, [pc, #336]	; (80f7c <regulator+0x2e0>)
   80e2a:	f8d3 8000 	ldr.w	r8, [r3]
   80e2e:	4b54      	ldr	r3, [pc, #336]	; (80f80 <regulator+0x2e4>)
   80e30:	f8c3 8000 	str.w	r8, [r3]
		P_err_Left = linearLeftDesired-linearLeftActual;
   80e34:	4c3b      	ldr	r4, [pc, #236]	; (80f24 <regulator+0x288>)
   80e36:	4659      	mov	r1, fp
   80e38:	6828      	ldr	r0, [r5, #0]
   80e3a:	47a0      	blx	r4
   80e3c:	4605      	mov	r5, r0
   80e3e:	4b4d      	ldr	r3, [pc, #308]	; (80f74 <regulator+0x2d8>)
   80e40:	6018      	str	r0, [r3, #0]
		P_err_Right = linearRightDesired-linearRightActual;
   80e42:	4651      	mov	r1, sl
   80e44:	6830      	ldr	r0, [r6, #0]
   80e46:	47a0      	blx	r4
   80e48:	4606      	mov	r6, r0
   80e4a:	4b4c      	ldr	r3, [pc, #304]	; (80f7c <regulator+0x2e0>)
   80e4c:	6018      	str	r0, [r3, #0]
		D_err_Left = P_err_Left - OldP_err_Left;
   80e4e:	f8df b160 	ldr.w	fp, [pc, #352]	; 80fb0 <regulator+0x314>
   80e52:	4649      	mov	r1, r9
   80e54:	4628      	mov	r0, r5
   80e56:	47a0      	blx	r4
   80e58:	f8cb 0000 	str.w	r0, [fp]
		D_err_Right = P_err_Right - OldP_err_Right;
   80e5c:	4641      	mov	r1, r8
   80e5e:	4630      	mov	r0, r6
   80e60:	47a0      	blx	r4
   80e62:	4b48      	ldr	r3, [pc, #288]	; (80f84 <regulator+0x2e8>)
   80e64:	6018      	str	r0, [r3, #0]
		I_err_Left += (long double)(round(P_err_Left));
   80e66:	4c48      	ldr	r4, [pc, #288]	; (80f88 <regulator+0x2ec>)
   80e68:	4628      	mov	r0, r5
   80e6a:	47a0      	blx	r4
   80e6c:	f8df 9144 	ldr.w	r9, [pc, #324]	; 80fb4 <regulator+0x318>
   80e70:	47c8      	blx	r9
   80e72:	f8df 8144 	ldr.w	r8, [pc, #324]	; 80fb8 <regulator+0x31c>
   80e76:	4d45      	ldr	r5, [pc, #276]	; (80f8c <regulator+0x2f0>)
   80e78:	4602      	mov	r2, r0
   80e7a:	460b      	mov	r3, r1
   80e7c:	e9d8 0100 	ldrd	r0, r1, [r8]
   80e80:	47a8      	blx	r5
   80e82:	e9c8 0100 	strd	r0, r1, [r8]
		I_err_Right += (long double)(round(P_err_Right));
   80e86:	4630      	mov	r0, r6
   80e88:	47a0      	blx	r4
   80e8a:	47c8      	blx	r9
   80e8c:	f8df 912c 	ldr.w	r9, [pc, #300]	; 80fbc <regulator+0x320>
   80e90:	4602      	mov	r2, r0
   80e92:	460b      	mov	r3, r1
   80e94:	e9d9 0100 	ldrd	r0, r1, [r9]
   80e98:	47a8      	blx	r5
   80e9a:	e9c9 0100 	strd	r0, r1, [r9]
		mcPulseLeftOld = getSetLeftSpeed();
   80e9e:	4b3c      	ldr	r3, [pc, #240]	; (80f90 <regulator+0x2f4>)
   80ea0:	4798      	blx	r3
   80ea2:	f8df a11c 	ldr.w	sl, [pc, #284]	; 80fc0 <regulator+0x324>
   80ea6:	f8ca 0000 	str.w	r0, [sl]
		mcPulseRightOld = getSetRightSpeed();
   80eaa:	4b19      	ldr	r3, [pc, #100]	; (80f10 <regulator+0x274>)
   80eac:	4798      	blx	r3
   80eae:	4b39      	ldr	r3, [pc, #228]	; (80f94 <regulator+0x2f8>)
   80eb0:	9007      	str	r0, [sp, #28]
   80eb2:	6018      	str	r0, [r3, #0]
		mcPulseLeft = (float)((Kp * P_err_Left + Ki * I_err_Left * Ts + Kd *D_err_Left / Ts)+mcPulseLeftOld);
   80eb4:	4b38      	ldr	r3, [pc, #224]	; (80f98 <regulator+0x2fc>)
   80eb6:	681b      	ldr	r3, [r3, #0]
   80eb8:	9302      	str	r3, [sp, #8]
   80eba:	4b38      	ldr	r3, [pc, #224]	; (80f9c <regulator+0x300>)
   80ebc:	6818      	ldr	r0, [r3, #0]
   80ebe:	47a0      	blx	r4
   80ec0:	e9cd 0100 	strd	r0, r1, [sp]
   80ec4:	4b2a      	ldr	r3, [pc, #168]	; (80f70 <regulator+0x2d4>)
   80ec6:	681b      	ldr	r3, [r3, #0]
   80ec8:	9303      	str	r3, [sp, #12]
   80eca:	4618      	mov	r0, r3
   80ecc:	47a0      	blx	r4
   80ece:	e9cd 0104 	strd	r0, r1, [sp, #16]
   80ed2:	4b33      	ldr	r3, [pc, #204]	; (80fa0 <regulator+0x304>)
   80ed4:	6819      	ldr	r1, [r3, #0]
   80ed6:	9106      	str	r1, [sp, #24]
   80ed8:	4e32      	ldr	r6, [pc, #200]	; (80fa4 <regulator+0x308>)
   80eda:	e9d8 2300 	ldrd	r2, r3, [r8]
   80ede:	e9dd 0100 	ldrd	r0, r1, [sp]
   80ee2:	47b0      	blx	r6
   80ee4:	e9dd 2304 	ldrd	r2, r3, [sp, #16]
   80ee8:	47b0      	blx	r6
   80eea:	e9cd 0108 	strd	r0, r1, [sp, #32]
   80eee:	4b21      	ldr	r3, [pc, #132]	; (80f74 <regulator+0x2d8>)
   80ef0:	6819      	ldr	r1, [r3, #0]
   80ef2:	9802      	ldr	r0, [sp, #8]
   80ef4:	47b8      	blx	r7
   80ef6:	e065      	b.n	80fc4 <regulator+0x328>
   80ef8:	20070c04 	.word	0x20070c04
   80efc:	43ed8000 	.word	0x43ed8000
   80f00:	00085665 	.word	0x00085665
   80f04:	20070bf0 	.word	0x20070bf0
   80f08:	20070c0c 	.word	0x20070c0c
   80f0c:	00085679 	.word	0x00085679
   80f10:	00081e11 	.word	0x00081e11
   80f14:	20070150 	.word	0x20070150
   80f18:	00085245 	.word	0x00085245
   80f1c:	20070bfc 	.word	0x20070bfc
   80f20:	20070c00 	.word	0x20070c00
   80f24:	000850d9 	.word	0x000850d9
   80f28:	20070154 	.word	0x20070154
   80f2c:	20070bf4 	.word	0x20070bf4
   80f30:	20070c14 	.word	0x20070c14
   80f34:	400e1000 	.word	0x400e1000
   80f38:	00083185 	.word	0x00083185
   80f3c:	0008039d 	.word	0x0008039d
   80f40:	20070bf8 	.word	0x20070bf8
   80f44:	000803a9 	.word	0x000803a9
   80f48:	00081ab5 	.word	0x00081ab5
   80f4c:	00081ac9 	.word	0x00081ac9
   80f50:	20070bd0 	.word	0x20070bd0
   80f54:	20070bd4 	.word	0x20070bd4
   80f58:	00081a91 	.word	0x00081a91
   80f5c:	20070148 	.word	0x20070148
   80f60:	20070158 	.word	0x20070158
   80f64:	00085455 	.word	0x00085455
   80f68:	20070be8 	.word	0x20070be8
   80f6c:	20070bec 	.word	0x20070bec
   80f70:	20070144 	.word	0x20070144
   80f74:	20070be0 	.word	0x20070be0
   80f78:	20070bd8 	.word	0x20070bd8
   80f7c:	20070be4 	.word	0x20070be4
   80f80:	20070bdc 	.word	0x20070bdc
   80f84:	20070bb4 	.word	0x20070bb4
   80f88:	00084a05 	.word	0x00084a05
   80f8c:	00084749 	.word	0x00084749
   80f90:	00081e05 	.word	0x00081e05
   80f94:	20070c10 	.word	0x20070c10
   80f98:	20070140 	.word	0x20070140
   80f9c:	2007013c 	.word	0x2007013c
   80fa0:	20070138 	.word	0x20070138
   80fa4:	00084aad 	.word	0x00084aad
   80fa8:	20070bc8 	.word	0x20070bc8
   80fac:	20070bcc 	.word	0x20070bcc
   80fb0:	20070bb0 	.word	0x20070bb0
   80fb4:	00084175 	.word	0x00084175
   80fb8:	20070bb8 	.word	0x20070bb8
   80fbc:	20070bc0 	.word	0x20070bc0
   80fc0:	20070c08 	.word	0x20070c08
   80fc4:	47a0      	blx	r4
   80fc6:	4602      	mov	r2, r0
   80fc8:	460b      	mov	r3, r1
   80fca:	e9dd 0108 	ldrd	r0, r1, [sp, #32]
   80fce:	47a8      	blx	r5
   80fd0:	e9cd 0108 	strd	r0, r1, [sp, #32]
   80fd4:	f8db 1000 	ldr.w	r1, [fp]
   80fd8:	9806      	ldr	r0, [sp, #24]
   80fda:	47b8      	blx	r7
   80fdc:	9903      	ldr	r1, [sp, #12]
   80fde:	4b60      	ldr	r3, [pc, #384]	; (81160 <regulator+0x4c4>)
   80fe0:	4798      	blx	r3
   80fe2:	47a0      	blx	r4
   80fe4:	4602      	mov	r2, r0
   80fe6:	460b      	mov	r3, r1
   80fe8:	e9dd 0108 	ldrd	r0, r1, [sp, #32]
   80fec:	47a8      	blx	r5
   80fee:	e9cd 0108 	strd	r0, r1, [sp, #32]
   80ff2:	f8da 0000 	ldr.w	r0, [sl]
   80ff6:	47a0      	blx	r4
   80ff8:	4602      	mov	r2, r0
   80ffa:	460b      	mov	r3, r1
   80ffc:	e9dd 0108 	ldrd	r0, r1, [sp, #32]
   81000:	47a8      	blx	r5
   81002:	f8df b1c0 	ldr.w	fp, [pc, #448]	; 811c4 <regulator+0x528>
   81006:	47d8      	blx	fp
   81008:	4682      	mov	sl, r0
   8100a:	4b56      	ldr	r3, [pc, #344]	; (81164 <regulator+0x4c8>)
   8100c:	6018      	str	r0, [r3, #0]
		mcPulseRight = (float)((Kp * P_err_Right + Ki * I_err_Right * Ts + Kd *D_err_Right / Ts)+mcPulseRightOld);
   8100e:	e9d9 2300 	ldrd	r2, r3, [r9]
   81012:	e9dd 0100 	ldrd	r0, r1, [sp]
   81016:	47b0      	blx	r6
   81018:	e9dd 2304 	ldrd	r2, r3, [sp, #16]
   8101c:	47b0      	blx	r6
   8101e:	4680      	mov	r8, r0
   81020:	4689      	mov	r9, r1
   81022:	4b51      	ldr	r3, [pc, #324]	; (81168 <regulator+0x4cc>)
   81024:	6819      	ldr	r1, [r3, #0]
   81026:	9802      	ldr	r0, [sp, #8]
   81028:	47b8      	blx	r7
   8102a:	47a0      	blx	r4
   8102c:	4602      	mov	r2, r0
   8102e:	460b      	mov	r3, r1
   81030:	4640      	mov	r0, r8
   81032:	4649      	mov	r1, r9
   81034:	47a8      	blx	r5
   81036:	4680      	mov	r8, r0
   81038:	4689      	mov	r9, r1
   8103a:	4b4c      	ldr	r3, [pc, #304]	; (8116c <regulator+0x4d0>)
   8103c:	6819      	ldr	r1, [r3, #0]
   8103e:	9806      	ldr	r0, [sp, #24]
   81040:	47b8      	blx	r7
   81042:	9903      	ldr	r1, [sp, #12]
   81044:	4b46      	ldr	r3, [pc, #280]	; (81160 <regulator+0x4c4>)
   81046:	4798      	blx	r3
   81048:	47a0      	blx	r4
   8104a:	4602      	mov	r2, r0
   8104c:	460b      	mov	r3, r1
   8104e:	4640      	mov	r0, r8
   81050:	4649      	mov	r1, r9
   81052:	47a8      	blx	r5
   81054:	4680      	mov	r8, r0
   81056:	4689      	mov	r9, r1
   81058:	9807      	ldr	r0, [sp, #28]
   8105a:	47a0      	blx	r4
   8105c:	4602      	mov	r2, r0
   8105e:	460b      	mov	r3, r1
   81060:	4640      	mov	r0, r8
   81062:	4649      	mov	r1, r9
   81064:	47a8      	blx	r5
   81066:	47d8      	blx	fp
   81068:	4604      	mov	r4, r0
   8106a:	4b41      	ldr	r3, [pc, #260]	; (81170 <regulator+0x4d4>)
   8106c:	6018      	str	r0, [r3, #0]
		if(mcPulseLeft > 300 || mcPulseRight > 300){
   8106e:	4941      	ldr	r1, [pc, #260]	; (81174 <regulator+0x4d8>)
   81070:	4650      	mov	r0, sl
   81072:	4b41      	ldr	r3, [pc, #260]	; (81178 <regulator+0x4dc>)
   81074:	4798      	blx	r3
   81076:	b920      	cbnz	r0, 81082 <regulator+0x3e6>
   81078:	493e      	ldr	r1, [pc, #248]	; (81174 <regulator+0x4d8>)
   8107a:	4620      	mov	r0, r4
   8107c:	4b3e      	ldr	r3, [pc, #248]	; (81178 <regulator+0x4dc>)
   8107e:	4798      	blx	r3
   81080:	b110      	cbz	r0, 81088 <regulator+0x3ec>
			printf("OVER THREE HUNDRED\n");
   81082:	483e      	ldr	r0, [pc, #248]	; (8117c <regulator+0x4e0>)
   81084:	4b3e      	ldr	r3, [pc, #248]	; (81180 <regulator+0x4e4>)
   81086:	4798      	blx	r3
		if( !((int)(mcPulseLeft*doubleToIntFactor) == (int)(getSetLeftSpeed()*doubleToIntFactor) || ((abs(linearLeftActual - linearLeftDesired)>linearSpeedMargin) && !((int)(linearLeftActual*doubleToIntFactor)==(int)(linearRightActual*doubleToIntFactor))))){
   81088:	4c3e      	ldr	r4, [pc, #248]	; (81184 <regulator+0x4e8>)
   8108a:	6820      	ldr	r0, [r4, #0]
   8108c:	4b3e      	ldr	r3, [pc, #248]	; (81188 <regulator+0x4ec>)
   8108e:	4798      	blx	r3
   81090:	4b34      	ldr	r3, [pc, #208]	; (81164 <regulator+0x4c8>)
   81092:	6819      	ldr	r1, [r3, #0]
   81094:	47b8      	blx	r7
   81096:	4d3d      	ldr	r5, [pc, #244]	; (8118c <regulator+0x4f0>)
   81098:	47a8      	blx	r5
   8109a:	4606      	mov	r6, r0
   8109c:	4b3c      	ldr	r3, [pc, #240]	; (81190 <regulator+0x4f4>)
   8109e:	4798      	blx	r3
   810a0:	4680      	mov	r8, r0
   810a2:	6820      	ldr	r0, [r4, #0]
   810a4:	4b38      	ldr	r3, [pc, #224]	; (81188 <regulator+0x4ec>)
   810a6:	4798      	blx	r3
   810a8:	4604      	mov	r4, r0
   810aa:	4601      	mov	r1, r0
   810ac:	4640      	mov	r0, r8
   810ae:	47b8      	blx	r7
   810b0:	47a8      	blx	r5
   810b2:	4286      	cmp	r6, r0
   810b4:	f43f ae0d 	beq.w	80cd2 <regulator+0x36>
   810b8:	4b36      	ldr	r3, [pc, #216]	; (81194 <regulator+0x4f8>)
   810ba:	681d      	ldr	r5, [r3, #0]
   810bc:	4b36      	ldr	r3, [pc, #216]	; (81198 <regulator+0x4fc>)
   810be:	6819      	ldr	r1, [r3, #0]
   810c0:	4628      	mov	r0, r5
   810c2:	4b36      	ldr	r3, [pc, #216]	; (8119c <regulator+0x500>)
   810c4:	4798      	blx	r3
   810c6:	4b31      	ldr	r3, [pc, #196]	; (8118c <regulator+0x4f0>)
   810c8:	4798      	blx	r3
   810ca:	2800      	cmp	r0, #0
   810cc:	bfb8      	it	lt
   810ce:	4240      	neglt	r0, r0
   810d0:	4b2d      	ldr	r3, [pc, #180]	; (81188 <regulator+0x4ec>)
   810d2:	4798      	blx	r3
   810d4:	4b32      	ldr	r3, [pc, #200]	; (811a0 <regulator+0x504>)
   810d6:	6819      	ldr	r1, [r3, #0]
   810d8:	4b27      	ldr	r3, [pc, #156]	; (81178 <regulator+0x4dc>)
   810da:	4798      	blx	r3
   810dc:	2800      	cmp	r0, #0
   810de:	f43f ade9 	beq.w	80cb4 <regulator+0x18>
   810e2:	4629      	mov	r1, r5
   810e4:	4620      	mov	r0, r4
   810e6:	47b8      	blx	r7
   810e8:	4d28      	ldr	r5, [pc, #160]	; (8118c <regulator+0x4f0>)
   810ea:	47a8      	blx	r5
   810ec:	4606      	mov	r6, r0
   810ee:	4b2d      	ldr	r3, [pc, #180]	; (811a4 <regulator+0x508>)
   810f0:	6819      	ldr	r1, [r3, #0]
   810f2:	4620      	mov	r0, r4
   810f4:	47b8      	blx	r7
   810f6:	47a8      	blx	r5
   810f8:	4286      	cmp	r6, r0
   810fa:	f47f adea 	bne.w	80cd2 <regulator+0x36>
   810fe:	e5d9      	b.n	80cb4 <regulator+0x18>
			}else if(mcPulseLeft<-475){
   81100:	4929      	ldr	r1, [pc, #164]	; (811a8 <regulator+0x50c>)
   81102:	4628      	mov	r0, r5
   81104:	4b29      	ldr	r3, [pc, #164]	; (811ac <regulator+0x510>)
   81106:	4798      	blx	r3
   81108:	2800      	cmp	r0, #0
   8110a:	f43f addf 	beq.w	80ccc <regulator+0x30>
				mcPulseLeft = -475;
   8110e:	4b26      	ldr	r3, [pc, #152]	; (811a8 <regulator+0x50c>)
   81110:	4a14      	ldr	r2, [pc, #80]	; (81164 <regulator+0x4c8>)
   81112:	6013      	str	r3, [r2, #0]
   81114:	e5da      	b.n	80ccc <regulator+0x30>
			if(mcPulseRight>475){
   81116:	4b16      	ldr	r3, [pc, #88]	; (81170 <regulator+0x4d4>)
   81118:	681c      	ldr	r4, [r3, #0]
   8111a:	4925      	ldr	r1, [pc, #148]	; (811b0 <regulator+0x514>)
   8111c:	4620      	mov	r0, r4
   8111e:	4b16      	ldr	r3, [pc, #88]	; (81178 <regulator+0x4dc>)
   81120:	4798      	blx	r3
   81122:	b168      	cbz	r0, 81140 <regulator+0x4a4>
				mcPulseRight = 475;
   81124:	4a22      	ldr	r2, [pc, #136]	; (811b0 <regulator+0x514>)
   81126:	4b12      	ldr	r3, [pc, #72]	; (81170 <regulator+0x4d4>)
   81128:	601a      	str	r2, [r3, #0]
			rightTrue = 1;
   8112a:	2201      	movs	r2, #1
   8112c:	4b21      	ldr	r3, [pc, #132]	; (811b4 <regulator+0x518>)
   8112e:	601a      	str	r2, [r3, #0]
		if(leftTrue){
   81130:	4b21      	ldr	r3, [pc, #132]	; (811b8 <regulator+0x51c>)
   81132:	681b      	ldr	r3, [r3, #0]
   81134:	b973      	cbnz	r3, 81154 <regulator+0x4b8>
			testDriveR(mcPulseRight);
   81136:	4b0e      	ldr	r3, [pc, #56]	; (81170 <regulator+0x4d4>)
   81138:	6818      	ldr	r0, [r3, #0]
   8113a:	4b20      	ldr	r3, [pc, #128]	; (811bc <regulator+0x520>)
   8113c:	4798      	blx	r3
   8113e:	e60a      	b.n	80d56 <regulator+0xba>
			}else if(mcPulseRight<-475){
   81140:	4919      	ldr	r1, [pc, #100]	; (811a8 <regulator+0x50c>)
   81142:	4620      	mov	r0, r4
   81144:	4b19      	ldr	r3, [pc, #100]	; (811ac <regulator+0x510>)
   81146:	4798      	blx	r3
   81148:	2800      	cmp	r0, #0
   8114a:	d0ee      	beq.n	8112a <regulator+0x48e>
				mcPulseRight = -475;
   8114c:	4a16      	ldr	r2, [pc, #88]	; (811a8 <regulator+0x50c>)
   8114e:	4b08      	ldr	r3, [pc, #32]	; (81170 <regulator+0x4d4>)
   81150:	601a      	str	r2, [r3, #0]
   81152:	e7ea      	b.n	8112a <regulator+0x48e>
			testDriveL(mcPulseLeft);
   81154:	4b03      	ldr	r3, [pc, #12]	; (81164 <regulator+0x4c8>)
   81156:	6818      	ldr	r0, [r3, #0]
   81158:	4b19      	ldr	r3, [pc, #100]	; (811c0 <regulator+0x524>)
   8115a:	4798      	blx	r3
   8115c:	e5f6      	b.n	80d4c <regulator+0xb0>
   8115e:	bf00      	nop
   81160:	00085455 	.word	0x00085455
   81164:	20070c04 	.word	0x20070c04
   81168:	20070be4 	.word	0x20070be4
   8116c:	20070bb4 	.word	0x20070bb4
   81170:	20070c0c 	.word	0x20070c0c
   81174:	43960000 	.word	0x43960000
   81178:	00085665 	.word	0x00085665
   8117c:	0008887c 	.word	0x0008887c
   81180:	00085715 	.word	0x00085715
   81184:	20070150 	.word	0x20070150
   81188:	00085245 	.word	0x00085245
   8118c:	00085679 	.word	0x00085679
   81190:	00081e05 	.word	0x00081e05
   81194:	20070bf4 	.word	0x20070bf4
   81198:	20070bf8 	.word	0x20070bf8
   8119c:	000850d9 	.word	0x000850d9
   811a0:	20070154 	.word	0x20070154
   811a4:	20070bfc 	.word	0x20070bfc
   811a8:	c3ed8000 	.word	0xc3ed8000
   811ac:	00085629 	.word	0x00085629
   811b0:	43ed8000 	.word	0x43ed8000
   811b4:	20070c14 	.word	0x20070c14
   811b8:	20070bf0 	.word	0x20070bf0
   811bc:	00081ce1 	.word	0x00081ce1
   811c0:	00081bc1 	.word	0x00081bc1
   811c4:	00085031 	.word	0x00085031

000811c8 <getPulsesSinceStartLeft>:

}
	//returns pulses counted on left wheel since start
	long getPulsesSinceStartLeft(){
		return N_ss_Left;
	}
   811c8:	4b01      	ldr	r3, [pc, #4]	; (811d0 <getPulsesSinceStartLeft+0x8>)
   811ca:	6818      	ldr	r0, [r3, #0]
   811cc:	4770      	bx	lr
   811ce:	bf00      	nop
   811d0:	20070bd0 	.word	0x20070bd0

000811d4 <getPulsesSinceStartRight>:
	
	//pulses counted on right wheel since start
	long getPulsesSinceStartRight(){
		return N_ss_Right;
	}
   811d4:	4b01      	ldr	r3, [pc, #4]	; (811dc <getPulsesSinceStartRight+0x8>)
   811d6:	6818      	ldr	r0, [r3, #0]
   811d8:	4770      	bx	lr
   811da:	bf00      	nop
   811dc:	20070bd4 	.word	0x20070bd4

000811e0 <getDisplacementLeft>:
	
	//returns total displacement of left wheel
	float getDisplacementLeft(){
   811e0:	b508      	push	{r3, lr}
		return (float)(dPP*N_ss_Left);
   811e2:	4b04      	ldr	r3, [pc, #16]	; (811f4 <getDisplacementLeft+0x14>)
   811e4:	6818      	ldr	r0, [r3, #0]
   811e6:	4b04      	ldr	r3, [pc, #16]	; (811f8 <getDisplacementLeft+0x18>)
   811e8:	4798      	blx	r3
   811ea:	4b04      	ldr	r3, [pc, #16]	; (811fc <getDisplacementLeft+0x1c>)
   811ec:	6819      	ldr	r1, [r3, #0]
   811ee:	4b04      	ldr	r3, [pc, #16]	; (81200 <getDisplacementLeft+0x20>)
   811f0:	4798      	blx	r3
	}
   811f2:	bd08      	pop	{r3, pc}
   811f4:	20070bd0 	.word	0x20070bd0
   811f8:	00085245 	.word	0x00085245
   811fc:	2007014c 	.word	0x2007014c
   81200:	000852ed 	.word	0x000852ed

00081204 <getDisplacementRight>:
	//returns total displacement of right wheel
	float getDisplacementRight(){
   81204:	b508      	push	{r3, lr}
		return (float)(dPP*N_ss_Right);
   81206:	4b04      	ldr	r3, [pc, #16]	; (81218 <getDisplacementRight+0x14>)
   81208:	6818      	ldr	r0, [r3, #0]
   8120a:	4b04      	ldr	r3, [pc, #16]	; (8121c <getDisplacementRight+0x18>)
   8120c:	4798      	blx	r3
   8120e:	4b04      	ldr	r3, [pc, #16]	; (81220 <getDisplacementRight+0x1c>)
   81210:	6819      	ldr	r1, [r3, #0]
   81212:	4b04      	ldr	r3, [pc, #16]	; (81224 <getDisplacementRight+0x20>)
   81214:	4798      	blx	r3
	}
   81216:	bd08      	pop	{r3, pc}
   81218:	20070bd4 	.word	0x20070bd4
   8121c:	00085245 	.word	0x00085245
   81220:	2007014c 	.word	0x2007014c
   81224:	000852ed 	.word	0x000852ed

00081228 <getDisplacementAverage>:
	//returns average displacement
	float getDisplacementAverage(){
   81228:	b510      	push	{r4, lr}
		return (float)((getDisplacementLeft()+getDisplacementRight())/2);
   8122a:	4b07      	ldr	r3, [pc, #28]	; (81248 <getDisplacementAverage+0x20>)
   8122c:	4798      	blx	r3
   8122e:	4604      	mov	r4, r0
   81230:	4b06      	ldr	r3, [pc, #24]	; (8124c <getDisplacementAverage+0x24>)
   81232:	4798      	blx	r3
   81234:	4601      	mov	r1, r0
   81236:	4620      	mov	r0, r4
   81238:	4b05      	ldr	r3, [pc, #20]	; (81250 <getDisplacementAverage+0x28>)
   8123a:	4798      	blx	r3
   8123c:	f04f 517c 	mov.w	r1, #1056964608	; 0x3f000000
   81240:	4b04      	ldr	r3, [pc, #16]	; (81254 <getDisplacementAverage+0x2c>)
   81242:	4798      	blx	r3
	}
   81244:	bd10      	pop	{r4, pc}
   81246:	bf00      	nop
   81248:	000811e1 	.word	0x000811e1
   8124c:	00081205 	.word	0x00081205
   81250:	000850dd 	.word	0x000850dd
   81254:	000852ed 	.word	0x000852ed

00081258 <usTrigM>:
		tc_stop(TC1, 2);
	}
	
}

void usTrigM(){
   81258:	b570      	push	{r4, r5, r6, lr}
	arch_ioport_port_to_base(port)->PIO_PER = mask;
   8125a:	4c09      	ldr	r4, [pc, #36]	; (81280 <usTrigM+0x28>)
   8125c:	f04f 7580 	mov.w	r5, #16777216	; 0x1000000
   81260:	6025      	str	r5, [r4, #0]
		base->PIO_OER = arch_ioport_pin_to_mask(pin);
   81262:	6125      	str	r5, [r4, #16]
	base->PIO_OWER = arch_ioport_pin_to_mask(pin);
   81264:	f8c4 50a0 	str.w	r5, [r4, #160]	; 0xa0
		base->PIO_CODR = arch_ioport_pin_to_mask(pin);
   81268:	6365      	str	r5, [r4, #52]	; 0x34
	ioport_enable_pin(pin6);
	ioport_set_pin_dir(pin6, IOPORT_DIR_OUTPUT);
	ioport_set_pin_level(pin6,LOW);
	delay_us(5);
   8126a:	201e      	movs	r0, #30
   8126c:	4e05      	ldr	r6, [pc, #20]	; (81284 <usTrigM+0x2c>)
   8126e:	47b0      	blx	r6
		base->PIO_SODR = arch_ioport_pin_to_mask(pin);
   81270:	6325      	str	r5, [r4, #48]	; 0x30
	ioport_set_pin_level(pin6,HIGH);
	delay_us(10);
   81272:	203c      	movs	r0, #60	; 0x3c
   81274:	47b0      	blx	r6
		base->PIO_CODR = arch_ioport_pin_to_mask(pin);
   81276:	6365      	str	r5, [r4, #52]	; 0x34
	ioport_set_pin_level(pin6,LOW);
	delay_ms(5);
   81278:	f247 5030 	movw	r0, #30000	; 0x7530
   8127c:	47b0      	blx	r6
   8127e:	bd70      	pop	{r4, r5, r6, pc}
   81280:	400e1200 	.word	0x400e1200
   81284:	20070001 	.word	0x20070001

00081288 <distansUsM>:
		}
		return 0;
	}

	long echoTimeM(){
		long data=echoTimeStopM;
   81288:	4b06      	ldr	r3, [pc, #24]	; (812a4 <distansUsM+0x1c>)
		long dis = (long)(echoTimeM()/58);
   8128a:	681b      	ldr	r3, [r3, #0]
   8128c:	4806      	ldr	r0, [pc, #24]	; (812a8 <distansUsM+0x20>)
   8128e:	fb80 2003 	smull	r2, r0, r0, r3
   81292:	4418      	add	r0, r3
   81294:	17db      	asrs	r3, r3, #31
   81296:	ebc3 1060 	rsb	r0, r3, r0, asr #5
		if(dis < 100 && dis > 0) {
   8129a:	1e43      	subs	r3, r0, #1
		return 0;
   8129c:	2b63      	cmp	r3, #99	; 0x63
	}
   8129e:	bf28      	it	cs
   812a0:	2000      	movcs	r0, #0
   812a2:	4770      	bx	lr
   812a4:	2007b054 	.word	0x2007b054
   812a8:	8d3dcb09 	.word	0x8d3dcb09

000812ac <usTrig>:
		pio_enable_interrupt(PIOC,pin4i);

	NVIC_EnableIRQ(PIOC_IRQn);
}

void usTrig(){
   812ac:	b570      	push	{r4, r5, r6, lr}
	arch_ioport_port_to_base(port)->PIO_PER = mask;
   812ae:	4c09      	ldr	r4, [pc, #36]	; (812d4 <usTrig+0x28>)
   812b0:	f44f 0580 	mov.w	r5, #4194304	; 0x400000
   812b4:	6025      	str	r5, [r4, #0]
		base->PIO_OER = arch_ioport_pin_to_mask(pin);
   812b6:	6125      	str	r5, [r4, #16]
	base->PIO_OWER = arch_ioport_pin_to_mask(pin);
   812b8:	f8c4 50a0 	str.w	r5, [r4, #160]	; 0xa0
		base->PIO_CODR = arch_ioport_pin_to_mask(pin);
   812bc:	6365      	str	r5, [r4, #52]	; 0x34
	ioport_enable_pin(pin8);
	ioport_set_pin_dir(pin8, IOPORT_DIR_OUTPUT);
	ioport_set_pin_level(pin8,LOW);
	delay_us(5);
   812be:	201e      	movs	r0, #30
   812c0:	4e05      	ldr	r6, [pc, #20]	; (812d8 <usTrig+0x2c>)
   812c2:	47b0      	blx	r6
		base->PIO_SODR = arch_ioport_pin_to_mask(pin);
   812c4:	6325      	str	r5, [r4, #48]	; 0x30
	ioport_set_pin_level(pin8,HIGH);
	delay_us(10);
   812c6:	203c      	movs	r0, #60	; 0x3c
   812c8:	47b0      	blx	r6
		base->PIO_CODR = arch_ioport_pin_to_mask(pin);
   812ca:	6365      	str	r5, [r4, #52]	; 0x34
	ioport_set_pin_level(pin8,LOW);
	delay_ms(5);
   812cc:	f247 5030 	movw	r0, #30000	; 0x7530
   812d0:	47b0      	blx	r6
   812d2:	bd70      	pop	{r4, r5, r6, pc}
   812d4:	400e1200 	.word	0x400e1200
   812d8:	20070001 	.word	0x20070001

000812dc <saveValues>:
	}
	
}

void saveValues(uint32_t i, uint32_t valuesArray[]) {
	values[i] = valuesArray;
   812dc:	4b03      	ldr	r3, [pc, #12]	; (812ec <saveValues+0x10>)
   812de:	f843 1020 	str.w	r1, [r3, r0, lsl #2]
   812e2:	231e      	movs	r3, #30
	for(int i = 0; i < 30; i++) {
   812e4:	3b01      	subs	r3, #1
   812e6:	d1fd      	bne.n	812e4 <saveValues+0x8>
		//printf("saveValues: %d\n",valuesArray[i]);
		
	}
	
}
   812e8:	4770      	bx	lr
   812ea:	bf00      	nop
   812ec:	2007af64 	.word	0x2007af64

000812f0 <get_values>:
		
		//int dis= distansUs();
		
		//vTaskDelayUntil(xLastWakeTime,100);
	}
	uint8_t get_values(uint8_t _index){
   812f0:	b530      	push	{r4, r5, lr}
   812f2:	b09f      	sub	sp, #124	; 0x7c
		// 	static uint8_t check1=0;
		// 	static uint8_t check2=0;
		// 	static uint8_t value=0;
		uint32_t *valuesArray = values[_index];
   812f4:	4b16      	ldr	r3, [pc, #88]	; (81350 <get_values+0x60>)
   812f6:	f853 4020 	ldr.w	r4, [r3, r0, lsl #2]
		uint32_t countArray[30] = {0};
   812fa:	2278      	movs	r2, #120	; 0x78
   812fc:	2100      	movs	r1, #0
   812fe:	4668      	mov	r0, sp
   81300:	4b14      	ldr	r3, [pc, #80]	; (81354 <get_values+0x64>)
   81302:	4798      	blx	r3
   81304:	1f20      	subs	r0, r4, #4
   81306:	f104 0574 	add.w	r5, r4, #116	; 0x74
   8130a:	4601      	mov	r1, r0
		
		int i, max, index;
		for(i = 0; i < 30; i++)
		{
			++countArray[valuesArray[i]];
   8130c:	f851 3f04 	ldr.w	r3, [r1, #4]!
   81310:	aa1e      	add	r2, sp, #120	; 0x78
   81312:	eb02 0383 	add.w	r3, r2, r3, lsl #2
   81316:	f853 2c78 	ldr.w	r2, [r3, #-120]
   8131a:	3201      	adds	r2, #1
   8131c:	f843 2c78 	str.w	r2, [r3, #-120]
		for(i = 0; i < 30; i++)
   81320:	42a9      	cmp	r1, r5
   81322:	d1f3      	bne.n	8130c <get_values+0x1c>
			//printf("%i \n", countArray[valuesArray[i]]);
		}
		//printf("hej");
		
		// Find the letter that was used the most
		max = countArray[0];
   81324:	9900      	ldr	r1, [sp, #0]
		index = 0;
   81326:	2500      	movs	r5, #0
		for(i = 0; i < 30; i++)
   81328:	462a      	mov	r2, r5
		{
			if( countArray[valuesArray[i]] > max)
   8132a:	f850 3f04 	ldr.w	r3, [r0, #4]!
   8132e:	f10d 0e78 	add.w	lr, sp, #120	; 0x78
   81332:	eb0e 0383 	add.w	r3, lr, r3, lsl #2
   81336:	f853 3c78 	ldr.w	r3, [r3, #-120]
   8133a:	428b      	cmp	r3, r1
			{
				max = countArray[valuesArray[i]];
   8133c:	bf84      	itt	hi
   8133e:	4619      	movhi	r1, r3
   81340:	4615      	movhi	r5, r2
		for(i = 0; i < 30; i++)
   81342:	3201      	adds	r2, #1
   81344:	2a1e      	cmp	r2, #30
   81346:	d1f0      	bne.n	8132a <get_values+0x3a>
		value==values[index][i];
		}
		}*/
		return valuesArray[index];
		
	}
   81348:	f814 0025 	ldrb.w	r0, [r4, r5, lsl #2]
   8134c:	b01f      	add	sp, #124	; 0x7c
   8134e:	bd30      	pop	{r4, r5, pc}
   81350:	2007af64 	.word	0x2007af64
   81354:	00085829 	.word	0x00085829

00081358 <distansUs>:
			return 0;
	}

		//metoden returnerar längden av positiva flanken från echo-pinnet
		long echoTime(){
			long data=echoTimeStop;
   81358:	4b06      	ldr	r3, [pc, #24]	; (81374 <distansUs+0x1c>)
		long dis = (long)(echoTime()/58);
   8135a:	681b      	ldr	r3, [r3, #0]
   8135c:	4806      	ldr	r0, [pc, #24]	; (81378 <distansUs+0x20>)
   8135e:	fb80 2003 	smull	r2, r0, r0, r3
   81362:	4418      	add	r0, r3
   81364:	17db      	asrs	r3, r3, #31
   81366:	ebc3 1060 	rsb	r0, r3, r0, asr #5
		if(dis < 100 && dis > 0) {
   8136a:	1e43      	subs	r3, r0, #1
			return 0;
   8136c:	2b63      	cmp	r3, #99	; 0x63
	}
   8136e:	bf28      	it	cs
   81370:	2000      	movcs	r0, #0
   81372:	4770      	bx	lr
   81374:	2007b058 	.word	0x2007b058
   81378:	8d3dcb09 	.word	0x8d3dcb09

0008137c <Navigate>:
void Navigate() {
   8137c:	e92d 47f0 	stmdb	sp!, {r4, r5, r6, r7, r8, r9, sl, lr}
   81380:	b09e      	sub	sp, #120	; 0x78
	counter=0;
   81382:	2300      	movs	r3, #0
   81384:	4a3e      	ldr	r2, [pc, #248]	; (81480 <Navigate+0x104>)
   81386:	7013      	strb	r3, [r2, #0]
	check=0;
   81388:	4a3e      	ldr	r2, [pc, #248]	; (81484 <Navigate+0x108>)
   8138a:	7013      	strb	r3, [r2, #0]
		uint32_t valuesArray[30] = {};
   8138c:	f8df a120 	ldr.w	sl, [pc, #288]	; 814b0 <Navigate+0x134>
		saveValues(counter, valuesArray);
   81390:	f8df 90ec 	ldr.w	r9, [pc, #236]	; 81480 <Navigate+0x104>
   81394:	e00e      	b.n	813b4 <Navigate+0x38>
			rotate(1);			// ändra här om fel
   81396:	2001      	movs	r0, #1
   81398:	4b3b      	ldr	r3, [pc, #236]	; (81488 <Navigate+0x10c>)
   8139a:	4798      	blx	r3
			counter++;
   8139c:	f899 3000 	ldrb.w	r3, [r9]
   813a0:	3301      	adds	r3, #1
   813a2:	b2db      	uxtb	r3, r3
   813a4:	f889 3000 	strb.w	r3, [r9]
			if (counter==29) {
   813a8:	2b1d      	cmp	r3, #29
   813aa:	d039      	beq.n	81420 <Navigate+0xa4>
	while(counter <60){
   813ac:	f899 3000 	ldrb.w	r3, [r9]
   813b0:	2b3b      	cmp	r3, #59	; 0x3b
   813b2:	d83d      	bhi.n	81430 <Navigate+0xb4>
		uint32_t valuesArray[30] = {};
   813b4:	2278      	movs	r2, #120	; 0x78
   813b6:	2100      	movs	r1, #0
   813b8:	4668      	mov	r0, sp
   813ba:	47d0      	blx	sl
   813bc:	f1ad 0404 	sub.w	r4, sp, #4
   813c0:	af1d      	add	r7, sp, #116	; 0x74
			usTrig();
   813c2:	4e32      	ldr	r6, [pc, #200]	; (8148c <Navigate+0x110>)
			dis=distansUs();
   813c4:	4d32      	ldr	r5, [pc, #200]	; (81490 <Navigate+0x114>)
			usTrig();
   813c6:	47b0      	blx	r6
			dis=distansUs();
   813c8:	47a8      	blx	r5
			valuesArray[i] = dis;
   813ca:	b2c0      	uxtb	r0, r0
   813cc:	f844 0f04 	str.w	r0, [r4, #4]!
		for(int i = 0; i < 30; i++) {
   813d0:	42a7      	cmp	r7, r4
   813d2:	d1f8      	bne.n	813c6 <Navigate+0x4a>
		saveValues(counter, valuesArray);
   813d4:	f899 4000 	ldrb.w	r4, [r9]
   813d8:	4669      	mov	r1, sp
   813da:	4620      	mov	r0, r4
   813dc:	4b2d      	ldr	r3, [pc, #180]	; (81494 <Navigate+0x118>)
   813de:	4798      	blx	r3
		dis=get_values(counter);
   813e0:	4620      	mov	r0, r4
   813e2:	4b2d      	ldr	r3, [pc, #180]	; (81498 <Navigate+0x11c>)
   813e4:	4798      	blx	r3
		printf("values: %i \n",dis);
   813e6:	4601      	mov	r1, r0
   813e8:	482c      	ldr	r0, [pc, #176]	; (8149c <Navigate+0x120>)
   813ea:	4b2d      	ldr	r3, [pc, #180]	; (814a0 <Navigate+0x124>)
   813ec:	4798      	blx	r3
		if (!check) {
   813ee:	4b25      	ldr	r3, [pc, #148]	; (81484 <Navigate+0x108>)
   813f0:	781b      	ldrb	r3, [r3, #0]
   813f2:	2b00      	cmp	r3, #0
   813f4:	d0cf      	beq.n	81396 <Navigate+0x1a>
			} else if (check==1) {
   813f6:	2b01      	cmp	r3, #1
   813f8:	d1d8      	bne.n	813ac <Navigate+0x30>
			rotate(-1);
   813fa:	f04f 30ff 	mov.w	r0, #4294967295
   813fe:	4b22      	ldr	r3, [pc, #136]	; (81488 <Navigate+0x10c>)
   81400:	4798      	blx	r3
			counter++;
   81402:	f899 3000 	ldrb.w	r3, [r9]
   81406:	3301      	adds	r3, #1
   81408:	b2db      	uxtb	r3, r3
   8140a:	f889 3000 	strb.w	r3, [r9]
			if (counter==59)
   8140e:	2b3b      	cmp	r3, #59	; 0x3b
   81410:	d1cc      	bne.n	813ac <Navigate+0x30>
				rotate(30);
   81412:	201e      	movs	r0, #30
   81414:	4b1c      	ldr	r3, [pc, #112]	; (81488 <Navigate+0x10c>)
   81416:	4798      	blx	r3
				check=0;		//lägg den till 2 sen om det inte går
   81418:	2200      	movs	r2, #0
   8141a:	4b1a      	ldr	r3, [pc, #104]	; (81484 <Navigate+0x108>)
   8141c:	701a      	strb	r2, [r3, #0]
   8141e:	e7c5      	b.n	813ac <Navigate+0x30>
				rotate(-30);
   81420:	f06f 001d 	mvn.w	r0, #29
   81424:	4b18      	ldr	r3, [pc, #96]	; (81488 <Navigate+0x10c>)
   81426:	4798      	blx	r3
				check=1;
   81428:	2201      	movs	r2, #1
   8142a:	4b16      	ldr	r3, [pc, #88]	; (81484 <Navigate+0x108>)
   8142c:	701a      	strb	r2, [r3, #0]
   8142e:	e7bd      	b.n	813ac <Navigate+0x30>
   81430:	2400      	movs	r4, #0
   81432:	26ff      	movs	r6, #255	; 0xff
		if (bestAngle>get_values(i) && get_values(i) != 0)
   81434:	4f18      	ldr	r7, [pc, #96]	; (81498 <Navigate+0x11c>)
   81436:	e002      	b.n	8143e <Navigate+0xc2>
   81438:	3401      	adds	r4, #1
	for ( i=0;i<60;i++)
   8143a:	2c3c      	cmp	r4, #60	; 0x3c
   8143c:	d00b      	beq.n	81456 <Navigate+0xda>
   8143e:	b2e5      	uxtb	r5, r4
		if (bestAngle>get_values(i) && get_values(i) != 0)
   81440:	4628      	mov	r0, r5
   81442:	47b8      	blx	r7
   81444:	42b0      	cmp	r0, r6
   81446:	d2f7      	bcs.n	81438 <Navigate+0xbc>
   81448:	2800      	cmp	r0, #0
   8144a:	bf18      	it	ne
   8144c:	46a8      	movne	r8, r5
   8144e:	2800      	cmp	r0, #0
   81450:	bf18      	it	ne
   81452:	4606      	movne	r6, r0
   81454:	e7f0      	b.n	81438 <Navigate+0xbc>
	if (index >= 0 && index < 30)
   81456:	f1b8 0f1d 	cmp.w	r8, #29
		rotate(index);
   8145a:	bf94      	ite	ls
   8145c:	4640      	movls	r0, r8
		rotate(index - 29);
   8145e:	f1a8 001d 	subhi.w	r0, r8, #29
   81462:	4b09      	ldr	r3, [pc, #36]	; (81488 <Navigate+0x10c>)
   81464:	4798      	blx	r3
	driveCm(bestAngle-18,5);
   81466:	f1a6 0012 	sub.w	r0, r6, #18
   8146a:	4b0e      	ldr	r3, [pc, #56]	; (814a4 <Navigate+0x128>)
   8146c:	4798      	blx	r3
   8146e:	490e      	ldr	r1, [pc, #56]	; (814a8 <Navigate+0x12c>)
   81470:	4b0e      	ldr	r3, [pc, #56]	; (814ac <Navigate+0x130>)
   81472:	4798      	blx	r3
	check=3;
   81474:	2203      	movs	r2, #3
   81476:	4b03      	ldr	r3, [pc, #12]	; (81484 <Navigate+0x108>)
   81478:	701a      	strb	r2, [r3, #0]
}
   8147a:	b01e      	add	sp, #120	; 0x78
   8147c:	e8bd 87f0 	ldmia.w	sp!, {r4, r5, r6, r7, r8, r9, sl, pc}
   81480:	20070c19 	.word	0x20070c19
   81484:	20070c18 	.word	0x20070c18
   81488:	00080419 	.word	0x00080419
   8148c:	000812ad 	.word	0x000812ad
   81490:	00081359 	.word	0x00081359
   81494:	000812dd 	.word	0x000812dd
   81498:	000812f1 	.word	0x000812f1
   8149c:	00088890 	.word	0x00088890
   814a0:	00085715 	.word	0x00085715
   814a4:	00085245 	.word	0x00085245
   814a8:	40a00000 	.word	0x40a00000
   814ac:	000803b5 	.word	0x000803b5
   814b0:	00085829 	.word	0x00085829

000814b4 <pwm_clocks_generate>:
   814b4:	b4f0      	push	{r4, r5, r6, r7}
   814b6:	b08c      	sub	sp, #48	; 0x30
   814b8:	4607      	mov	r7, r0
   814ba:	460e      	mov	r6, r1
   814bc:	ac01      	add	r4, sp, #4
   814be:	4d11      	ldr	r5, [pc, #68]	; (81504 <pwm_clocks_generate+0x50>)
   814c0:	cd0f      	ldmia	r5!, {r0, r1, r2, r3}
   814c2:	c40f      	stmia	r4!, {r0, r1, r2, r3}
   814c4:	cd0f      	ldmia	r5!, {r0, r1, r2, r3}
   814c6:	c40f      	stmia	r4!, {r0, r1, r2, r3}
   814c8:	e895 0007 	ldmia.w	r5, {r0, r1, r2}
   814cc:	e884 0007 	stmia.w	r4, {r0, r1, r2}
   814d0:	aa01      	add	r2, sp, #4
   814d2:	2300      	movs	r3, #0
   814d4:	f852 0b04 	ldr.w	r0, [r2], #4
   814d8:	fbb6 f0f0 	udiv	r0, r6, r0
   814dc:	fbb0 f0f7 	udiv	r0, r0, r7
   814e0:	f5b0 7f80 	cmp.w	r0, #256	; 0x100
   814e4:	d907      	bls.n	814f6 <pwm_clocks_generate+0x42>
   814e6:	3301      	adds	r3, #1
   814e8:	2b0b      	cmp	r3, #11
   814ea:	d1f3      	bne.n	814d4 <pwm_clocks_generate+0x20>
   814ec:	f64f 70ff 	movw	r0, #65535	; 0xffff
   814f0:	b00c      	add	sp, #48	; 0x30
   814f2:	bcf0      	pop	{r4, r5, r6, r7}
   814f4:	4770      	bx	lr
   814f6:	2b0a      	cmp	r3, #10
   814f8:	bf94      	ite	ls
   814fa:	ea40 2003 	orrls.w	r0, r0, r3, lsl #8
   814fe:	f64f 70ff 	movwhi	r0, #65535	; 0xffff
   81502:	e7f5      	b.n	814f0 <pwm_clocks_generate+0x3c>
   81504:	000888a0 	.word	0x000888a0

00081508 <pwm_init>:
   81508:	b570      	push	{r4, r5, r6, lr}
   8150a:	4606      	mov	r6, r0
   8150c:	460d      	mov	r5, r1
   8150e:	680c      	ldr	r4, [r1, #0]
   81510:	b144      	cbz	r4, 81524 <pwm_init+0x1c>
   81512:	6889      	ldr	r1, [r1, #8]
   81514:	4620      	mov	r0, r4
   81516:	4b0c      	ldr	r3, [pc, #48]	; (81548 <pwm_init+0x40>)
   81518:	4798      	blx	r3
   8151a:	4604      	mov	r4, r0
   8151c:	f64f 73ff 	movw	r3, #65535	; 0xffff
   81520:	4298      	cmp	r0, r3
   81522:	d00c      	beq.n	8153e <pwm_init+0x36>
   81524:	6868      	ldr	r0, [r5, #4]
   81526:	b140      	cbz	r0, 8153a <pwm_init+0x32>
   81528:	68a9      	ldr	r1, [r5, #8]
   8152a:	4b07      	ldr	r3, [pc, #28]	; (81548 <pwm_init+0x40>)
   8152c:	4798      	blx	r3
   8152e:	f64f 73ff 	movw	r3, #65535	; 0xffff
   81532:	4298      	cmp	r0, r3
   81534:	d005      	beq.n	81542 <pwm_init+0x3a>
   81536:	ea44 4400 	orr.w	r4, r4, r0, lsl #16
   8153a:	6034      	str	r4, [r6, #0]
   8153c:	2400      	movs	r4, #0
   8153e:	4620      	mov	r0, r4
   81540:	bd70      	pop	{r4, r5, r6, pc}
   81542:	4604      	mov	r4, r0
   81544:	e7fb      	b.n	8153e <pwm_init+0x36>
   81546:	bf00      	nop
   81548:	000814b5 	.word	0x000814b5

0008154c <pwm_channel_init>:
   8154c:	b470      	push	{r4, r5, r6}
   8154e:	680a      	ldr	r2, [r1, #0]
   81550:	684b      	ldr	r3, [r1, #4]
   81552:	f003 030f 	and.w	r3, r3, #15
   81556:	8a8c      	ldrh	r4, [r1, #20]
   81558:	4323      	orrs	r3, r4
   8155a:	890c      	ldrh	r4, [r1, #8]
   8155c:	4323      	orrs	r3, r4
   8155e:	7a8c      	ldrb	r4, [r1, #10]
   81560:	ea43 2344 	orr.w	r3, r3, r4, lsl #9
   81564:	7d8c      	ldrb	r4, [r1, #22]
   81566:	ea43 4304 	orr.w	r3, r3, r4, lsl #16
   8156a:	7dcc      	ldrb	r4, [r1, #23]
   8156c:	ea43 4344 	orr.w	r3, r3, r4, lsl #17
   81570:	7e0c      	ldrb	r4, [r1, #24]
   81572:	ea43 4384 	orr.w	r3, r3, r4, lsl #18
   81576:	eb00 1442 	add.w	r4, r0, r2, lsl #5
   8157a:	f8c4 3200 	str.w	r3, [r4, #512]	; 0x200
   8157e:	68cb      	ldr	r3, [r1, #12]
   81580:	f8c4 3204 	str.w	r3, [r4, #516]	; 0x204
   81584:	690b      	ldr	r3, [r1, #16]
   81586:	f8c4 320c 	str.w	r3, [r4, #524]	; 0x20c
   8158a:	7d8b      	ldrb	r3, [r1, #22]
   8158c:	b13b      	cbz	r3, 8159e <pwm_channel_init+0x52>
   8158e:	8b8c      	ldrh	r4, [r1, #28]
   81590:	8b4b      	ldrh	r3, [r1, #26]
   81592:	ea43 4304 	orr.w	r3, r3, r4, lsl #16
   81596:	eb00 1442 	add.w	r4, r0, r2, lsl #5
   8159a:	f8c4 3218 	str.w	r3, [r4, #536]	; 0x218
   8159e:	6c85      	ldr	r5, [r0, #72]	; 0x48
   815a0:	f04f 1301 	mov.w	r3, #65537	; 0x10001
   815a4:	4093      	lsls	r3, r2
   815a6:	43db      	mvns	r3, r3
   815a8:	401d      	ands	r5, r3
   815aa:	7fcc      	ldrb	r4, [r1, #31]
   815ac:	fa04 f602 	lsl.w	r6, r4, r2
   815b0:	7f8c      	ldrb	r4, [r1, #30]
   815b2:	4094      	lsls	r4, r2
   815b4:	ea44 4406 	orr.w	r4, r4, r6, lsl #16
   815b8:	432c      	orrs	r4, r5
   815ba:	6484      	str	r4, [r0, #72]	; 0x48
   815bc:	6c44      	ldr	r4, [r0, #68]	; 0x44
   815be:	4023      	ands	r3, r4
   815c0:	f891 4021 	ldrb.w	r4, [r1, #33]	; 0x21
   815c4:	fa04 f502 	lsl.w	r5, r4, r2
   815c8:	f891 4020 	ldrb.w	r4, [r1, #32]
   815cc:	4094      	lsls	r4, r2
   815ce:	ea44 4405 	orr.w	r4, r4, r5, lsl #16
   815d2:	4323      	orrs	r3, r4
   815d4:	6443      	str	r3, [r0, #68]	; 0x44
   815d6:	2301      	movs	r3, #1
   815d8:	4093      	lsls	r3, r2
   815da:	f891 4022 	ldrb.w	r4, [r1, #34]	; 0x22
   815de:	b334      	cbz	r4, 8162e <pwm_channel_init+0xe2>
   815e0:	6a04      	ldr	r4, [r0, #32]
   815e2:	431c      	orrs	r4, r3
   815e4:	6204      	str	r4, [r0, #32]
   815e6:	f891 4024 	ldrb.w	r4, [r1, #36]	; 0x24
   815ea:	2c01      	cmp	r4, #1
   815ec:	6e84      	ldr	r4, [r0, #104]	; 0x68
   815ee:	bf0c      	ite	eq
   815f0:	431c      	orreq	r4, r3
   815f2:	439c      	bicne	r4, r3
   815f4:	6684      	str	r4, [r0, #104]	; 0x68
   815f6:	f891 4025 	ldrb.w	r4, [r1, #37]	; 0x25
   815fa:	2c01      	cmp	r4, #1
   815fc:	6e84      	ldr	r4, [r0, #104]	; 0x68
   815fe:	bf0c      	ite	eq
   81600:	ea44 4303 	orreq.w	r3, r4, r3, lsl #16
   81604:	ea24 4303 	bicne.w	r3, r4, r3, lsl #16
   81608:	6683      	str	r3, [r0, #104]	; 0x68
   8160a:	2a03      	cmp	r2, #3
   8160c:	d914      	bls.n	81638 <pwm_channel_init+0xec>
   8160e:	3a04      	subs	r2, #4
   81610:	00d2      	lsls	r2, r2, #3
   81612:	6f04      	ldr	r4, [r0, #112]	; 0x70
   81614:	23ff      	movs	r3, #255	; 0xff
   81616:	4093      	lsls	r3, r2
   81618:	ea24 0403 	bic.w	r4, r4, r3
   8161c:	f891 3023 	ldrb.w	r3, [r1, #35]	; 0x23
   81620:	fa03 f202 	lsl.w	r2, r3, r2
   81624:	4322      	orrs	r2, r4
   81626:	6702      	str	r2, [r0, #112]	; 0x70
   81628:	2000      	movs	r0, #0
   8162a:	bc70      	pop	{r4, r5, r6}
   8162c:	4770      	bx	lr
   8162e:	6a04      	ldr	r4, [r0, #32]
   81630:	ea24 0403 	bic.w	r4, r4, r3
   81634:	6204      	str	r4, [r0, #32]
   81636:	e7d6      	b.n	815e6 <pwm_channel_init+0x9a>
   81638:	00d5      	lsls	r5, r2, #3
   8163a:	6ec3      	ldr	r3, [r0, #108]	; 0x6c
   8163c:	24ff      	movs	r4, #255	; 0xff
   8163e:	40ac      	lsls	r4, r5
   81640:	ea23 0304 	bic.w	r3, r3, r4
   81644:	f891 2023 	ldrb.w	r2, [r1, #35]	; 0x23
   81648:	40aa      	lsls	r2, r5
   8164a:	431a      	orrs	r2, r3
   8164c:	66c2      	str	r2, [r0, #108]	; 0x6c
   8164e:	e7eb      	b.n	81628 <pwm_channel_init+0xdc>

00081650 <pwm_channel_enable>:
   81650:	2301      	movs	r3, #1
   81652:	fa03 f101 	lsl.w	r1, r3, r1
   81656:	6041      	str	r1, [r0, #4]
   81658:	4770      	bx	lr

0008165a <pwm_channel_disable>:
   8165a:	2301      	movs	r3, #1
   8165c:	fa03 f101 	lsl.w	r1, r3, r1
   81660:	6081      	str	r1, [r0, #8]
   81662:	4770      	bx	lr

00081664 <twi_set_speed>:
   81664:	4b2a      	ldr	r3, [pc, #168]	; (81710 <twi_set_speed+0xac>)
   81666:	4299      	cmp	r1, r3
   81668:	d849      	bhi.n	816fe <twi_set_speed+0x9a>
   8166a:	f5a3 537a 	sub.w	r3, r3, #16000	; 0x3e80
   8166e:	4299      	cmp	r1, r3
   81670:	d92b      	bls.n	816ca <twi_set_speed+0x66>
   81672:	b410      	push	{r4}
   81674:	4c27      	ldr	r4, [pc, #156]	; (81714 <twi_set_speed+0xb0>)
   81676:	fba4 3402 	umull	r3, r4, r4, r2
   8167a:	0ba4      	lsrs	r4, r4, #14
   8167c:	3c04      	subs	r4, #4
   8167e:	4b26      	ldr	r3, [pc, #152]	; (81718 <twi_set_speed+0xb4>)
   81680:	440b      	add	r3, r1
   81682:	009b      	lsls	r3, r3, #2
   81684:	fbb2 f2f3 	udiv	r2, r2, r3
   81688:	3a04      	subs	r2, #4
   8168a:	2cff      	cmp	r4, #255	; 0xff
   8168c:	d939      	bls.n	81702 <twi_set_speed+0x9e>
   8168e:	2100      	movs	r1, #0
   81690:	3101      	adds	r1, #1
   81692:	0864      	lsrs	r4, r4, #1
   81694:	2cff      	cmp	r4, #255	; 0xff
   81696:	d90d      	bls.n	816b4 <twi_set_speed+0x50>
   81698:	2907      	cmp	r1, #7
   8169a:	d1f9      	bne.n	81690 <twi_set_speed+0x2c>
   8169c:	0213      	lsls	r3, r2, #8
   8169e:	b29b      	uxth	r3, r3
   816a0:	0409      	lsls	r1, r1, #16
   816a2:	f401 21e0 	and.w	r1, r1, #458752	; 0x70000
   816a6:	430b      	orrs	r3, r1
   816a8:	b2e4      	uxtb	r4, r4
   816aa:	4323      	orrs	r3, r4
   816ac:	6103      	str	r3, [r0, #16]
   816ae:	2000      	movs	r0, #0
   816b0:	bc10      	pop	{r4}
   816b2:	4770      	bx	lr
   816b4:	2aff      	cmp	r2, #255	; 0xff
   816b6:	d9f1      	bls.n	8169c <twi_set_speed+0x38>
   816b8:	2906      	cmp	r1, #6
   816ba:	d8ef      	bhi.n	8169c <twi_set_speed+0x38>
   816bc:	3101      	adds	r1, #1
   816be:	0852      	lsrs	r2, r2, #1
   816c0:	2aff      	cmp	r2, #255	; 0xff
   816c2:	d9eb      	bls.n	8169c <twi_set_speed+0x38>
   816c4:	2906      	cmp	r1, #6
   816c6:	d9f9      	bls.n	816bc <twi_set_speed+0x58>
   816c8:	e7e8      	b.n	8169c <twi_set_speed+0x38>
   816ca:	0049      	lsls	r1, r1, #1
   816cc:	fbb2 f2f1 	udiv	r2, r2, r1
   816d0:	3a04      	subs	r2, #4
   816d2:	2aff      	cmp	r2, #255	; 0xff
   816d4:	d911      	bls.n	816fa <twi_set_speed+0x96>
   816d6:	2300      	movs	r3, #0
   816d8:	3301      	adds	r3, #1
   816da:	0852      	lsrs	r2, r2, #1
   816dc:	2aff      	cmp	r2, #255	; 0xff
   816de:	d901      	bls.n	816e4 <twi_set_speed+0x80>
   816e0:	2b07      	cmp	r3, #7
   816e2:	d1f9      	bne.n	816d8 <twi_set_speed+0x74>
   816e4:	0211      	lsls	r1, r2, #8
   816e6:	b289      	uxth	r1, r1
   816e8:	041b      	lsls	r3, r3, #16
   816ea:	f403 23e0 	and.w	r3, r3, #458752	; 0x70000
   816ee:	430b      	orrs	r3, r1
   816f0:	b2d2      	uxtb	r2, r2
   816f2:	431a      	orrs	r2, r3
   816f4:	6102      	str	r2, [r0, #16]
   816f6:	2000      	movs	r0, #0
   816f8:	4770      	bx	lr
   816fa:	2300      	movs	r3, #0
   816fc:	e7f2      	b.n	816e4 <twi_set_speed+0x80>
   816fe:	2001      	movs	r0, #1
   81700:	4770      	bx	lr
   81702:	2aff      	cmp	r2, #255	; 0xff
   81704:	bf88      	it	hi
   81706:	2100      	movhi	r1, #0
   81708:	d8d8      	bhi.n	816bc <twi_set_speed+0x58>
   8170a:	2100      	movs	r1, #0
   8170c:	e7c6      	b.n	8169c <twi_set_speed+0x38>
   8170e:	bf00      	nop
   81710:	00061a80 	.word	0x00061a80
   81714:	057619f1 	.word	0x057619f1
   81718:	3ffd1200 	.word	0x3ffd1200

0008171c <twi_master_init>:
   8171c:	b538      	push	{r3, r4, r5, lr}
   8171e:	4604      	mov	r4, r0
   81720:	460d      	mov	r5, r1
   81722:	f04f 33ff 	mov.w	r3, #4294967295
   81726:	6283      	str	r3, [r0, #40]	; 0x28
   81728:	6a03      	ldr	r3, [r0, #32]
   8172a:	2380      	movs	r3, #128	; 0x80
   8172c:	6003      	str	r3, [r0, #0]
   8172e:	6b03      	ldr	r3, [r0, #48]	; 0x30
   81730:	2308      	movs	r3, #8
   81732:	6003      	str	r3, [r0, #0]
   81734:	2320      	movs	r3, #32
   81736:	6003      	str	r3, [r0, #0]
   81738:	2304      	movs	r3, #4
   8173a:	6003      	str	r3, [r0, #0]
   8173c:	680a      	ldr	r2, [r1, #0]
   8173e:	6849      	ldr	r1, [r1, #4]
   81740:	4b05      	ldr	r3, [pc, #20]	; (81758 <twi_master_init+0x3c>)
   81742:	4798      	blx	r3
   81744:	2801      	cmp	r0, #1
   81746:	bf14      	ite	ne
   81748:	2000      	movne	r0, #0
   8174a:	2001      	moveq	r0, #1
   8174c:	7a6b      	ldrb	r3, [r5, #9]
   8174e:	2b01      	cmp	r3, #1
   81750:	bf04      	itt	eq
   81752:	2340      	moveq	r3, #64	; 0x40
   81754:	6023      	streq	r3, [r4, #0]
   81756:	bd38      	pop	{r3, r4, r5, pc}
   81758:	00081665 	.word	0x00081665

0008175c <twi_mk_addr>:
   8175c:	460a      	mov	r2, r1
   8175e:	b159      	cbz	r1, 81778 <twi_mk_addr+0x1c>
   81760:	7803      	ldrb	r3, [r0, #0]
   81762:	2901      	cmp	r1, #1
   81764:	bfc4      	itt	gt
   81766:	7841      	ldrbgt	r1, [r0, #1]
   81768:	ea41 2303 	orrgt.w	r3, r1, r3, lsl #8
   8176c:	2a02      	cmp	r2, #2
   8176e:	dd04      	ble.n	8177a <twi_mk_addr+0x1e>
   81770:	7882      	ldrb	r2, [r0, #2]
   81772:	ea42 2303 	orr.w	r3, r2, r3, lsl #8
   81776:	e000      	b.n	8177a <twi_mk_addr+0x1e>
   81778:	2300      	movs	r3, #0
   8177a:	4618      	mov	r0, r3
   8177c:	4770      	bx	lr
	...

00081780 <twi_master_read>:
   81780:	b5f8      	push	{r3, r4, r5, r6, r7, lr}
   81782:	68cc      	ldr	r4, [r1, #12]
   81784:	2c00      	cmp	r4, #0
   81786:	d04f      	beq.n	81828 <twi_master_read+0xa8>
   81788:	460b      	mov	r3, r1
   8178a:	4605      	mov	r5, r0
   8178c:	688e      	ldr	r6, [r1, #8]
   8178e:	2000      	movs	r0, #0
   81790:	6068      	str	r0, [r5, #4]
   81792:	684a      	ldr	r2, [r1, #4]
   81794:	0212      	lsls	r2, r2, #8
   81796:	f402 7240 	and.w	r2, r2, #768	; 0x300
   8179a:	f442 5280 	orr.w	r2, r2, #4096	; 0x1000
   8179e:	7c09      	ldrb	r1, [r1, #16]
   817a0:	0409      	lsls	r1, r1, #16
   817a2:	f401 01fe 	and.w	r1, r1, #8323072	; 0x7f0000
   817a6:	430a      	orrs	r2, r1
   817a8:	606a      	str	r2, [r5, #4]
   817aa:	60e8      	str	r0, [r5, #12]
   817ac:	6859      	ldr	r1, [r3, #4]
   817ae:	4618      	mov	r0, r3
   817b0:	4b22      	ldr	r3, [pc, #136]	; (8183c <twi_master_read+0xbc>)
   817b2:	4798      	blx	r3
   817b4:	60e8      	str	r0, [r5, #12]
   817b6:	2c01      	cmp	r4, #1
   817b8:	d00f      	beq.n	817da <twi_master_read+0x5a>
   817ba:	2301      	movs	r3, #1
   817bc:	602b      	str	r3, [r5, #0]
   817be:	2000      	movs	r0, #0
   817c0:	6a2b      	ldr	r3, [r5, #32]
   817c2:	f413 7f80 	tst.w	r3, #256	; 0x100
   817c6:	d136      	bne.n	81836 <twi_master_read+0xb6>
   817c8:	f247 512f 	movw	r1, #29999	; 0x752f
   817cc:	f247 5730 	movw	r7, #30000	; 0x7530
   817d0:	f04f 0e01 	mov.w	lr, #1
   817d4:	f04f 0c02 	mov.w	ip, #2
   817d8:	e019      	b.n	8180e <twi_master_read+0x8e>
   817da:	2303      	movs	r3, #3
   817dc:	602b      	str	r3, [r5, #0]
   817de:	2001      	movs	r0, #1
   817e0:	e7ee      	b.n	817c0 <twi_master_read+0x40>
   817e2:	460a      	mov	r2, r1
   817e4:	4670      	mov	r0, lr
   817e6:	e00c      	b.n	81802 <twi_master_read+0x82>
   817e8:	b908      	cbnz	r0, 817ee <twi_master_read+0x6e>
   817ea:	f8c5 c000 	str.w	ip, [r5]
   817ee:	f013 0f02 	tst.w	r3, #2
   817f2:	d0f6      	beq.n	817e2 <twi_master_read+0x62>
   817f4:	4670      	mov	r0, lr
   817f6:	6b2b      	ldr	r3, [r5, #48]	; 0x30
   817f8:	7033      	strb	r3, [r6, #0]
   817fa:	3c01      	subs	r4, #1
   817fc:	3601      	adds	r6, #1
   817fe:	463a      	mov	r2, r7
   81800:	b164      	cbz	r4, 8181c <twi_master_read+0x9c>
   81802:	6a2b      	ldr	r3, [r5, #32]
   81804:	f413 7f80 	tst.w	r3, #256	; 0x100
   81808:	d111      	bne.n	8182e <twi_master_read+0xae>
   8180a:	1e51      	subs	r1, r2, #1
   8180c:	b18a      	cbz	r2, 81832 <twi_master_read+0xb2>
   8180e:	2c01      	cmp	r4, #1
   81810:	d0ea      	beq.n	817e8 <twi_master_read+0x68>
   81812:	f013 0f02 	tst.w	r3, #2
   81816:	d1ee      	bne.n	817f6 <twi_master_read+0x76>
   81818:	460a      	mov	r2, r1
   8181a:	e7f1      	b.n	81800 <twi_master_read+0x80>
   8181c:	6a2b      	ldr	r3, [r5, #32]
   8181e:	f013 0f01 	tst.w	r3, #1
   81822:	d0fb      	beq.n	8181c <twi_master_read+0x9c>
   81824:	6a2b      	ldr	r3, [r5, #32]
   81826:	e000      	b.n	8182a <twi_master_read+0xaa>
   81828:	2401      	movs	r4, #1
   8182a:	4620      	mov	r0, r4
   8182c:	bdf8      	pop	{r3, r4, r5, r6, r7, pc}
   8182e:	2405      	movs	r4, #5
   81830:	e7fb      	b.n	8182a <twi_master_read+0xaa>
   81832:	2409      	movs	r4, #9
   81834:	e7f9      	b.n	8182a <twi_master_read+0xaa>
   81836:	2405      	movs	r4, #5
   81838:	e7f7      	b.n	8182a <twi_master_read+0xaa>
   8183a:	bf00      	nop
   8183c:	0008175d 	.word	0x0008175d

00081840 <twi_master_write>:
   81840:	b570      	push	{r4, r5, r6, lr}
   81842:	68cd      	ldr	r5, [r1, #12]
   81844:	2d00      	cmp	r5, #0
   81846:	d035      	beq.n	818b4 <twi_master_write+0x74>
   81848:	460b      	mov	r3, r1
   8184a:	4604      	mov	r4, r0
   8184c:	688e      	ldr	r6, [r1, #8]
   8184e:	2000      	movs	r0, #0
   81850:	6060      	str	r0, [r4, #4]
   81852:	7c0a      	ldrb	r2, [r1, #16]
   81854:	0412      	lsls	r2, r2, #16
   81856:	f402 02fe 	and.w	r2, r2, #8323072	; 0x7f0000
   8185a:	6849      	ldr	r1, [r1, #4]
   8185c:	0209      	lsls	r1, r1, #8
   8185e:	f401 7140 	and.w	r1, r1, #768	; 0x300
   81862:	430a      	orrs	r2, r1
   81864:	6062      	str	r2, [r4, #4]
   81866:	60e0      	str	r0, [r4, #12]
   81868:	6859      	ldr	r1, [r3, #4]
   8186a:	4618      	mov	r0, r3
   8186c:	4b15      	ldr	r3, [pc, #84]	; (818c4 <twi_master_write+0x84>)
   8186e:	4798      	blx	r3
   81870:	60e0      	str	r0, [r4, #12]
   81872:	6a23      	ldr	r3, [r4, #32]
   81874:	f413 7f80 	tst.w	r3, #256	; 0x100
   81878:	d006      	beq.n	81888 <twi_master_write+0x48>
   8187a:	2505      	movs	r5, #5
   8187c:	e01b      	b.n	818b6 <twi_master_write+0x76>
   8187e:	b15d      	cbz	r5, 81898 <twi_master_write+0x58>
   81880:	6a23      	ldr	r3, [r4, #32]
   81882:	f413 7f80 	tst.w	r3, #256	; 0x100
   81886:	d118      	bne.n	818ba <twi_master_write+0x7a>
   81888:	f013 0f04 	tst.w	r3, #4
   8188c:	d0f7      	beq.n	8187e <twi_master_write+0x3e>
   8188e:	7833      	ldrb	r3, [r6, #0]
   81890:	6363      	str	r3, [r4, #52]	; 0x34
   81892:	3d01      	subs	r5, #1
   81894:	3601      	adds	r6, #1
   81896:	e7f2      	b.n	8187e <twi_master_write+0x3e>
   81898:	6a23      	ldr	r3, [r4, #32]
   8189a:	f413 7f80 	tst.w	r3, #256	; 0x100
   8189e:	d10e      	bne.n	818be <twi_master_write+0x7e>
   818a0:	f013 0f04 	tst.w	r3, #4
   818a4:	d0f8      	beq.n	81898 <twi_master_write+0x58>
   818a6:	2302      	movs	r3, #2
   818a8:	6023      	str	r3, [r4, #0]
   818aa:	6a23      	ldr	r3, [r4, #32]
   818ac:	f013 0f01 	tst.w	r3, #1
   818b0:	d0fb      	beq.n	818aa <twi_master_write+0x6a>
   818b2:	e000      	b.n	818b6 <twi_master_write+0x76>
   818b4:	2501      	movs	r5, #1
   818b6:	4628      	mov	r0, r5
   818b8:	bd70      	pop	{r4, r5, r6, pc}
   818ba:	2505      	movs	r5, #5
   818bc:	e7fb      	b.n	818b6 <twi_master_write+0x76>
   818be:	2505      	movs	r5, #5
   818c0:	e7f9      	b.n	818b6 <twi_master_write+0x76>
   818c2:	bf00      	nop
   818c4:	0008175d 	.word	0x0008175d

000818c8 <rightEncoderAISR>:
int lBPulseTime = 0;
int rBPulseTime = 0;
int msPerTick = 1;
	

void rightEncoderAISR(){ //ISR for the right encoder A
   818c8:	b538      	push	{r3, r4, r5, lr}
	//Counts pulses on the right wheel encoder	
	if(getSetRightDirection()>0){
   818ca:	4b13      	ldr	r3, [pc, #76]	; (81918 <rightEncoderAISR+0x50>)
   818cc:	4798      	blx	r3
   818ce:	2800      	cmp	r0, #0
   818d0:	dd12      	ble.n	818f8 <rightEncoderAISR+0x30>
		rAPulses++; 
   818d2:	4a12      	ldr	r2, [pc, #72]	; (8191c <rightEncoderAISR+0x54>)
   818d4:	6813      	ldr	r3, [r2, #0]
   818d6:	3301      	adds	r3, #1
   818d8:	6013      	str	r3, [r2, #0]
	//	printf("ERROR: no direction could be fetched from the right motor but pulse was still triggered. Encoder pulse data will be unreliable.\n");
	}

	//Compares tick-count since last time it was here to get a measurement of the pulsetime in units of ticks
	//It uses the inbuilt tick counter as reference 
	rAPrevTick = rACurrentTick;
   818da:	4c11      	ldr	r4, [pc, #68]	; (81920 <rightEncoderAISR+0x58>)
   818dc:	4d11      	ldr	r5, [pc, #68]	; (81924 <rightEncoderAISR+0x5c>)
   818de:	682b      	ldr	r3, [r5, #0]
   818e0:	6023      	str	r3, [r4, #0]
	rACurrentTick = xTaskGetTickCountFromISR();
   818e2:	4b11      	ldr	r3, [pc, #68]	; (81928 <rightEncoderAISR+0x60>)
   818e4:	4798      	blx	r3
   818e6:	6028      	str	r0, [r5, #0]
	rAPulseTime = rACurrentTick-rAPrevTick*msPerTick;
   818e8:	6823      	ldr	r3, [r4, #0]
   818ea:	4a10      	ldr	r2, [pc, #64]	; (8192c <rightEncoderAISR+0x64>)
   818ec:	6812      	ldr	r2, [r2, #0]
   818ee:	fb02 0013 	mls	r0, r2, r3, r0
   818f2:	4b0f      	ldr	r3, [pc, #60]	; (81930 <rightEncoderAISR+0x68>)
   818f4:	6018      	str	r0, [r3, #0]
   818f6:	bd38      	pop	{r3, r4, r5, pc}
	else if(getSetRightDirection()<0){
   818f8:	4b07      	ldr	r3, [pc, #28]	; (81918 <rightEncoderAISR+0x50>)
   818fa:	4798      	blx	r3
   818fc:	2800      	cmp	r0, #0
   818fe:	db06      	blt.n	8190e <rightEncoderAISR+0x46>
	}else if (getSetRightDirection()==0 && ((int)(getSetRightSpeed()))==0){
   81900:	4b05      	ldr	r3, [pc, #20]	; (81918 <rightEncoderAISR+0x50>)
   81902:	4798      	blx	r3
   81904:	2800      	cmp	r0, #0
   81906:	d1e8      	bne.n	818da <rightEncoderAISR+0x12>
   81908:	4b0a      	ldr	r3, [pc, #40]	; (81934 <rightEncoderAISR+0x6c>)
   8190a:	4798      	blx	r3
   8190c:	e7e5      	b.n	818da <rightEncoderAISR+0x12>
		rAPulses--;
   8190e:	4a03      	ldr	r2, [pc, #12]	; (8191c <rightEncoderAISR+0x54>)
   81910:	6813      	ldr	r3, [r2, #0]
   81912:	3b01      	subs	r3, #1
   81914:	6013      	str	r3, [r2, #0]
   81916:	e7e0      	b.n	818da <rightEncoderAISR+0x12>
   81918:	00081e51 	.word	0x00081e51
   8191c:	20070c48 	.word	0x20070c48
   81920:	20070c40 	.word	0x20070c40
   81924:	20070c3c 	.word	0x20070c3c
   81928:	00082f3d 	.word	0x00082f3d
   8192c:	2007015c 	.word	0x2007015c
   81930:	20070c44 	.word	0x20070c44
   81934:	00081e11 	.word	0x00081e11

00081938 <rightEncoderBISR>:
	//printf("RightPulseTime A: %i ms\n",rAPulseTime);
	
}

void rightEncoderBISR(){ //ISR for the right encoder B
   81938:	b538      	push	{r3, r4, r5, lr}
	//Counts pulses on the right wheel encoder
	if(getSetRightDirection()>0){
   8193a:	4b13      	ldr	r3, [pc, #76]	; (81988 <rightEncoderBISR+0x50>)
   8193c:	4798      	blx	r3
   8193e:	2800      	cmp	r0, #0
   81940:	dd12      	ble.n	81968 <rightEncoderBISR+0x30>
		rBPulses++;
   81942:	4a12      	ldr	r2, [pc, #72]	; (8198c <rightEncoderBISR+0x54>)
   81944:	6813      	ldr	r3, [r2, #0]
   81946:	3301      	adds	r3, #1
   81948:	6013      	str	r3, [r2, #0]
		//	printf("ERROR: no direction could be fetched from the right motor but pulse was still triggered. Encoder pulse data will be unreliable.\n");
	}
	
	//Compares tick-count since last time it was here to get a measurement of the pulsetime in units of ticks
	//It uses the inbuilt tick counter as reference
	rBPrevTick = rBCurrentTick;
   8194a:	4c11      	ldr	r4, [pc, #68]	; (81990 <rightEncoderBISR+0x58>)
   8194c:	4d11      	ldr	r5, [pc, #68]	; (81994 <rightEncoderBISR+0x5c>)
   8194e:	682b      	ldr	r3, [r5, #0]
   81950:	6023      	str	r3, [r4, #0]
	rBCurrentTick = xTaskGetTickCountFromISR();
   81952:	4b11      	ldr	r3, [pc, #68]	; (81998 <rightEncoderBISR+0x60>)
   81954:	4798      	blx	r3
   81956:	6028      	str	r0, [r5, #0]
	rBPulseTime = rBCurrentTick-rBPrevTick*msPerTick;
   81958:	6823      	ldr	r3, [r4, #0]
   8195a:	4a10      	ldr	r2, [pc, #64]	; (8199c <rightEncoderBISR+0x64>)
   8195c:	6812      	ldr	r2, [r2, #0]
   8195e:	fb02 0013 	mls	r0, r2, r3, r0
   81962:	4b0f      	ldr	r3, [pc, #60]	; (819a0 <rightEncoderBISR+0x68>)
   81964:	6018      	str	r0, [r3, #0]
   81966:	bd38      	pop	{r3, r4, r5, pc}
	else if(getSetRightDirection()<0){
   81968:	4b07      	ldr	r3, [pc, #28]	; (81988 <rightEncoderBISR+0x50>)
   8196a:	4798      	blx	r3
   8196c:	2800      	cmp	r0, #0
   8196e:	db06      	blt.n	8197e <rightEncoderBISR+0x46>
	}else if(getSetRightDirection()==0 && ((int)(getSetRightSpeed()))==0){
   81970:	4b05      	ldr	r3, [pc, #20]	; (81988 <rightEncoderBISR+0x50>)
   81972:	4798      	blx	r3
   81974:	2800      	cmp	r0, #0
   81976:	d1e8      	bne.n	8194a <rightEncoderBISR+0x12>
   81978:	4b0a      	ldr	r3, [pc, #40]	; (819a4 <rightEncoderBISR+0x6c>)
   8197a:	4798      	blx	r3
   8197c:	e7e5      	b.n	8194a <rightEncoderBISR+0x12>
		rBPulses--;
   8197e:	4a03      	ldr	r2, [pc, #12]	; (8198c <rightEncoderBISR+0x54>)
   81980:	6813      	ldr	r3, [r2, #0]
   81982:	3b01      	subs	r3, #1
   81984:	6013      	str	r3, [r2, #0]
   81986:	e7e0      	b.n	8194a <rightEncoderBISR+0x12>
   81988:	00081e51 	.word	0x00081e51
   8198c:	20070c58 	.word	0x20070c58
   81990:	20070c50 	.word	0x20070c50
   81994:	20070c4c 	.word	0x20070c4c
   81998:	00082f3d 	.word	0x00082f3d
   8199c:	2007015c 	.word	0x2007015c
   819a0:	20070c54 	.word	0x20070c54
   819a4:	00081e11 	.word	0x00081e11

000819a8 <leftEncoderAISR>:
	//printf("RightPulseTime B: %i ms\n",rBPulseTime);
	
}

void leftEncoderAISR(){ //ISR for the left encoder A
   819a8:	b538      	push	{r3, r4, r5, lr}
	//Counts pulses on the left wheel encoder
	if(getSetLeftDirection()>0){
   819aa:	4b14      	ldr	r3, [pc, #80]	; (819fc <leftEncoderAISR+0x54>)
   819ac:	4798      	blx	r3
   819ae:	2800      	cmp	r0, #0
   819b0:	dd13      	ble.n	819da <leftEncoderAISR+0x32>
		lAPulses++;
   819b2:	4a13      	ldr	r2, [pc, #76]	; (81a00 <leftEncoderAISR+0x58>)
   819b4:	6813      	ldr	r3, [r2, #0]
   819b6:	3301      	adds	r3, #1
   819b8:	6013      	str	r3, [r2, #0]
		//	printf("ERROR: no direction could be fetched from the left motor but pulse was still triggered. Encoder pulse data will be unreliable.\n");
	}
	
	//Compares tick-count since last time it was here to get a measurement of the pulsetime in units of ticks
	//It uses the inbuilt tick counter as reference
	lAPrevTick = lACurrentTick;
   819ba:	4c12      	ldr	r4, [pc, #72]	; (81a04 <leftEncoderAISR+0x5c>)
   819bc:	4d12      	ldr	r5, [pc, #72]	; (81a08 <leftEncoderAISR+0x60>)
   819be:	682b      	ldr	r3, [r5, #0]
   819c0:	6023      	str	r3, [r4, #0]
	lACurrentTick = xTaskGetTickCountFromISR();
   819c2:	4b12      	ldr	r3, [pc, #72]	; (81a0c <leftEncoderAISR+0x64>)
   819c4:	4798      	blx	r3
   819c6:	6028      	str	r0, [r5, #0]
	lAPulseTime = (lACurrentTick-lAPrevTick)*msPerTick;
   819c8:	6823      	ldr	r3, [r4, #0]
   819ca:	1ac0      	subs	r0, r0, r3
   819cc:	4b10      	ldr	r3, [pc, #64]	; (81a10 <leftEncoderAISR+0x68>)
   819ce:	681b      	ldr	r3, [r3, #0]
   819d0:	fb03 f000 	mul.w	r0, r3, r0
   819d4:	4b0f      	ldr	r3, [pc, #60]	; (81a14 <leftEncoderAISR+0x6c>)
   819d6:	6018      	str	r0, [r3, #0]
   819d8:	bd38      	pop	{r3, r4, r5, pc}
	else if(getSetLeftDirection()<0){
   819da:	4b08      	ldr	r3, [pc, #32]	; (819fc <leftEncoderAISR+0x54>)
   819dc:	4798      	blx	r3
   819de:	2800      	cmp	r0, #0
   819e0:	db06      	blt.n	819f0 <leftEncoderAISR+0x48>
	}else if(getSetLeftDirection()==0 && ((int)(getSetLeftSpeed()))==0){
   819e2:	4b06      	ldr	r3, [pc, #24]	; (819fc <leftEncoderAISR+0x54>)
   819e4:	4798      	blx	r3
   819e6:	2800      	cmp	r0, #0
   819e8:	d1e7      	bne.n	819ba <leftEncoderAISR+0x12>
   819ea:	4b0b      	ldr	r3, [pc, #44]	; (81a18 <leftEncoderAISR+0x70>)
   819ec:	4798      	blx	r3
   819ee:	e7e4      	b.n	819ba <leftEncoderAISR+0x12>
		lAPulses--;
   819f0:	4a03      	ldr	r2, [pc, #12]	; (81a00 <leftEncoderAISR+0x58>)
   819f2:	6813      	ldr	r3, [r2, #0]
   819f4:	3b01      	subs	r3, #1
   819f6:	6013      	str	r3, [r2, #0]
   819f8:	e7df      	b.n	819ba <leftEncoderAISR+0x12>
   819fa:	bf00      	nop
   819fc:	00081e1d 	.word	0x00081e1d
   81a00:	20070c28 	.word	0x20070c28
   81a04:	20070c20 	.word	0x20070c20
   81a08:	20070c1c 	.word	0x20070c1c
   81a0c:	00082f3d 	.word	0x00082f3d
   81a10:	2007015c 	.word	0x2007015c
   81a14:	20070c24 	.word	0x20070c24
   81a18:	00081e05 	.word	0x00081e05

00081a1c <leftEncoderBISR>:
	//printf("LeftPulseTime A: %i ms\n",lAPulseTime);
	
}

void leftEncoderBISR(){ //ISR for the left encoder B
   81a1c:	b538      	push	{r3, r4, r5, lr}
	//Counts pulses on the left wheel encoder
	if(getSetLeftDirection()>0){
   81a1e:	4b14      	ldr	r3, [pc, #80]	; (81a70 <leftEncoderBISR+0x54>)
   81a20:	4798      	blx	r3
   81a22:	2800      	cmp	r0, #0
   81a24:	dd13      	ble.n	81a4e <leftEncoderBISR+0x32>
		lBPulses++;
   81a26:	4a13      	ldr	r2, [pc, #76]	; (81a74 <leftEncoderBISR+0x58>)
   81a28:	6813      	ldr	r3, [r2, #0]
   81a2a:	3301      	adds	r3, #1
   81a2c:	6013      	str	r3, [r2, #0]
		//printf("ERROR: no direction could be fetched from the left motor but pulse was still triggered. Encoder pulse data will be unreliable.\n");
	}
	
	//Compares tick-count since last time it was here to get a measurement of the pulsetime in units of ticks
	//It uses the inbuilt tick counter as reference
	lBPrevTick = lBCurrentTick;
   81a2e:	4c12      	ldr	r4, [pc, #72]	; (81a78 <leftEncoderBISR+0x5c>)
   81a30:	4d12      	ldr	r5, [pc, #72]	; (81a7c <leftEncoderBISR+0x60>)
   81a32:	682b      	ldr	r3, [r5, #0]
   81a34:	6023      	str	r3, [r4, #0]
	lBCurrentTick = xTaskGetTickCountFromISR();
   81a36:	4b12      	ldr	r3, [pc, #72]	; (81a80 <leftEncoderBISR+0x64>)
   81a38:	4798      	blx	r3
   81a3a:	6028      	str	r0, [r5, #0]
	lBPulseTime = (lBCurrentTick-lBPrevTick)*msPerTick;
   81a3c:	6823      	ldr	r3, [r4, #0]
   81a3e:	1ac0      	subs	r0, r0, r3
   81a40:	4b10      	ldr	r3, [pc, #64]	; (81a84 <leftEncoderBISR+0x68>)
   81a42:	681b      	ldr	r3, [r3, #0]
   81a44:	fb03 f000 	mul.w	r0, r3, r0
   81a48:	4b0f      	ldr	r3, [pc, #60]	; (81a88 <leftEncoderBISR+0x6c>)
   81a4a:	6018      	str	r0, [r3, #0]
   81a4c:	bd38      	pop	{r3, r4, r5, pc}
	else if(getSetLeftDirection()<0){
   81a4e:	4b08      	ldr	r3, [pc, #32]	; (81a70 <leftEncoderBISR+0x54>)
   81a50:	4798      	blx	r3
   81a52:	2800      	cmp	r0, #0
   81a54:	db06      	blt.n	81a64 <leftEncoderBISR+0x48>
	}else if(getSetLeftDirection()==0 && ((int)(getSetLeftSpeed()))==0){
   81a56:	4b06      	ldr	r3, [pc, #24]	; (81a70 <leftEncoderBISR+0x54>)
   81a58:	4798      	blx	r3
   81a5a:	2800      	cmp	r0, #0
   81a5c:	d1e7      	bne.n	81a2e <leftEncoderBISR+0x12>
   81a5e:	4b0b      	ldr	r3, [pc, #44]	; (81a8c <leftEncoderBISR+0x70>)
   81a60:	4798      	blx	r3
   81a62:	e7e4      	b.n	81a2e <leftEncoderBISR+0x12>
		lBPulses--;
   81a64:	4a03      	ldr	r2, [pc, #12]	; (81a74 <leftEncoderBISR+0x58>)
   81a66:	6813      	ldr	r3, [r2, #0]
   81a68:	3b01      	subs	r3, #1
   81a6a:	6013      	str	r3, [r2, #0]
   81a6c:	e7df      	b.n	81a2e <leftEncoderBISR+0x12>
   81a6e:	bf00      	nop
   81a70:	00081e1d 	.word	0x00081e1d
   81a74:	20070c38 	.word	0x20070c38
   81a78:	20070c30 	.word	0x20070c30
   81a7c:	20070c2c 	.word	0x20070c2c
   81a80:	00082f3d 	.word	0x00082f3d
   81a84:	2007015c 	.word	0x2007015c
   81a88:	20070c34 	.word	0x20070c34
   81a8c:	00081e05 	.word	0x00081e05

00081a90 <resetCounter>:
	//printf("LeftPulseTime B: %i ms\n",lBPulseTime);
	
}

void resetCounter(){ //resets left and right encoders pulse counters
	lAPulses=0;
   81a90:	2300      	movs	r3, #0
   81a92:	4a04      	ldr	r2, [pc, #16]	; (81aa4 <resetCounter+0x14>)
   81a94:	6013      	str	r3, [r2, #0]
	rAPulses=0;
   81a96:	4a04      	ldr	r2, [pc, #16]	; (81aa8 <resetCounter+0x18>)
   81a98:	6013      	str	r3, [r2, #0]
	rBPulses=0;
   81a9a:	4a04      	ldr	r2, [pc, #16]	; (81aac <resetCounter+0x1c>)
   81a9c:	6013      	str	r3, [r2, #0]
	lBPulses=0;
   81a9e:	4a04      	ldr	r2, [pc, #16]	; (81ab0 <resetCounter+0x20>)
   81aa0:	6013      	str	r3, [r2, #0]
   81aa2:	4770      	bx	lr
   81aa4:	20070c28 	.word	0x20070c28
   81aa8:	20070c48 	.word	0x20070c48
   81aac:	20070c58 	.word	0x20070c58
   81ab0:	20070c38 	.word	0x20070c38

00081ab4 <getLeftPulses>:
	//printf("LeftPulses A: #%i\n",lAPulses);
	return lAPulses;
}
long getLeftBPulses(){ //returns the amount of pulses from left encoder B since last reset
	//printf("LeftPulses B: #%i\n",lBPulses);
	return lBPulses;
   81ab4:	4b02      	ldr	r3, [pc, #8]	; (81ac0 <getLeftPulses+0xc>)
	return (getLeftAPulses()+getLeftBPulses());
   81ab6:	6818      	ldr	r0, [r3, #0]
   81ab8:	4b02      	ldr	r3, [pc, #8]	; (81ac4 <getLeftPulses+0x10>)
   81aba:	681b      	ldr	r3, [r3, #0]
}
   81abc:	4418      	add	r0, r3
   81abe:	4770      	bx	lr
   81ac0:	20070c38 	.word	0x20070c38
   81ac4:	20070c28 	.word	0x20070c28

00081ac8 <getRightPulses>:
	//printf("RightPulses A: #%i\n",rAPulses);
	return rAPulses;
}
long getRightBPulses(){ //returns the amount of pulses from right encoder B since last reset
	//printf("RightPulses B: #%i\n",rBPulses);
	return rBPulses;
   81ac8:	4b02      	ldr	r3, [pc, #8]	; (81ad4 <getRightPulses+0xc>)
	return (getRightAPulses()+getRightBPulses());
   81aca:	6818      	ldr	r0, [r3, #0]
   81acc:	4b02      	ldr	r3, [pc, #8]	; (81ad8 <getRightPulses+0x10>)
   81ace:	681b      	ldr	r3, [r3, #0]
}
   81ad0:	4418      	add	r0, r3
   81ad2:	4770      	bx	lr
   81ad4:	20070c58 	.word	0x20070c58
   81ad8:	20070c48 	.word	0x20070c48

00081adc <init_twi>:
   81adc:	b500      	push	{lr}
   81ade:	b085      	sub	sp, #20
   81ae0:	4b09      	ldr	r3, [pc, #36]	; (81b08 <init_twi+0x2c>)
   81ae2:	9302      	str	r3, [sp, #8]
   81ae4:	4b09      	ldr	r3, [pc, #36]	; (81b0c <init_twi+0x30>)
   81ae6:	9301      	str	r3, [sp, #4]
   81ae8:	2300      	movs	r3, #0
   81aea:	f88d 300d 	strb.w	r3, [sp, #13]
   81aee:	2017      	movs	r0, #23
   81af0:	4b07      	ldr	r3, [pc, #28]	; (81b10 <init_twi+0x34>)
   81af2:	4798      	blx	r3
   81af4:	a901      	add	r1, sp, #4
   81af6:	4807      	ldr	r0, [pc, #28]	; (81b14 <init_twi+0x38>)
   81af8:	4b07      	ldr	r3, [pc, #28]	; (81b18 <init_twi+0x3c>)
   81afa:	4798      	blx	r3
   81afc:	fab0 f080 	clz	r0, r0
   81b00:	0940      	lsrs	r0, r0, #5
   81b02:	b005      	add	sp, #20
   81b04:	f85d fb04 	ldr.w	pc, [sp], #4
   81b08:	000186a0 	.word	0x000186a0
   81b0c:	0501bd00 	.word	0x0501bd00
   81b10:	00083f05 	.word	0x00083f05
   81b14:	40090000 	.word	0x40090000
   81b18:	0008171d 	.word	0x0008171d

00081b1c <send_package>:
   81b1c:	b570      	push	{r4, r5, r6, lr}
   81b1e:	b08a      	sub	sp, #40	; 0x28
   81b20:	2908      	cmp	r1, #8
   81b22:	d004      	beq.n	81b2e <send_package+0x12>
   81b24:	2910      	cmp	r1, #16
   81b26:	d016      	beq.n	81b56 <send_package+0x3a>
   81b28:	2001      	movs	r0, #1
   81b2a:	b00a      	add	sp, #40	; 0x28
   81b2c:	bd70      	pop	{r4, r5, r6, pc}
   81b2e:	4e14      	ldr	r6, [pc, #80]	; (81b80 <send_package+0x64>)
   81b30:	7030      	strb	r0, [r6, #0]
   81b32:	466c      	mov	r4, sp
   81b34:	4d13      	ldr	r5, [pc, #76]	; (81b84 <send_package+0x68>)
   81b36:	cd0f      	ldmia	r5!, {r0, r1, r2, r3}
   81b38:	c40f      	stmia	r4!, {r0, r1, r2, r3}
   81b3a:	682b      	ldr	r3, [r5, #0]
   81b3c:	6023      	str	r3, [r4, #0]
   81b3e:	2308      	movs	r3, #8
   81b40:	f88d 3010 	strb.w	r3, [sp, #16]
   81b44:	9602      	str	r6, [sp, #8]
   81b46:	4669      	mov	r1, sp
   81b48:	480f      	ldr	r0, [pc, #60]	; (81b88 <send_package+0x6c>)
   81b4a:	4b10      	ldr	r3, [pc, #64]	; (81b8c <send_package+0x70>)
   81b4c:	4798      	blx	r3
   81b4e:	fab0 f080 	clz	r0, r0
   81b52:	0940      	lsrs	r0, r0, #5
   81b54:	e7e9      	b.n	81b2a <send_package+0xe>
   81b56:	4e0e      	ldr	r6, [pc, #56]	; (81b90 <send_package+0x74>)
   81b58:	7030      	strb	r0, [r6, #0]
   81b5a:	ac05      	add	r4, sp, #20
   81b5c:	4d0d      	ldr	r5, [pc, #52]	; (81b94 <send_package+0x78>)
   81b5e:	cd0f      	ldmia	r5!, {r0, r1, r2, r3}
   81b60:	c40f      	stmia	r4!, {r0, r1, r2, r3}
   81b62:	682b      	ldr	r3, [r5, #0]
   81b64:	6023      	str	r3, [r4, #0]
   81b66:	2310      	movs	r3, #16
   81b68:	f88d 3024 	strb.w	r3, [sp, #36]	; 0x24
   81b6c:	9607      	str	r6, [sp, #28]
   81b6e:	a905      	add	r1, sp, #20
   81b70:	4805      	ldr	r0, [pc, #20]	; (81b88 <send_package+0x6c>)
   81b72:	4b06      	ldr	r3, [pc, #24]	; (81b8c <send_package+0x70>)
   81b74:	4798      	blx	r3
   81b76:	fab0 f080 	clz	r0, r0
   81b7a:	0940      	lsrs	r0, r0, #5
   81b7c:	e7d5      	b.n	81b2a <send_package+0xe>
   81b7e:	bf00      	nop
   81b80:	20070c6c 	.word	0x20070c6c
   81b84:	20070160 	.word	0x20070160
   81b88:	40090000 	.word	0x40090000
   81b8c:	00081841 	.word	0x00081841
   81b90:	20070c70 	.word	0x20070c70
   81b94:	20070174 	.word	0x20070174

00081b98 <read_package>:
   81b98:	b508      	push	{r3, lr}
   81b9a:	2808      	cmp	r0, #8
   81b9c:	bf0c      	ite	eq
   81b9e:	4904      	ldreq	r1, [pc, #16]	; (81bb0 <read_package+0x18>)
   81ba0:	4904      	ldrne	r1, [pc, #16]	; (81bb4 <read_package+0x1c>)
   81ba2:	4805      	ldr	r0, [pc, #20]	; (81bb8 <read_package+0x20>)
   81ba4:	4b05      	ldr	r3, [pc, #20]	; (81bbc <read_package+0x24>)
   81ba6:	4798      	blx	r3
   81ba8:	fab0 f080 	clz	r0, r0
   81bac:	0940      	lsrs	r0, r0, #5
   81bae:	bd08      	pop	{r3, pc}
   81bb0:	20070188 	.word	0x20070188
   81bb4:	2007019c 	.word	0x2007019c
   81bb8:	40090000 	.word	0x40090000
   81bbc:	00081781 	.word	0x00081781

00081bc0 <testDriveL>:
void drive(float velL, float velR){
	testDriveL(velL);
	testDriveR(velR);	
}

void testDriveL(float speedPulseL) {
   81bc0:	b5f0      	push	{r4, r5, r6, r7, lr}
   81bc2:	b085      	sub	sp, #20
   81bc4:	4604      	mov	r4, r0
		base->PIO_SODR = arch_ioport_pin_to_mask(pin);
   81bc6:	f44f 7280 	mov.w	r2, #256	; 0x100
   81bca:	4b2b      	ldr	r3, [pc, #172]	; (81c78 <testDriveL+0xb8>)
   81bcc:	631a      	str	r2, [r3, #48]	; 0x30
	ioport_set_pin_level(PIO_PD8_IDX, HIGH); //För att räkna tiden det tar från anrop till skickad puls
	if(speedPulseL<-475){
   81bce:	492b      	ldr	r1, [pc, #172]	; (81c7c <testDriveL+0xbc>)
   81bd0:	4b2b      	ldr	r3, [pc, #172]	; (81c80 <testDriveL+0xc0>)
   81bd2:	4798      	blx	r3
   81bd4:	2800      	cmp	r0, #0
   81bd6:	d147      	bne.n	81c68 <testDriveL+0xa8>
		printf("ERROR! mcPulseLeft param is over defined negative limit\n");
	}
	else if(speedPulseL>475){
   81bd8:	492a      	ldr	r1, [pc, #168]	; (81c84 <testDriveL+0xc4>)
   81bda:	4620      	mov	r0, r4
   81bdc:	4b2a      	ldr	r3, [pc, #168]	; (81c88 <testDriveL+0xc8>)
   81bde:	4798      	blx	r3
   81be0:	2800      	cmp	r0, #0
   81be2:	d145      	bne.n	81c70 <testDriveL+0xb0>
		printf("ERROR! mcPulseLeft param is over defined positive limit\n");
	}

	mcPLeftLatest = speedPulseL;
   81be4:	4b29      	ldr	r3, [pc, #164]	; (81c8c <testDriveL+0xcc>)
   81be6:	601c      	str	r4, [r3, #0]
	//Makes positive values represent forward direction and negative values represent reverse direction
	speedPulseL = round(speedPulseL);
   81be8:	4620      	mov	r0, r4
   81bea:	4b29      	ldr	r3, [pc, #164]	; (81c90 <testDriveL+0xd0>)
   81bec:	4798      	blx	r3
   81bee:	4b29      	ldr	r3, [pc, #164]	; (81c94 <testDriveL+0xd4>)
   81bf0:	4798      	blx	r3
	speedPulseL = speedPulseL*-1;
	motorSpeed = (int)(1500 + speedPulseL);
   81bf2:	4e29      	ldr	r6, [pc, #164]	; (81c98 <testDriveL+0xd8>)
	speedPulseL = round(speedPulseL);
   81bf4:	4b29      	ldr	r3, [pc, #164]	; (81c9c <testDriveL+0xdc>)
   81bf6:	4798      	blx	r3
	motorSpeed = (int)(1500 + speedPulseL);
   81bf8:	4601      	mov	r1, r0
   81bfa:	4829      	ldr	r0, [pc, #164]	; (81ca0 <testDriveL+0xe0>)
   81bfc:	4b29      	ldr	r3, [pc, #164]	; (81ca4 <testDriveL+0xe4>)
   81bfe:	4798      	blx	r3
   81c00:	4b29      	ldr	r3, [pc, #164]	; (81ca8 <testDriveL+0xe8>)
   81c02:	4798      	blx	r3
   81c04:	6030      	str	r0, [r6, #0]

	//connect peripheral B to pin A19
	pio_configure_pin(PWM_42, PIO_TYPE_PIO_PERIPH_B);
   81c06:	f04f 5180 	mov.w	r1, #268435456	; 0x10000000
   81c0a:	2013      	movs	r0, #19
   81c0c:	4b27      	ldr	r3, [pc, #156]	; (81cac <testDriveL+0xec>)
   81c0e:	4798      	blx	r3

	//enable the peripheral clock for the PWM hardware
	pmc_enable_periph_clk(ID_PWM);
   81c10:	2024      	movs	r0, #36	; 0x24
   81c12:	4b27      	ldr	r3, [pc, #156]	; (81cb0 <testDriveL+0xf0>)
   81c14:	4798      	blx	r3

	//disable the channel until it is properly configured
	pwm_channel_disable(PWM, PWM_CHANNEL_1);
   81c16:	4c27      	ldr	r4, [pc, #156]	; (81cb4 <testDriveL+0xf4>)
   81c18:	2101      	movs	r1, #1
   81c1a:	4620      	mov	r0, r4
   81c1c:	4b26      	ldr	r3, [pc, #152]	; (81cb8 <testDriveL+0xf8>)
   81c1e:	4798      	blx	r3

	//PWM clock configuration
	pwm_clock_t PWMDAC_clock_config =
   81c20:	4b26      	ldr	r3, [pc, #152]	; (81cbc <testDriveL+0xfc>)
   81c22:	9301      	str	r3, [sp, #4]
   81c24:	2700      	movs	r7, #0
   81c26:	9702      	str	r7, [sp, #8]
   81c28:	4b25      	ldr	r3, [pc, #148]	; (81cc0 <testDriveL+0x100>)
   81c2a:	9303      	str	r3, [sp, #12]
		.ul_clkb = 0,
		.ul_mck = sysclk_get_cpu_hz()
	};

	//apply the clock configuration
	pwm_init(PWM, &PWMDAC_clock_config);
   81c2c:	a901      	add	r1, sp, #4
   81c2e:	4620      	mov	r0, r4
   81c30:	4b24      	ldr	r3, [pc, #144]	; (81cc4 <testDriveL+0x104>)
   81c32:	4798      	blx	r3

	//sets the wave pulse properties
	pwm_channel_instance.channel = PWM_CHANNEL_1;
   81c34:	4924      	ldr	r1, [pc, #144]	; (81cc8 <testDriveL+0x108>)
   81c36:	2501      	movs	r5, #1
   81c38:	600d      	str	r5, [r1, #0]
	pwm_channel_instance.ul_prescaler = PWM_CMR_CPRE_CLKA;
   81c3a:	230b      	movs	r3, #11
   81c3c:	604b      	str	r3, [r1, #4]
	pwm_channel_instance.polarity = PWM_HIGH;
   81c3e:	728d      	strb	r5, [r1, #10]
	pwm_channel_instance.alignment = PWM_ALIGN_LEFT;
   81c40:	810f      	strh	r7, [r1, #8]
	pwm_channel_instance.ul_period = 5250 + motorSpeed;
   81c42:	6832      	ldr	r2, [r6, #0]
   81c44:	f502 53a4 	add.w	r3, r2, #5248	; 0x1480
   81c48:	3302      	adds	r3, #2
   81c4a:	610b      	str	r3, [r1, #16]
	pwm_channel_instance.ul_duty = motorSpeed;
   81c4c:	60ca      	str	r2, [r1, #12]
	//apply the channel configuration
	pwm_channel_init(PWM, &pwm_channel_instance);
   81c4e:	4620      	mov	r0, r4
   81c50:	4b1e      	ldr	r3, [pc, #120]	; (81ccc <testDriveL+0x10c>)
   81c52:	4798      	blx	r3

	//configuration is complete, so enable the channel
	pwm_channel_enable(PWM, PWM_CHANNEL_1);
   81c54:	4629      	mov	r1, r5
   81c56:	4620      	mov	r0, r4
   81c58:	4b1d      	ldr	r3, [pc, #116]	; (81cd0 <testDriveL+0x110>)
   81c5a:	4798      	blx	r3
		base->PIO_CODR = arch_ioport_pin_to_mask(pin);
   81c5c:	f44f 7280 	mov.w	r2, #256	; 0x100
   81c60:	4b05      	ldr	r3, [pc, #20]	; (81c78 <testDriveL+0xb8>)
   81c62:	635a      	str	r2, [r3, #52]	; 0x34
	ioport_set_pin_level(PIO_PD8_IDX, LOW); //För att räkna tiden det tar från anrop till skickad puls
}
   81c64:	b005      	add	sp, #20
   81c66:	bdf0      	pop	{r4, r5, r6, r7, pc}
		printf("ERROR! mcPulseLeft param is over defined negative limit\n");
   81c68:	481a      	ldr	r0, [pc, #104]	; (81cd4 <testDriveL+0x114>)
   81c6a:	4b1b      	ldr	r3, [pc, #108]	; (81cd8 <testDriveL+0x118>)
   81c6c:	4798      	blx	r3
   81c6e:	e7b9      	b.n	81be4 <testDriveL+0x24>
		printf("ERROR! mcPulseLeft param is over defined positive limit\n");
   81c70:	481a      	ldr	r0, [pc, #104]	; (81cdc <testDriveL+0x11c>)
   81c72:	4b19      	ldr	r3, [pc, #100]	; (81cd8 <testDriveL+0x118>)
   81c74:	4798      	blx	r3
   81c76:	e7b5      	b.n	81be4 <testDriveL+0x24>
   81c78:	400e1400 	.word	0x400e1400
   81c7c:	c3ed8000 	.word	0xc3ed8000
   81c80:	00085629 	.word	0x00085629
   81c84:	43ed8000 	.word	0x43ed8000
   81c88:	00085665 	.word	0x00085665
   81c8c:	20070c74 	.word	0x20070c74
   81c90:	00084a05 	.word	0x00084a05
   81c94:	00084175 	.word	0x00084175
   81c98:	20070c7c 	.word	0x20070c7c
   81c9c:	00085031 	.word	0x00085031
   81ca0:	44bb8000 	.word	0x44bb8000
   81ca4:	000850d9 	.word	0x000850d9
   81ca8:	00085679 	.word	0x00085679
   81cac:	00083ba1 	.word	0x00083ba1
   81cb0:	00083f05 	.word	0x00083f05
   81cb4:	40094000 	.word	0x40094000
   81cb8:	0008165b 	.word	0x0008165b
   81cbc:	000f4240 	.word	0x000f4240
   81cc0:	0501bd00 	.word	0x0501bd00
   81cc4:	00081509 	.word	0x00081509
   81cc8:	2007b05c 	.word	0x2007b05c
   81ccc:	0008154d 	.word	0x0008154d
   81cd0:	00081651 	.word	0x00081651
   81cd4:	000888cc 	.word	0x000888cc
   81cd8:	00085715 	.word	0x00085715
   81cdc:	00088908 	.word	0x00088908

00081ce0 <testDriveR>:

void testDriveR(float speedPulseR) {
   81ce0:	b570      	push	{r4, r5, r6, lr}
   81ce2:	b084      	sub	sp, #16
   81ce4:	4604      	mov	r4, r0
		if(speedPulseR<-475){
   81ce6:	4928      	ldr	r1, [pc, #160]	; (81d88 <testDriveR+0xa8>)
   81ce8:	4b28      	ldr	r3, [pc, #160]	; (81d8c <testDriveR+0xac>)
   81cea:	4798      	blx	r3
   81cec:	2800      	cmp	r0, #0
   81cee:	d143      	bne.n	81d78 <testDriveR+0x98>
			printf("ERROR! mcPulseRight param is over defined negative limit\n");
		}
		else if(speedPulseR>475){
   81cf0:	4927      	ldr	r1, [pc, #156]	; (81d90 <testDriveR+0xb0>)
   81cf2:	4620      	mov	r0, r4
   81cf4:	4b27      	ldr	r3, [pc, #156]	; (81d94 <testDriveR+0xb4>)
   81cf6:	4798      	blx	r3
   81cf8:	2800      	cmp	r0, #0
   81cfa:	d141      	bne.n	81d80 <testDriveR+0xa0>
			printf("ERROR! mcPulseRight param is over defined positive limit\n");
		}

	mcPRightLatest = speedPulseR;
   81cfc:	4b26      	ldr	r3, [pc, #152]	; (81d98 <testDriveR+0xb8>)
   81cfe:	601c      	str	r4, [r3, #0]
	//Makes positive values represent forward direction and negative values represent reverse direction
	speedPulseR = round(speedPulseR);
   81d00:	4620      	mov	r0, r4
   81d02:	4b26      	ldr	r3, [pc, #152]	; (81d9c <testDriveR+0xbc>)
   81d04:	4798      	blx	r3
   81d06:	4b26      	ldr	r3, [pc, #152]	; (81da0 <testDriveR+0xc0>)
   81d08:	4798      	blx	r3
	speedPulseR = speedPulseR*-1;
	motorSpeed = (int)(1500 + speedPulseR);
   81d0a:	4e26      	ldr	r6, [pc, #152]	; (81da4 <testDriveR+0xc4>)
	speedPulseR = round(speedPulseR);
   81d0c:	4b26      	ldr	r3, [pc, #152]	; (81da8 <testDriveR+0xc8>)
   81d0e:	4798      	blx	r3
	motorSpeed = (int)(1500 + speedPulseR);
   81d10:	4601      	mov	r1, r0
   81d12:	4826      	ldr	r0, [pc, #152]	; (81dac <testDriveR+0xcc>)
   81d14:	4b26      	ldr	r3, [pc, #152]	; (81db0 <testDriveR+0xd0>)
   81d16:	4798      	blx	r3
   81d18:	4b26      	ldr	r3, [pc, #152]	; (81db4 <testDriveR+0xd4>)
   81d1a:	4798      	blx	r3
   81d1c:	6030      	str	r0, [r6, #0]

	//connect peripheral B to pin C3
	pio_configure_pin(PWM_35, PIO_TYPE_PIO_PERIPH_B);
   81d1e:	f04f 5180 	mov.w	r1, #268435456	; 0x10000000
   81d22:	2043      	movs	r0, #67	; 0x43
   81d24:	4b24      	ldr	r3, [pc, #144]	; (81db8 <testDriveR+0xd8>)
   81d26:	4798      	blx	r3

	//enable the peripheral clock for the PWM hardware
	pmc_enable_periph_clk(ID_PWM);
   81d28:	2024      	movs	r0, #36	; 0x24
   81d2a:	4b24      	ldr	r3, [pc, #144]	; (81dbc <testDriveR+0xdc>)
   81d2c:	4798      	blx	r3

	//disable the channel until it is properly configured
	pwm_channel_disable(PWM, PWM_CHANNEL_0);
   81d2e:	4c24      	ldr	r4, [pc, #144]	; (81dc0 <testDriveR+0xe0>)
   81d30:	2100      	movs	r1, #0
   81d32:	4620      	mov	r0, r4
   81d34:	4b23      	ldr	r3, [pc, #140]	; (81dc4 <testDriveR+0xe4>)
   81d36:	4798      	blx	r3

	//PWM clock configuration
	pwm_clock_t PWMDAC_clock_config =
   81d38:	4b23      	ldr	r3, [pc, #140]	; (81dc8 <testDriveR+0xe8>)
   81d3a:	9301      	str	r3, [sp, #4]
   81d3c:	2500      	movs	r5, #0
   81d3e:	9502      	str	r5, [sp, #8]
   81d40:	4b22      	ldr	r3, [pc, #136]	; (81dcc <testDriveR+0xec>)
   81d42:	9303      	str	r3, [sp, #12]
		.ul_clkb = 0,
		.ul_mck = sysclk_get_cpu_hz()
	};

	//apply the clock configuration
	pwm_init(PWM, &PWMDAC_clock_config);
   81d44:	a901      	add	r1, sp, #4
   81d46:	4620      	mov	r0, r4
   81d48:	4b21      	ldr	r3, [pc, #132]	; (81dd0 <testDriveR+0xf0>)
   81d4a:	4798      	blx	r3

	//sets the wave pulse properties
	pwm_channel_instance.channel = PWM_CHANNEL_0;
   81d4c:	4921      	ldr	r1, [pc, #132]	; (81dd4 <testDriveR+0xf4>)
   81d4e:	600d      	str	r5, [r1, #0]
	pwm_channel_instance.ul_prescaler = PWM_CMR_CPRE_CLKA;
   81d50:	230b      	movs	r3, #11
   81d52:	604b      	str	r3, [r1, #4]
	pwm_channel_instance.polarity = PWM_HIGH;
   81d54:	2301      	movs	r3, #1
   81d56:	728b      	strb	r3, [r1, #10]
	pwm_channel_instance.alignment = PWM_ALIGN_LEFT;
   81d58:	810d      	strh	r5, [r1, #8]
	pwm_channel_instance.ul_period = 5250 + motorSpeed;
   81d5a:	6832      	ldr	r2, [r6, #0]
   81d5c:	f502 53a4 	add.w	r3, r2, #5248	; 0x1480
   81d60:	3302      	adds	r3, #2
   81d62:	610b      	str	r3, [r1, #16]
	pwm_channel_instance.ul_duty = motorSpeed;
   81d64:	60ca      	str	r2, [r1, #12]
	//apply the channel configuration
	pwm_channel_init(PWM, &pwm_channel_instance);
   81d66:	4620      	mov	r0, r4
   81d68:	4b1b      	ldr	r3, [pc, #108]	; (81dd8 <testDriveR+0xf8>)
   81d6a:	4798      	blx	r3

	//configuration is complete, so enable the channel
	pwm_channel_enable(PWM, PWM_CHANNEL_0);
   81d6c:	4629      	mov	r1, r5
   81d6e:	4620      	mov	r0, r4
   81d70:	4b1a      	ldr	r3, [pc, #104]	; (81ddc <testDriveR+0xfc>)
   81d72:	4798      	blx	r3
}
   81d74:	b004      	add	sp, #16
   81d76:	bd70      	pop	{r4, r5, r6, pc}
			printf("ERROR! mcPulseRight param is over defined negative limit\n");
   81d78:	4819      	ldr	r0, [pc, #100]	; (81de0 <testDriveR+0x100>)
   81d7a:	4b1a      	ldr	r3, [pc, #104]	; (81de4 <testDriveR+0x104>)
   81d7c:	4798      	blx	r3
   81d7e:	e7bd      	b.n	81cfc <testDriveR+0x1c>
			printf("ERROR! mcPulseRight param is over defined positive limit\n");
   81d80:	4819      	ldr	r0, [pc, #100]	; (81de8 <testDriveR+0x108>)
   81d82:	4b18      	ldr	r3, [pc, #96]	; (81de4 <testDriveR+0x104>)
   81d84:	4798      	blx	r3
   81d86:	e7b9      	b.n	81cfc <testDriveR+0x1c>
   81d88:	c3ed8000 	.word	0xc3ed8000
   81d8c:	00085629 	.word	0x00085629
   81d90:	43ed8000 	.word	0x43ed8000
   81d94:	00085665 	.word	0x00085665
   81d98:	20070c78 	.word	0x20070c78
   81d9c:	00084a05 	.word	0x00084a05
   81da0:	00084175 	.word	0x00084175
   81da4:	20070c7c 	.word	0x20070c7c
   81da8:	00085031 	.word	0x00085031
   81dac:	44bb8000 	.word	0x44bb8000
   81db0:	000850d9 	.word	0x000850d9
   81db4:	00085679 	.word	0x00085679
   81db8:	00083ba1 	.word	0x00083ba1
   81dbc:	00083f05 	.word	0x00083f05
   81dc0:	40094000 	.word	0x40094000
   81dc4:	0008165b 	.word	0x0008165b
   81dc8:	000f4240 	.word	0x000f4240
   81dcc:	0501bd00 	.word	0x0501bd00
   81dd0:	00081509 	.word	0x00081509
   81dd4:	2007b05c 	.word	0x2007b05c
   81dd8:	0008154d 	.word	0x0008154d
   81ddc:	00081651 	.word	0x00081651
   81de0:	00088944 	.word	0x00088944
   81de4:	00085715 	.word	0x00085715
   81de8:	00088980 	.word	0x00088980

00081dec <drive>:
void drive(float velL, float velR){
   81dec:	b510      	push	{r4, lr}
   81dee:	460c      	mov	r4, r1
	testDriveL(velL);
   81df0:	4b02      	ldr	r3, [pc, #8]	; (81dfc <drive+0x10>)
   81df2:	4798      	blx	r3
	testDriveR(velR);	
   81df4:	4620      	mov	r0, r4
   81df6:	4b02      	ldr	r3, [pc, #8]	; (81e00 <drive+0x14>)
   81df8:	4798      	blx	r3
   81dfa:	bd10      	pop	{r4, pc}
   81dfc:	00081bc1 	.word	0x00081bc1
   81e00:	00081ce1 	.word	0x00081ce1

00081e04 <getSetLeftSpeed>:

/*Returns the value of latest speed set for the left motor*/
float getSetLeftSpeed(){
	//printf("Set Speed for Left Motor is: %i\n%%",lSpeedLatest);
	return mcPLeftLatest;
}
   81e04:	4b01      	ldr	r3, [pc, #4]	; (81e0c <getSetLeftSpeed+0x8>)
   81e06:	6818      	ldr	r0, [r3, #0]
   81e08:	4770      	bx	lr
   81e0a:	bf00      	nop
   81e0c:	20070c74 	.word	0x20070c74

00081e10 <getSetRightSpeed>:
/*Returns the value of latest speed set for the right motor*/
float getSetRightSpeed(){
	//printf("Set Speed for Right Motor is: %i\n%%",rSpeedLatest);
	return mcPRightLatest;
}
   81e10:	4b01      	ldr	r3, [pc, #4]	; (81e18 <getSetRightSpeed+0x8>)
   81e12:	6818      	ldr	r0, [r3, #0]
   81e14:	4770      	bx	lr
   81e16:	bf00      	nop
   81e18:	20070c78 	.word	0x20070c78

00081e1c <getSetLeftDirection>:
/*Returns the value of latest direction set for the left motor*/
int getSetLeftDirection(){
   81e1c:	b510      	push	{r4, lr}
	//printf("Set Direction for Left Motor is: %i\n",lDirectionLatest);
		if(mcPLeftLatest>0){
   81e1e:	4b09      	ldr	r3, [pc, #36]	; (81e44 <getSetLeftDirection+0x28>)
   81e20:	681c      	ldr	r4, [r3, #0]
   81e22:	2100      	movs	r1, #0
   81e24:	4620      	mov	r0, r4
   81e26:	4b08      	ldr	r3, [pc, #32]	; (81e48 <getSetLeftDirection+0x2c>)
   81e28:	4798      	blx	r3
   81e2a:	b108      	cbz	r0, 81e30 <getSetLeftDirection+0x14>
			return 1;
   81e2c:	2001      	movs	r0, #1
			}else if(mcPLeftLatest<0){
			return -1;
		}
		return 0;
}
   81e2e:	bd10      	pop	{r4, pc}
			}else if(mcPLeftLatest<0){
   81e30:	2100      	movs	r1, #0
   81e32:	4620      	mov	r0, r4
   81e34:	4b05      	ldr	r3, [pc, #20]	; (81e4c <getSetLeftDirection+0x30>)
   81e36:	4798      	blx	r3
   81e38:	3000      	adds	r0, #0
   81e3a:	bf18      	it	ne
   81e3c:	2001      	movne	r0, #1
   81e3e:	4240      	negs	r0, r0
   81e40:	bd10      	pop	{r4, pc}
   81e42:	bf00      	nop
   81e44:	20070c74 	.word	0x20070c74
   81e48:	00085665 	.word	0x00085665
   81e4c:	00085629 	.word	0x00085629

00081e50 <getSetRightDirection>:
/*Returns the value of latest direction set for the right motor*/
int getSetRightDirection(){
   81e50:	b510      	push	{r4, lr}
	//printf("Set Direction for Right Motor is: %i\n",rDirectionLatest);
	if(mcPRightLatest>0){
   81e52:	4b09      	ldr	r3, [pc, #36]	; (81e78 <getSetRightDirection+0x28>)
   81e54:	681c      	ldr	r4, [r3, #0]
   81e56:	2100      	movs	r1, #0
   81e58:	4620      	mov	r0, r4
   81e5a:	4b08      	ldr	r3, [pc, #32]	; (81e7c <getSetRightDirection+0x2c>)
   81e5c:	4798      	blx	r3
   81e5e:	b108      	cbz	r0, 81e64 <getSetRightDirection+0x14>
		return 1;
   81e60:	2001      	movs	r0, #1
	}else if(mcPRightLatest<0){
		return -1;
	}
	return 0;
   81e62:	bd10      	pop	{r4, pc}
	}else if(mcPRightLatest<0){
   81e64:	2100      	movs	r1, #0
   81e66:	4620      	mov	r0, r4
   81e68:	4b05      	ldr	r3, [pc, #20]	; (81e80 <getSetRightDirection+0x30>)
   81e6a:	4798      	blx	r3
   81e6c:	3000      	adds	r0, #0
   81e6e:	bf18      	it	ne
   81e70:	2001      	movne	r0, #1
   81e72:	4240      	negs	r0, r0
   81e74:	bd10      	pop	{r4, pc}
   81e76:	bf00      	nop
   81e78:	20070c78 	.word	0x20070c78
   81e7c:	00085665 	.word	0x00085665
   81e80:	00085629 	.word	0x00085629

00081e84 <_read>:
   81e84:	e92d 41f0 	stmdb	sp!, {r4, r5, r6, r7, r8, lr}
   81e88:	b980      	cbnz	r0, 81eac <_read+0x28>
   81e8a:	460c      	mov	r4, r1
   81e8c:	4690      	mov	r8, r2
   81e8e:	2a00      	cmp	r2, #0
   81e90:	dd0f      	ble.n	81eb2 <_read+0x2e>
   81e92:	188f      	adds	r7, r1, r2
   81e94:	4e08      	ldr	r6, [pc, #32]	; (81eb8 <_read+0x34>)
   81e96:	4d09      	ldr	r5, [pc, #36]	; (81ebc <_read+0x38>)
   81e98:	6830      	ldr	r0, [r6, #0]
   81e9a:	4621      	mov	r1, r4
   81e9c:	682b      	ldr	r3, [r5, #0]
   81e9e:	4798      	blx	r3
   81ea0:	3401      	adds	r4, #1
   81ea2:	42bc      	cmp	r4, r7
   81ea4:	d1f8      	bne.n	81e98 <_read+0x14>
   81ea6:	4640      	mov	r0, r8
   81ea8:	e8bd 81f0 	ldmia.w	sp!, {r4, r5, r6, r7, r8, pc}
   81eac:	f04f 38ff 	mov.w	r8, #4294967295
   81eb0:	e7f9      	b.n	81ea6 <_read+0x22>
   81eb2:	4680      	mov	r8, r0
   81eb4:	e7f7      	b.n	81ea6 <_read+0x22>
   81eb6:	bf00      	nop
   81eb8:	2007b08c 	.word	0x2007b08c
   81ebc:	2007b084 	.word	0x2007b084

00081ec0 <_write>:
   81ec0:	3801      	subs	r0, #1
   81ec2:	2802      	cmp	r0, #2
   81ec4:	d815      	bhi.n	81ef2 <_write+0x32>
   81ec6:	e92d 41f0 	stmdb	sp!, {r4, r5, r6, r7, r8, lr}
   81eca:	460e      	mov	r6, r1
   81ecc:	4614      	mov	r4, r2
   81ece:	b19a      	cbz	r2, 81ef8 <_write+0x38>
   81ed0:	460d      	mov	r5, r1
   81ed2:	f8df 8038 	ldr.w	r8, [pc, #56]	; 81f0c <_write+0x4c>
   81ed6:	4f0c      	ldr	r7, [pc, #48]	; (81f08 <_write+0x48>)
   81ed8:	f8d8 0000 	ldr.w	r0, [r8]
   81edc:	f815 1b01 	ldrb.w	r1, [r5], #1
   81ee0:	683b      	ldr	r3, [r7, #0]
   81ee2:	4798      	blx	r3
   81ee4:	2800      	cmp	r0, #0
   81ee6:	db0a      	blt.n	81efe <_write+0x3e>
   81ee8:	1ba8      	subs	r0, r5, r6
   81eea:	3c01      	subs	r4, #1
   81eec:	d1f4      	bne.n	81ed8 <_write+0x18>
   81eee:	e8bd 81f0 	ldmia.w	sp!, {r4, r5, r6, r7, r8, pc}
   81ef2:	f04f 30ff 	mov.w	r0, #4294967295
   81ef6:	4770      	bx	lr
   81ef8:	4610      	mov	r0, r2
   81efa:	e8bd 81f0 	ldmia.w	sp!, {r4, r5, r6, r7, r8, pc}
   81efe:	f04f 30ff 	mov.w	r0, #4294967295
   81f02:	e8bd 81f0 	ldmia.w	sp!, {r4, r5, r6, r7, r8, pc}
   81f06:	bf00      	nop
   81f08:	2007b088 	.word	0x2007b088
   81f0c:	2007b08c 	.word	0x2007b08c

00081f10 <uart_init>:
   81f10:	b410      	push	{r4}
   81f12:	23ac      	movs	r3, #172	; 0xac
   81f14:	6003      	str	r3, [r0, #0]
   81f16:	680b      	ldr	r3, [r1, #0]
   81f18:	684a      	ldr	r2, [r1, #4]
   81f1a:	fbb3 f3f2 	udiv	r3, r3, r2
   81f1e:	091b      	lsrs	r3, r3, #4
   81f20:	1e5c      	subs	r4, r3, #1
   81f22:	f64f 72fe 	movw	r2, #65534	; 0xfffe
   81f26:	4294      	cmp	r4, r2
   81f28:	d80b      	bhi.n	81f42 <uart_init+0x32>
   81f2a:	6203      	str	r3, [r0, #32]
   81f2c:	688b      	ldr	r3, [r1, #8]
   81f2e:	6043      	str	r3, [r0, #4]
   81f30:	f240 2302 	movw	r3, #514	; 0x202
   81f34:	f8c0 3120 	str.w	r3, [r0, #288]	; 0x120
   81f38:	2350      	movs	r3, #80	; 0x50
   81f3a:	6003      	str	r3, [r0, #0]
   81f3c:	2000      	movs	r0, #0
   81f3e:	bc10      	pop	{r4}
   81f40:	4770      	bx	lr
   81f42:	2001      	movs	r0, #1
   81f44:	e7fb      	b.n	81f3e <uart_init+0x2e>

00081f46 <uart_write>:
   81f46:	6943      	ldr	r3, [r0, #20]
   81f48:	f013 0f02 	tst.w	r3, #2
   81f4c:	bf1a      	itte	ne
   81f4e:	61c1      	strne	r1, [r0, #28]
   81f50:	2000      	movne	r0, #0
   81f52:	2001      	moveq	r0, #1
   81f54:	4770      	bx	lr

00081f56 <uart_read>:
   81f56:	6943      	ldr	r3, [r0, #20]
   81f58:	f013 0f01 	tst.w	r3, #1
   81f5c:	bf1d      	ittte	ne
   81f5e:	6983      	ldrne	r3, [r0, #24]
   81f60:	700b      	strbne	r3, [r1, #0]
   81f62:	2000      	movne	r0, #0
   81f64:	2001      	moveq	r0, #1
   81f66:	4770      	bx	lr

00081f68 <usart_write>:
   81f68:	6943      	ldr	r3, [r0, #20]
   81f6a:	f013 0f02 	tst.w	r3, #2
   81f6e:	bf1d      	ittte	ne
   81f70:	f3c1 0108 	ubfxne	r1, r1, #0, #9
   81f74:	61c1      	strne	r1, [r0, #28]
   81f76:	2000      	movne	r0, #0
   81f78:	2001      	moveq	r0, #1
   81f7a:	4770      	bx	lr

00081f7c <usart_read>:
   81f7c:	6943      	ldr	r3, [r0, #20]
   81f7e:	f013 0f01 	tst.w	r3, #1
   81f82:	d005      	beq.n	81f90 <usart_read+0x14>
   81f84:	6983      	ldr	r3, [r0, #24]
   81f86:	f3c3 0308 	ubfx	r3, r3, #0, #9
   81f8a:	600b      	str	r3, [r1, #0]
   81f8c:	2000      	movs	r0, #0
   81f8e:	4770      	bx	lr
   81f90:	2001      	movs	r0, #1
   81f92:	4770      	bx	lr

00081f94 <usart_serial_getchar>:
 * \param p_usart   Base address of the USART instance.
 * \param data   Data to read
 *
 */
static inline void usart_serial_getchar(usart_if p_usart, uint8_t *data)
{
   81f94:	b5f0      	push	{r4, r5, r6, r7, lr}
   81f96:	b083      	sub	sp, #12
   81f98:	4604      	mov	r4, r0
   81f9a:	460d      	mov	r5, r1
	uint32_t val = 0;
   81f9c:	2300      	movs	r3, #0
   81f9e:	9301      	str	r3, [sp, #4]

	/* Avoid Cppcheck Warning */
	UNUSED(val);

#ifdef UART
	if (UART == (Uart*)p_usart) {
   81fa0:	4b20      	ldr	r3, [pc, #128]	; (82024 <usart_serial_getchar+0x90>)
   81fa2:	4298      	cmp	r0, r3
   81fa4:	d00d      	beq.n	81fc2 <usart_serial_getchar+0x2e>
		while (usart_read(p_usart, &val));
		*data = (uint8_t)(val & 0xFF);
	}
#else
# ifdef USART0
	if (USART0 == p_usart) {
   81fa6:	4b20      	ldr	r3, [pc, #128]	; (82028 <usart_serial_getchar+0x94>)
   81fa8:	4298      	cmp	r0, r3
   81faa:	d012      	beq.n	81fd2 <usart_serial_getchar+0x3e>
		while (usart_read(p_usart, &val));
		*data = (uint8_t)(val & 0xFF);
	}
# endif
# ifdef USART1
	if (USART1 == p_usart) {
   81fac:	4b1f      	ldr	r3, [pc, #124]	; (8202c <usart_serial_getchar+0x98>)
   81fae:	4298      	cmp	r0, r3
   81fb0:	d019      	beq.n	81fe6 <usart_serial_getchar+0x52>
		while (usart_read(p_usart, &val));
		*data = (uint8_t)(val & 0xFF);
	}
# endif
# ifdef USART2
	if (USART2 == p_usart) {
   81fb2:	4b1f      	ldr	r3, [pc, #124]	; (82030 <usart_serial_getchar+0x9c>)
   81fb4:	429c      	cmp	r4, r3
   81fb6:	d020      	beq.n	81ffa <usart_serial_getchar+0x66>
		while (usart_read(p_usart, &val));
		*data = (uint8_t)(val & 0xFF);
	}
# endif
# ifdef USART3
	if (USART3 == p_usart) {
   81fb8:	4b1e      	ldr	r3, [pc, #120]	; (82034 <usart_serial_getchar+0xa0>)
   81fba:	429c      	cmp	r4, r3
   81fbc:	d027      	beq.n	8200e <usart_serial_getchar+0x7a>
		*data = (uint8_t)(val & 0xFF);
	}
# endif
#endif /* ifdef USART */

}
   81fbe:	b003      	add	sp, #12
   81fc0:	bdf0      	pop	{r4, r5, r6, r7, pc}
		while (uart_read((Uart*)p_usart, data));
   81fc2:	461f      	mov	r7, r3
   81fc4:	4e1c      	ldr	r6, [pc, #112]	; (82038 <usart_serial_getchar+0xa4>)
   81fc6:	4629      	mov	r1, r5
   81fc8:	4638      	mov	r0, r7
   81fca:	47b0      	blx	r6
   81fcc:	2800      	cmp	r0, #0
   81fce:	d1fa      	bne.n	81fc6 <usart_serial_getchar+0x32>
   81fd0:	e7ef      	b.n	81fb2 <usart_serial_getchar+0x1e>
		while (usart_read(p_usart, &val));
   81fd2:	461f      	mov	r7, r3
   81fd4:	4e19      	ldr	r6, [pc, #100]	; (8203c <usart_serial_getchar+0xa8>)
   81fd6:	a901      	add	r1, sp, #4
   81fd8:	4638      	mov	r0, r7
   81fda:	47b0      	blx	r6
   81fdc:	2800      	cmp	r0, #0
   81fde:	d1fa      	bne.n	81fd6 <usart_serial_getchar+0x42>
		*data = (uint8_t)(val & 0xFF);
   81fe0:	9b01      	ldr	r3, [sp, #4]
   81fe2:	702b      	strb	r3, [r5, #0]
   81fe4:	e7e8      	b.n	81fb8 <usart_serial_getchar+0x24>
		while (usart_read(p_usart, &val));
   81fe6:	461e      	mov	r6, r3
   81fe8:	4c14      	ldr	r4, [pc, #80]	; (8203c <usart_serial_getchar+0xa8>)
   81fea:	a901      	add	r1, sp, #4
   81fec:	4630      	mov	r0, r6
   81fee:	47a0      	blx	r4
   81ff0:	2800      	cmp	r0, #0
   81ff2:	d1fa      	bne.n	81fea <usart_serial_getchar+0x56>
		*data = (uint8_t)(val & 0xFF);
   81ff4:	9b01      	ldr	r3, [sp, #4]
   81ff6:	702b      	strb	r3, [r5, #0]
   81ff8:	e7e1      	b.n	81fbe <usart_serial_getchar+0x2a>
		while (usart_read(p_usart, &val));
   81ffa:	461e      	mov	r6, r3
   81ffc:	4c0f      	ldr	r4, [pc, #60]	; (8203c <usart_serial_getchar+0xa8>)
   81ffe:	a901      	add	r1, sp, #4
   82000:	4630      	mov	r0, r6
   82002:	47a0      	blx	r4
   82004:	2800      	cmp	r0, #0
   82006:	d1fa      	bne.n	81ffe <usart_serial_getchar+0x6a>
		*data = (uint8_t)(val & 0xFF);
   82008:	9b01      	ldr	r3, [sp, #4]
   8200a:	702b      	strb	r3, [r5, #0]
   8200c:	e7d7      	b.n	81fbe <usart_serial_getchar+0x2a>
		while (usart_read(p_usart, &val));
   8200e:	461e      	mov	r6, r3
   82010:	4c0a      	ldr	r4, [pc, #40]	; (8203c <usart_serial_getchar+0xa8>)
   82012:	a901      	add	r1, sp, #4
   82014:	4630      	mov	r0, r6
   82016:	47a0      	blx	r4
   82018:	2800      	cmp	r0, #0
   8201a:	d1fa      	bne.n	82012 <usart_serial_getchar+0x7e>
		*data = (uint8_t)(val & 0xFF);
   8201c:	9b01      	ldr	r3, [sp, #4]
   8201e:	702b      	strb	r3, [r5, #0]
}
   82020:	e7cd      	b.n	81fbe <usart_serial_getchar+0x2a>
   82022:	bf00      	nop
   82024:	400e0800 	.word	0x400e0800
   82028:	40098000 	.word	0x40098000
   8202c:	4009c000 	.word	0x4009c000
   82030:	400a0000 	.word	0x400a0000
   82034:	400a4000 	.word	0x400a4000
   82038:	00081f57 	.word	0x00081f57
   8203c:	00081f7d 	.word	0x00081f7d

00082040 <usart_serial_putchar>:
{
   82040:	b570      	push	{r4, r5, r6, lr}
   82042:	460c      	mov	r4, r1
	if (UART == (Uart*)p_usart) {
   82044:	4b1e      	ldr	r3, [pc, #120]	; (820c0 <usart_serial_putchar+0x80>)
   82046:	4298      	cmp	r0, r3
   82048:	d00d      	beq.n	82066 <usart_serial_putchar+0x26>
	if (USART0 == p_usart) {
   8204a:	4b1e      	ldr	r3, [pc, #120]	; (820c4 <usart_serial_putchar+0x84>)
   8204c:	4298      	cmp	r0, r3
   8204e:	d013      	beq.n	82078 <usart_serial_putchar+0x38>
	if (USART1 == p_usart) {
   82050:	4b1d      	ldr	r3, [pc, #116]	; (820c8 <usart_serial_putchar+0x88>)
   82052:	4298      	cmp	r0, r3
   82054:	d019      	beq.n	8208a <usart_serial_putchar+0x4a>
	if (USART2 == p_usart) {
   82056:	4b1d      	ldr	r3, [pc, #116]	; (820cc <usart_serial_putchar+0x8c>)
   82058:	4298      	cmp	r0, r3
   8205a:	d01f      	beq.n	8209c <usart_serial_putchar+0x5c>
	if (USART3 == p_usart) {
   8205c:	4b1c      	ldr	r3, [pc, #112]	; (820d0 <usart_serial_putchar+0x90>)
   8205e:	4298      	cmp	r0, r3
   82060:	d025      	beq.n	820ae <usart_serial_putchar+0x6e>
	return 0;
   82062:	2000      	movs	r0, #0
}
   82064:	bd70      	pop	{r4, r5, r6, pc}
		while (uart_write((Uart*)p_usart, c)!=0);
   82066:	461e      	mov	r6, r3
   82068:	4d1a      	ldr	r5, [pc, #104]	; (820d4 <usart_serial_putchar+0x94>)
   8206a:	4621      	mov	r1, r4
   8206c:	4630      	mov	r0, r6
   8206e:	47a8      	blx	r5
   82070:	2800      	cmp	r0, #0
   82072:	d1fa      	bne.n	8206a <usart_serial_putchar+0x2a>
		return 1;
   82074:	2001      	movs	r0, #1
   82076:	bd70      	pop	{r4, r5, r6, pc}
		while (usart_write(p_usart, c)!=0);
   82078:	461e      	mov	r6, r3
   8207a:	4d17      	ldr	r5, [pc, #92]	; (820d8 <usart_serial_putchar+0x98>)
   8207c:	4621      	mov	r1, r4
   8207e:	4630      	mov	r0, r6
   82080:	47a8      	blx	r5
   82082:	2800      	cmp	r0, #0
   82084:	d1fa      	bne.n	8207c <usart_serial_putchar+0x3c>
		return 1;
   82086:	2001      	movs	r0, #1
   82088:	bd70      	pop	{r4, r5, r6, pc}
		while (usart_write(p_usart, c)!=0);
   8208a:	461e      	mov	r6, r3
   8208c:	4d12      	ldr	r5, [pc, #72]	; (820d8 <usart_serial_putchar+0x98>)
   8208e:	4621      	mov	r1, r4
   82090:	4630      	mov	r0, r6
   82092:	47a8      	blx	r5
   82094:	2800      	cmp	r0, #0
   82096:	d1fa      	bne.n	8208e <usart_serial_putchar+0x4e>
		return 1;
   82098:	2001      	movs	r0, #1
   8209a:	bd70      	pop	{r4, r5, r6, pc}
		while (usart_write(p_usart, c)!=0);
   8209c:	461e      	mov	r6, r3
   8209e:	4d0e      	ldr	r5, [pc, #56]	; (820d8 <usart_serial_putchar+0x98>)
   820a0:	4621      	mov	r1, r4
   820a2:	4630      	mov	r0, r6
   820a4:	47a8      	blx	r5
   820a6:	2800      	cmp	r0, #0
   820a8:	d1fa      	bne.n	820a0 <usart_serial_putchar+0x60>
		return 1;
   820aa:	2001      	movs	r0, #1
   820ac:	bd70      	pop	{r4, r5, r6, pc}
		while (usart_write(p_usart, c)!=0);
   820ae:	461e      	mov	r6, r3
   820b0:	4d09      	ldr	r5, [pc, #36]	; (820d8 <usart_serial_putchar+0x98>)
   820b2:	4621      	mov	r1, r4
   820b4:	4630      	mov	r0, r6
   820b6:	47a8      	blx	r5
   820b8:	2800      	cmp	r0, #0
   820ba:	d1fa      	bne.n	820b2 <usart_serial_putchar+0x72>
		return 1;
   820bc:	2001      	movs	r0, #1
   820be:	bd70      	pop	{r4, r5, r6, pc}
   820c0:	400e0800 	.word	0x400e0800
   820c4:	40098000 	.word	0x40098000
   820c8:	4009c000 	.word	0x4009c000
   820cc:	400a0000 	.word	0x400a0000
   820d0:	400a4000 	.word	0x400a4000
   820d4:	00081f47 	.word	0x00081f47
   820d8:	00081f69 	.word	0x00081f69

000820dc <rtos_init>:
* Function: rtos_init
* -------------------
* initializes FreeRTOS by creating a number of tasks and starting the scheduler.
*/
int rtos_init (void)
{
   820dc:	b570      	push	{r4, r5, r6, lr}
   820de:	b084      	sub	sp, #16
	/* -------------------------------- Used for testing purposes ------------------------------------- */
	xTaskCreate(regulator, (const signed char * const) "regulator", TASK_REG_STACK_SIZE, NULL, TASK_REG_PRIORITY, NULL);
   820e0:	2400      	movs	r4, #0
   820e2:	9403      	str	r4, [sp, #12]
   820e4:	9402      	str	r4, [sp, #8]
   820e6:	9401      	str	r4, [sp, #4]
   820e8:	2601      	movs	r6, #1
   820ea:	9600      	str	r6, [sp, #0]
   820ec:	4623      	mov	r3, r4
   820ee:	f44f 7200 	mov.w	r2, #512	; 0x200
   820f2:	490e      	ldr	r1, [pc, #56]	; (8212c <rtos_init+0x50>)
   820f4:	480e      	ldr	r0, [pc, #56]	; (82130 <rtos_init+0x54>)
   820f6:	4d0f      	ldr	r5, [pc, #60]	; (82134 <rtos_init+0x58>)
   820f8:	47a8      	blx	r5
	xTaskCreate(position, (const signed char * const) "position", TASK_POS_STACK_SIZE, NULL, TASK_POS_PRIORITY, NULL);
   820fa:	9403      	str	r4, [sp, #12]
   820fc:	9402      	str	r4, [sp, #8]
   820fe:	9401      	str	r4, [sp, #4]
   82100:	9600      	str	r6, [sp, #0]
   82102:	4623      	mov	r3, r4
   82104:	f44f 7200 	mov.w	r2, #512	; 0x200
   82108:	490b      	ldr	r1, [pc, #44]	; (82138 <rtos_init+0x5c>)
   8210a:	480c      	ldr	r0, [pc, #48]	; (8213c <rtos_init+0x60>)
   8210c:	47a8      	blx	r5
	xTaskCreate(controlCenter, (const signed char * const) "controlCenter", TASK_CC_STACK_SIZE, NULL, TASK_CC_PRIORITY, NULL);
   8210e:	9403      	str	r4, [sp, #12]
   82110:	9402      	str	r4, [sp, #8]
   82112:	9401      	str	r4, [sp, #4]
   82114:	9600      	str	r6, [sp, #0]
   82116:	4623      	mov	r3, r4
   82118:	f44f 7200 	mov.w	r2, #512	; 0x200
   8211c:	4908      	ldr	r1, [pc, #32]	; (82140 <rtos_init+0x64>)
   8211e:	4809      	ldr	r0, [pc, #36]	; (82144 <rtos_init+0x68>)
   82120:	47a8      	blx	r5
	/* ------------------------------------------------------------------------------------------------ */
	
	vTaskStartScheduler();
   82122:	4b09      	ldr	r3, [pc, #36]	; (82148 <rtos_init+0x6c>)
   82124:	4798      	blx	r3
	return 0;
}
   82126:	4620      	mov	r0, r4
   82128:	b004      	add	sp, #16
   8212a:	bd70      	pop	{r4, r5, r6, pc}
   8212c:	000889dc 	.word	0x000889dc
   82130:	00080c9d 	.word	0x00080c9d
   82134:	00082ca1 	.word	0x00082ca1
   82138:	000889e8 	.word	0x000889e8
   8213c:	00080b91 	.word	0x00080b91
   82140:	000889f4 	.word	0x000889f4
   82144:	0008060d 	.word	0x0008060d
   82148:	00082ea5 	.word	0x00082ea5

0008214c <console_init>:
* -------------------
* Enables feedback through the USB-cable back to terminal within Atmel Studio.
* Note that the baudrate, parity and other parameters must be set in conf/conf_uart_serial.h
*/
int console_init(void)
{
   8214c:	b530      	push	{r4, r5, lr}
   8214e:	b085      	sub	sp, #20
 *
 * \param ul_id Id (number) of the peripheral clock.
 */
static inline void sysclk_enable_peripheral_clock(uint32_t ul_id)
{
	pmc_enable_periph_clk(ul_id);
   82150:	2008      	movs	r0, #8
   82152:	4d15      	ldr	r5, [pc, #84]	; (821a8 <console_init+0x5c>)
   82154:	47a8      	blx	r5
 * \param opt         Options needed to set up RS232 communication (see \ref usart_options_t).
 *
 */
static inline void stdio_serial_init(volatile void *usart, const usart_serial_options_t *opt)
{
	stdio_base = (void *)usart;
   82156:	4c15      	ldr	r4, [pc, #84]	; (821ac <console_init+0x60>)
   82158:	4b15      	ldr	r3, [pc, #84]	; (821b0 <console_init+0x64>)
   8215a:	601c      	str	r4, [r3, #0]
	ptr_put = (int (*)(void volatile*,char))&usart_serial_putchar;
   8215c:	4a15      	ldr	r2, [pc, #84]	; (821b4 <console_init+0x68>)
   8215e:	4b16      	ldr	r3, [pc, #88]	; (821b8 <console_init+0x6c>)
   82160:	601a      	str	r2, [r3, #0]
	ptr_get = (void (*)(void volatile*,char*))&usart_serial_getchar;
   82162:	4a16      	ldr	r2, [pc, #88]	; (821bc <console_init+0x70>)
   82164:	4b16      	ldr	r3, [pc, #88]	; (821c0 <console_init+0x74>)
   82166:	601a      	str	r2, [r3, #0]
	uart_settings.ul_mck = sysclk_get_peripheral_hz();
   82168:	4b16      	ldr	r3, [pc, #88]	; (821c4 <console_init+0x78>)
   8216a:	9301      	str	r3, [sp, #4]
	uart_settings.ul_baudrate = opt->baudrate;
   8216c:	f44f 33e1 	mov.w	r3, #115200	; 0x1c200
   82170:	9302      	str	r3, [sp, #8]
	uart_settings.ul_mode = opt->paritytype;
   82172:	f44f 6300 	mov.w	r3, #2048	; 0x800
   82176:	9303      	str	r3, [sp, #12]
   82178:	2008      	movs	r0, #8
   8217a:	47a8      	blx	r5
		uart_init((Uart*)p_usart, &uart_settings);
   8217c:	a901      	add	r1, sp, #4
   8217e:	4620      	mov	r0, r4
   82180:	4b11      	ldr	r3, [pc, #68]	; (821c8 <console_init+0x7c>)
   82182:	4798      	blx	r3
	fdevopen((int (*)(char, FILE*))(_write),(int (*)(FILE*))(_read));
#  endif
#  if UC3 || SAM
	// For AVR32 and SAM GCC
	// Specify that stdout and stdin should not be buffered.
	setbuf(stdout, NULL);
   82184:	4d11      	ldr	r5, [pc, #68]	; (821cc <console_init+0x80>)
   82186:	682b      	ldr	r3, [r5, #0]
   82188:	2100      	movs	r1, #0
   8218a:	6898      	ldr	r0, [r3, #8]
   8218c:	4c10      	ldr	r4, [pc, #64]	; (821d0 <console_init+0x84>)
   8218e:	47a0      	blx	r4
	setbuf(stdin, NULL);
   82190:	682b      	ldr	r3, [r5, #0]
   82192:	2100      	movs	r1, #0
   82194:	6858      	ldr	r0, [r3, #4]
   82196:	47a0      	blx	r4

	/* Configure console UART. */
	sysclk_enable_peripheral_clock(CONSOLE_UART_ID);
	stdio_serial_init(CONF_UART, &uart_serial_options);
	
	printf("Console ready\n");
   82198:	480e      	ldr	r0, [pc, #56]	; (821d4 <console_init+0x88>)
   8219a:	4c0f      	ldr	r4, [pc, #60]	; (821d8 <console_init+0x8c>)
   8219c:	47a0      	blx	r4
	printf("=============\n");
   8219e:	480f      	ldr	r0, [pc, #60]	; (821dc <console_init+0x90>)
   821a0:	47a0      	blx	r4
	return 0;
}
   821a2:	2000      	movs	r0, #0
   821a4:	b005      	add	sp, #20
   821a6:	bd30      	pop	{r4, r5, pc}
   821a8:	00083f05 	.word	0x00083f05
   821ac:	400e0800 	.word	0x400e0800
   821b0:	2007b08c 	.word	0x2007b08c
   821b4:	00082041 	.word	0x00082041
   821b8:	2007b088 	.word	0x2007b088
   821bc:	00081f95 	.word	0x00081f95
   821c0:	2007b084 	.word	0x2007b084
   821c4:	0501bd00 	.word	0x0501bd00
   821c8:	00081f11 	.word	0x00081f11
   821cc:	200701c0 	.word	0x200701c0
   821d0:	000858c5 	.word	0x000858c5
   821d4:	000889bc 	.word	0x000889bc
   821d8:	00085715 	.word	0x00085715
   821dc:	000889cc 	.word	0x000889cc

000821e0 <interrupt_init>:

int interrupt_init(void) 
{
   821e0:	b5f0      	push	{r4, r5, r6, r7, lr}
   821e2:	b083      	sub	sp, #12
	//pio_handler_set(PIOC, ID_PIOC, pin7, PIO_IT_EDGE, ISR2);
	//pio_enable_interrupt(PIOC, pin7);
	/* ------------ */
	
	
		pmc_enable_periph_clk(ID_PIOC);
   821e4:	200d      	movs	r0, #13
   821e6:	4b27      	ldr	r3, [pc, #156]	; (82284 <interrupt_init+0xa4>)
   821e8:	4798      	blx	r3
		
		/* Initializes interrupt pin for the right encoder A, trigger on rise edge, pin7*/
		pio_set_input(PIOC,pin7i,NULL);
   821ea:	4c27      	ldr	r4, [pc, #156]	; (82288 <interrupt_init+0xa8>)
   821ec:	2200      	movs	r2, #0
   821ee:	f44f 0100 	mov.w	r1, #8388608	; 0x800000
   821f2:	4620      	mov	r0, r4
   821f4:	4f25      	ldr	r7, [pc, #148]	; (8228c <interrupt_init+0xac>)
   821f6:	47b8      	blx	r7
		pio_handler_set(PIOC,ID_PIOC,pin7i,PIO_IT_RE_OR_HL,rightEncoderAISR);
   821f8:	4b25      	ldr	r3, [pc, #148]	; (82290 <interrupt_init+0xb0>)
   821fa:	9300      	str	r3, [sp, #0]
   821fc:	2320      	movs	r3, #32
   821fe:	f44f 0200 	mov.w	r2, #8388608	; 0x800000
   82202:	210d      	movs	r1, #13
   82204:	4620      	mov	r0, r4
   82206:	4e23      	ldr	r6, [pc, #140]	; (82294 <interrupt_init+0xb4>)
   82208:	47b0      	blx	r6
		pio_enable_interrupt(PIOC,pin7i); //digital pin 7
   8220a:	f44f 0100 	mov.w	r1, #8388608	; 0x800000
   8220e:	4620      	mov	r0, r4
   82210:	4d21      	ldr	r5, [pc, #132]	; (82298 <interrupt_init+0xb8>)
   82212:	47a8      	blx	r5

		/* Initializes interrupt pin for the left encoder A, trigger on rise edge, pin5*/
		pio_set_input(PIOC,pin5i,NULL);
   82214:	2200      	movs	r2, #0
   82216:	f04f 7100 	mov.w	r1, #33554432	; 0x2000000
   8221a:	4620      	mov	r0, r4
   8221c:	47b8      	blx	r7
		pio_handler_set(PIOC, ID_PIOC,pin5i,PIO_IT_RE_OR_HL, leftEncoderAISR);
   8221e:	4b1f      	ldr	r3, [pc, #124]	; (8229c <interrupt_init+0xbc>)
   82220:	9300      	str	r3, [sp, #0]
   82222:	2320      	movs	r3, #32
   82224:	f04f 7200 	mov.w	r2, #33554432	; 0x2000000
   82228:	210d      	movs	r1, #13
   8222a:	4620      	mov	r0, r4
   8222c:	47b0      	blx	r6
		pio_enable_interrupt(PIOC,pin5i); //digital pin 5
   8222e:	f04f 7100 	mov.w	r1, #33554432	; 0x2000000
   82232:	4620      	mov	r0, r4
   82234:	47a8      	blx	r5

		/* Initializes interrupt pin for the left encoder B, trigger on rise edge, pin8*/
		pio_set_input(PIOC,pin33,NULL);
   82236:	2200      	movs	r2, #0
   82238:	2102      	movs	r1, #2
   8223a:	4620      	mov	r0, r4
   8223c:	47b8      	blx	r7
		pio_handler_set(PIOC, ID_PIOC,pin33,PIO_IT_RE_OR_HL, rightEncoderBISR);
   8223e:	4b18      	ldr	r3, [pc, #96]	; (822a0 <interrupt_init+0xc0>)
   82240:	9300      	str	r3, [sp, #0]
   82242:	2320      	movs	r3, #32
   82244:	2202      	movs	r2, #2
   82246:	210d      	movs	r1, #13
   82248:	4620      	mov	r0, r4
   8224a:	47b0      	blx	r6
		pio_enable_interrupt(PIOC,pin33); //digital pin 33
   8224c:	2102      	movs	r1, #2
   8224e:	4620      	mov	r0, r4
   82250:	47a8      	blx	r5

		/* Initializes interrupt pin for the right encoder B, trigger on rise edge, pin10*/
		pio_set_input(PIOC,pin10i,NULL);
   82252:	2200      	movs	r2, #0
   82254:	f04f 5100 	mov.w	r1, #536870912	; 0x20000000
   82258:	4620      	mov	r0, r4
   8225a:	47b8      	blx	r7
		pio_handler_set(PIOC,ID_PIOC,pin10i,PIO_IT_RE_OR_HL,leftEncoderBISR);
   8225c:	4b11      	ldr	r3, [pc, #68]	; (822a4 <interrupt_init+0xc4>)
   8225e:	9300      	str	r3, [sp, #0]
   82260:	2320      	movs	r3, #32
   82262:	f04f 5200 	mov.w	r2, #536870912	; 0x20000000
   82266:	210d      	movs	r1, #13
   82268:	4620      	mov	r0, r4
   8226a:	47b0      	blx	r6
		pio_enable_interrupt(PIOC,pin10i); //digital pin 10
   8226c:	f04f 5100 	mov.w	r1, #536870912	; 0x20000000
   82270:	4620      	mov	r0, r4
   82272:	47a8      	blx	r5

    \param [in]      IRQn  External interrupt number. Value cannot be negative.
 */
__STATIC_INLINE void NVIC_EnableIRQ(IRQn_Type IRQn)
{
  NVIC->ISER[((uint32_t)(IRQn) >> 5)] = (1 << ((uint32_t)(IRQn) & 0x1F)); /* enable interrupt */
   82274:	f44f 5200 	mov.w	r2, #8192	; 0x2000
   82278:	4b0b      	ldr	r3, [pc, #44]	; (822a8 <interrupt_init+0xc8>)
   8227a:	601a      	str	r2, [r3, #0]
		
		NVIC_EnableIRQ(PIOC_IRQn);
	
	return 0;
}
   8227c:	2000      	movs	r0, #0
   8227e:	b003      	add	sp, #12
   82280:	bdf0      	pop	{r4, r5, r6, r7, pc}
   82282:	bf00      	nop
   82284:	00083f05 	.word	0x00083f05
   82288:	400e1200 	.word	0x400e1200
   8228c:	00083b0f 	.word	0x00083b0f
   82290:	000818c9 	.word	0x000818c9
   82294:	00083d5d 	.word	0x00083d5d
   82298:	00083b95 	.word	0x00083b95
   8229c:	000819a9 	.word	0x000819a9
   822a0:	00081939 	.word	0x00081939
   822a4:	00081a1d 	.word	0x00081a1d
   822a8:	e000e100 	.word	0xe000e100

000822ac <misc_init>:
{	
   822ac:	b510      	push	{r4, lr}
	sysclk_init();
   822ae:	4b2c      	ldr	r3, [pc, #176]	; (82360 <misc_init+0xb4>)
   822b0:	4798      	blx	r3
	board_init();
   822b2:	4b2c      	ldr	r3, [pc, #176]	; (82364 <misc_init+0xb8>)
   822b4:	4798      	blx	r3
   822b6:	200b      	movs	r0, #11
   822b8:	4c2b      	ldr	r4, [pc, #172]	; (82368 <misc_init+0xbc>)
   822ba:	47a0      	blx	r4
   822bc:	200c      	movs	r0, #12
   822be:	47a0      	blx	r4
   822c0:	200d      	movs	r0, #13
   822c2:	47a0      	blx	r4
   822c4:	200e      	movs	r0, #14
   822c6:	47a0      	blx	r4
	interrupt_init();
   822c8:	4b28      	ldr	r3, [pc, #160]	; (8236c <misc_init+0xc0>)
   822ca:	4798      	blx	r3
	init_twi();
   822cc:	4b28      	ldr	r3, [pc, #160]	; (82370 <misc_init+0xc4>)
   822ce:	4798      	blx	r3
	rtos_init();
   822d0:	4b28      	ldr	r3, [pc, #160]	; (82374 <misc_init+0xc8>)
   822d2:	4798      	blx	r3
		base->PIO_OER = arch_ioport_pin_to_mask(pin);
   822d4:	4b28      	ldr	r3, [pc, #160]	; (82378 <misc_init+0xcc>)
   822d6:	f44f 7280 	mov.w	r2, #256	; 0x100
   822da:	611a      	str	r2, [r3, #16]
	base->PIO_OWER = arch_ioport_pin_to_mask(pin);
   822dc:	f8c3 20a0 	str.w	r2, [r3, #160]	; 0xa0
		base->PIO_OER = arch_ioport_pin_to_mask(pin);
   822e0:	f5a3 6380 	sub.w	r3, r3, #1024	; 0x400
   822e4:	f04f 6200 	mov.w	r2, #134217728	; 0x8000000
   822e8:	611a      	str	r2, [r3, #16]
	base->PIO_OWER = arch_ioport_pin_to_mask(pin);
   822ea:	f8c3 20a0 	str.w	r2, [r3, #160]	; 0xa0
		base->PIO_ODR = arch_ioport_pin_to_mask(pin);
   822ee:	f503 7300 	add.w	r3, r3, #512	; 0x200
   822f2:	f04f 7200 	mov.w	r2, #33554432	; 0x2000000
   822f6:	615a      	str	r2, [r3, #20]
	base->PIO_OWER = arch_ioport_pin_to_mask(pin);
   822f8:	f8c3 20a0 	str.w	r2, [r3, #160]	; 0xa0
		base->PIO_ODR = arch_ioport_pin_to_mask(pin);
   822fc:	f44f 0200 	mov.w	r2, #8388608	; 0x800000
   82300:	615a      	str	r2, [r3, #20]
	base->PIO_OWER = arch_ioport_pin_to_mask(pin);
   82302:	f8c3 20a0 	str.w	r2, [r3, #160]	; 0xa0
		base->PIO_ODR = arch_ioport_pin_to_mask(pin);
   82306:	4a1d      	ldr	r2, [pc, #116]	; (8237c <misc_init+0xd0>)
   82308:	f04f 5180 	mov.w	r1, #268435456	; 0x10000000
   8230c:	6151      	str	r1, [r2, #20]
	base->PIO_OWER = arch_ioport_pin_to_mask(pin);
   8230e:	f8c2 10a0 	str.w	r1, [r2, #160]	; 0xa0
		base->PIO_ODR = arch_ioport_pin_to_mask(pin);
   82312:	2104      	movs	r1, #4
   82314:	6151      	str	r1, [r2, #20]
	base->PIO_OWER = arch_ioport_pin_to_mask(pin);
   82316:	f8c2 10a0 	str.w	r1, [r2, #160]	; 0xa0
		base->PIO_OER = arch_ioport_pin_to_mask(pin);
   8231a:	f44f 0280 	mov.w	r2, #4194304	; 0x400000
   8231e:	611a      	str	r2, [r3, #16]
	base->PIO_OWER = arch_ioport_pin_to_mask(pin);
   82320:	f8c3 20a0 	str.w	r2, [r3, #160]	; 0xa0
		base->PIO_ODR = arch_ioport_pin_to_mask(pin);
   82324:	f44f 1200 	mov.w	r2, #2097152	; 0x200000
   82328:	615a      	str	r2, [r3, #20]
	base->PIO_OWER = arch_ioport_pin_to_mask(pin);
   8232a:	f8c3 20a0 	str.w	r2, [r3, #160]	; 0xa0
		base->PIO_OER = arch_ioport_pin_to_mask(pin);
   8232e:	f44f 4200 	mov.w	r2, #32768	; 0x8000
   82332:	611a      	str	r2, [r3, #16]
	base->PIO_OWER = arch_ioport_pin_to_mask(pin);
   82334:	f8c3 20a0 	str.w	r2, [r3, #160]	; 0xa0
		base->PIO_OER = arch_ioport_pin_to_mask(pin);
   82338:	f44f 4280 	mov.w	r2, #16384	; 0x4000
   8233c:	611a      	str	r2, [r3, #16]
	base->PIO_OWER = arch_ioport_pin_to_mask(pin);
   8233e:	f8c3 20a0 	str.w	r2, [r3, #160]	; 0xa0
		base->PIO_OER = arch_ioport_pin_to_mask(pin);
   82342:	f44f 5200 	mov.w	r2, #8192	; 0x2000
   82346:	611a      	str	r2, [r3, #16]
	base->PIO_OWER = arch_ioport_pin_to_mask(pin);
   82348:	f8c3 20a0 	str.w	r2, [r3, #160]	; 0xa0
		base->PIO_OER = arch_ioport_pin_to_mask(pin);
   8234c:	f44f 5280 	mov.w	r2, #4096	; 0x1000
   82350:	611a      	str	r2, [r3, #16]
	base->PIO_OWER = arch_ioport_pin_to_mask(pin);
   82352:	f8c3 20a0 	str.w	r2, [r3, #160]	; 0xa0
		binaryLEDS(99);
   82356:	2063      	movs	r0, #99	; 0x63
   82358:	4b09      	ldr	r3, [pc, #36]	; (82380 <misc_init+0xd4>)
   8235a:	4798      	blx	r3
}
   8235c:	2000      	movs	r0, #0
   8235e:	bd10      	pop	{r4, pc}
   82360:	000839cd 	.word	0x000839cd
   82364:	00083a31 	.word	0x00083a31
   82368:	00083f05 	.word	0x00083f05
   8236c:	000821e1 	.word	0x000821e1
   82370:	00081add 	.word	0x00081add
   82374:	000820dd 	.word	0x000820dd
   82378:	400e1400 	.word	0x400e1400
   8237c:	400e0e00 	.word	0x400e0e00
   82380:	00080161 	.word	0x00080161

00082384 <vListInitialise>:
   82384:	f100 0308 	add.w	r3, r0, #8
   82388:	6043      	str	r3, [r0, #4]
   8238a:	f04f 32ff 	mov.w	r2, #4294967295
   8238e:	6082      	str	r2, [r0, #8]
   82390:	60c3      	str	r3, [r0, #12]
   82392:	6103      	str	r3, [r0, #16]
   82394:	2300      	movs	r3, #0
   82396:	6003      	str	r3, [r0, #0]
   82398:	4770      	bx	lr

0008239a <vListInitialiseItem>:
   8239a:	2300      	movs	r3, #0
   8239c:	6103      	str	r3, [r0, #16]
   8239e:	4770      	bx	lr

000823a0 <vListInsertEnd>:
   823a0:	6843      	ldr	r3, [r0, #4]
   823a2:	685a      	ldr	r2, [r3, #4]
   823a4:	604a      	str	r2, [r1, #4]
   823a6:	6842      	ldr	r2, [r0, #4]
   823a8:	608a      	str	r2, [r1, #8]
   823aa:	685a      	ldr	r2, [r3, #4]
   823ac:	6091      	str	r1, [r2, #8]
   823ae:	6059      	str	r1, [r3, #4]
   823b0:	6041      	str	r1, [r0, #4]
   823b2:	6108      	str	r0, [r1, #16]
   823b4:	6803      	ldr	r3, [r0, #0]
   823b6:	3301      	adds	r3, #1
   823b8:	6003      	str	r3, [r0, #0]
   823ba:	4770      	bx	lr

000823bc <vListInsert>:
   823bc:	b410      	push	{r4}
   823be:	680c      	ldr	r4, [r1, #0]
   823c0:	f1b4 3fff 	cmp.w	r4, #4294967295
   823c4:	d015      	beq.n	823f2 <vListInsert+0x36>
   823c6:	f100 0308 	add.w	r3, r0, #8
   823ca:	68c2      	ldr	r2, [r0, #12]
   823cc:	6812      	ldr	r2, [r2, #0]
   823ce:	4294      	cmp	r4, r2
   823d0:	d304      	bcc.n	823dc <vListInsert+0x20>
   823d2:	685b      	ldr	r3, [r3, #4]
   823d4:	685a      	ldr	r2, [r3, #4]
   823d6:	6812      	ldr	r2, [r2, #0]
   823d8:	4294      	cmp	r4, r2
   823da:	d2fa      	bcs.n	823d2 <vListInsert+0x16>
   823dc:	685a      	ldr	r2, [r3, #4]
   823de:	604a      	str	r2, [r1, #4]
   823e0:	6091      	str	r1, [r2, #8]
   823e2:	608b      	str	r3, [r1, #8]
   823e4:	6059      	str	r1, [r3, #4]
   823e6:	6108      	str	r0, [r1, #16]
   823e8:	6803      	ldr	r3, [r0, #0]
   823ea:	3301      	adds	r3, #1
   823ec:	6003      	str	r3, [r0, #0]
   823ee:	bc10      	pop	{r4}
   823f0:	4770      	bx	lr
   823f2:	6903      	ldr	r3, [r0, #16]
   823f4:	e7f2      	b.n	823dc <vListInsert+0x20>

000823f6 <uxListRemove>:
   823f6:	6843      	ldr	r3, [r0, #4]
   823f8:	6882      	ldr	r2, [r0, #8]
   823fa:	609a      	str	r2, [r3, #8]
   823fc:	6883      	ldr	r3, [r0, #8]
   823fe:	6842      	ldr	r2, [r0, #4]
   82400:	605a      	str	r2, [r3, #4]
   82402:	6903      	ldr	r3, [r0, #16]
   82404:	685a      	ldr	r2, [r3, #4]
   82406:	4290      	cmp	r0, r2
   82408:	bf04      	itt	eq
   8240a:	6882      	ldreq	r2, [r0, #8]
   8240c:	605a      	streq	r2, [r3, #4]
   8240e:	2200      	movs	r2, #0
   82410:	6102      	str	r2, [r0, #16]
   82412:	681a      	ldr	r2, [r3, #0]
   82414:	3a01      	subs	r2, #1
   82416:	601a      	str	r2, [r3, #0]
   82418:	6818      	ldr	r0, [r3, #0]
   8241a:	4770      	bx	lr

0008241c <prvPortStartFirstTask>:
   8241c:	4803      	ldr	r0, [pc, #12]	; (8242c <prvPortStartFirstTask+0x10>)
   8241e:	6800      	ldr	r0, [r0, #0]
   82420:	6800      	ldr	r0, [r0, #0]
   82422:	f380 8808 	msr	MSP, r0
   82426:	b662      	cpsie	i
   82428:	df00      	svc	0
   8242a:	bf00      	nop
   8242c:	e000ed08 	.word	0xe000ed08

00082430 <pxPortInitialiseStack>:
   82430:	f04f 7380 	mov.w	r3, #16777216	; 0x1000000
   82434:	f840 3c04 	str.w	r3, [r0, #-4]
   82438:	f840 1c08 	str.w	r1, [r0, #-8]
   8243c:	2300      	movs	r3, #0
   8243e:	f840 3c0c 	str.w	r3, [r0, #-12]
   82442:	f840 2c20 	str.w	r2, [r0, #-32]
   82446:	3840      	subs	r0, #64	; 0x40
   82448:	4770      	bx	lr
	...

0008244c <SVC_Handler>:
   8244c:	4b06      	ldr	r3, [pc, #24]	; (82468 <pxCurrentTCBConst2>)
   8244e:	6819      	ldr	r1, [r3, #0]
   82450:	6808      	ldr	r0, [r1, #0]
   82452:	e8b0 0ff0 	ldmia.w	r0!, {r4, r5, r6, r7, r8, r9, sl, fp}
   82456:	f380 8809 	msr	PSP, r0
   8245a:	f04f 0000 	mov.w	r0, #0
   8245e:	f380 8811 	msr	BASEPRI, r0
   82462:	f04e 0e0d 	orr.w	lr, lr, #13
   82466:	4770      	bx	lr

00082468 <pxCurrentTCBConst2>:
   82468:	2007ac90 	.word	0x2007ac90

0008246c <vPortYieldFromISR>:
   8246c:	f04f 5280 	mov.w	r2, #268435456	; 0x10000000
   82470:	4b01      	ldr	r3, [pc, #4]	; (82478 <vPortYieldFromISR+0xc>)
   82472:	601a      	str	r2, [r3, #0]
   82474:	4770      	bx	lr
   82476:	bf00      	nop
   82478:	e000ed04 	.word	0xe000ed04

0008247c <ulPortSetInterruptMask>:
   8247c:	f3ef 8011 	mrs	r0, BASEPRI
   82480:	f04f 01a0 	mov.w	r1, #160	; 0xa0
   82484:	f381 8811 	msr	BASEPRI, r1
   82488:	4770      	bx	lr
   8248a:	2000      	movs	r0, #0

0008248c <vPortEnterCritical>:
   8248c:	b508      	push	{r3, lr}
   8248e:	4b03      	ldr	r3, [pc, #12]	; (8249c <vPortEnterCritical+0x10>)
   82490:	4798      	blx	r3
   82492:	4a03      	ldr	r2, [pc, #12]	; (824a0 <vPortEnterCritical+0x14>)
   82494:	6813      	ldr	r3, [r2, #0]
   82496:	3301      	adds	r3, #1
   82498:	6013      	str	r3, [r2, #0]
   8249a:	bd08      	pop	{r3, pc}
   8249c:	0008247d 	.word	0x0008247d
   824a0:	200701b0 	.word	0x200701b0

000824a4 <vPortClearInterruptMask>:
   824a4:	f380 8811 	msr	BASEPRI, r0
   824a8:	4770      	bx	lr
	...

000824ac <vPortExitCritical>:
   824ac:	b508      	push	{r3, lr}
   824ae:	4a05      	ldr	r2, [pc, #20]	; (824c4 <vPortExitCritical+0x18>)
   824b0:	6813      	ldr	r3, [r2, #0]
   824b2:	3b01      	subs	r3, #1
   824b4:	6013      	str	r3, [r2, #0]
   824b6:	b103      	cbz	r3, 824ba <vPortExitCritical+0xe>
   824b8:	bd08      	pop	{r3, pc}
   824ba:	2000      	movs	r0, #0
   824bc:	4b02      	ldr	r3, [pc, #8]	; (824c8 <vPortExitCritical+0x1c>)
   824be:	4798      	blx	r3
   824c0:	e7fa      	b.n	824b8 <vPortExitCritical+0xc>
   824c2:	bf00      	nop
   824c4:	200701b0 	.word	0x200701b0
   824c8:	000824a5 	.word	0x000824a5

000824cc <PendSV_Handler>:
   824cc:	f3ef 8009 	mrs	r0, PSP
   824d0:	4b0c      	ldr	r3, [pc, #48]	; (82504 <pxCurrentTCBConst>)
   824d2:	681a      	ldr	r2, [r3, #0]
   824d4:	e920 0ff0 	stmdb	r0!, {r4, r5, r6, r7, r8, r9, sl, fp}
   824d8:	6010      	str	r0, [r2, #0]
   824da:	e92d 4008 	stmdb	sp!, {r3, lr}
   824de:	f04f 00a0 	mov.w	r0, #160	; 0xa0
   824e2:	f380 8811 	msr	BASEPRI, r0
   824e6:	f000 fefd 	bl	832e4 <vTaskSwitchContext>
   824ea:	f04f 0000 	mov.w	r0, #0
   824ee:	f380 8811 	msr	BASEPRI, r0
   824f2:	e8bd 4008 	ldmia.w	sp!, {r3, lr}
   824f6:	6819      	ldr	r1, [r3, #0]
   824f8:	6808      	ldr	r0, [r1, #0]
   824fa:	e8b0 0ff0 	ldmia.w	r0!, {r4, r5, r6, r7, r8, r9, sl, fp}
   824fe:	f380 8809 	msr	PSP, r0
   82502:	4770      	bx	lr

00082504 <pxCurrentTCBConst>:
   82504:	2007ac90 	.word	0x2007ac90

00082508 <SysTick_Handler>:
   82508:	b508      	push	{r3, lr}
   8250a:	f04f 5280 	mov.w	r2, #268435456	; 0x10000000
   8250e:	4b05      	ldr	r3, [pc, #20]	; (82524 <SysTick_Handler+0x1c>)
   82510:	601a      	str	r2, [r3, #0]
   82512:	4b05      	ldr	r3, [pc, #20]	; (82528 <SysTick_Handler+0x20>)
   82514:	4798      	blx	r3
   82516:	4b05      	ldr	r3, [pc, #20]	; (8252c <SysTick_Handler+0x24>)
   82518:	4798      	blx	r3
   8251a:	2000      	movs	r0, #0
   8251c:	4b04      	ldr	r3, [pc, #16]	; (82530 <SysTick_Handler+0x28>)
   8251e:	4798      	blx	r3
   82520:	bd08      	pop	{r3, pc}
   82522:	bf00      	nop
   82524:	e000ed04 	.word	0xe000ed04
   82528:	0008247d 	.word	0x0008247d
   8252c:	00082f5d 	.word	0x00082f5d
   82530:	000824a5 	.word	0x000824a5

00082534 <vPortSetupTimerInterrupt>:
   82534:	4a03      	ldr	r2, [pc, #12]	; (82544 <vPortSetupTimerInterrupt+0x10>)
   82536:	4b04      	ldr	r3, [pc, #16]	; (82548 <vPortSetupTimerInterrupt+0x14>)
   82538:	601a      	str	r2, [r3, #0]
   8253a:	2207      	movs	r2, #7
   8253c:	3b04      	subs	r3, #4
   8253e:	601a      	str	r2, [r3, #0]
   82540:	4770      	bx	lr
   82542:	bf00      	nop
   82544:	0001481f 	.word	0x0001481f
   82548:	e000e014 	.word	0xe000e014

0008254c <xPortStartScheduler>:
   8254c:	b510      	push	{r4, lr}
   8254e:	4b09      	ldr	r3, [pc, #36]	; (82574 <xPortStartScheduler+0x28>)
   82550:	681a      	ldr	r2, [r3, #0]
   82552:	f442 0270 	orr.w	r2, r2, #15728640	; 0xf00000
   82556:	601a      	str	r2, [r3, #0]
   82558:	681a      	ldr	r2, [r3, #0]
   8255a:	f042 4270 	orr.w	r2, r2, #4026531840	; 0xf0000000
   8255e:	601a      	str	r2, [r3, #0]
   82560:	4b05      	ldr	r3, [pc, #20]	; (82578 <xPortStartScheduler+0x2c>)
   82562:	4798      	blx	r3
   82564:	2400      	movs	r4, #0
   82566:	4b05      	ldr	r3, [pc, #20]	; (8257c <xPortStartScheduler+0x30>)
   82568:	601c      	str	r4, [r3, #0]
   8256a:	4b05      	ldr	r3, [pc, #20]	; (82580 <xPortStartScheduler+0x34>)
   8256c:	4798      	blx	r3
   8256e:	4620      	mov	r0, r4
   82570:	bd10      	pop	{r4, pc}
   82572:	bf00      	nop
   82574:	e000ed20 	.word	0xe000ed20
   82578:	00082535 	.word	0x00082535
   8257c:	200701b0 	.word	0x200701b0
   82580:	0008241d 	.word	0x0008241d

00082584 <prvInsertBlockIntoFreeList>:
   82584:	b410      	push	{r4}
   82586:	4a13      	ldr	r2, [pc, #76]	; (825d4 <prvInsertBlockIntoFreeList+0x50>)
   82588:	e000      	b.n	8258c <prvInsertBlockIntoFreeList+0x8>
   8258a:	461a      	mov	r2, r3
   8258c:	6813      	ldr	r3, [r2, #0]
   8258e:	4283      	cmp	r3, r0
   82590:	d3fb      	bcc.n	8258a <prvInsertBlockIntoFreeList+0x6>
   82592:	6851      	ldr	r1, [r2, #4]
   82594:	1854      	adds	r4, r2, r1
   82596:	42a0      	cmp	r0, r4
   82598:	d009      	beq.n	825ae <prvInsertBlockIntoFreeList+0x2a>
   8259a:	6841      	ldr	r1, [r0, #4]
   8259c:	1844      	adds	r4, r0, r1
   8259e:	42a3      	cmp	r3, r4
   825a0:	d00a      	beq.n	825b8 <prvInsertBlockIntoFreeList+0x34>
   825a2:	6003      	str	r3, [r0, #0]
   825a4:	4290      	cmp	r0, r2
   825a6:	bf18      	it	ne
   825a8:	6010      	strne	r0, [r2, #0]
   825aa:	bc10      	pop	{r4}
   825ac:	4770      	bx	lr
   825ae:	6840      	ldr	r0, [r0, #4]
   825b0:	4401      	add	r1, r0
   825b2:	6051      	str	r1, [r2, #4]
   825b4:	4610      	mov	r0, r2
   825b6:	e7f0      	b.n	8259a <prvInsertBlockIntoFreeList+0x16>
   825b8:	4c07      	ldr	r4, [pc, #28]	; (825d8 <prvInsertBlockIntoFreeList+0x54>)
   825ba:	6824      	ldr	r4, [r4, #0]
   825bc:	42a3      	cmp	r3, r4
   825be:	d006      	beq.n	825ce <prvInsertBlockIntoFreeList+0x4a>
   825c0:	685b      	ldr	r3, [r3, #4]
   825c2:	4419      	add	r1, r3
   825c4:	6041      	str	r1, [r0, #4]
   825c6:	6813      	ldr	r3, [r2, #0]
   825c8:	681b      	ldr	r3, [r3, #0]
   825ca:	6003      	str	r3, [r0, #0]
   825cc:	e7ea      	b.n	825a4 <prvInsertBlockIntoFreeList+0x20>
   825ce:	6003      	str	r3, [r0, #0]
   825d0:	e7e8      	b.n	825a4 <prvInsertBlockIntoFreeList+0x20>
   825d2:	bf00      	nop
   825d4:	2007ac88 	.word	0x2007ac88
   825d8:	20070c80 	.word	0x20070c80

000825dc <pvPortMalloc>:
   825dc:	b538      	push	{r3, r4, r5, lr}
   825de:	4604      	mov	r4, r0
   825e0:	4b2a      	ldr	r3, [pc, #168]	; (8268c <pvPortMalloc+0xb0>)
   825e2:	4798      	blx	r3
   825e4:	4b2a      	ldr	r3, [pc, #168]	; (82690 <pvPortMalloc+0xb4>)
   825e6:	681b      	ldr	r3, [r3, #0]
   825e8:	b18b      	cbz	r3, 8260e <pvPortMalloc+0x32>
   825ea:	2c00      	cmp	r4, #0
   825ec:	d047      	beq.n	8267e <pvPortMalloc+0xa2>
   825ee:	f104 0210 	add.w	r2, r4, #16
   825f2:	f012 0f07 	tst.w	r2, #7
   825f6:	bf1c      	itt	ne
   825f8:	f022 0207 	bicne.w	r2, r2, #7
   825fc:	3208      	addne	r2, #8
   825fe:	1e51      	subs	r1, r2, #1
   82600:	f649 73fe 	movw	r3, #40958	; 0x9ffe
   82604:	4299      	cmp	r1, r3
   82606:	d83c      	bhi.n	82682 <pvPortMalloc+0xa6>
   82608:	4922      	ldr	r1, [pc, #136]	; (82694 <pvPortMalloc+0xb8>)
   8260a:	680c      	ldr	r4, [r1, #0]
   8260c:	e016      	b.n	8263c <pvPortMalloc+0x60>
   8260e:	4a21      	ldr	r2, [pc, #132]	; (82694 <pvPortMalloc+0xb8>)
   82610:	4b21      	ldr	r3, [pc, #132]	; (82698 <pvPortMalloc+0xbc>)
   82612:	6013      	str	r3, [r2, #0]
   82614:	2100      	movs	r1, #0
   82616:	6051      	str	r1, [r2, #4]
   82618:	f649 72f0 	movw	r2, #40944	; 0x9ff0
   8261c:	1898      	adds	r0, r3, r2
   8261e:	4d1c      	ldr	r5, [pc, #112]	; (82690 <pvPortMalloc+0xb4>)
   82620:	6028      	str	r0, [r5, #0]
   82622:	f649 75f4 	movw	r5, #40948	; 0x9ff4
   82626:	5159      	str	r1, [r3, r5]
   82628:	5099      	str	r1, [r3, r2]
   8262a:	605a      	str	r2, [r3, #4]
   8262c:	6018      	str	r0, [r3, #0]
   8262e:	4a1b      	ldr	r2, [pc, #108]	; (8269c <pvPortMalloc+0xc0>)
   82630:	6813      	ldr	r3, [r2, #0]
   82632:	3b10      	subs	r3, #16
   82634:	6013      	str	r3, [r2, #0]
   82636:	e7d8      	b.n	825ea <pvPortMalloc+0xe>
   82638:	4621      	mov	r1, r4
   8263a:	461c      	mov	r4, r3
   8263c:	6863      	ldr	r3, [r4, #4]
   8263e:	429a      	cmp	r2, r3
   82640:	d902      	bls.n	82648 <pvPortMalloc+0x6c>
   82642:	6823      	ldr	r3, [r4, #0]
   82644:	2b00      	cmp	r3, #0
   82646:	d1f7      	bne.n	82638 <pvPortMalloc+0x5c>
   82648:	4b11      	ldr	r3, [pc, #68]	; (82690 <pvPortMalloc+0xb4>)
   8264a:	681b      	ldr	r3, [r3, #0]
   8264c:	429c      	cmp	r4, r3
   8264e:	d01a      	beq.n	82686 <pvPortMalloc+0xaa>
   82650:	680d      	ldr	r5, [r1, #0]
   82652:	3510      	adds	r5, #16
   82654:	6823      	ldr	r3, [r4, #0]
   82656:	600b      	str	r3, [r1, #0]
   82658:	6863      	ldr	r3, [r4, #4]
   8265a:	1a9b      	subs	r3, r3, r2
   8265c:	2b20      	cmp	r3, #32
   8265e:	d808      	bhi.n	82672 <pvPortMalloc+0x96>
   82660:	4a0e      	ldr	r2, [pc, #56]	; (8269c <pvPortMalloc+0xc0>)
   82662:	6813      	ldr	r3, [r2, #0]
   82664:	6861      	ldr	r1, [r4, #4]
   82666:	1a5b      	subs	r3, r3, r1
   82668:	6013      	str	r3, [r2, #0]
   8266a:	4b0d      	ldr	r3, [pc, #52]	; (826a0 <pvPortMalloc+0xc4>)
   8266c:	4798      	blx	r3
   8266e:	4628      	mov	r0, r5
   82670:	bd38      	pop	{r3, r4, r5, pc}
   82672:	18a0      	adds	r0, r4, r2
   82674:	6043      	str	r3, [r0, #4]
   82676:	6062      	str	r2, [r4, #4]
   82678:	4b0a      	ldr	r3, [pc, #40]	; (826a4 <pvPortMalloc+0xc8>)
   8267a:	4798      	blx	r3
   8267c:	e7f0      	b.n	82660 <pvPortMalloc+0x84>
   8267e:	2500      	movs	r5, #0
   82680:	e7f3      	b.n	8266a <pvPortMalloc+0x8e>
   82682:	2500      	movs	r5, #0
   82684:	e7f1      	b.n	8266a <pvPortMalloc+0x8e>
   82686:	2500      	movs	r5, #0
   82688:	e7ef      	b.n	8266a <pvPortMalloc+0x8e>
   8268a:	bf00      	nop
   8268c:	00082f0d 	.word	0x00082f0d
   82690:	20070c80 	.word	0x20070c80
   82694:	2007ac88 	.word	0x2007ac88
   82698:	20070c88 	.word	0x20070c88
   8269c:	200701b4 	.word	0x200701b4
   826a0:	00083085 	.word	0x00083085
   826a4:	00082585 	.word	0x00082585

000826a8 <vPortFree>:
   826a8:	b180      	cbz	r0, 826cc <vPortFree+0x24>
   826aa:	b510      	push	{r4, lr}
   826ac:	4604      	mov	r4, r0
   826ae:	4b08      	ldr	r3, [pc, #32]	; (826d0 <vPortFree+0x28>)
   826b0:	4798      	blx	r3
   826b2:	4a08      	ldr	r2, [pc, #32]	; (826d4 <vPortFree+0x2c>)
   826b4:	f854 3c0c 	ldr.w	r3, [r4, #-12]
   826b8:	6811      	ldr	r1, [r2, #0]
   826ba:	440b      	add	r3, r1
   826bc:	6013      	str	r3, [r2, #0]
   826be:	f1a4 0010 	sub.w	r0, r4, #16
   826c2:	4b05      	ldr	r3, [pc, #20]	; (826d8 <vPortFree+0x30>)
   826c4:	4798      	blx	r3
   826c6:	4b05      	ldr	r3, [pc, #20]	; (826dc <vPortFree+0x34>)
   826c8:	4798      	blx	r3
   826ca:	bd10      	pop	{r4, pc}
   826cc:	4770      	bx	lr
   826ce:	bf00      	nop
   826d0:	00082f0d 	.word	0x00082f0d
   826d4:	200701b4 	.word	0x200701b4
   826d8:	00082585 	.word	0x00082585
   826dc:	00083085 	.word	0x00083085

000826e0 <prvCopyDataToQueue>:
   826e0:	b510      	push	{r4, lr}
   826e2:	4604      	mov	r4, r0
   826e4:	6c03      	ldr	r3, [r0, #64]	; 0x40
   826e6:	b95b      	cbnz	r3, 82700 <prvCopyDataToQueue+0x20>
   826e8:	6803      	ldr	r3, [r0, #0]
   826ea:	b11b      	cbz	r3, 826f4 <prvCopyDataToQueue+0x14>
   826ec:	6ba3      	ldr	r3, [r4, #56]	; 0x38
   826ee:	3301      	adds	r3, #1
   826f0:	63a3      	str	r3, [r4, #56]	; 0x38
   826f2:	bd10      	pop	{r4, pc}
   826f4:	6840      	ldr	r0, [r0, #4]
   826f6:	4b12      	ldr	r3, [pc, #72]	; (82740 <prvCopyDataToQueue+0x60>)
   826f8:	4798      	blx	r3
   826fa:	2300      	movs	r3, #0
   826fc:	6063      	str	r3, [r4, #4]
   826fe:	e7f5      	b.n	826ec <prvCopyDataToQueue+0xc>
   82700:	b96a      	cbnz	r2, 8271e <prvCopyDataToQueue+0x3e>
   82702:	461a      	mov	r2, r3
   82704:	6880      	ldr	r0, [r0, #8]
   82706:	4b0f      	ldr	r3, [pc, #60]	; (82744 <prvCopyDataToQueue+0x64>)
   82708:	4798      	blx	r3
   8270a:	68a3      	ldr	r3, [r4, #8]
   8270c:	6c22      	ldr	r2, [r4, #64]	; 0x40
   8270e:	4413      	add	r3, r2
   82710:	60a3      	str	r3, [r4, #8]
   82712:	6862      	ldr	r2, [r4, #4]
   82714:	4293      	cmp	r3, r2
   82716:	d3e9      	bcc.n	826ec <prvCopyDataToQueue+0xc>
   82718:	6823      	ldr	r3, [r4, #0]
   8271a:	60a3      	str	r3, [r4, #8]
   8271c:	e7e6      	b.n	826ec <prvCopyDataToQueue+0xc>
   8271e:	461a      	mov	r2, r3
   82720:	68c0      	ldr	r0, [r0, #12]
   82722:	4b08      	ldr	r3, [pc, #32]	; (82744 <prvCopyDataToQueue+0x64>)
   82724:	4798      	blx	r3
   82726:	6c22      	ldr	r2, [r4, #64]	; 0x40
   82728:	4252      	negs	r2, r2
   8272a:	68e3      	ldr	r3, [r4, #12]
   8272c:	4413      	add	r3, r2
   8272e:	60e3      	str	r3, [r4, #12]
   82730:	6821      	ldr	r1, [r4, #0]
   82732:	428b      	cmp	r3, r1
   82734:	d2da      	bcs.n	826ec <prvCopyDataToQueue+0xc>
   82736:	6863      	ldr	r3, [r4, #4]
   82738:	441a      	add	r2, r3
   8273a:	60e2      	str	r2, [r4, #12]
   8273c:	e7d6      	b.n	826ec <prvCopyDataToQueue+0xc>
   8273e:	bf00      	nop
   82740:	00083611 	.word	0x00083611
   82744:	0008573d 	.word	0x0008573d

00082748 <prvCopyDataFromQueue>:
   82748:	b538      	push	{r3, r4, r5, lr}
   8274a:	4603      	mov	r3, r0
   8274c:	6800      	ldr	r0, [r0, #0]
   8274e:	b158      	cbz	r0, 82768 <prvCopyDataFromQueue+0x20>
   82750:	6c1a      	ldr	r2, [r3, #64]	; 0x40
   82752:	68dc      	ldr	r4, [r3, #12]
   82754:	4414      	add	r4, r2
   82756:	60dc      	str	r4, [r3, #12]
   82758:	685d      	ldr	r5, [r3, #4]
   8275a:	42ac      	cmp	r4, r5
   8275c:	bf28      	it	cs
   8275e:	60d8      	strcs	r0, [r3, #12]
   82760:	4608      	mov	r0, r1
   82762:	68d9      	ldr	r1, [r3, #12]
   82764:	4b01      	ldr	r3, [pc, #4]	; (8276c <prvCopyDataFromQueue+0x24>)
   82766:	4798      	blx	r3
   82768:	bd38      	pop	{r3, r4, r5, pc}
   8276a:	bf00      	nop
   8276c:	0008573d 	.word	0x0008573d

00082770 <prvUnlockQueue>:
   82770:	b5f8      	push	{r3, r4, r5, r6, r7, lr}
   82772:	4604      	mov	r4, r0
   82774:	4b1f      	ldr	r3, [pc, #124]	; (827f4 <prvUnlockQueue+0x84>)
   82776:	4798      	blx	r3
   82778:	6ca3      	ldr	r3, [r4, #72]	; 0x48
   8277a:	2b00      	cmp	r3, #0
   8277c:	dd14      	ble.n	827a8 <prvUnlockQueue+0x38>
   8277e:	6a63      	ldr	r3, [r4, #36]	; 0x24
   82780:	b193      	cbz	r3, 827a8 <prvUnlockQueue+0x38>
   82782:	f104 0624 	add.w	r6, r4, #36	; 0x24
   82786:	4d1c      	ldr	r5, [pc, #112]	; (827f8 <prvUnlockQueue+0x88>)
   82788:	4f1c      	ldr	r7, [pc, #112]	; (827fc <prvUnlockQueue+0x8c>)
   8278a:	e007      	b.n	8279c <prvUnlockQueue+0x2c>
   8278c:	6ca3      	ldr	r3, [r4, #72]	; 0x48
   8278e:	3b01      	subs	r3, #1
   82790:	64a3      	str	r3, [r4, #72]	; 0x48
   82792:	6ca3      	ldr	r3, [r4, #72]	; 0x48
   82794:	2b00      	cmp	r3, #0
   82796:	dd07      	ble.n	827a8 <prvUnlockQueue+0x38>
   82798:	6a63      	ldr	r3, [r4, #36]	; 0x24
   8279a:	b12b      	cbz	r3, 827a8 <prvUnlockQueue+0x38>
   8279c:	4630      	mov	r0, r6
   8279e:	47a8      	blx	r5
   827a0:	2800      	cmp	r0, #0
   827a2:	d0f3      	beq.n	8278c <prvUnlockQueue+0x1c>
   827a4:	47b8      	blx	r7
   827a6:	e7f1      	b.n	8278c <prvUnlockQueue+0x1c>
   827a8:	f04f 33ff 	mov.w	r3, #4294967295
   827ac:	64a3      	str	r3, [r4, #72]	; 0x48
   827ae:	4b14      	ldr	r3, [pc, #80]	; (82800 <prvUnlockQueue+0x90>)
   827b0:	4798      	blx	r3
   827b2:	4b10      	ldr	r3, [pc, #64]	; (827f4 <prvUnlockQueue+0x84>)
   827b4:	4798      	blx	r3
   827b6:	6c63      	ldr	r3, [r4, #68]	; 0x44
   827b8:	2b00      	cmp	r3, #0
   827ba:	dd14      	ble.n	827e6 <prvUnlockQueue+0x76>
   827bc:	6923      	ldr	r3, [r4, #16]
   827be:	b193      	cbz	r3, 827e6 <prvUnlockQueue+0x76>
   827c0:	f104 0610 	add.w	r6, r4, #16
   827c4:	4d0c      	ldr	r5, [pc, #48]	; (827f8 <prvUnlockQueue+0x88>)
   827c6:	4f0d      	ldr	r7, [pc, #52]	; (827fc <prvUnlockQueue+0x8c>)
   827c8:	e007      	b.n	827da <prvUnlockQueue+0x6a>
   827ca:	6c63      	ldr	r3, [r4, #68]	; 0x44
   827cc:	3b01      	subs	r3, #1
   827ce:	6463      	str	r3, [r4, #68]	; 0x44
   827d0:	6c63      	ldr	r3, [r4, #68]	; 0x44
   827d2:	2b00      	cmp	r3, #0
   827d4:	dd07      	ble.n	827e6 <prvUnlockQueue+0x76>
   827d6:	6923      	ldr	r3, [r4, #16]
   827d8:	b12b      	cbz	r3, 827e6 <prvUnlockQueue+0x76>
   827da:	4630      	mov	r0, r6
   827dc:	47a8      	blx	r5
   827de:	2800      	cmp	r0, #0
   827e0:	d0f3      	beq.n	827ca <prvUnlockQueue+0x5a>
   827e2:	47b8      	blx	r7
   827e4:	e7f1      	b.n	827ca <prvUnlockQueue+0x5a>
   827e6:	f04f 33ff 	mov.w	r3, #4294967295
   827ea:	6463      	str	r3, [r4, #68]	; 0x44
   827ec:	4b04      	ldr	r3, [pc, #16]	; (82800 <prvUnlockQueue+0x90>)
   827ee:	4798      	blx	r3
   827f0:	bdf8      	pop	{r3, r4, r5, r6, r7, pc}
   827f2:	bf00      	nop
   827f4:	0008248d 	.word	0x0008248d
   827f8:	00083429 	.word	0x00083429
   827fc:	00083559 	.word	0x00083559
   82800:	000824ad 	.word	0x000824ad

00082804 <xQueueGenericReset>:
   82804:	b538      	push	{r3, r4, r5, lr}
   82806:	b308      	cbz	r0, 8284c <xQueueGenericReset+0x48>
   82808:	460d      	mov	r5, r1
   8280a:	4604      	mov	r4, r0
   8280c:	4b17      	ldr	r3, [pc, #92]	; (8286c <xQueueGenericReset+0x68>)
   8280e:	4798      	blx	r3
   82810:	6822      	ldr	r2, [r4, #0]
   82812:	6c21      	ldr	r1, [r4, #64]	; 0x40
   82814:	6be3      	ldr	r3, [r4, #60]	; 0x3c
   82816:	fb03 f301 	mul.w	r3, r3, r1
   8281a:	18d0      	adds	r0, r2, r3
   8281c:	6060      	str	r0, [r4, #4]
   8281e:	2000      	movs	r0, #0
   82820:	63a0      	str	r0, [r4, #56]	; 0x38
   82822:	60a2      	str	r2, [r4, #8]
   82824:	1a5b      	subs	r3, r3, r1
   82826:	4413      	add	r3, r2
   82828:	60e3      	str	r3, [r4, #12]
   8282a:	f04f 33ff 	mov.w	r3, #4294967295
   8282e:	6463      	str	r3, [r4, #68]	; 0x44
   82830:	64a3      	str	r3, [r4, #72]	; 0x48
   82832:	b995      	cbnz	r5, 8285a <xQueueGenericReset+0x56>
   82834:	6923      	ldr	r3, [r4, #16]
   82836:	b12b      	cbz	r3, 82844 <xQueueGenericReset+0x40>
   82838:	f104 0010 	add.w	r0, r4, #16
   8283c:	4b0c      	ldr	r3, [pc, #48]	; (82870 <xQueueGenericReset+0x6c>)
   8283e:	4798      	blx	r3
   82840:	2801      	cmp	r0, #1
   82842:	d007      	beq.n	82854 <xQueueGenericReset+0x50>
   82844:	4b0b      	ldr	r3, [pc, #44]	; (82874 <xQueueGenericReset+0x70>)
   82846:	4798      	blx	r3
   82848:	2001      	movs	r0, #1
   8284a:	bd38      	pop	{r3, r4, r5, pc}
   8284c:	4b0a      	ldr	r3, [pc, #40]	; (82878 <xQueueGenericReset+0x74>)
   8284e:	4798      	blx	r3
   82850:	bf00      	nop
   82852:	e7fd      	b.n	82850 <xQueueGenericReset+0x4c>
   82854:	4b09      	ldr	r3, [pc, #36]	; (8287c <xQueueGenericReset+0x78>)
   82856:	4798      	blx	r3
   82858:	e7f4      	b.n	82844 <xQueueGenericReset+0x40>
   8285a:	f104 0010 	add.w	r0, r4, #16
   8285e:	4d08      	ldr	r5, [pc, #32]	; (82880 <xQueueGenericReset+0x7c>)
   82860:	47a8      	blx	r5
   82862:	f104 0024 	add.w	r0, r4, #36	; 0x24
   82866:	47a8      	blx	r5
   82868:	e7ec      	b.n	82844 <xQueueGenericReset+0x40>
   8286a:	bf00      	nop
   8286c:	0008248d 	.word	0x0008248d
   82870:	00083429 	.word	0x00083429
   82874:	000824ad 	.word	0x000824ad
   82878:	0008247d 	.word	0x0008247d
   8287c:	0008246d 	.word	0x0008246d
   82880:	00082385 	.word	0x00082385

00082884 <xQueueGenericCreate>:
   82884:	b5f8      	push	{r3, r4, r5, r6, r7, lr}
   82886:	b1d8      	cbz	r0, 828c0 <xQueueGenericCreate+0x3c>
   82888:	460d      	mov	r5, r1
   8288a:	4617      	mov	r7, r2
   8288c:	4606      	mov	r6, r0
   8288e:	2050      	movs	r0, #80	; 0x50
   82890:	4b0d      	ldr	r3, [pc, #52]	; (828c8 <xQueueGenericCreate+0x44>)
   82892:	4798      	blx	r3
   82894:	4604      	mov	r4, r0
   82896:	b198      	cbz	r0, 828c0 <xQueueGenericCreate+0x3c>
   82898:	fb05 f006 	mul.w	r0, r5, r6
   8289c:	3001      	adds	r0, #1
   8289e:	4b0a      	ldr	r3, [pc, #40]	; (828c8 <xQueueGenericCreate+0x44>)
   828a0:	4798      	blx	r3
   828a2:	6020      	str	r0, [r4, #0]
   828a4:	b148      	cbz	r0, 828ba <xQueueGenericCreate+0x36>
   828a6:	63e6      	str	r6, [r4, #60]	; 0x3c
   828a8:	6425      	str	r5, [r4, #64]	; 0x40
   828aa:	2101      	movs	r1, #1
   828ac:	4620      	mov	r0, r4
   828ae:	4b07      	ldr	r3, [pc, #28]	; (828cc <xQueueGenericCreate+0x48>)
   828b0:	4798      	blx	r3
   828b2:	f884 704d 	strb.w	r7, [r4, #77]	; 0x4d
   828b6:	4620      	mov	r0, r4
   828b8:	bdf8      	pop	{r3, r4, r5, r6, r7, pc}
   828ba:	4620      	mov	r0, r4
   828bc:	4b04      	ldr	r3, [pc, #16]	; (828d0 <xQueueGenericCreate+0x4c>)
   828be:	4798      	blx	r3
   828c0:	4b04      	ldr	r3, [pc, #16]	; (828d4 <xQueueGenericCreate+0x50>)
   828c2:	4798      	blx	r3
   828c4:	bf00      	nop
   828c6:	e7fd      	b.n	828c4 <xQueueGenericCreate+0x40>
   828c8:	000825dd 	.word	0x000825dd
   828cc:	00082805 	.word	0x00082805
   828d0:	000826a9 	.word	0x000826a9
   828d4:	0008247d 	.word	0x0008247d

000828d8 <xQueueGenericSend>:
   828d8:	e92d 4ff0 	stmdb	sp!, {r4, r5, r6, r7, r8, r9, sl, fp, lr}
   828dc:	b085      	sub	sp, #20
   828de:	9201      	str	r2, [sp, #4]
   828e0:	b148      	cbz	r0, 828f6 <xQueueGenericSend+0x1e>
   828e2:	4688      	mov	r8, r1
   828e4:	4699      	mov	r9, r3
   828e6:	4604      	mov	r4, r0
   828e8:	b149      	cbz	r1, 828fe <xQueueGenericSend+0x26>
   828ea:	2700      	movs	r7, #0
   828ec:	4e38      	ldr	r6, [pc, #224]	; (829d0 <xQueueGenericSend+0xf8>)
   828ee:	f8df a10c 	ldr.w	sl, [pc, #268]	; 829fc <xQueueGenericSend+0x124>
   828f2:	4d38      	ldr	r5, [pc, #224]	; (829d4 <xQueueGenericSend+0xfc>)
   828f4:	e02e      	b.n	82954 <xQueueGenericSend+0x7c>
   828f6:	4b38      	ldr	r3, [pc, #224]	; (829d8 <xQueueGenericSend+0x100>)
   828f8:	4798      	blx	r3
   828fa:	bf00      	nop
   828fc:	e7fd      	b.n	828fa <xQueueGenericSend+0x22>
   828fe:	6c03      	ldr	r3, [r0, #64]	; 0x40
   82900:	b11b      	cbz	r3, 8290a <xQueueGenericSend+0x32>
   82902:	4b35      	ldr	r3, [pc, #212]	; (829d8 <xQueueGenericSend+0x100>)
   82904:	4798      	blx	r3
   82906:	bf00      	nop
   82908:	e7fd      	b.n	82906 <xQueueGenericSend+0x2e>
   8290a:	2700      	movs	r7, #0
   8290c:	e7ee      	b.n	828ec <xQueueGenericSend+0x14>
   8290e:	464a      	mov	r2, r9
   82910:	4641      	mov	r1, r8
   82912:	4620      	mov	r0, r4
   82914:	4b31      	ldr	r3, [pc, #196]	; (829dc <xQueueGenericSend+0x104>)
   82916:	4798      	blx	r3
   82918:	6a63      	ldr	r3, [r4, #36]	; 0x24
   8291a:	b92b      	cbnz	r3, 82928 <xQueueGenericSend+0x50>
   8291c:	4b2d      	ldr	r3, [pc, #180]	; (829d4 <xQueueGenericSend+0xfc>)
   8291e:	4798      	blx	r3
   82920:	2001      	movs	r0, #1
   82922:	b005      	add	sp, #20
   82924:	e8bd 8ff0 	ldmia.w	sp!, {r4, r5, r6, r7, r8, r9, sl, fp, pc}
   82928:	f104 0024 	add.w	r0, r4, #36	; 0x24
   8292c:	4b2c      	ldr	r3, [pc, #176]	; (829e0 <xQueueGenericSend+0x108>)
   8292e:	4798      	blx	r3
   82930:	2801      	cmp	r0, #1
   82932:	d1f3      	bne.n	8291c <xQueueGenericSend+0x44>
   82934:	4b2b      	ldr	r3, [pc, #172]	; (829e4 <xQueueGenericSend+0x10c>)
   82936:	4798      	blx	r3
   82938:	e7f0      	b.n	8291c <xQueueGenericSend+0x44>
   8293a:	4b26      	ldr	r3, [pc, #152]	; (829d4 <xQueueGenericSend+0xfc>)
   8293c:	4798      	blx	r3
   8293e:	2000      	movs	r0, #0
   82940:	e7ef      	b.n	82922 <xQueueGenericSend+0x4a>
   82942:	a802      	add	r0, sp, #8
   82944:	47d0      	blx	sl
   82946:	e00f      	b.n	82968 <xQueueGenericSend+0x90>
   82948:	4620      	mov	r0, r4
   8294a:	4b27      	ldr	r3, [pc, #156]	; (829e8 <xQueueGenericSend+0x110>)
   8294c:	4798      	blx	r3
   8294e:	4b27      	ldr	r3, [pc, #156]	; (829ec <xQueueGenericSend+0x114>)
   82950:	4798      	blx	r3
   82952:	2701      	movs	r7, #1
   82954:	47b0      	blx	r6
   82956:	6ba2      	ldr	r2, [r4, #56]	; 0x38
   82958:	6be3      	ldr	r3, [r4, #60]	; 0x3c
   8295a:	429a      	cmp	r2, r3
   8295c:	d3d7      	bcc.n	8290e <xQueueGenericSend+0x36>
   8295e:	9b01      	ldr	r3, [sp, #4]
   82960:	2b00      	cmp	r3, #0
   82962:	d0ea      	beq.n	8293a <xQueueGenericSend+0x62>
   82964:	2f00      	cmp	r7, #0
   82966:	d0ec      	beq.n	82942 <xQueueGenericSend+0x6a>
   82968:	47a8      	blx	r5
   8296a:	4b21      	ldr	r3, [pc, #132]	; (829f0 <xQueueGenericSend+0x118>)
   8296c:	4798      	blx	r3
   8296e:	47b0      	blx	r6
   82970:	6c63      	ldr	r3, [r4, #68]	; 0x44
   82972:	f1b3 3fff 	cmp.w	r3, #4294967295
   82976:	bf04      	itt	eq
   82978:	2300      	moveq	r3, #0
   8297a:	6463      	streq	r3, [r4, #68]	; 0x44
   8297c:	6ca3      	ldr	r3, [r4, #72]	; 0x48
   8297e:	f1b3 3fff 	cmp.w	r3, #4294967295
   82982:	bf04      	itt	eq
   82984:	2300      	moveq	r3, #0
   82986:	64a3      	streq	r3, [r4, #72]	; 0x48
   82988:	47a8      	blx	r5
   8298a:	a901      	add	r1, sp, #4
   8298c:	a802      	add	r0, sp, #8
   8298e:	4b19      	ldr	r3, [pc, #100]	; (829f4 <xQueueGenericSend+0x11c>)
   82990:	4798      	blx	r3
   82992:	b9a8      	cbnz	r0, 829c0 <xQueueGenericSend+0xe8>
   82994:	47b0      	blx	r6
   82996:	f8d4 b038 	ldr.w	fp, [r4, #56]	; 0x38
   8299a:	6be7      	ldr	r7, [r4, #60]	; 0x3c
   8299c:	47a8      	blx	r5
   8299e:	45bb      	cmp	fp, r7
   829a0:	d1d2      	bne.n	82948 <xQueueGenericSend+0x70>
   829a2:	9901      	ldr	r1, [sp, #4]
   829a4:	f104 0010 	add.w	r0, r4, #16
   829a8:	4b13      	ldr	r3, [pc, #76]	; (829f8 <xQueueGenericSend+0x120>)
   829aa:	4798      	blx	r3
   829ac:	4620      	mov	r0, r4
   829ae:	4b0e      	ldr	r3, [pc, #56]	; (829e8 <xQueueGenericSend+0x110>)
   829b0:	4798      	blx	r3
   829b2:	4b0e      	ldr	r3, [pc, #56]	; (829ec <xQueueGenericSend+0x114>)
   829b4:	4798      	blx	r3
   829b6:	2800      	cmp	r0, #0
   829b8:	d1cb      	bne.n	82952 <xQueueGenericSend+0x7a>
   829ba:	4b0a      	ldr	r3, [pc, #40]	; (829e4 <xQueueGenericSend+0x10c>)
   829bc:	4798      	blx	r3
   829be:	e7c8      	b.n	82952 <xQueueGenericSend+0x7a>
   829c0:	4620      	mov	r0, r4
   829c2:	4b09      	ldr	r3, [pc, #36]	; (829e8 <xQueueGenericSend+0x110>)
   829c4:	4798      	blx	r3
   829c6:	4b09      	ldr	r3, [pc, #36]	; (829ec <xQueueGenericSend+0x114>)
   829c8:	4798      	blx	r3
   829ca:	2000      	movs	r0, #0
   829cc:	e7a9      	b.n	82922 <xQueueGenericSend+0x4a>
   829ce:	bf00      	nop
   829d0:	0008248d 	.word	0x0008248d
   829d4:	000824ad 	.word	0x000824ad
   829d8:	0008247d 	.word	0x0008247d
   829dc:	000826e1 	.word	0x000826e1
   829e0:	00083429 	.word	0x00083429
   829e4:	0008246d 	.word	0x0008246d
   829e8:	00082771 	.word	0x00082771
   829ec:	00083085 	.word	0x00083085
   829f0:	00082f0d 	.word	0x00082f0d
   829f4:	000834d5 	.word	0x000834d5
   829f8:	00083385 	.word	0x00083385
   829fc:	000834ad 	.word	0x000834ad

00082a00 <xQueueGenericSendFromISR>:
   82a00:	e92d 41f0 	stmdb	sp!, {r4, r5, r6, r7, r8, lr}
   82a04:	b190      	cbz	r0, 82a2c <xQueueGenericSendFromISR+0x2c>
   82a06:	460e      	mov	r6, r1
   82a08:	4615      	mov	r5, r2
   82a0a:	4698      	mov	r8, r3
   82a0c:	4604      	mov	r4, r0
   82a0e:	b189      	cbz	r1, 82a34 <xQueueGenericSendFromISR+0x34>
   82a10:	4b1b      	ldr	r3, [pc, #108]	; (82a80 <xQueueGenericSendFromISR+0x80>)
   82a12:	4798      	blx	r3
   82a14:	4607      	mov	r7, r0
   82a16:	6ba2      	ldr	r2, [r4, #56]	; 0x38
   82a18:	6be3      	ldr	r3, [r4, #60]	; 0x3c
   82a1a:	429a      	cmp	r2, r3
   82a1c:	d311      	bcc.n	82a42 <xQueueGenericSendFromISR+0x42>
   82a1e:	2400      	movs	r4, #0
   82a20:	4638      	mov	r0, r7
   82a22:	4b18      	ldr	r3, [pc, #96]	; (82a84 <xQueueGenericSendFromISR+0x84>)
   82a24:	4798      	blx	r3
   82a26:	4620      	mov	r0, r4
   82a28:	e8bd 81f0 	ldmia.w	sp!, {r4, r5, r6, r7, r8, pc}
   82a2c:	4b14      	ldr	r3, [pc, #80]	; (82a80 <xQueueGenericSendFromISR+0x80>)
   82a2e:	4798      	blx	r3
   82a30:	bf00      	nop
   82a32:	e7fd      	b.n	82a30 <xQueueGenericSendFromISR+0x30>
   82a34:	6c03      	ldr	r3, [r0, #64]	; 0x40
   82a36:	2b00      	cmp	r3, #0
   82a38:	d0ea      	beq.n	82a10 <xQueueGenericSendFromISR+0x10>
   82a3a:	4b11      	ldr	r3, [pc, #68]	; (82a80 <xQueueGenericSendFromISR+0x80>)
   82a3c:	4798      	blx	r3
   82a3e:	bf00      	nop
   82a40:	e7fd      	b.n	82a3e <xQueueGenericSendFromISR+0x3e>
   82a42:	4642      	mov	r2, r8
   82a44:	4631      	mov	r1, r6
   82a46:	4620      	mov	r0, r4
   82a48:	4b0f      	ldr	r3, [pc, #60]	; (82a88 <xQueueGenericSendFromISR+0x88>)
   82a4a:	4798      	blx	r3
   82a4c:	6ca3      	ldr	r3, [r4, #72]	; 0x48
   82a4e:	f1b3 3fff 	cmp.w	r3, #4294967295
   82a52:	d10a      	bne.n	82a6a <xQueueGenericSendFromISR+0x6a>
   82a54:	6a63      	ldr	r3, [r4, #36]	; 0x24
   82a56:	b16b      	cbz	r3, 82a74 <xQueueGenericSendFromISR+0x74>
   82a58:	f104 0024 	add.w	r0, r4, #36	; 0x24
   82a5c:	4b0b      	ldr	r3, [pc, #44]	; (82a8c <xQueueGenericSendFromISR+0x8c>)
   82a5e:	4798      	blx	r3
   82a60:	b150      	cbz	r0, 82a78 <xQueueGenericSendFromISR+0x78>
   82a62:	b15d      	cbz	r5, 82a7c <xQueueGenericSendFromISR+0x7c>
   82a64:	2401      	movs	r4, #1
   82a66:	602c      	str	r4, [r5, #0]
   82a68:	e7da      	b.n	82a20 <xQueueGenericSendFromISR+0x20>
   82a6a:	6ca3      	ldr	r3, [r4, #72]	; 0x48
   82a6c:	3301      	adds	r3, #1
   82a6e:	64a3      	str	r3, [r4, #72]	; 0x48
   82a70:	2401      	movs	r4, #1
   82a72:	e7d5      	b.n	82a20 <xQueueGenericSendFromISR+0x20>
   82a74:	2401      	movs	r4, #1
   82a76:	e7d3      	b.n	82a20 <xQueueGenericSendFromISR+0x20>
   82a78:	2401      	movs	r4, #1
   82a7a:	e7d1      	b.n	82a20 <xQueueGenericSendFromISR+0x20>
   82a7c:	2401      	movs	r4, #1
   82a7e:	e7cf      	b.n	82a20 <xQueueGenericSendFromISR+0x20>
   82a80:	0008247d 	.word	0x0008247d
   82a84:	000824a5 	.word	0x000824a5
   82a88:	000826e1 	.word	0x000826e1
   82a8c:	00083429 	.word	0x00083429

00082a90 <xQueueGenericReceive>:
   82a90:	e92d 47f0 	stmdb	sp!, {r4, r5, r6, r7, r8, r9, sl, lr}
   82a94:	b084      	sub	sp, #16
   82a96:	9201      	str	r2, [sp, #4]
   82a98:	b148      	cbz	r0, 82aae <xQueueGenericReceive+0x1e>
   82a9a:	4688      	mov	r8, r1
   82a9c:	4699      	mov	r9, r3
   82a9e:	4604      	mov	r4, r0
   82aa0:	b149      	cbz	r1, 82ab6 <xQueueGenericReceive+0x26>
   82aa2:	2700      	movs	r7, #0
   82aa4:	4e46      	ldr	r6, [pc, #280]	; (82bc0 <xQueueGenericReceive+0x130>)
   82aa6:	f8df a14c 	ldr.w	sl, [pc, #332]	; 82bf4 <xQueueGenericReceive+0x164>
   82aaa:	4d46      	ldr	r5, [pc, #280]	; (82bc4 <xQueueGenericReceive+0x134>)
   82aac:	e04b      	b.n	82b46 <xQueueGenericReceive+0xb6>
   82aae:	4b46      	ldr	r3, [pc, #280]	; (82bc8 <xQueueGenericReceive+0x138>)
   82ab0:	4798      	blx	r3
   82ab2:	bf00      	nop
   82ab4:	e7fd      	b.n	82ab2 <xQueueGenericReceive+0x22>
   82ab6:	6c03      	ldr	r3, [r0, #64]	; 0x40
   82ab8:	b11b      	cbz	r3, 82ac2 <xQueueGenericReceive+0x32>
   82aba:	4b43      	ldr	r3, [pc, #268]	; (82bc8 <xQueueGenericReceive+0x138>)
   82abc:	4798      	blx	r3
   82abe:	bf00      	nop
   82ac0:	e7fd      	b.n	82abe <xQueueGenericReceive+0x2e>
   82ac2:	2700      	movs	r7, #0
   82ac4:	e7ee      	b.n	82aa4 <xQueueGenericReceive+0x14>
   82ac6:	68e5      	ldr	r5, [r4, #12]
   82ac8:	4641      	mov	r1, r8
   82aca:	4620      	mov	r0, r4
   82acc:	4b3f      	ldr	r3, [pc, #252]	; (82bcc <xQueueGenericReceive+0x13c>)
   82ace:	4798      	blx	r3
   82ad0:	f1b9 0f00 	cmp.w	r9, #0
   82ad4:	d117      	bne.n	82b06 <xQueueGenericReceive+0x76>
   82ad6:	6ba3      	ldr	r3, [r4, #56]	; 0x38
   82ad8:	3b01      	subs	r3, #1
   82ada:	63a3      	str	r3, [r4, #56]	; 0x38
   82adc:	6823      	ldr	r3, [r4, #0]
   82ade:	b913      	cbnz	r3, 82ae6 <xQueueGenericReceive+0x56>
   82ae0:	4b3b      	ldr	r3, [pc, #236]	; (82bd0 <xQueueGenericReceive+0x140>)
   82ae2:	4798      	blx	r3
   82ae4:	6060      	str	r0, [r4, #4]
   82ae6:	6923      	ldr	r3, [r4, #16]
   82ae8:	b13b      	cbz	r3, 82afa <xQueueGenericReceive+0x6a>
   82aea:	f104 0010 	add.w	r0, r4, #16
   82aee:	4b39      	ldr	r3, [pc, #228]	; (82bd4 <xQueueGenericReceive+0x144>)
   82af0:	4798      	blx	r3
   82af2:	2801      	cmp	r0, #1
   82af4:	d101      	bne.n	82afa <xQueueGenericReceive+0x6a>
   82af6:	4b38      	ldr	r3, [pc, #224]	; (82bd8 <xQueueGenericReceive+0x148>)
   82af8:	4798      	blx	r3
   82afa:	4b32      	ldr	r3, [pc, #200]	; (82bc4 <xQueueGenericReceive+0x134>)
   82afc:	4798      	blx	r3
   82afe:	2001      	movs	r0, #1
   82b00:	b004      	add	sp, #16
   82b02:	e8bd 87f0 	ldmia.w	sp!, {r4, r5, r6, r7, r8, r9, sl, pc}
   82b06:	60e5      	str	r5, [r4, #12]
   82b08:	6a63      	ldr	r3, [r4, #36]	; 0x24
   82b0a:	2b00      	cmp	r3, #0
   82b0c:	d0f5      	beq.n	82afa <xQueueGenericReceive+0x6a>
   82b0e:	f104 0024 	add.w	r0, r4, #36	; 0x24
   82b12:	4b30      	ldr	r3, [pc, #192]	; (82bd4 <xQueueGenericReceive+0x144>)
   82b14:	4798      	blx	r3
   82b16:	2800      	cmp	r0, #0
   82b18:	d0ef      	beq.n	82afa <xQueueGenericReceive+0x6a>
   82b1a:	4b2f      	ldr	r3, [pc, #188]	; (82bd8 <xQueueGenericReceive+0x148>)
   82b1c:	4798      	blx	r3
   82b1e:	e7ec      	b.n	82afa <xQueueGenericReceive+0x6a>
   82b20:	4b28      	ldr	r3, [pc, #160]	; (82bc4 <xQueueGenericReceive+0x134>)
   82b22:	4798      	blx	r3
   82b24:	2000      	movs	r0, #0
   82b26:	e7eb      	b.n	82b00 <xQueueGenericReceive+0x70>
   82b28:	a802      	add	r0, sp, #8
   82b2a:	47d0      	blx	sl
   82b2c:	e014      	b.n	82b58 <xQueueGenericReceive+0xc8>
   82b2e:	47b0      	blx	r6
   82b30:	6860      	ldr	r0, [r4, #4]
   82b32:	4b2a      	ldr	r3, [pc, #168]	; (82bdc <xQueueGenericReceive+0x14c>)
   82b34:	4798      	blx	r3
   82b36:	47a8      	blx	r5
   82b38:	e02c      	b.n	82b94 <xQueueGenericReceive+0x104>
   82b3a:	4620      	mov	r0, r4
   82b3c:	4b28      	ldr	r3, [pc, #160]	; (82be0 <xQueueGenericReceive+0x150>)
   82b3e:	4798      	blx	r3
   82b40:	4b28      	ldr	r3, [pc, #160]	; (82be4 <xQueueGenericReceive+0x154>)
   82b42:	4798      	blx	r3
   82b44:	2701      	movs	r7, #1
   82b46:	47b0      	blx	r6
   82b48:	6ba3      	ldr	r3, [r4, #56]	; 0x38
   82b4a:	2b00      	cmp	r3, #0
   82b4c:	d1bb      	bne.n	82ac6 <xQueueGenericReceive+0x36>
   82b4e:	9b01      	ldr	r3, [sp, #4]
   82b50:	2b00      	cmp	r3, #0
   82b52:	d0e5      	beq.n	82b20 <xQueueGenericReceive+0x90>
   82b54:	2f00      	cmp	r7, #0
   82b56:	d0e7      	beq.n	82b28 <xQueueGenericReceive+0x98>
   82b58:	47a8      	blx	r5
   82b5a:	4b23      	ldr	r3, [pc, #140]	; (82be8 <xQueueGenericReceive+0x158>)
   82b5c:	4798      	blx	r3
   82b5e:	47b0      	blx	r6
   82b60:	6c63      	ldr	r3, [r4, #68]	; 0x44
   82b62:	f1b3 3fff 	cmp.w	r3, #4294967295
   82b66:	bf04      	itt	eq
   82b68:	2300      	moveq	r3, #0
   82b6a:	6463      	streq	r3, [r4, #68]	; 0x44
   82b6c:	6ca3      	ldr	r3, [r4, #72]	; 0x48
   82b6e:	f1b3 3fff 	cmp.w	r3, #4294967295
   82b72:	bf04      	itt	eq
   82b74:	2300      	moveq	r3, #0
   82b76:	64a3      	streq	r3, [r4, #72]	; 0x48
   82b78:	47a8      	blx	r5
   82b7a:	a901      	add	r1, sp, #4
   82b7c:	a802      	add	r0, sp, #8
   82b7e:	4b1b      	ldr	r3, [pc, #108]	; (82bec <xQueueGenericReceive+0x15c>)
   82b80:	4798      	blx	r3
   82b82:	b9b0      	cbnz	r0, 82bb2 <xQueueGenericReceive+0x122>
   82b84:	47b0      	blx	r6
   82b86:	6ba7      	ldr	r7, [r4, #56]	; 0x38
   82b88:	47a8      	blx	r5
   82b8a:	2f00      	cmp	r7, #0
   82b8c:	d1d5      	bne.n	82b3a <xQueueGenericReceive+0xaa>
   82b8e:	6823      	ldr	r3, [r4, #0]
   82b90:	2b00      	cmp	r3, #0
   82b92:	d0cc      	beq.n	82b2e <xQueueGenericReceive+0x9e>
   82b94:	9901      	ldr	r1, [sp, #4]
   82b96:	f104 0024 	add.w	r0, r4, #36	; 0x24
   82b9a:	4b15      	ldr	r3, [pc, #84]	; (82bf0 <xQueueGenericReceive+0x160>)
   82b9c:	4798      	blx	r3
   82b9e:	4620      	mov	r0, r4
   82ba0:	4b0f      	ldr	r3, [pc, #60]	; (82be0 <xQueueGenericReceive+0x150>)
   82ba2:	4798      	blx	r3
   82ba4:	4b0f      	ldr	r3, [pc, #60]	; (82be4 <xQueueGenericReceive+0x154>)
   82ba6:	4798      	blx	r3
   82ba8:	2800      	cmp	r0, #0
   82baa:	d1cb      	bne.n	82b44 <xQueueGenericReceive+0xb4>
   82bac:	4b0a      	ldr	r3, [pc, #40]	; (82bd8 <xQueueGenericReceive+0x148>)
   82bae:	4798      	blx	r3
   82bb0:	e7c8      	b.n	82b44 <xQueueGenericReceive+0xb4>
   82bb2:	4620      	mov	r0, r4
   82bb4:	4b0a      	ldr	r3, [pc, #40]	; (82be0 <xQueueGenericReceive+0x150>)
   82bb6:	4798      	blx	r3
   82bb8:	4b0a      	ldr	r3, [pc, #40]	; (82be4 <xQueueGenericReceive+0x154>)
   82bba:	4798      	blx	r3
   82bbc:	2000      	movs	r0, #0
   82bbe:	e79f      	b.n	82b00 <xQueueGenericReceive+0x70>
   82bc0:	0008248d 	.word	0x0008248d
   82bc4:	000824ad 	.word	0x000824ad
   82bc8:	0008247d 	.word	0x0008247d
   82bcc:	00082749 	.word	0x00082749
   82bd0:	00083565 	.word	0x00083565
   82bd4:	00083429 	.word	0x00083429
   82bd8:	0008246d 	.word	0x0008246d
   82bdc:	00083591 	.word	0x00083591
   82be0:	00082771 	.word	0x00082771
   82be4:	00083085 	.word	0x00083085
   82be8:	00082f0d 	.word	0x00082f0d
   82bec:	000834d5 	.word	0x000834d5
   82bf0:	00083385 	.word	0x00083385
   82bf4:	000834ad 	.word	0x000834ad

00082bf8 <vQueueWaitForMessageRestricted>:
   82bf8:	b538      	push	{r3, r4, r5, lr}
   82bfa:	4604      	mov	r4, r0
   82bfc:	460d      	mov	r5, r1
   82bfe:	4b0e      	ldr	r3, [pc, #56]	; (82c38 <vQueueWaitForMessageRestricted+0x40>)
   82c00:	4798      	blx	r3
   82c02:	6c63      	ldr	r3, [r4, #68]	; 0x44
   82c04:	f1b3 3fff 	cmp.w	r3, #4294967295
   82c08:	bf04      	itt	eq
   82c0a:	2300      	moveq	r3, #0
   82c0c:	6463      	streq	r3, [r4, #68]	; 0x44
   82c0e:	6ca3      	ldr	r3, [r4, #72]	; 0x48
   82c10:	f1b3 3fff 	cmp.w	r3, #4294967295
   82c14:	bf04      	itt	eq
   82c16:	2300      	moveq	r3, #0
   82c18:	64a3      	streq	r3, [r4, #72]	; 0x48
   82c1a:	4b08      	ldr	r3, [pc, #32]	; (82c3c <vQueueWaitForMessageRestricted+0x44>)
   82c1c:	4798      	blx	r3
   82c1e:	6ba3      	ldr	r3, [r4, #56]	; 0x38
   82c20:	b11b      	cbz	r3, 82c2a <vQueueWaitForMessageRestricted+0x32>
   82c22:	4620      	mov	r0, r4
   82c24:	4b06      	ldr	r3, [pc, #24]	; (82c40 <vQueueWaitForMessageRestricted+0x48>)
   82c26:	4798      	blx	r3
   82c28:	bd38      	pop	{r3, r4, r5, pc}
   82c2a:	4629      	mov	r1, r5
   82c2c:	f104 0024 	add.w	r0, r4, #36	; 0x24
   82c30:	4b04      	ldr	r3, [pc, #16]	; (82c44 <vQueueWaitForMessageRestricted+0x4c>)
   82c32:	4798      	blx	r3
   82c34:	e7f5      	b.n	82c22 <vQueueWaitForMessageRestricted+0x2a>
   82c36:	bf00      	nop
   82c38:	0008248d 	.word	0x0008248d
   82c3c:	000824ad 	.word	0x000824ad
   82c40:	00082771 	.word	0x00082771
   82c44:	000833e5 	.word	0x000833e5

00082c48 <prvAddCurrentTaskToDelayedList>:
   82c48:	b510      	push	{r4, lr}
   82c4a:	4b0f      	ldr	r3, [pc, #60]	; (82c88 <prvAddCurrentTaskToDelayedList+0x40>)
   82c4c:	681b      	ldr	r3, [r3, #0]
   82c4e:	6058      	str	r0, [r3, #4]
   82c50:	4b0e      	ldr	r3, [pc, #56]	; (82c8c <prvAddCurrentTaskToDelayedList+0x44>)
   82c52:	681b      	ldr	r3, [r3, #0]
   82c54:	4298      	cmp	r0, r3
   82c56:	d30e      	bcc.n	82c76 <prvAddCurrentTaskToDelayedList+0x2e>
   82c58:	4604      	mov	r4, r0
   82c5a:	4b0d      	ldr	r3, [pc, #52]	; (82c90 <prvAddCurrentTaskToDelayedList+0x48>)
   82c5c:	6818      	ldr	r0, [r3, #0]
   82c5e:	4b0a      	ldr	r3, [pc, #40]	; (82c88 <prvAddCurrentTaskToDelayedList+0x40>)
   82c60:	6819      	ldr	r1, [r3, #0]
   82c62:	3104      	adds	r1, #4
   82c64:	4b0b      	ldr	r3, [pc, #44]	; (82c94 <prvAddCurrentTaskToDelayedList+0x4c>)
   82c66:	4798      	blx	r3
   82c68:	4b0b      	ldr	r3, [pc, #44]	; (82c98 <prvAddCurrentTaskToDelayedList+0x50>)
   82c6a:	681b      	ldr	r3, [r3, #0]
   82c6c:	429c      	cmp	r4, r3
   82c6e:	bf3c      	itt	cc
   82c70:	4b09      	ldrcc	r3, [pc, #36]	; (82c98 <prvAddCurrentTaskToDelayedList+0x50>)
   82c72:	601c      	strcc	r4, [r3, #0]
   82c74:	bd10      	pop	{r4, pc}
   82c76:	4b09      	ldr	r3, [pc, #36]	; (82c9c <prvAddCurrentTaskToDelayedList+0x54>)
   82c78:	6818      	ldr	r0, [r3, #0]
   82c7a:	4b03      	ldr	r3, [pc, #12]	; (82c88 <prvAddCurrentTaskToDelayedList+0x40>)
   82c7c:	6819      	ldr	r1, [r3, #0]
   82c7e:	3104      	adds	r1, #4
   82c80:	4b04      	ldr	r3, [pc, #16]	; (82c94 <prvAddCurrentTaskToDelayedList+0x4c>)
   82c82:	4798      	blx	r3
   82c84:	bd10      	pop	{r4, pc}
   82c86:	bf00      	nop
   82c88:	2007ac90 	.word	0x2007ac90
   82c8c:	2007ad8c 	.word	0x2007ad8c
   82c90:	2007ac94 	.word	0x2007ac94
   82c94:	000823bd 	.word	0x000823bd
   82c98:	200701b8 	.word	0x200701b8
   82c9c:	2007ac98 	.word	0x2007ac98

00082ca0 <xTaskGenericCreate>:
   82ca0:	e92d 4ff8 	stmdb	sp!, {r3, r4, r5, r6, r7, r8, r9, sl, fp, lr}
   82ca4:	9f0a      	ldr	r7, [sp, #40]	; 0x28
   82ca6:	f8dd 902c 	ldr.w	r9, [sp, #44]	; 0x2c
   82caa:	9e0c      	ldr	r6, [sp, #48]	; 0x30
   82cac:	b148      	cbz	r0, 82cc2 <xTaskGenericCreate+0x22>
   82cae:	4688      	mov	r8, r1
   82cb0:	4615      	mov	r5, r2
   82cb2:	469b      	mov	fp, r3
   82cb4:	4682      	mov	sl, r0
   82cb6:	2f04      	cmp	r7, #4
   82cb8:	d907      	bls.n	82cca <xTaskGenericCreate+0x2a>
   82cba:	4b60      	ldr	r3, [pc, #384]	; (82e3c <xTaskGenericCreate+0x19c>)
   82cbc:	4798      	blx	r3
   82cbe:	bf00      	nop
   82cc0:	e7fd      	b.n	82cbe <xTaskGenericCreate+0x1e>
   82cc2:	4b5e      	ldr	r3, [pc, #376]	; (82e3c <xTaskGenericCreate+0x19c>)
   82cc4:	4798      	blx	r3
   82cc6:	bf00      	nop
   82cc8:	e7fd      	b.n	82cc6 <xTaskGenericCreate+0x26>
   82cca:	204c      	movs	r0, #76	; 0x4c
   82ccc:	4b5c      	ldr	r3, [pc, #368]	; (82e40 <xTaskGenericCreate+0x1a0>)
   82cce:	4798      	blx	r3
   82cd0:	4604      	mov	r4, r0
   82cd2:	2800      	cmp	r0, #0
   82cd4:	d054      	beq.n	82d80 <xTaskGenericCreate+0xe0>
   82cd6:	2e00      	cmp	r6, #0
   82cd8:	d048      	beq.n	82d6c <xTaskGenericCreate+0xcc>
   82cda:	6306      	str	r6, [r0, #48]	; 0x30
   82cdc:	00aa      	lsls	r2, r5, #2
   82cde:	21a5      	movs	r1, #165	; 0xa5
   82ce0:	4630      	mov	r0, r6
   82ce2:	4b58      	ldr	r3, [pc, #352]	; (82e44 <xTaskGenericCreate+0x1a4>)
   82ce4:	4798      	blx	r3
   82ce6:	f105 4580 	add.w	r5, r5, #1073741824	; 0x40000000
   82cea:	3d01      	subs	r5, #1
   82cec:	6b23      	ldr	r3, [r4, #48]	; 0x30
   82cee:	eb03 0385 	add.w	r3, r3, r5, lsl #2
   82cf2:	f023 0507 	bic.w	r5, r3, #7
   82cf6:	220a      	movs	r2, #10
   82cf8:	4641      	mov	r1, r8
   82cfa:	f104 0034 	add.w	r0, r4, #52	; 0x34
   82cfe:	4b52      	ldr	r3, [pc, #328]	; (82e48 <xTaskGenericCreate+0x1a8>)
   82d00:	4798      	blx	r3
   82d02:	2300      	movs	r3, #0
   82d04:	f884 303d 	strb.w	r3, [r4, #61]	; 0x3d
   82d08:	62e7      	str	r7, [r4, #44]	; 0x2c
   82d0a:	64a7      	str	r7, [r4, #72]	; 0x48
   82d0c:	f104 0804 	add.w	r8, r4, #4
   82d10:	4640      	mov	r0, r8
   82d12:	4e4e      	ldr	r6, [pc, #312]	; (82e4c <xTaskGenericCreate+0x1ac>)
   82d14:	47b0      	blx	r6
   82d16:	f104 0018 	add.w	r0, r4, #24
   82d1a:	47b0      	blx	r6
   82d1c:	6124      	str	r4, [r4, #16]
   82d1e:	f1c7 0305 	rsb	r3, r7, #5
   82d22:	61a3      	str	r3, [r4, #24]
   82d24:	6264      	str	r4, [r4, #36]	; 0x24
   82d26:	465a      	mov	r2, fp
   82d28:	4651      	mov	r1, sl
   82d2a:	4628      	mov	r0, r5
   82d2c:	4b48      	ldr	r3, [pc, #288]	; (82e50 <xTaskGenericCreate+0x1b0>)
   82d2e:	4798      	blx	r3
   82d30:	6020      	str	r0, [r4, #0]
   82d32:	f010 0f07 	tst.w	r0, #7
   82d36:	d127      	bne.n	82d88 <xTaskGenericCreate+0xe8>
   82d38:	f1b9 0f00 	cmp.w	r9, #0
   82d3c:	d001      	beq.n	82d42 <xTaskGenericCreate+0xa2>
   82d3e:	f8c9 4000 	str.w	r4, [r9]
   82d42:	4b44      	ldr	r3, [pc, #272]	; (82e54 <xTaskGenericCreate+0x1b4>)
   82d44:	4798      	blx	r3
   82d46:	4a44      	ldr	r2, [pc, #272]	; (82e58 <xTaskGenericCreate+0x1b8>)
   82d48:	6813      	ldr	r3, [r2, #0]
   82d4a:	3301      	adds	r3, #1
   82d4c:	6013      	str	r3, [r2, #0]
   82d4e:	4b43      	ldr	r3, [pc, #268]	; (82e5c <xTaskGenericCreate+0x1bc>)
   82d50:	681b      	ldr	r3, [r3, #0]
   82d52:	b1eb      	cbz	r3, 82d90 <xTaskGenericCreate+0xf0>
   82d54:	4b42      	ldr	r3, [pc, #264]	; (82e60 <xTaskGenericCreate+0x1c0>)
   82d56:	681b      	ldr	r3, [r3, #0]
   82d58:	2b00      	cmp	r3, #0
   82d5a:	d140      	bne.n	82dde <xTaskGenericCreate+0x13e>
   82d5c:	4b3f      	ldr	r3, [pc, #252]	; (82e5c <xTaskGenericCreate+0x1bc>)
   82d5e:	681b      	ldr	r3, [r3, #0]
   82d60:	6adb      	ldr	r3, [r3, #44]	; 0x2c
   82d62:	429f      	cmp	r7, r3
   82d64:	bf24      	itt	cs
   82d66:	4b3d      	ldrcs	r3, [pc, #244]	; (82e5c <xTaskGenericCreate+0x1bc>)
   82d68:	601c      	strcs	r4, [r3, #0]
   82d6a:	e038      	b.n	82dde <xTaskGenericCreate+0x13e>
   82d6c:	00a8      	lsls	r0, r5, #2
   82d6e:	4b34      	ldr	r3, [pc, #208]	; (82e40 <xTaskGenericCreate+0x1a0>)
   82d70:	4798      	blx	r3
   82d72:	4606      	mov	r6, r0
   82d74:	6320      	str	r0, [r4, #48]	; 0x30
   82d76:	2800      	cmp	r0, #0
   82d78:	d1b0      	bne.n	82cdc <xTaskGenericCreate+0x3c>
   82d7a:	4620      	mov	r0, r4
   82d7c:	4b39      	ldr	r3, [pc, #228]	; (82e64 <xTaskGenericCreate+0x1c4>)
   82d7e:	4798      	blx	r3
   82d80:	f04f 30ff 	mov.w	r0, #4294967295
   82d84:	e8bd 8ff8 	ldmia.w	sp!, {r3, r4, r5, r6, r7, r8, r9, sl, fp, pc}
   82d88:	4b2c      	ldr	r3, [pc, #176]	; (82e3c <xTaskGenericCreate+0x19c>)
   82d8a:	4798      	blx	r3
   82d8c:	bf00      	nop
   82d8e:	e7fd      	b.n	82d8c <xTaskGenericCreate+0xec>
   82d90:	4b32      	ldr	r3, [pc, #200]	; (82e5c <xTaskGenericCreate+0x1bc>)
   82d92:	601c      	str	r4, [r3, #0]
   82d94:	6813      	ldr	r3, [r2, #0]
   82d96:	2b01      	cmp	r3, #1
   82d98:	d121      	bne.n	82dde <xTaskGenericCreate+0x13e>
   82d9a:	4e33      	ldr	r6, [pc, #204]	; (82e68 <xTaskGenericCreate+0x1c8>)
   82d9c:	4630      	mov	r0, r6
   82d9e:	4d33      	ldr	r5, [pc, #204]	; (82e6c <xTaskGenericCreate+0x1cc>)
   82da0:	47a8      	blx	r5
   82da2:	f106 0014 	add.w	r0, r6, #20
   82da6:	47a8      	blx	r5
   82da8:	f106 0028 	add.w	r0, r6, #40	; 0x28
   82dac:	47a8      	blx	r5
   82dae:	f106 003c 	add.w	r0, r6, #60	; 0x3c
   82db2:	47a8      	blx	r5
   82db4:	f106 0050 	add.w	r0, r6, #80	; 0x50
   82db8:	47a8      	blx	r5
   82dba:	f8df 90e4 	ldr.w	r9, [pc, #228]	; 82ea0 <xTaskGenericCreate+0x200>
   82dbe:	4648      	mov	r0, r9
   82dc0:	47a8      	blx	r5
   82dc2:	4e2b      	ldr	r6, [pc, #172]	; (82e70 <xTaskGenericCreate+0x1d0>)
   82dc4:	4630      	mov	r0, r6
   82dc6:	47a8      	blx	r5
   82dc8:	482a      	ldr	r0, [pc, #168]	; (82e74 <xTaskGenericCreate+0x1d4>)
   82dca:	47a8      	blx	r5
   82dcc:	482a      	ldr	r0, [pc, #168]	; (82e78 <xTaskGenericCreate+0x1d8>)
   82dce:	47a8      	blx	r5
   82dd0:	482a      	ldr	r0, [pc, #168]	; (82e7c <xTaskGenericCreate+0x1dc>)
   82dd2:	47a8      	blx	r5
   82dd4:	4b2a      	ldr	r3, [pc, #168]	; (82e80 <xTaskGenericCreate+0x1e0>)
   82dd6:	f8c3 9000 	str.w	r9, [r3]
   82dda:	4b2a      	ldr	r3, [pc, #168]	; (82e84 <xTaskGenericCreate+0x1e4>)
   82ddc:	601e      	str	r6, [r3, #0]
   82dde:	6ae0      	ldr	r0, [r4, #44]	; 0x2c
   82de0:	4b29      	ldr	r3, [pc, #164]	; (82e88 <xTaskGenericCreate+0x1e8>)
   82de2:	681b      	ldr	r3, [r3, #0]
   82de4:	4298      	cmp	r0, r3
   82de6:	bf84      	itt	hi
   82de8:	4b27      	ldrhi	r3, [pc, #156]	; (82e88 <xTaskGenericCreate+0x1e8>)
   82dea:	6018      	strhi	r0, [r3, #0]
   82dec:	4a27      	ldr	r2, [pc, #156]	; (82e8c <xTaskGenericCreate+0x1ec>)
   82dee:	6813      	ldr	r3, [r2, #0]
   82df0:	6423      	str	r3, [r4, #64]	; 0x40
   82df2:	3301      	adds	r3, #1
   82df4:	6013      	str	r3, [r2, #0]
   82df6:	4b26      	ldr	r3, [pc, #152]	; (82e90 <xTaskGenericCreate+0x1f0>)
   82df8:	681b      	ldr	r3, [r3, #0]
   82dfa:	4298      	cmp	r0, r3
   82dfc:	bf84      	itt	hi
   82dfe:	4b24      	ldrhi	r3, [pc, #144]	; (82e90 <xTaskGenericCreate+0x1f0>)
   82e00:	6018      	strhi	r0, [r3, #0]
   82e02:	eb00 0080 	add.w	r0, r0, r0, lsl #2
   82e06:	4641      	mov	r1, r8
   82e08:	4b17      	ldr	r3, [pc, #92]	; (82e68 <xTaskGenericCreate+0x1c8>)
   82e0a:	eb03 0080 	add.w	r0, r3, r0, lsl #2
   82e0e:	4b21      	ldr	r3, [pc, #132]	; (82e94 <xTaskGenericCreate+0x1f4>)
   82e10:	4798      	blx	r3
   82e12:	4b21      	ldr	r3, [pc, #132]	; (82e98 <xTaskGenericCreate+0x1f8>)
   82e14:	4798      	blx	r3
   82e16:	4b12      	ldr	r3, [pc, #72]	; (82e60 <xTaskGenericCreate+0x1c0>)
   82e18:	681b      	ldr	r3, [r3, #0]
   82e1a:	b14b      	cbz	r3, 82e30 <xTaskGenericCreate+0x190>
   82e1c:	4b0f      	ldr	r3, [pc, #60]	; (82e5c <xTaskGenericCreate+0x1bc>)
   82e1e:	681b      	ldr	r3, [r3, #0]
   82e20:	6adb      	ldr	r3, [r3, #44]	; 0x2c
   82e22:	429f      	cmp	r7, r3
   82e24:	d907      	bls.n	82e36 <xTaskGenericCreate+0x196>
   82e26:	4b1d      	ldr	r3, [pc, #116]	; (82e9c <xTaskGenericCreate+0x1fc>)
   82e28:	4798      	blx	r3
   82e2a:	2001      	movs	r0, #1
   82e2c:	e8bd 8ff8 	ldmia.w	sp!, {r3, r4, r5, r6, r7, r8, r9, sl, fp, pc}
   82e30:	2001      	movs	r0, #1
   82e32:	e8bd 8ff8 	ldmia.w	sp!, {r3, r4, r5, r6, r7, r8, r9, sl, fp, pc}
   82e36:	2001      	movs	r0, #1
   82e38:	e8bd 8ff8 	ldmia.w	sp!, {r3, r4, r5, r6, r7, r8, r9, sl, fp, pc}
   82e3c:	0008247d 	.word	0x0008247d
   82e40:	000825dd 	.word	0x000825dd
   82e44:	00085829 	.word	0x00085829
   82e48:	00085ac1 	.word	0x00085ac1
   82e4c:	0008239b 	.word	0x0008239b
   82e50:	00082431 	.word	0x00082431
   82e54:	0008248d 	.word	0x0008248d
   82e58:	2007ad00 	.word	0x2007ad00
   82e5c:	2007ac90 	.word	0x2007ac90
   82e60:	2007ad60 	.word	0x2007ad60
   82e64:	000826a9 	.word	0x000826a9
   82e68:	2007ac9c 	.word	0x2007ac9c
   82e6c:	00082385 	.word	0x00082385
   82e70:	2007ad30 	.word	0x2007ad30
   82e74:	2007ad4c 	.word	0x2007ad4c
   82e78:	2007ad78 	.word	0x2007ad78
   82e7c:	2007ad64 	.word	0x2007ad64
   82e80:	2007ac94 	.word	0x2007ac94
   82e84:	2007ac98 	.word	0x2007ac98
   82e88:	2007ad18 	.word	0x2007ad18
   82e8c:	2007ad0c 	.word	0x2007ad0c
   82e90:	2007ad14 	.word	0x2007ad14
   82e94:	000823a1 	.word	0x000823a1
   82e98:	000824ad 	.word	0x000824ad
   82e9c:	0008246d 	.word	0x0008246d
   82ea0:	2007ad1c 	.word	0x2007ad1c

00082ea4 <vTaskStartScheduler>:
   82ea4:	b510      	push	{r4, lr}
   82ea6:	b084      	sub	sp, #16
   82ea8:	2300      	movs	r3, #0
   82eaa:	9303      	str	r3, [sp, #12]
   82eac:	9302      	str	r3, [sp, #8]
   82eae:	9301      	str	r3, [sp, #4]
   82eb0:	9300      	str	r3, [sp, #0]
   82eb2:	2282      	movs	r2, #130	; 0x82
   82eb4:	490d      	ldr	r1, [pc, #52]	; (82eec <vTaskStartScheduler+0x48>)
   82eb6:	480e      	ldr	r0, [pc, #56]	; (82ef0 <vTaskStartScheduler+0x4c>)
   82eb8:	4c0e      	ldr	r4, [pc, #56]	; (82ef4 <vTaskStartScheduler+0x50>)
   82eba:	47a0      	blx	r4
   82ebc:	2801      	cmp	r0, #1
   82ebe:	d002      	beq.n	82ec6 <vTaskStartScheduler+0x22>
   82ec0:	b180      	cbz	r0, 82ee4 <vTaskStartScheduler+0x40>
   82ec2:	b004      	add	sp, #16
   82ec4:	bd10      	pop	{r4, pc}
   82ec6:	4b0c      	ldr	r3, [pc, #48]	; (82ef8 <vTaskStartScheduler+0x54>)
   82ec8:	4798      	blx	r3
   82eca:	2801      	cmp	r0, #1
   82ecc:	d1f8      	bne.n	82ec0 <vTaskStartScheduler+0x1c>
   82ece:	4b0b      	ldr	r3, [pc, #44]	; (82efc <vTaskStartScheduler+0x58>)
   82ed0:	4798      	blx	r3
   82ed2:	2201      	movs	r2, #1
   82ed4:	4b0a      	ldr	r3, [pc, #40]	; (82f00 <vTaskStartScheduler+0x5c>)
   82ed6:	601a      	str	r2, [r3, #0]
   82ed8:	2200      	movs	r2, #0
   82eda:	4b0a      	ldr	r3, [pc, #40]	; (82f04 <vTaskStartScheduler+0x60>)
   82edc:	601a      	str	r2, [r3, #0]
   82ede:	4b0a      	ldr	r3, [pc, #40]	; (82f08 <vTaskStartScheduler+0x64>)
   82ee0:	4798      	blx	r3
   82ee2:	e7ee      	b.n	82ec2 <vTaskStartScheduler+0x1e>
   82ee4:	4b05      	ldr	r3, [pc, #20]	; (82efc <vTaskStartScheduler+0x58>)
   82ee6:	4798      	blx	r3
   82ee8:	bf00      	nop
   82eea:	e7fd      	b.n	82ee8 <vTaskStartScheduler+0x44>
   82eec:	00088a04 	.word	0x00088a04
   82ef0:	0008325d 	.word	0x0008325d
   82ef4:	00082ca1 	.word	0x00082ca1
   82ef8:	00083709 	.word	0x00083709
   82efc:	0008247d 	.word	0x0008247d
   82f00:	2007ad60 	.word	0x2007ad60
   82f04:	2007ad8c 	.word	0x2007ad8c
   82f08:	0008254d 	.word	0x0008254d

00082f0c <vTaskSuspendAll>:
   82f0c:	4a02      	ldr	r2, [pc, #8]	; (82f18 <vTaskSuspendAll+0xc>)
   82f0e:	6813      	ldr	r3, [r2, #0]
   82f10:	3301      	adds	r3, #1
   82f12:	6013      	str	r3, [r2, #0]
   82f14:	4770      	bx	lr
   82f16:	bf00      	nop
   82f18:	2007ad08 	.word	0x2007ad08

00082f1c <xTaskGetTickCount>:
   82f1c:	b510      	push	{r4, lr}
   82f1e:	4b04      	ldr	r3, [pc, #16]	; (82f30 <xTaskGetTickCount+0x14>)
   82f20:	4798      	blx	r3
   82f22:	4b04      	ldr	r3, [pc, #16]	; (82f34 <xTaskGetTickCount+0x18>)
   82f24:	681c      	ldr	r4, [r3, #0]
   82f26:	4b04      	ldr	r3, [pc, #16]	; (82f38 <xTaskGetTickCount+0x1c>)
   82f28:	4798      	blx	r3
   82f2a:	4620      	mov	r0, r4
   82f2c:	bd10      	pop	{r4, pc}
   82f2e:	bf00      	nop
   82f30:	0008248d 	.word	0x0008248d
   82f34:	2007ad8c 	.word	0x2007ad8c
   82f38:	000824ad 	.word	0x000824ad

00082f3c <xTaskGetTickCountFromISR>:
   82f3c:	b510      	push	{r4, lr}
   82f3e:	4b04      	ldr	r3, [pc, #16]	; (82f50 <xTaskGetTickCountFromISR+0x14>)
   82f40:	4798      	blx	r3
   82f42:	4b04      	ldr	r3, [pc, #16]	; (82f54 <xTaskGetTickCountFromISR+0x18>)
   82f44:	681c      	ldr	r4, [r3, #0]
   82f46:	4b04      	ldr	r3, [pc, #16]	; (82f58 <xTaskGetTickCountFromISR+0x1c>)
   82f48:	4798      	blx	r3
   82f4a:	4620      	mov	r0, r4
   82f4c:	bd10      	pop	{r4, pc}
   82f4e:	bf00      	nop
   82f50:	0008247d 	.word	0x0008247d
   82f54:	2007ad8c 	.word	0x2007ad8c
   82f58:	000824a5 	.word	0x000824a5

00082f5c <vTaskIncrementTick>:
   82f5c:	4b3d      	ldr	r3, [pc, #244]	; (83054 <vTaskIncrementTick+0xf8>)
   82f5e:	681b      	ldr	r3, [r3, #0]
   82f60:	2b00      	cmp	r3, #0
   82f62:	d16f      	bne.n	83044 <vTaskIncrementTick+0xe8>
   82f64:	e92d 41f0 	stmdb	sp!, {r4, r5, r6, r7, r8, lr}
   82f68:	4b3b      	ldr	r3, [pc, #236]	; (83058 <vTaskIncrementTick+0xfc>)
   82f6a:	681a      	ldr	r2, [r3, #0]
   82f6c:	3201      	adds	r2, #1
   82f6e:	601a      	str	r2, [r3, #0]
   82f70:	681b      	ldr	r3, [r3, #0]
   82f72:	b9ab      	cbnz	r3, 82fa0 <vTaskIncrementTick+0x44>
   82f74:	4b39      	ldr	r3, [pc, #228]	; (8305c <vTaskIncrementTick+0x100>)
   82f76:	681b      	ldr	r3, [r3, #0]
   82f78:	681b      	ldr	r3, [r3, #0]
   82f7a:	2b00      	cmp	r3, #0
   82f7c:	d128      	bne.n	82fd0 <vTaskIncrementTick+0x74>
   82f7e:	4b37      	ldr	r3, [pc, #220]	; (8305c <vTaskIncrementTick+0x100>)
   82f80:	6819      	ldr	r1, [r3, #0]
   82f82:	4a37      	ldr	r2, [pc, #220]	; (83060 <vTaskIncrementTick+0x104>)
   82f84:	6810      	ldr	r0, [r2, #0]
   82f86:	6018      	str	r0, [r3, #0]
   82f88:	6011      	str	r1, [r2, #0]
   82f8a:	4936      	ldr	r1, [pc, #216]	; (83064 <vTaskIncrementTick+0x108>)
   82f8c:	680a      	ldr	r2, [r1, #0]
   82f8e:	3201      	adds	r2, #1
   82f90:	600a      	str	r2, [r1, #0]
   82f92:	681b      	ldr	r3, [r3, #0]
   82f94:	681b      	ldr	r3, [r3, #0]
   82f96:	b9fb      	cbnz	r3, 82fd8 <vTaskIncrementTick+0x7c>
   82f98:	f04f 32ff 	mov.w	r2, #4294967295
   82f9c:	4b32      	ldr	r3, [pc, #200]	; (83068 <vTaskIncrementTick+0x10c>)
   82f9e:	601a      	str	r2, [r3, #0]
   82fa0:	4b2d      	ldr	r3, [pc, #180]	; (83058 <vTaskIncrementTick+0xfc>)
   82fa2:	681a      	ldr	r2, [r3, #0]
   82fa4:	4b30      	ldr	r3, [pc, #192]	; (83068 <vTaskIncrementTick+0x10c>)
   82fa6:	681b      	ldr	r3, [r3, #0]
   82fa8:	429a      	cmp	r2, r3
   82faa:	d350      	bcc.n	8304e <vTaskIncrementTick+0xf2>
   82fac:	4b2b      	ldr	r3, [pc, #172]	; (8305c <vTaskIncrementTick+0x100>)
   82fae:	681b      	ldr	r3, [r3, #0]
   82fb0:	681b      	ldr	r3, [r3, #0]
   82fb2:	b1cb      	cbz	r3, 82fe8 <vTaskIncrementTick+0x8c>
   82fb4:	4b29      	ldr	r3, [pc, #164]	; (8305c <vTaskIncrementTick+0x100>)
   82fb6:	681b      	ldr	r3, [r3, #0]
   82fb8:	68db      	ldr	r3, [r3, #12]
   82fba:	68dc      	ldr	r4, [r3, #12]
   82fbc:	6863      	ldr	r3, [r4, #4]
   82fbe:	4a26      	ldr	r2, [pc, #152]	; (83058 <vTaskIncrementTick+0xfc>)
   82fc0:	6812      	ldr	r2, [r2, #0]
   82fc2:	4293      	cmp	r3, r2
   82fc4:	d816      	bhi.n	82ff4 <vTaskIncrementTick+0x98>
   82fc6:	4e29      	ldr	r6, [pc, #164]	; (8306c <vTaskIncrementTick+0x110>)
   82fc8:	4f29      	ldr	r7, [pc, #164]	; (83070 <vTaskIncrementTick+0x114>)
   82fca:	f8df 80b4 	ldr.w	r8, [pc, #180]	; 83080 <vTaskIncrementTick+0x124>
   82fce:	e02f      	b.n	83030 <vTaskIncrementTick+0xd4>
   82fd0:	4b28      	ldr	r3, [pc, #160]	; (83074 <vTaskIncrementTick+0x118>)
   82fd2:	4798      	blx	r3
   82fd4:	bf00      	nop
   82fd6:	e7fd      	b.n	82fd4 <vTaskIncrementTick+0x78>
   82fd8:	4b20      	ldr	r3, [pc, #128]	; (8305c <vTaskIncrementTick+0x100>)
   82fda:	681b      	ldr	r3, [r3, #0]
   82fdc:	68db      	ldr	r3, [r3, #12]
   82fde:	68db      	ldr	r3, [r3, #12]
   82fe0:	685a      	ldr	r2, [r3, #4]
   82fe2:	4b21      	ldr	r3, [pc, #132]	; (83068 <vTaskIncrementTick+0x10c>)
   82fe4:	601a      	str	r2, [r3, #0]
   82fe6:	e7db      	b.n	82fa0 <vTaskIncrementTick+0x44>
   82fe8:	f04f 32ff 	mov.w	r2, #4294967295
   82fec:	4b1e      	ldr	r3, [pc, #120]	; (83068 <vTaskIncrementTick+0x10c>)
   82fee:	601a      	str	r2, [r3, #0]
   82ff0:	e8bd 81f0 	ldmia.w	sp!, {r4, r5, r6, r7, r8, pc}
   82ff4:	4a1c      	ldr	r2, [pc, #112]	; (83068 <vTaskIncrementTick+0x10c>)
   82ff6:	6013      	str	r3, [r2, #0]
   82ff8:	e8bd 81f0 	ldmia.w	sp!, {r4, r5, r6, r7, r8, pc}
   82ffc:	6ae0      	ldr	r0, [r4, #44]	; 0x2c
   82ffe:	683b      	ldr	r3, [r7, #0]
   83000:	4298      	cmp	r0, r3
   83002:	bf88      	it	hi
   83004:	6038      	strhi	r0, [r7, #0]
   83006:	eb00 0080 	add.w	r0, r0, r0, lsl #2
   8300a:	4629      	mov	r1, r5
   8300c:	eb08 0080 	add.w	r0, r8, r0, lsl #2
   83010:	4b19      	ldr	r3, [pc, #100]	; (83078 <vTaskIncrementTick+0x11c>)
   83012:	4798      	blx	r3
   83014:	4b11      	ldr	r3, [pc, #68]	; (8305c <vTaskIncrementTick+0x100>)
   83016:	681b      	ldr	r3, [r3, #0]
   83018:	681b      	ldr	r3, [r3, #0]
   8301a:	2b00      	cmp	r3, #0
   8301c:	d0e4      	beq.n	82fe8 <vTaskIncrementTick+0x8c>
   8301e:	4b0f      	ldr	r3, [pc, #60]	; (8305c <vTaskIncrementTick+0x100>)
   83020:	681b      	ldr	r3, [r3, #0]
   83022:	68db      	ldr	r3, [r3, #12]
   83024:	68dc      	ldr	r4, [r3, #12]
   83026:	6863      	ldr	r3, [r4, #4]
   83028:	4a0b      	ldr	r2, [pc, #44]	; (83058 <vTaskIncrementTick+0xfc>)
   8302a:	6812      	ldr	r2, [r2, #0]
   8302c:	4293      	cmp	r3, r2
   8302e:	d8e1      	bhi.n	82ff4 <vTaskIncrementTick+0x98>
   83030:	1d25      	adds	r5, r4, #4
   83032:	4628      	mov	r0, r5
   83034:	47b0      	blx	r6
   83036:	6aa3      	ldr	r3, [r4, #40]	; 0x28
   83038:	2b00      	cmp	r3, #0
   8303a:	d0df      	beq.n	82ffc <vTaskIncrementTick+0xa0>
   8303c:	f104 0018 	add.w	r0, r4, #24
   83040:	47b0      	blx	r6
   83042:	e7db      	b.n	82ffc <vTaskIncrementTick+0xa0>
   83044:	4a0d      	ldr	r2, [pc, #52]	; (8307c <vTaskIncrementTick+0x120>)
   83046:	6813      	ldr	r3, [r2, #0]
   83048:	3301      	adds	r3, #1
   8304a:	6013      	str	r3, [r2, #0]
   8304c:	4770      	bx	lr
   8304e:	e8bd 81f0 	ldmia.w	sp!, {r4, r5, r6, r7, r8, pc}
   83052:	bf00      	nop
   83054:	2007ad08 	.word	0x2007ad08
   83058:	2007ad8c 	.word	0x2007ad8c
   8305c:	2007ac94 	.word	0x2007ac94
   83060:	2007ac98 	.word	0x2007ac98
   83064:	2007ad48 	.word	0x2007ad48
   83068:	200701b8 	.word	0x200701b8
   8306c:	000823f7 	.word	0x000823f7
   83070:	2007ad14 	.word	0x2007ad14
   83074:	0008247d 	.word	0x0008247d
   83078:	000823a1 	.word	0x000823a1
   8307c:	2007ad04 	.word	0x2007ad04
   83080:	2007ac9c 	.word	0x2007ac9c

00083084 <xTaskResumeAll>:
   83084:	e92d 43f8 	stmdb	sp!, {r3, r4, r5, r6, r7, r8, r9, lr}
   83088:	4b2f      	ldr	r3, [pc, #188]	; (83148 <xTaskResumeAll+0xc4>)
   8308a:	681b      	ldr	r3, [r3, #0]
   8308c:	b91b      	cbnz	r3, 83096 <xTaskResumeAll+0x12>
   8308e:	4b2f      	ldr	r3, [pc, #188]	; (8314c <xTaskResumeAll+0xc8>)
   83090:	4798      	blx	r3
   83092:	bf00      	nop
   83094:	e7fd      	b.n	83092 <xTaskResumeAll+0xe>
   83096:	4b2e      	ldr	r3, [pc, #184]	; (83150 <xTaskResumeAll+0xcc>)
   83098:	4798      	blx	r3
   8309a:	4b2b      	ldr	r3, [pc, #172]	; (83148 <xTaskResumeAll+0xc4>)
   8309c:	681a      	ldr	r2, [r3, #0]
   8309e:	3a01      	subs	r2, #1
   830a0:	601a      	str	r2, [r3, #0]
   830a2:	681b      	ldr	r3, [r3, #0]
   830a4:	2b00      	cmp	r3, #0
   830a6:	d14d      	bne.n	83144 <xTaskResumeAll+0xc0>
   830a8:	4b2a      	ldr	r3, [pc, #168]	; (83154 <xTaskResumeAll+0xd0>)
   830aa:	681b      	ldr	r3, [r3, #0]
   830ac:	b12b      	cbz	r3, 830ba <xTaskResumeAll+0x36>
   830ae:	2400      	movs	r4, #0
   830b0:	f8df 80cc 	ldr.w	r8, [pc, #204]	; 83180 <xTaskResumeAll+0xfc>
   830b4:	4f28      	ldr	r7, [pc, #160]	; (83158 <xTaskResumeAll+0xd4>)
   830b6:	4e29      	ldr	r6, [pc, #164]	; (8315c <xTaskResumeAll+0xd8>)
   830b8:	e023      	b.n	83102 <xTaskResumeAll+0x7e>
   830ba:	2400      	movs	r4, #0
   830bc:	4b28      	ldr	r3, [pc, #160]	; (83160 <xTaskResumeAll+0xdc>)
   830be:	4798      	blx	r3
   830c0:	4620      	mov	r0, r4
   830c2:	e8bd 83f8 	ldmia.w	sp!, {r3, r4, r5, r6, r7, r8, r9, pc}
   830c6:	f8d8 300c 	ldr.w	r3, [r8, #12]
   830ca:	68dd      	ldr	r5, [r3, #12]
   830cc:	f105 0018 	add.w	r0, r5, #24
   830d0:	47b8      	blx	r7
   830d2:	f105 0904 	add.w	r9, r5, #4
   830d6:	4648      	mov	r0, r9
   830d8:	47b8      	blx	r7
   830da:	6ae8      	ldr	r0, [r5, #44]	; 0x2c
   830dc:	6833      	ldr	r3, [r6, #0]
   830de:	4298      	cmp	r0, r3
   830e0:	bf88      	it	hi
   830e2:	6030      	strhi	r0, [r6, #0]
   830e4:	eb00 0080 	add.w	r0, r0, r0, lsl #2
   830e8:	4649      	mov	r1, r9
   830ea:	4b1e      	ldr	r3, [pc, #120]	; (83164 <xTaskResumeAll+0xe0>)
   830ec:	eb03 0080 	add.w	r0, r3, r0, lsl #2
   830f0:	4b1d      	ldr	r3, [pc, #116]	; (83168 <xTaskResumeAll+0xe4>)
   830f2:	4798      	blx	r3
   830f4:	4b1d      	ldr	r3, [pc, #116]	; (8316c <xTaskResumeAll+0xe8>)
   830f6:	681b      	ldr	r3, [r3, #0]
   830f8:	6aea      	ldr	r2, [r5, #44]	; 0x2c
   830fa:	6adb      	ldr	r3, [r3, #44]	; 0x2c
   830fc:	429a      	cmp	r2, r3
   830fe:	bf28      	it	cs
   83100:	2401      	movcs	r4, #1
   83102:	f8d8 3000 	ldr.w	r3, [r8]
   83106:	2b00      	cmp	r3, #0
   83108:	d1dd      	bne.n	830c6 <xTaskResumeAll+0x42>
   8310a:	4b19      	ldr	r3, [pc, #100]	; (83170 <xTaskResumeAll+0xec>)
   8310c:	681b      	ldr	r3, [r3, #0]
   8310e:	b193      	cbz	r3, 83136 <xTaskResumeAll+0xb2>
   83110:	4b17      	ldr	r3, [pc, #92]	; (83170 <xTaskResumeAll+0xec>)
   83112:	681b      	ldr	r3, [r3, #0]
   83114:	b143      	cbz	r3, 83128 <xTaskResumeAll+0xa4>
   83116:	4d17      	ldr	r5, [pc, #92]	; (83174 <xTaskResumeAll+0xf0>)
   83118:	4c15      	ldr	r4, [pc, #84]	; (83170 <xTaskResumeAll+0xec>)
   8311a:	47a8      	blx	r5
   8311c:	6823      	ldr	r3, [r4, #0]
   8311e:	3b01      	subs	r3, #1
   83120:	6023      	str	r3, [r4, #0]
   83122:	6823      	ldr	r3, [r4, #0]
   83124:	2b00      	cmp	r3, #0
   83126:	d1f8      	bne.n	8311a <xTaskResumeAll+0x96>
   83128:	2200      	movs	r2, #0
   8312a:	4b13      	ldr	r3, [pc, #76]	; (83178 <xTaskResumeAll+0xf4>)
   8312c:	601a      	str	r2, [r3, #0]
   8312e:	4b13      	ldr	r3, [pc, #76]	; (8317c <xTaskResumeAll+0xf8>)
   83130:	4798      	blx	r3
   83132:	2401      	movs	r4, #1
   83134:	e7c2      	b.n	830bc <xTaskResumeAll+0x38>
   83136:	2c01      	cmp	r4, #1
   83138:	d0f6      	beq.n	83128 <xTaskResumeAll+0xa4>
   8313a:	4b0f      	ldr	r3, [pc, #60]	; (83178 <xTaskResumeAll+0xf4>)
   8313c:	681b      	ldr	r3, [r3, #0]
   8313e:	2b01      	cmp	r3, #1
   83140:	d1bc      	bne.n	830bc <xTaskResumeAll+0x38>
   83142:	e7f1      	b.n	83128 <xTaskResumeAll+0xa4>
   83144:	2400      	movs	r4, #0
   83146:	e7b9      	b.n	830bc <xTaskResumeAll+0x38>
   83148:	2007ad08 	.word	0x2007ad08
   8314c:	0008247d 	.word	0x0008247d
   83150:	0008248d 	.word	0x0008248d
   83154:	2007ad00 	.word	0x2007ad00
   83158:	000823f7 	.word	0x000823f7
   8315c:	2007ad14 	.word	0x2007ad14
   83160:	000824ad 	.word	0x000824ad
   83164:	2007ac9c 	.word	0x2007ac9c
   83168:	000823a1 	.word	0x000823a1
   8316c:	2007ac90 	.word	0x2007ac90
   83170:	2007ad04 	.word	0x2007ad04
   83174:	00082f5d 	.word	0x00082f5d
   83178:	2007ad44 	.word	0x2007ad44
   8317c:	0008246d 	.word	0x0008246d
   83180:	2007ad4c 	.word	0x2007ad4c

00083184 <vTaskDelayUntil>:
   83184:	b538      	push	{r3, r4, r5, lr}
   83186:	b130      	cbz	r0, 83196 <vTaskDelayUntil+0x12>
   83188:	460c      	mov	r4, r1
   8318a:	4605      	mov	r5, r0
   8318c:	b939      	cbnz	r1, 8319e <vTaskDelayUntil+0x1a>
   8318e:	4b18      	ldr	r3, [pc, #96]	; (831f0 <vTaskDelayUntil+0x6c>)
   83190:	4798      	blx	r3
   83192:	bf00      	nop
   83194:	e7fd      	b.n	83192 <vTaskDelayUntil+0xe>
   83196:	4b16      	ldr	r3, [pc, #88]	; (831f0 <vTaskDelayUntil+0x6c>)
   83198:	4798      	blx	r3
   8319a:	bf00      	nop
   8319c:	e7fd      	b.n	8319a <vTaskDelayUntil+0x16>
   8319e:	4b15      	ldr	r3, [pc, #84]	; (831f4 <vTaskDelayUntil+0x70>)
   831a0:	4798      	blx	r3
   831a2:	682b      	ldr	r3, [r5, #0]
   831a4:	441c      	add	r4, r3
   831a6:	4a14      	ldr	r2, [pc, #80]	; (831f8 <vTaskDelayUntil+0x74>)
   831a8:	6812      	ldr	r2, [r2, #0]
   831aa:	4293      	cmp	r3, r2
   831ac:	d90a      	bls.n	831c4 <vTaskDelayUntil+0x40>
   831ae:	42a3      	cmp	r3, r4
   831b0:	d90e      	bls.n	831d0 <vTaskDelayUntil+0x4c>
   831b2:	4b11      	ldr	r3, [pc, #68]	; (831f8 <vTaskDelayUntil+0x74>)
   831b4:	681b      	ldr	r3, [r3, #0]
   831b6:	602c      	str	r4, [r5, #0]
   831b8:	429c      	cmp	r4, r3
   831ba:	d80f      	bhi.n	831dc <vTaskDelayUntil+0x58>
   831bc:	4b0f      	ldr	r3, [pc, #60]	; (831fc <vTaskDelayUntil+0x78>)
   831be:	4798      	blx	r3
   831c0:	b140      	cbz	r0, 831d4 <vTaskDelayUntil+0x50>
   831c2:	bd38      	pop	{r3, r4, r5, pc}
   831c4:	42a3      	cmp	r3, r4
   831c6:	d808      	bhi.n	831da <vTaskDelayUntil+0x56>
   831c8:	4b0b      	ldr	r3, [pc, #44]	; (831f8 <vTaskDelayUntil+0x74>)
   831ca:	681b      	ldr	r3, [r3, #0]
   831cc:	429c      	cmp	r4, r3
   831ce:	d804      	bhi.n	831da <vTaskDelayUntil+0x56>
   831d0:	602c      	str	r4, [r5, #0]
   831d2:	e7f3      	b.n	831bc <vTaskDelayUntil+0x38>
   831d4:	4b0a      	ldr	r3, [pc, #40]	; (83200 <vTaskDelayUntil+0x7c>)
   831d6:	4798      	blx	r3
   831d8:	bd38      	pop	{r3, r4, r5, pc}
   831da:	602c      	str	r4, [r5, #0]
   831dc:	4b09      	ldr	r3, [pc, #36]	; (83204 <vTaskDelayUntil+0x80>)
   831de:	6818      	ldr	r0, [r3, #0]
   831e0:	3004      	adds	r0, #4
   831e2:	4b09      	ldr	r3, [pc, #36]	; (83208 <vTaskDelayUntil+0x84>)
   831e4:	4798      	blx	r3
   831e6:	4620      	mov	r0, r4
   831e8:	4b08      	ldr	r3, [pc, #32]	; (8320c <vTaskDelayUntil+0x88>)
   831ea:	4798      	blx	r3
   831ec:	e7e6      	b.n	831bc <vTaskDelayUntil+0x38>
   831ee:	bf00      	nop
   831f0:	0008247d 	.word	0x0008247d
   831f4:	00082f0d 	.word	0x00082f0d
   831f8:	2007ad8c 	.word	0x2007ad8c
   831fc:	00083085 	.word	0x00083085
   83200:	0008246d 	.word	0x0008246d
   83204:	2007ac90 	.word	0x2007ac90
   83208:	000823f7 	.word	0x000823f7
   8320c:	00082c49 	.word	0x00082c49

00083210 <vTaskDelay>:
   83210:	b510      	push	{r4, lr}
   83212:	b910      	cbnz	r0, 8321a <vTaskDelay+0xa>
   83214:	4b0a      	ldr	r3, [pc, #40]	; (83240 <vTaskDelay+0x30>)
   83216:	4798      	blx	r3
   83218:	bd10      	pop	{r4, pc}
   8321a:	4604      	mov	r4, r0
   8321c:	4b09      	ldr	r3, [pc, #36]	; (83244 <vTaskDelay+0x34>)
   8321e:	4798      	blx	r3
   83220:	4b09      	ldr	r3, [pc, #36]	; (83248 <vTaskDelay+0x38>)
   83222:	681b      	ldr	r3, [r3, #0]
   83224:	441c      	add	r4, r3
   83226:	4b09      	ldr	r3, [pc, #36]	; (8324c <vTaskDelay+0x3c>)
   83228:	6818      	ldr	r0, [r3, #0]
   8322a:	3004      	adds	r0, #4
   8322c:	4b08      	ldr	r3, [pc, #32]	; (83250 <vTaskDelay+0x40>)
   8322e:	4798      	blx	r3
   83230:	4620      	mov	r0, r4
   83232:	4b08      	ldr	r3, [pc, #32]	; (83254 <vTaskDelay+0x44>)
   83234:	4798      	blx	r3
   83236:	4b08      	ldr	r3, [pc, #32]	; (83258 <vTaskDelay+0x48>)
   83238:	4798      	blx	r3
   8323a:	2800      	cmp	r0, #0
   8323c:	d1ec      	bne.n	83218 <vTaskDelay+0x8>
   8323e:	e7e9      	b.n	83214 <vTaskDelay+0x4>
   83240:	0008246d 	.word	0x0008246d
   83244:	00082f0d 	.word	0x00082f0d
   83248:	2007ad8c 	.word	0x2007ad8c
   8324c:	2007ac90 	.word	0x2007ac90
   83250:	000823f7 	.word	0x000823f7
   83254:	00082c49 	.word	0x00082c49
   83258:	00083085 	.word	0x00083085

0008325c <prvIdleTask>:
   8325c:	b580      	push	{r7, lr}
   8325e:	4d16      	ldr	r5, [pc, #88]	; (832b8 <prvIdleTask+0x5c>)
   83260:	f8df 8078 	ldr.w	r8, [pc, #120]	; 832dc <prvIdleTask+0x80>
   83264:	4e15      	ldr	r6, [pc, #84]	; (832bc <prvIdleTask+0x60>)
   83266:	e024      	b.n	832b2 <prvIdleTask+0x56>
   83268:	4b15      	ldr	r3, [pc, #84]	; (832c0 <prvIdleTask+0x64>)
   8326a:	681b      	ldr	r3, [r3, #0]
   8326c:	2b01      	cmp	r3, #1
   8326e:	d81e      	bhi.n	832ae <prvIdleTask+0x52>
   83270:	682b      	ldr	r3, [r5, #0]
   83272:	2b00      	cmp	r3, #0
   83274:	d0f8      	beq.n	83268 <prvIdleTask+0xc>
   83276:	47c0      	blx	r8
   83278:	6834      	ldr	r4, [r6, #0]
   8327a:	47b8      	blx	r7
   8327c:	2c00      	cmp	r4, #0
   8327e:	d0f7      	beq.n	83270 <prvIdleTask+0x14>
   83280:	4b10      	ldr	r3, [pc, #64]	; (832c4 <prvIdleTask+0x68>)
   83282:	4798      	blx	r3
   83284:	68f3      	ldr	r3, [r6, #12]
   83286:	68dc      	ldr	r4, [r3, #12]
   83288:	1d20      	adds	r0, r4, #4
   8328a:	4b0f      	ldr	r3, [pc, #60]	; (832c8 <prvIdleTask+0x6c>)
   8328c:	4798      	blx	r3
   8328e:	4a0f      	ldr	r2, [pc, #60]	; (832cc <prvIdleTask+0x70>)
   83290:	6813      	ldr	r3, [r2, #0]
   83292:	3b01      	subs	r3, #1
   83294:	6013      	str	r3, [r2, #0]
   83296:	682b      	ldr	r3, [r5, #0]
   83298:	3b01      	subs	r3, #1
   8329a:	602b      	str	r3, [r5, #0]
   8329c:	4b0c      	ldr	r3, [pc, #48]	; (832d0 <prvIdleTask+0x74>)
   8329e:	4798      	blx	r3
   832a0:	6b20      	ldr	r0, [r4, #48]	; 0x30
   832a2:	f8df 903c 	ldr.w	r9, [pc, #60]	; 832e0 <prvIdleTask+0x84>
   832a6:	47c8      	blx	r9
   832a8:	4620      	mov	r0, r4
   832aa:	47c8      	blx	r9
   832ac:	e7e0      	b.n	83270 <prvIdleTask+0x14>
   832ae:	4b09      	ldr	r3, [pc, #36]	; (832d4 <prvIdleTask+0x78>)
   832b0:	4798      	blx	r3
   832b2:	4f09      	ldr	r7, [pc, #36]	; (832d8 <prvIdleTask+0x7c>)
   832b4:	e7dc      	b.n	83270 <prvIdleTask+0x14>
   832b6:	bf00      	nop
   832b8:	2007ad10 	.word	0x2007ad10
   832bc:	2007ad78 	.word	0x2007ad78
   832c0:	2007ac9c 	.word	0x2007ac9c
   832c4:	0008248d 	.word	0x0008248d
   832c8:	000823f7 	.word	0x000823f7
   832cc:	2007ad00 	.word	0x2007ad00
   832d0:	000824ad 	.word	0x000824ad
   832d4:	0008246d 	.word	0x0008246d
   832d8:	00083085 	.word	0x00083085
   832dc:	00082f0d 	.word	0x00082f0d
   832e0:	000826a9 	.word	0x000826a9

000832e4 <vTaskSwitchContext>:
   832e4:	4b21      	ldr	r3, [pc, #132]	; (8336c <vTaskSwitchContext+0x88>)
   832e6:	681b      	ldr	r3, [r3, #0]
   832e8:	b9eb      	cbnz	r3, 83326 <vTaskSwitchContext+0x42>
   832ea:	b510      	push	{r4, lr}
   832ec:	4b20      	ldr	r3, [pc, #128]	; (83370 <vTaskSwitchContext+0x8c>)
   832ee:	681b      	ldr	r3, [r3, #0]
   832f0:	eb03 0383 	add.w	r3, r3, r3, lsl #2
   832f4:	009b      	lsls	r3, r3, #2
   832f6:	4a1f      	ldr	r2, [pc, #124]	; (83374 <vTaskSwitchContext+0x90>)
   832f8:	58d3      	ldr	r3, [r2, r3]
   832fa:	b9c3      	cbnz	r3, 8332e <vTaskSwitchContext+0x4a>
   832fc:	4b1c      	ldr	r3, [pc, #112]	; (83370 <vTaskSwitchContext+0x8c>)
   832fe:	681b      	ldr	r3, [r3, #0]
   83300:	b16b      	cbz	r3, 8331e <vTaskSwitchContext+0x3a>
   83302:	4a1b      	ldr	r2, [pc, #108]	; (83370 <vTaskSwitchContext+0x8c>)
   83304:	491b      	ldr	r1, [pc, #108]	; (83374 <vTaskSwitchContext+0x90>)
   83306:	6813      	ldr	r3, [r2, #0]
   83308:	3b01      	subs	r3, #1
   8330a:	6013      	str	r3, [r2, #0]
   8330c:	6813      	ldr	r3, [r2, #0]
   8330e:	eb03 0383 	add.w	r3, r3, r3, lsl #2
   83312:	f851 3023 	ldr.w	r3, [r1, r3, lsl #2]
   83316:	b953      	cbnz	r3, 8332e <vTaskSwitchContext+0x4a>
   83318:	6813      	ldr	r3, [r2, #0]
   8331a:	2b00      	cmp	r3, #0
   8331c:	d1f3      	bne.n	83306 <vTaskSwitchContext+0x22>
   8331e:	4b16      	ldr	r3, [pc, #88]	; (83378 <vTaskSwitchContext+0x94>)
   83320:	4798      	blx	r3
   83322:	bf00      	nop
   83324:	e7fd      	b.n	83322 <vTaskSwitchContext+0x3e>
   83326:	2201      	movs	r2, #1
   83328:	4b14      	ldr	r3, [pc, #80]	; (8337c <vTaskSwitchContext+0x98>)
   8332a:	601a      	str	r2, [r3, #0]
   8332c:	4770      	bx	lr
   8332e:	4b10      	ldr	r3, [pc, #64]	; (83370 <vTaskSwitchContext+0x8c>)
   83330:	681b      	ldr	r3, [r3, #0]
   83332:	4a10      	ldr	r2, [pc, #64]	; (83374 <vTaskSwitchContext+0x90>)
   83334:	0099      	lsls	r1, r3, #2
   83336:	18c8      	adds	r0, r1, r3
   83338:	eb02 0080 	add.w	r0, r2, r0, lsl #2
   8333c:	6844      	ldr	r4, [r0, #4]
   8333e:	6864      	ldr	r4, [r4, #4]
   83340:	6044      	str	r4, [r0, #4]
   83342:	4419      	add	r1, r3
   83344:	4602      	mov	r2, r0
   83346:	3208      	adds	r2, #8
   83348:	4294      	cmp	r4, r2
   8334a:	d009      	beq.n	83360 <vTaskSwitchContext+0x7c>
   8334c:	eb03 0383 	add.w	r3, r3, r3, lsl #2
   83350:	4a08      	ldr	r2, [pc, #32]	; (83374 <vTaskSwitchContext+0x90>)
   83352:	eb02 0383 	add.w	r3, r2, r3, lsl #2
   83356:	685b      	ldr	r3, [r3, #4]
   83358:	68da      	ldr	r2, [r3, #12]
   8335a:	4b09      	ldr	r3, [pc, #36]	; (83380 <vTaskSwitchContext+0x9c>)
   8335c:	601a      	str	r2, [r3, #0]
   8335e:	bd10      	pop	{r4, pc}
   83360:	6860      	ldr	r0, [r4, #4]
   83362:	4a04      	ldr	r2, [pc, #16]	; (83374 <vTaskSwitchContext+0x90>)
   83364:	eb02 0281 	add.w	r2, r2, r1, lsl #2
   83368:	6050      	str	r0, [r2, #4]
   8336a:	e7ef      	b.n	8334c <vTaskSwitchContext+0x68>
   8336c:	2007ad08 	.word	0x2007ad08
   83370:	2007ad14 	.word	0x2007ad14
   83374:	2007ac9c 	.word	0x2007ac9c
   83378:	0008247d 	.word	0x0008247d
   8337c:	2007ad44 	.word	0x2007ad44
   83380:	2007ac90 	.word	0x2007ac90

00083384 <vTaskPlaceOnEventList>:
   83384:	b538      	push	{r3, r4, r5, lr}
   83386:	b190      	cbz	r0, 833ae <vTaskPlaceOnEventList+0x2a>
   83388:	460c      	mov	r4, r1
   8338a:	4d0e      	ldr	r5, [pc, #56]	; (833c4 <vTaskPlaceOnEventList+0x40>)
   8338c:	6829      	ldr	r1, [r5, #0]
   8338e:	3118      	adds	r1, #24
   83390:	4b0d      	ldr	r3, [pc, #52]	; (833c8 <vTaskPlaceOnEventList+0x44>)
   83392:	4798      	blx	r3
   83394:	6828      	ldr	r0, [r5, #0]
   83396:	3004      	adds	r0, #4
   83398:	4b0c      	ldr	r3, [pc, #48]	; (833cc <vTaskPlaceOnEventList+0x48>)
   8339a:	4798      	blx	r3
   8339c:	f1b4 3fff 	cmp.w	r4, #4294967295
   833a0:	d009      	beq.n	833b6 <vTaskPlaceOnEventList+0x32>
   833a2:	4b0b      	ldr	r3, [pc, #44]	; (833d0 <vTaskPlaceOnEventList+0x4c>)
   833a4:	6818      	ldr	r0, [r3, #0]
   833a6:	4420      	add	r0, r4
   833a8:	4b0a      	ldr	r3, [pc, #40]	; (833d4 <vTaskPlaceOnEventList+0x50>)
   833aa:	4798      	blx	r3
   833ac:	bd38      	pop	{r3, r4, r5, pc}
   833ae:	4b0a      	ldr	r3, [pc, #40]	; (833d8 <vTaskPlaceOnEventList+0x54>)
   833b0:	4798      	blx	r3
   833b2:	bf00      	nop
   833b4:	e7fd      	b.n	833b2 <vTaskPlaceOnEventList+0x2e>
   833b6:	6829      	ldr	r1, [r5, #0]
   833b8:	3104      	adds	r1, #4
   833ba:	4808      	ldr	r0, [pc, #32]	; (833dc <vTaskPlaceOnEventList+0x58>)
   833bc:	4b08      	ldr	r3, [pc, #32]	; (833e0 <vTaskPlaceOnEventList+0x5c>)
   833be:	4798      	blx	r3
   833c0:	bd38      	pop	{r3, r4, r5, pc}
   833c2:	bf00      	nop
   833c4:	2007ac90 	.word	0x2007ac90
   833c8:	000823bd 	.word	0x000823bd
   833cc:	000823f7 	.word	0x000823f7
   833d0:	2007ad8c 	.word	0x2007ad8c
   833d4:	00082c49 	.word	0x00082c49
   833d8:	0008247d 	.word	0x0008247d
   833dc:	2007ad64 	.word	0x2007ad64
   833e0:	000823a1 	.word	0x000823a1

000833e4 <vTaskPlaceOnEventListRestricted>:
   833e4:	b538      	push	{r3, r4, r5, lr}
   833e6:	b178      	cbz	r0, 83408 <vTaskPlaceOnEventListRestricted+0x24>
   833e8:	460d      	mov	r5, r1
   833ea:	4c09      	ldr	r4, [pc, #36]	; (83410 <vTaskPlaceOnEventListRestricted+0x2c>)
   833ec:	6821      	ldr	r1, [r4, #0]
   833ee:	3118      	adds	r1, #24
   833f0:	4b08      	ldr	r3, [pc, #32]	; (83414 <vTaskPlaceOnEventListRestricted+0x30>)
   833f2:	4798      	blx	r3
   833f4:	6820      	ldr	r0, [r4, #0]
   833f6:	3004      	adds	r0, #4
   833f8:	4b07      	ldr	r3, [pc, #28]	; (83418 <vTaskPlaceOnEventListRestricted+0x34>)
   833fa:	4798      	blx	r3
   833fc:	4b07      	ldr	r3, [pc, #28]	; (8341c <vTaskPlaceOnEventListRestricted+0x38>)
   833fe:	6818      	ldr	r0, [r3, #0]
   83400:	4428      	add	r0, r5
   83402:	4b07      	ldr	r3, [pc, #28]	; (83420 <vTaskPlaceOnEventListRestricted+0x3c>)
   83404:	4798      	blx	r3
   83406:	bd38      	pop	{r3, r4, r5, pc}
   83408:	4b06      	ldr	r3, [pc, #24]	; (83424 <vTaskPlaceOnEventListRestricted+0x40>)
   8340a:	4798      	blx	r3
   8340c:	bf00      	nop
   8340e:	e7fd      	b.n	8340c <vTaskPlaceOnEventListRestricted+0x28>
   83410:	2007ac90 	.word	0x2007ac90
   83414:	000823a1 	.word	0x000823a1
   83418:	000823f7 	.word	0x000823f7
   8341c:	2007ad8c 	.word	0x2007ad8c
   83420:	00082c49 	.word	0x00082c49
   83424:	0008247d 	.word	0x0008247d

00083428 <xTaskRemoveFromEventList>:
   83428:	b538      	push	{r3, r4, r5, lr}
   8342a:	68c3      	ldr	r3, [r0, #12]
   8342c:	68dc      	ldr	r4, [r3, #12]
   8342e:	b31c      	cbz	r4, 83478 <xTaskRemoveFromEventList+0x50>
   83430:	f104 0518 	add.w	r5, r4, #24
   83434:	4628      	mov	r0, r5
   83436:	4b15      	ldr	r3, [pc, #84]	; (8348c <xTaskRemoveFromEventList+0x64>)
   83438:	4798      	blx	r3
   8343a:	4b15      	ldr	r3, [pc, #84]	; (83490 <xTaskRemoveFromEventList+0x68>)
   8343c:	681b      	ldr	r3, [r3, #0]
   8343e:	b9fb      	cbnz	r3, 83480 <xTaskRemoveFromEventList+0x58>
   83440:	1d25      	adds	r5, r4, #4
   83442:	4628      	mov	r0, r5
   83444:	4b11      	ldr	r3, [pc, #68]	; (8348c <xTaskRemoveFromEventList+0x64>)
   83446:	4798      	blx	r3
   83448:	6ae0      	ldr	r0, [r4, #44]	; 0x2c
   8344a:	4b12      	ldr	r3, [pc, #72]	; (83494 <xTaskRemoveFromEventList+0x6c>)
   8344c:	681b      	ldr	r3, [r3, #0]
   8344e:	4298      	cmp	r0, r3
   83450:	bf84      	itt	hi
   83452:	4b10      	ldrhi	r3, [pc, #64]	; (83494 <xTaskRemoveFromEventList+0x6c>)
   83454:	6018      	strhi	r0, [r3, #0]
   83456:	eb00 0080 	add.w	r0, r0, r0, lsl #2
   8345a:	4629      	mov	r1, r5
   8345c:	4b0e      	ldr	r3, [pc, #56]	; (83498 <xTaskRemoveFromEventList+0x70>)
   8345e:	eb03 0080 	add.w	r0, r3, r0, lsl #2
   83462:	4b0e      	ldr	r3, [pc, #56]	; (8349c <xTaskRemoveFromEventList+0x74>)
   83464:	4798      	blx	r3
   83466:	4b0e      	ldr	r3, [pc, #56]	; (834a0 <xTaskRemoveFromEventList+0x78>)
   83468:	681b      	ldr	r3, [r3, #0]
   8346a:	6ae0      	ldr	r0, [r4, #44]	; 0x2c
   8346c:	6adb      	ldr	r3, [r3, #44]	; 0x2c
   8346e:	4298      	cmp	r0, r3
   83470:	bf34      	ite	cc
   83472:	2000      	movcc	r0, #0
   83474:	2001      	movcs	r0, #1
   83476:	bd38      	pop	{r3, r4, r5, pc}
   83478:	4b0a      	ldr	r3, [pc, #40]	; (834a4 <xTaskRemoveFromEventList+0x7c>)
   8347a:	4798      	blx	r3
   8347c:	bf00      	nop
   8347e:	e7fd      	b.n	8347c <xTaskRemoveFromEventList+0x54>
   83480:	4629      	mov	r1, r5
   83482:	4809      	ldr	r0, [pc, #36]	; (834a8 <xTaskRemoveFromEventList+0x80>)
   83484:	4b05      	ldr	r3, [pc, #20]	; (8349c <xTaskRemoveFromEventList+0x74>)
   83486:	4798      	blx	r3
   83488:	e7ed      	b.n	83466 <xTaskRemoveFromEventList+0x3e>
   8348a:	bf00      	nop
   8348c:	000823f7 	.word	0x000823f7
   83490:	2007ad08 	.word	0x2007ad08
   83494:	2007ad14 	.word	0x2007ad14
   83498:	2007ac9c 	.word	0x2007ac9c
   8349c:	000823a1 	.word	0x000823a1
   834a0:	2007ac90 	.word	0x2007ac90
   834a4:	0008247d 	.word	0x0008247d
   834a8:	2007ad4c 	.word	0x2007ad4c

000834ac <vTaskSetTimeOutState>:
   834ac:	b508      	push	{r3, lr}
   834ae:	b130      	cbz	r0, 834be <vTaskSetTimeOutState+0x12>
   834b0:	4a05      	ldr	r2, [pc, #20]	; (834c8 <vTaskSetTimeOutState+0x1c>)
   834b2:	6812      	ldr	r2, [r2, #0]
   834b4:	6002      	str	r2, [r0, #0]
   834b6:	4a05      	ldr	r2, [pc, #20]	; (834cc <vTaskSetTimeOutState+0x20>)
   834b8:	6812      	ldr	r2, [r2, #0]
   834ba:	6042      	str	r2, [r0, #4]
   834bc:	bd08      	pop	{r3, pc}
   834be:	4b04      	ldr	r3, [pc, #16]	; (834d0 <vTaskSetTimeOutState+0x24>)
   834c0:	4798      	blx	r3
   834c2:	bf00      	nop
   834c4:	e7fd      	b.n	834c2 <vTaskSetTimeOutState+0x16>
   834c6:	bf00      	nop
   834c8:	2007ad48 	.word	0x2007ad48
   834cc:	2007ad8c 	.word	0x2007ad8c
   834d0:	0008247d 	.word	0x0008247d

000834d4 <xTaskCheckForTimeOut>:
   834d4:	b538      	push	{r3, r4, r5, lr}
   834d6:	b1e8      	cbz	r0, 83514 <xTaskCheckForTimeOut+0x40>
   834d8:	460d      	mov	r5, r1
   834da:	4604      	mov	r4, r0
   834dc:	b1f1      	cbz	r1, 8351c <xTaskCheckForTimeOut+0x48>
   834de:	4b18      	ldr	r3, [pc, #96]	; (83540 <xTaskCheckForTimeOut+0x6c>)
   834e0:	4798      	blx	r3
   834e2:	682b      	ldr	r3, [r5, #0]
   834e4:	f1b3 3fff 	cmp.w	r3, #4294967295
   834e8:	d026      	beq.n	83538 <xTaskCheckForTimeOut+0x64>
   834ea:	4a16      	ldr	r2, [pc, #88]	; (83544 <xTaskCheckForTimeOut+0x70>)
   834ec:	6812      	ldr	r2, [r2, #0]
   834ee:	6821      	ldr	r1, [r4, #0]
   834f0:	4291      	cmp	r1, r2
   834f2:	d004      	beq.n	834fe <xTaskCheckForTimeOut+0x2a>
   834f4:	4a14      	ldr	r2, [pc, #80]	; (83548 <xTaskCheckForTimeOut+0x74>)
   834f6:	6812      	ldr	r2, [r2, #0]
   834f8:	6861      	ldr	r1, [r4, #4]
   834fa:	4291      	cmp	r1, r2
   834fc:	d91e      	bls.n	8353c <xTaskCheckForTimeOut+0x68>
   834fe:	4a12      	ldr	r2, [pc, #72]	; (83548 <xTaskCheckForTimeOut+0x74>)
   83500:	6812      	ldr	r2, [r2, #0]
   83502:	6861      	ldr	r1, [r4, #4]
   83504:	1a52      	subs	r2, r2, r1
   83506:	4293      	cmp	r3, r2
   83508:	d80c      	bhi.n	83524 <xTaskCheckForTimeOut+0x50>
   8350a:	2401      	movs	r4, #1
   8350c:	4b0f      	ldr	r3, [pc, #60]	; (8354c <xTaskCheckForTimeOut+0x78>)
   8350e:	4798      	blx	r3
   83510:	4620      	mov	r0, r4
   83512:	bd38      	pop	{r3, r4, r5, pc}
   83514:	4b0e      	ldr	r3, [pc, #56]	; (83550 <xTaskCheckForTimeOut+0x7c>)
   83516:	4798      	blx	r3
   83518:	bf00      	nop
   8351a:	e7fd      	b.n	83518 <xTaskCheckForTimeOut+0x44>
   8351c:	4b0c      	ldr	r3, [pc, #48]	; (83550 <xTaskCheckForTimeOut+0x7c>)
   8351e:	4798      	blx	r3
   83520:	bf00      	nop
   83522:	e7fd      	b.n	83520 <xTaskCheckForTimeOut+0x4c>
   83524:	4a08      	ldr	r2, [pc, #32]	; (83548 <xTaskCheckForTimeOut+0x74>)
   83526:	6812      	ldr	r2, [r2, #0]
   83528:	1a52      	subs	r2, r2, r1
   8352a:	1a9b      	subs	r3, r3, r2
   8352c:	602b      	str	r3, [r5, #0]
   8352e:	4620      	mov	r0, r4
   83530:	4b08      	ldr	r3, [pc, #32]	; (83554 <xTaskCheckForTimeOut+0x80>)
   83532:	4798      	blx	r3
   83534:	2400      	movs	r4, #0
   83536:	e7e9      	b.n	8350c <xTaskCheckForTimeOut+0x38>
   83538:	2400      	movs	r4, #0
   8353a:	e7e7      	b.n	8350c <xTaskCheckForTimeOut+0x38>
   8353c:	2401      	movs	r4, #1
   8353e:	e7e5      	b.n	8350c <xTaskCheckForTimeOut+0x38>
   83540:	0008248d 	.word	0x0008248d
   83544:	2007ad48 	.word	0x2007ad48
   83548:	2007ad8c 	.word	0x2007ad8c
   8354c:	000824ad 	.word	0x000824ad
   83550:	0008247d 	.word	0x0008247d
   83554:	000834ad 	.word	0x000834ad

00083558 <vTaskMissedYield>:
   83558:	2201      	movs	r2, #1
   8355a:	4b01      	ldr	r3, [pc, #4]	; (83560 <vTaskMissedYield+0x8>)
   8355c:	601a      	str	r2, [r3, #0]
   8355e:	4770      	bx	lr
   83560:	2007ad44 	.word	0x2007ad44

00083564 <xTaskGetCurrentTaskHandle>:
   83564:	4b01      	ldr	r3, [pc, #4]	; (8356c <xTaskGetCurrentTaskHandle+0x8>)
   83566:	6818      	ldr	r0, [r3, #0]
   83568:	4770      	bx	lr
   8356a:	bf00      	nop
   8356c:	2007ac90 	.word	0x2007ac90

00083570 <xTaskGetSchedulerState>:
   83570:	4b05      	ldr	r3, [pc, #20]	; (83588 <xTaskGetSchedulerState+0x18>)
   83572:	681b      	ldr	r3, [r3, #0]
   83574:	b133      	cbz	r3, 83584 <xTaskGetSchedulerState+0x14>
   83576:	4b05      	ldr	r3, [pc, #20]	; (8358c <xTaskGetSchedulerState+0x1c>)
   83578:	681b      	ldr	r3, [r3, #0]
   8357a:	2b00      	cmp	r3, #0
   8357c:	bf0c      	ite	eq
   8357e:	2001      	moveq	r0, #1
   83580:	2002      	movne	r0, #2
   83582:	4770      	bx	lr
   83584:	2000      	movs	r0, #0
   83586:	4770      	bx	lr
   83588:	2007ad60 	.word	0x2007ad60
   8358c:	2007ad08 	.word	0x2007ad08

00083590 <vTaskPriorityInherit>:
   83590:	2800      	cmp	r0, #0
   83592:	d031      	beq.n	835f8 <vTaskPriorityInherit+0x68>
   83594:	b538      	push	{r3, r4, r5, lr}
   83596:	4605      	mov	r5, r0
   83598:	6ac3      	ldr	r3, [r0, #44]	; 0x2c
   8359a:	4918      	ldr	r1, [pc, #96]	; (835fc <vTaskPriorityInherit+0x6c>)
   8359c:	6809      	ldr	r1, [r1, #0]
   8359e:	6ac9      	ldr	r1, [r1, #44]	; 0x2c
   835a0:	428b      	cmp	r3, r1
   835a2:	d211      	bcs.n	835c8 <vTaskPriorityInherit+0x38>
   835a4:	4915      	ldr	r1, [pc, #84]	; (835fc <vTaskPriorityInherit+0x6c>)
   835a6:	6809      	ldr	r1, [r1, #0]
   835a8:	6ac9      	ldr	r1, [r1, #44]	; 0x2c
   835aa:	f1c1 0105 	rsb	r1, r1, #5
   835ae:	6181      	str	r1, [r0, #24]
   835b0:	eb03 0383 	add.w	r3, r3, r3, lsl #2
   835b4:	4912      	ldr	r1, [pc, #72]	; (83600 <vTaskPriorityInherit+0x70>)
   835b6:	eb01 0383 	add.w	r3, r1, r3, lsl #2
   835ba:	6941      	ldr	r1, [r0, #20]
   835bc:	4299      	cmp	r1, r3
   835be:	d004      	beq.n	835ca <vTaskPriorityInherit+0x3a>
   835c0:	4b0e      	ldr	r3, [pc, #56]	; (835fc <vTaskPriorityInherit+0x6c>)
   835c2:	681b      	ldr	r3, [r3, #0]
   835c4:	6adb      	ldr	r3, [r3, #44]	; 0x2c
   835c6:	62c3      	str	r3, [r0, #44]	; 0x2c
   835c8:	bd38      	pop	{r3, r4, r5, pc}
   835ca:	1d04      	adds	r4, r0, #4
   835cc:	4620      	mov	r0, r4
   835ce:	4b0d      	ldr	r3, [pc, #52]	; (83604 <vTaskPriorityInherit+0x74>)
   835d0:	4798      	blx	r3
   835d2:	4b0a      	ldr	r3, [pc, #40]	; (835fc <vTaskPriorityInherit+0x6c>)
   835d4:	681b      	ldr	r3, [r3, #0]
   835d6:	6ad8      	ldr	r0, [r3, #44]	; 0x2c
   835d8:	62e8      	str	r0, [r5, #44]	; 0x2c
   835da:	4b0b      	ldr	r3, [pc, #44]	; (83608 <vTaskPriorityInherit+0x78>)
   835dc:	681b      	ldr	r3, [r3, #0]
   835de:	4298      	cmp	r0, r3
   835e0:	bf84      	itt	hi
   835e2:	4b09      	ldrhi	r3, [pc, #36]	; (83608 <vTaskPriorityInherit+0x78>)
   835e4:	6018      	strhi	r0, [r3, #0]
   835e6:	eb00 0080 	add.w	r0, r0, r0, lsl #2
   835ea:	4621      	mov	r1, r4
   835ec:	4b04      	ldr	r3, [pc, #16]	; (83600 <vTaskPriorityInherit+0x70>)
   835ee:	eb03 0080 	add.w	r0, r3, r0, lsl #2
   835f2:	4b06      	ldr	r3, [pc, #24]	; (8360c <vTaskPriorityInherit+0x7c>)
   835f4:	4798      	blx	r3
   835f6:	bd38      	pop	{r3, r4, r5, pc}
   835f8:	4770      	bx	lr
   835fa:	bf00      	nop
   835fc:	2007ac90 	.word	0x2007ac90
   83600:	2007ac9c 	.word	0x2007ac9c
   83604:	000823f7 	.word	0x000823f7
   83608:	2007ad14 	.word	0x2007ad14
   8360c:	000823a1 	.word	0x000823a1

00083610 <vTaskPriorityDisinherit>:
   83610:	b1e8      	cbz	r0, 8364e <vTaskPriorityDisinherit+0x3e>
   83612:	b538      	push	{r3, r4, r5, lr}
   83614:	4604      	mov	r4, r0
   83616:	6ac1      	ldr	r1, [r0, #44]	; 0x2c
   83618:	6c82      	ldr	r2, [r0, #72]	; 0x48
   8361a:	4291      	cmp	r1, r2
   8361c:	d016      	beq.n	8364c <vTaskPriorityDisinherit+0x3c>
   8361e:	1d05      	adds	r5, r0, #4
   83620:	4628      	mov	r0, r5
   83622:	4b0b      	ldr	r3, [pc, #44]	; (83650 <vTaskPriorityDisinherit+0x40>)
   83624:	4798      	blx	r3
   83626:	6ca0      	ldr	r0, [r4, #72]	; 0x48
   83628:	62e0      	str	r0, [r4, #44]	; 0x2c
   8362a:	f1c0 0305 	rsb	r3, r0, #5
   8362e:	61a3      	str	r3, [r4, #24]
   83630:	4b08      	ldr	r3, [pc, #32]	; (83654 <vTaskPriorityDisinherit+0x44>)
   83632:	681b      	ldr	r3, [r3, #0]
   83634:	4298      	cmp	r0, r3
   83636:	bf84      	itt	hi
   83638:	4b06      	ldrhi	r3, [pc, #24]	; (83654 <vTaskPriorityDisinherit+0x44>)
   8363a:	6018      	strhi	r0, [r3, #0]
   8363c:	eb00 0080 	add.w	r0, r0, r0, lsl #2
   83640:	4629      	mov	r1, r5
   83642:	4b05      	ldr	r3, [pc, #20]	; (83658 <vTaskPriorityDisinherit+0x48>)
   83644:	eb03 0080 	add.w	r0, r3, r0, lsl #2
   83648:	4b04      	ldr	r3, [pc, #16]	; (8365c <vTaskPriorityDisinherit+0x4c>)
   8364a:	4798      	blx	r3
   8364c:	bd38      	pop	{r3, r4, r5, pc}
   8364e:	4770      	bx	lr
   83650:	000823f7 	.word	0x000823f7
   83654:	2007ad14 	.word	0x2007ad14
   83658:	2007ac9c 	.word	0x2007ac9c
   8365c:	000823a1 	.word	0x000823a1

00083660 <prvInsertTimerInActiveList>:
   83660:	b508      	push	{r3, lr}
   83662:	6041      	str	r1, [r0, #4]
   83664:	6100      	str	r0, [r0, #16]
   83666:	4291      	cmp	r1, r2
   83668:	d80c      	bhi.n	83684 <prvInsertTimerInActiveList+0x24>
   8366a:	1ad2      	subs	r2, r2, r3
   8366c:	6983      	ldr	r3, [r0, #24]
   8366e:	429a      	cmp	r2, r3
   83670:	d301      	bcc.n	83676 <prvInsertTimerInActiveList+0x16>
   83672:	2001      	movs	r0, #1
   83674:	bd08      	pop	{r3, pc}
   83676:	1d01      	adds	r1, r0, #4
   83678:	4b09      	ldr	r3, [pc, #36]	; (836a0 <prvInsertTimerInActiveList+0x40>)
   8367a:	6818      	ldr	r0, [r3, #0]
   8367c:	4b09      	ldr	r3, [pc, #36]	; (836a4 <prvInsertTimerInActiveList+0x44>)
   8367e:	4798      	blx	r3
   83680:	2000      	movs	r0, #0
   83682:	bd08      	pop	{r3, pc}
   83684:	429a      	cmp	r2, r3
   83686:	d201      	bcs.n	8368c <prvInsertTimerInActiveList+0x2c>
   83688:	4299      	cmp	r1, r3
   8368a:	d206      	bcs.n	8369a <prvInsertTimerInActiveList+0x3a>
   8368c:	1d01      	adds	r1, r0, #4
   8368e:	4b06      	ldr	r3, [pc, #24]	; (836a8 <prvInsertTimerInActiveList+0x48>)
   83690:	6818      	ldr	r0, [r3, #0]
   83692:	4b04      	ldr	r3, [pc, #16]	; (836a4 <prvInsertTimerInActiveList+0x44>)
   83694:	4798      	blx	r3
   83696:	2000      	movs	r0, #0
   83698:	bd08      	pop	{r3, pc}
   8369a:	2001      	movs	r0, #1
   8369c:	bd08      	pop	{r3, pc}
   8369e:	bf00      	nop
   836a0:	2007ad94 	.word	0x2007ad94
   836a4:	000823bd 	.word	0x000823bd
   836a8:	2007ad90 	.word	0x2007ad90

000836ac <prvCheckForValidListAndQueue>:
   836ac:	b570      	push	{r4, r5, r6, lr}
   836ae:	4b0d      	ldr	r3, [pc, #52]	; (836e4 <prvCheckForValidListAndQueue+0x38>)
   836b0:	4798      	blx	r3
   836b2:	4b0d      	ldr	r3, [pc, #52]	; (836e8 <prvCheckForValidListAndQueue+0x3c>)
   836b4:	681b      	ldr	r3, [r3, #0]
   836b6:	b113      	cbz	r3, 836be <prvCheckForValidListAndQueue+0x12>
   836b8:	4b0c      	ldr	r3, [pc, #48]	; (836ec <prvCheckForValidListAndQueue+0x40>)
   836ba:	4798      	blx	r3
   836bc:	bd70      	pop	{r4, r5, r6, pc}
   836be:	4d0c      	ldr	r5, [pc, #48]	; (836f0 <prvCheckForValidListAndQueue+0x44>)
   836c0:	4628      	mov	r0, r5
   836c2:	4e0c      	ldr	r6, [pc, #48]	; (836f4 <prvCheckForValidListAndQueue+0x48>)
   836c4:	47b0      	blx	r6
   836c6:	4c0c      	ldr	r4, [pc, #48]	; (836f8 <prvCheckForValidListAndQueue+0x4c>)
   836c8:	4620      	mov	r0, r4
   836ca:	47b0      	blx	r6
   836cc:	4b0b      	ldr	r3, [pc, #44]	; (836fc <prvCheckForValidListAndQueue+0x50>)
   836ce:	601d      	str	r5, [r3, #0]
   836d0:	4b0b      	ldr	r3, [pc, #44]	; (83700 <prvCheckForValidListAndQueue+0x54>)
   836d2:	601c      	str	r4, [r3, #0]
   836d4:	2200      	movs	r2, #0
   836d6:	210c      	movs	r1, #12
   836d8:	2005      	movs	r0, #5
   836da:	4b0a      	ldr	r3, [pc, #40]	; (83704 <prvCheckForValidListAndQueue+0x58>)
   836dc:	4798      	blx	r3
   836de:	4b02      	ldr	r3, [pc, #8]	; (836e8 <prvCheckForValidListAndQueue+0x3c>)
   836e0:	6018      	str	r0, [r3, #0]
   836e2:	e7e9      	b.n	836b8 <prvCheckForValidListAndQueue+0xc>
   836e4:	0008248d 	.word	0x0008248d
   836e8:	2007adc4 	.word	0x2007adc4
   836ec:	000824ad 	.word	0x000824ad
   836f0:	2007ad98 	.word	0x2007ad98
   836f4:	00082385 	.word	0x00082385
   836f8:	2007adac 	.word	0x2007adac
   836fc:	2007ad90 	.word	0x2007ad90
   83700:	2007ad94 	.word	0x2007ad94
   83704:	00082885 	.word	0x00082885

00083708 <xTimerCreateTimerTask>:
   83708:	b510      	push	{r4, lr}
   8370a:	b084      	sub	sp, #16
   8370c:	4b0b      	ldr	r3, [pc, #44]	; (8373c <xTimerCreateTimerTask+0x34>)
   8370e:	4798      	blx	r3
   83710:	4b0b      	ldr	r3, [pc, #44]	; (83740 <xTimerCreateTimerTask+0x38>)
   83712:	681b      	ldr	r3, [r3, #0]
   83714:	b173      	cbz	r3, 83734 <xTimerCreateTimerTask+0x2c>
   83716:	2300      	movs	r3, #0
   83718:	9303      	str	r3, [sp, #12]
   8371a:	9302      	str	r3, [sp, #8]
   8371c:	9301      	str	r3, [sp, #4]
   8371e:	2204      	movs	r2, #4
   83720:	9200      	str	r2, [sp, #0]
   83722:	f44f 7282 	mov.w	r2, #260	; 0x104
   83726:	4907      	ldr	r1, [pc, #28]	; (83744 <xTimerCreateTimerTask+0x3c>)
   83728:	4807      	ldr	r0, [pc, #28]	; (83748 <xTimerCreateTimerTask+0x40>)
   8372a:	4c08      	ldr	r4, [pc, #32]	; (8374c <xTimerCreateTimerTask+0x44>)
   8372c:	47a0      	blx	r4
   8372e:	b108      	cbz	r0, 83734 <xTimerCreateTimerTask+0x2c>
   83730:	b004      	add	sp, #16
   83732:	bd10      	pop	{r4, pc}
   83734:	4b06      	ldr	r3, [pc, #24]	; (83750 <xTimerCreateTimerTask+0x48>)
   83736:	4798      	blx	r3
   83738:	bf00      	nop
   8373a:	e7fd      	b.n	83738 <xTimerCreateTimerTask+0x30>
   8373c:	000836ad 	.word	0x000836ad
   83740:	2007adc4 	.word	0x2007adc4
   83744:	00088a0c 	.word	0x00088a0c
   83748:	00083859 	.word	0x00083859
   8374c:	00082ca1 	.word	0x00082ca1
   83750:	0008247d 	.word	0x0008247d

00083754 <xTimerGenericCommand>:
   83754:	b530      	push	{r4, r5, lr}
   83756:	b085      	sub	sp, #20
   83758:	4c0f      	ldr	r4, [pc, #60]	; (83798 <xTimerGenericCommand+0x44>)
   8375a:	6825      	ldr	r5, [r4, #0]
   8375c:	b1d5      	cbz	r5, 83794 <xTimerGenericCommand+0x40>
   8375e:	461c      	mov	r4, r3
   83760:	9101      	str	r1, [sp, #4]
   83762:	9202      	str	r2, [sp, #8]
   83764:	9003      	str	r0, [sp, #12]
   83766:	b13b      	cbz	r3, 83778 <xTimerGenericCommand+0x24>
   83768:	2300      	movs	r3, #0
   8376a:	4622      	mov	r2, r4
   8376c:	a901      	add	r1, sp, #4
   8376e:	4628      	mov	r0, r5
   83770:	4c0a      	ldr	r4, [pc, #40]	; (8379c <xTimerGenericCommand+0x48>)
   83772:	47a0      	blx	r4
   83774:	b005      	add	sp, #20
   83776:	bd30      	pop	{r4, r5, pc}
   83778:	4b09      	ldr	r3, [pc, #36]	; (837a0 <xTimerGenericCommand+0x4c>)
   8377a:	4798      	blx	r3
   8377c:	2801      	cmp	r0, #1
   8377e:	f04f 0300 	mov.w	r3, #0
   83782:	bf0c      	ite	eq
   83784:	9a08      	ldreq	r2, [sp, #32]
   83786:	461a      	movne	r2, r3
   83788:	a901      	add	r1, sp, #4
   8378a:	4803      	ldr	r0, [pc, #12]	; (83798 <xTimerGenericCommand+0x44>)
   8378c:	6800      	ldr	r0, [r0, #0]
   8378e:	4c05      	ldr	r4, [pc, #20]	; (837a4 <xTimerGenericCommand+0x50>)
   83790:	47a0      	blx	r4
   83792:	e7ef      	b.n	83774 <xTimerGenericCommand+0x20>
   83794:	2000      	movs	r0, #0
   83796:	e7ed      	b.n	83774 <xTimerGenericCommand+0x20>
   83798:	2007adc4 	.word	0x2007adc4
   8379c:	00082a01 	.word	0x00082a01
   837a0:	00083571 	.word	0x00083571
   837a4:	000828d9 	.word	0x000828d9

000837a8 <prvSampleTimeNow>:
   837a8:	e92d 47f0 	stmdb	sp!, {r4, r5, r6, r7, r8, r9, sl, lr}
   837ac:	b082      	sub	sp, #8
   837ae:	4681      	mov	r9, r0
   837b0:	4b21      	ldr	r3, [pc, #132]	; (83838 <prvSampleTimeNow+0x90>)
   837b2:	4798      	blx	r3
   837b4:	4680      	mov	r8, r0
   837b6:	4b21      	ldr	r3, [pc, #132]	; (8383c <prvSampleTimeNow+0x94>)
   837b8:	681b      	ldr	r3, [r3, #0]
   837ba:	4298      	cmp	r0, r3
   837bc:	d315      	bcc.n	837ea <prvSampleTimeNow+0x42>
   837be:	2300      	movs	r3, #0
   837c0:	f8c9 3000 	str.w	r3, [r9]
   837c4:	4b1d      	ldr	r3, [pc, #116]	; (8383c <prvSampleTimeNow+0x94>)
   837c6:	f8c3 8000 	str.w	r8, [r3]
   837ca:	4640      	mov	r0, r8
   837cc:	b002      	add	sp, #8
   837ce:	e8bd 87f0 	ldmia.w	sp!, {r4, r5, r6, r7, r8, r9, sl, pc}
   837d2:	2100      	movs	r1, #0
   837d4:	9100      	str	r1, [sp, #0]
   837d6:	460b      	mov	r3, r1
   837d8:	4652      	mov	r2, sl
   837da:	4620      	mov	r0, r4
   837dc:	4c18      	ldr	r4, [pc, #96]	; (83840 <prvSampleTimeNow+0x98>)
   837de:	47a0      	blx	r4
   837e0:	b928      	cbnz	r0, 837ee <prvSampleTimeNow+0x46>
   837e2:	4b18      	ldr	r3, [pc, #96]	; (83844 <prvSampleTimeNow+0x9c>)
   837e4:	4798      	blx	r3
   837e6:	bf00      	nop
   837e8:	e7fd      	b.n	837e6 <prvSampleTimeNow+0x3e>
   837ea:	4e17      	ldr	r6, [pc, #92]	; (83848 <prvSampleTimeNow+0xa0>)
   837ec:	4f17      	ldr	r7, [pc, #92]	; (8384c <prvSampleTimeNow+0xa4>)
   837ee:	6833      	ldr	r3, [r6, #0]
   837f0:	681a      	ldr	r2, [r3, #0]
   837f2:	b1c2      	cbz	r2, 83826 <prvSampleTimeNow+0x7e>
   837f4:	68da      	ldr	r2, [r3, #12]
   837f6:	f8d2 a000 	ldr.w	sl, [r2]
   837fa:	68db      	ldr	r3, [r3, #12]
   837fc:	68dc      	ldr	r4, [r3, #12]
   837fe:	1d25      	adds	r5, r4, #4
   83800:	4628      	mov	r0, r5
   83802:	47b8      	blx	r7
   83804:	6a63      	ldr	r3, [r4, #36]	; 0x24
   83806:	4620      	mov	r0, r4
   83808:	4798      	blx	r3
   8380a:	69e3      	ldr	r3, [r4, #28]
   8380c:	2b01      	cmp	r3, #1
   8380e:	d1ee      	bne.n	837ee <prvSampleTimeNow+0x46>
   83810:	69a3      	ldr	r3, [r4, #24]
   83812:	4453      	add	r3, sl
   83814:	459a      	cmp	sl, r3
   83816:	d2dc      	bcs.n	837d2 <prvSampleTimeNow+0x2a>
   83818:	6063      	str	r3, [r4, #4]
   8381a:	6124      	str	r4, [r4, #16]
   8381c:	4629      	mov	r1, r5
   8381e:	6830      	ldr	r0, [r6, #0]
   83820:	4b0b      	ldr	r3, [pc, #44]	; (83850 <prvSampleTimeNow+0xa8>)
   83822:	4798      	blx	r3
   83824:	e7e3      	b.n	837ee <prvSampleTimeNow+0x46>
   83826:	4a0b      	ldr	r2, [pc, #44]	; (83854 <prvSampleTimeNow+0xac>)
   83828:	6810      	ldr	r0, [r2, #0]
   8382a:	4907      	ldr	r1, [pc, #28]	; (83848 <prvSampleTimeNow+0xa0>)
   8382c:	6008      	str	r0, [r1, #0]
   8382e:	6013      	str	r3, [r2, #0]
   83830:	2301      	movs	r3, #1
   83832:	f8c9 3000 	str.w	r3, [r9]
   83836:	e7c5      	b.n	837c4 <prvSampleTimeNow+0x1c>
   83838:	00082f1d 	.word	0x00082f1d
   8383c:	2007adc0 	.word	0x2007adc0
   83840:	00083755 	.word	0x00083755
   83844:	0008247d 	.word	0x0008247d
   83848:	2007ad90 	.word	0x2007ad90
   8384c:	000823f7 	.word	0x000823f7
   83850:	000823bd 	.word	0x000823bd
   83854:	2007ad94 	.word	0x2007ad94

00083858 <prvTimerTask>:
   83858:	e92d 41f0 	stmdb	sp!, {r4, r5, r6, r7, r8, lr}
   8385c:	b086      	sub	sp, #24
   8385e:	f8df 8168 	ldr.w	r8, [pc, #360]	; 839c8 <prvTimerTask+0x170>
   83862:	4b4d      	ldr	r3, [pc, #308]	; (83998 <prvTimerTask+0x140>)
   83864:	681b      	ldr	r3, [r3, #0]
   83866:	681a      	ldr	r2, [r3, #0]
   83868:	2a00      	cmp	r2, #0
   8386a:	f000 8089 	beq.w	83980 <prvTimerTask+0x128>
   8386e:	68db      	ldr	r3, [r3, #12]
   83870:	681d      	ldr	r5, [r3, #0]
   83872:	4b4a      	ldr	r3, [pc, #296]	; (8399c <prvTimerTask+0x144>)
   83874:	4798      	blx	r3
   83876:	a803      	add	r0, sp, #12
   83878:	4b49      	ldr	r3, [pc, #292]	; (839a0 <prvTimerTask+0x148>)
   8387a:	4798      	blx	r3
   8387c:	4606      	mov	r6, r0
   8387e:	9b03      	ldr	r3, [sp, #12]
   83880:	2b00      	cmp	r3, #0
   83882:	f040 8086 	bne.w	83992 <prvTimerTask+0x13a>
   83886:	42a8      	cmp	r0, r5
   83888:	d20f      	bcs.n	838aa <prvTimerTask+0x52>
   8388a:	1ba9      	subs	r1, r5, r6
   8388c:	4b45      	ldr	r3, [pc, #276]	; (839a4 <prvTimerTask+0x14c>)
   8388e:	6818      	ldr	r0, [r3, #0]
   83890:	4b45      	ldr	r3, [pc, #276]	; (839a8 <prvTimerTask+0x150>)
   83892:	4798      	blx	r3
   83894:	4b45      	ldr	r3, [pc, #276]	; (839ac <prvTimerTask+0x154>)
   83896:	4798      	blx	r3
   83898:	b908      	cbnz	r0, 8389e <prvTimerTask+0x46>
   8389a:	4b45      	ldr	r3, [pc, #276]	; (839b0 <prvTimerTask+0x158>)
   8389c:	4798      	blx	r3
   8389e:	a802      	add	r0, sp, #8
   838a0:	4b3f      	ldr	r3, [pc, #252]	; (839a0 <prvTimerTask+0x148>)
   838a2:	4798      	blx	r3
   838a4:	4607      	mov	r7, r0
   838a6:	4e3f      	ldr	r6, [pc, #252]	; (839a4 <prvTimerTask+0x14c>)
   838a8:	e036      	b.n	83918 <prvTimerTask+0xc0>
   838aa:	4b40      	ldr	r3, [pc, #256]	; (839ac <prvTimerTask+0x154>)
   838ac:	4798      	blx	r3
   838ae:	4b3a      	ldr	r3, [pc, #232]	; (83998 <prvTimerTask+0x140>)
   838b0:	681b      	ldr	r3, [r3, #0]
   838b2:	68db      	ldr	r3, [r3, #12]
   838b4:	68dc      	ldr	r4, [r3, #12]
   838b6:	1d20      	adds	r0, r4, #4
   838b8:	47c0      	blx	r8
   838ba:	69e3      	ldr	r3, [r4, #28]
   838bc:	2b01      	cmp	r3, #1
   838be:	d114      	bne.n	838ea <prvTimerTask+0x92>
   838c0:	69a1      	ldr	r1, [r4, #24]
   838c2:	462b      	mov	r3, r5
   838c4:	4632      	mov	r2, r6
   838c6:	4429      	add	r1, r5
   838c8:	4620      	mov	r0, r4
   838ca:	4e3a      	ldr	r6, [pc, #232]	; (839b4 <prvTimerTask+0x15c>)
   838cc:	47b0      	blx	r6
   838ce:	2801      	cmp	r0, #1
   838d0:	d10b      	bne.n	838ea <prvTimerTask+0x92>
   838d2:	2100      	movs	r1, #0
   838d4:	9100      	str	r1, [sp, #0]
   838d6:	460b      	mov	r3, r1
   838d8:	462a      	mov	r2, r5
   838da:	4620      	mov	r0, r4
   838dc:	4d36      	ldr	r5, [pc, #216]	; (839b8 <prvTimerTask+0x160>)
   838de:	47a8      	blx	r5
   838e0:	b918      	cbnz	r0, 838ea <prvTimerTask+0x92>
   838e2:	4b36      	ldr	r3, [pc, #216]	; (839bc <prvTimerTask+0x164>)
   838e4:	4798      	blx	r3
   838e6:	bf00      	nop
   838e8:	e7fd      	b.n	838e6 <prvTimerTask+0x8e>
   838ea:	6a63      	ldr	r3, [r4, #36]	; 0x24
   838ec:	4620      	mov	r0, r4
   838ee:	4798      	blx	r3
   838f0:	e7d5      	b.n	8389e <prvTimerTask+0x46>
   838f2:	2500      	movs	r5, #0
   838f4:	e7c9      	b.n	8388a <prvTimerTask+0x32>
   838f6:	9904      	ldr	r1, [sp, #16]
   838f8:	61a1      	str	r1, [r4, #24]
   838fa:	b131      	cbz	r1, 8390a <prvTimerTask+0xb2>
   838fc:	463b      	mov	r3, r7
   838fe:	463a      	mov	r2, r7
   83900:	4439      	add	r1, r7
   83902:	4620      	mov	r0, r4
   83904:	4c2b      	ldr	r4, [pc, #172]	; (839b4 <prvTimerTask+0x15c>)
   83906:	47a0      	blx	r4
   83908:	e006      	b.n	83918 <prvTimerTask+0xc0>
   8390a:	4b2c      	ldr	r3, [pc, #176]	; (839bc <prvTimerTask+0x164>)
   8390c:	4798      	blx	r3
   8390e:	bf00      	nop
   83910:	e7fd      	b.n	8390e <prvTimerTask+0xb6>
   83912:	4620      	mov	r0, r4
   83914:	4b2a      	ldr	r3, [pc, #168]	; (839c0 <prvTimerTask+0x168>)
   83916:	4798      	blx	r3
   83918:	4d2a      	ldr	r5, [pc, #168]	; (839c4 <prvTimerTask+0x16c>)
   8391a:	2300      	movs	r3, #0
   8391c:	461a      	mov	r2, r3
   8391e:	a903      	add	r1, sp, #12
   83920:	6830      	ldr	r0, [r6, #0]
   83922:	47a8      	blx	r5
   83924:	2800      	cmp	r0, #0
   83926:	d09c      	beq.n	83862 <prvTimerTask+0xa>
   83928:	9c05      	ldr	r4, [sp, #20]
   8392a:	b11c      	cbz	r4, 83934 <prvTimerTask+0xdc>
   8392c:	6963      	ldr	r3, [r4, #20]
   8392e:	b10b      	cbz	r3, 83934 <prvTimerTask+0xdc>
   83930:	1d20      	adds	r0, r4, #4
   83932:	47c0      	blx	r8
   83934:	9b03      	ldr	r3, [sp, #12]
   83936:	2b02      	cmp	r3, #2
   83938:	d0dd      	beq.n	838f6 <prvTimerTask+0x9e>
   8393a:	2b03      	cmp	r3, #3
   8393c:	d0e9      	beq.n	83912 <prvTimerTask+0xba>
   8393e:	2b00      	cmp	r3, #0
   83940:	d1eb      	bne.n	8391a <prvTimerTask+0xc2>
   83942:	9904      	ldr	r1, [sp, #16]
   83944:	69a0      	ldr	r0, [r4, #24]
   83946:	460b      	mov	r3, r1
   83948:	463a      	mov	r2, r7
   8394a:	4401      	add	r1, r0
   8394c:	4620      	mov	r0, r4
   8394e:	4d19      	ldr	r5, [pc, #100]	; (839b4 <prvTimerTask+0x15c>)
   83950:	47a8      	blx	r5
   83952:	2801      	cmp	r0, #1
   83954:	d1e0      	bne.n	83918 <prvTimerTask+0xc0>
   83956:	6a63      	ldr	r3, [r4, #36]	; 0x24
   83958:	4620      	mov	r0, r4
   8395a:	4798      	blx	r3
   8395c:	69e3      	ldr	r3, [r4, #28]
   8395e:	2b01      	cmp	r3, #1
   83960:	d1da      	bne.n	83918 <prvTimerTask+0xc0>
   83962:	69a2      	ldr	r2, [r4, #24]
   83964:	2100      	movs	r1, #0
   83966:	9100      	str	r1, [sp, #0]
   83968:	460b      	mov	r3, r1
   8396a:	9804      	ldr	r0, [sp, #16]
   8396c:	4402      	add	r2, r0
   8396e:	4620      	mov	r0, r4
   83970:	4c11      	ldr	r4, [pc, #68]	; (839b8 <prvTimerTask+0x160>)
   83972:	47a0      	blx	r4
   83974:	2800      	cmp	r0, #0
   83976:	d1cf      	bne.n	83918 <prvTimerTask+0xc0>
   83978:	4b10      	ldr	r3, [pc, #64]	; (839bc <prvTimerTask+0x164>)
   8397a:	4798      	blx	r3
   8397c:	bf00      	nop
   8397e:	e7fd      	b.n	8397c <prvTimerTask+0x124>
   83980:	4b06      	ldr	r3, [pc, #24]	; (8399c <prvTimerTask+0x144>)
   83982:	4798      	blx	r3
   83984:	a803      	add	r0, sp, #12
   83986:	4b06      	ldr	r3, [pc, #24]	; (839a0 <prvTimerTask+0x148>)
   83988:	4798      	blx	r3
   8398a:	4606      	mov	r6, r0
   8398c:	9b03      	ldr	r3, [sp, #12]
   8398e:	2b00      	cmp	r3, #0
   83990:	d0af      	beq.n	838f2 <prvTimerTask+0x9a>
   83992:	4b06      	ldr	r3, [pc, #24]	; (839ac <prvTimerTask+0x154>)
   83994:	4798      	blx	r3
   83996:	e782      	b.n	8389e <prvTimerTask+0x46>
   83998:	2007ad90 	.word	0x2007ad90
   8399c:	00082f0d 	.word	0x00082f0d
   839a0:	000837a9 	.word	0x000837a9
   839a4:	2007adc4 	.word	0x2007adc4
   839a8:	00082bf9 	.word	0x00082bf9
   839ac:	00083085 	.word	0x00083085
   839b0:	0008246d 	.word	0x0008246d
   839b4:	00083661 	.word	0x00083661
   839b8:	00083755 	.word	0x00083755
   839bc:	0008247d 	.word	0x0008247d
   839c0:	000826a9 	.word	0x000826a9
   839c4:	00082a91 	.word	0x00082a91
   839c8:	000823f7 	.word	0x000823f7

000839cc <sysclk_init>:
   839cc:	b510      	push	{r4, lr}
   839ce:	480e      	ldr	r0, [pc, #56]	; (83a08 <sysclk_init+0x3c>)
   839d0:	4b0e      	ldr	r3, [pc, #56]	; (83a0c <sysclk_init+0x40>)
   839d2:	4798      	blx	r3
   839d4:	213e      	movs	r1, #62	; 0x3e
   839d6:	2000      	movs	r0, #0
   839d8:	4b0d      	ldr	r3, [pc, #52]	; (83a10 <sysclk_init+0x44>)
   839da:	4798      	blx	r3
   839dc:	4c0d      	ldr	r4, [pc, #52]	; (83a14 <sysclk_init+0x48>)
   839de:	47a0      	blx	r4
   839e0:	2800      	cmp	r0, #0
   839e2:	d0fc      	beq.n	839de <sysclk_init+0x12>
   839e4:	4b0c      	ldr	r3, [pc, #48]	; (83a18 <sysclk_init+0x4c>)
   839e6:	4798      	blx	r3
   839e8:	4a0c      	ldr	r2, [pc, #48]	; (83a1c <sysclk_init+0x50>)
   839ea:	4b0d      	ldr	r3, [pc, #52]	; (83a20 <sysclk_init+0x54>)
   839ec:	629a      	str	r2, [r3, #40]	; 0x28
   839ee:	4c0d      	ldr	r4, [pc, #52]	; (83a24 <sysclk_init+0x58>)
   839f0:	47a0      	blx	r4
   839f2:	2800      	cmp	r0, #0
   839f4:	d0fc      	beq.n	839f0 <sysclk_init+0x24>
   839f6:	2010      	movs	r0, #16
   839f8:	4b0b      	ldr	r3, [pc, #44]	; (83a28 <sysclk_init+0x5c>)
   839fa:	4798      	blx	r3
   839fc:	4b0b      	ldr	r3, [pc, #44]	; (83a2c <sysclk_init+0x60>)
   839fe:	4798      	blx	r3
   83a00:	4801      	ldr	r0, [pc, #4]	; (83a08 <sysclk_init+0x3c>)
   83a02:	4b02      	ldr	r3, [pc, #8]	; (83a0c <sysclk_init+0x40>)
   83a04:	4798      	blx	r3
   83a06:	bd10      	pop	{r4, pc}
   83a08:	0501bd00 	.word	0x0501bd00
   83a0c:	200700b1 	.word	0x200700b1
   83a10:	00083e81 	.word	0x00083e81
   83a14:	00083ed5 	.word	0x00083ed5
   83a18:	00083ee5 	.word	0x00083ee5
   83a1c:	200d3f01 	.word	0x200d3f01
   83a20:	400e0600 	.word	0x400e0600
   83a24:	00083ef5 	.word	0x00083ef5
   83a28:	00083e1d 	.word	0x00083e1d
   83a2c:	00083ff5 	.word	0x00083ff5

00083a30 <board_init>:
   83a30:	b510      	push	{r4, lr}
   83a32:	f44f 4200 	mov.w	r2, #32768	; 0x8000
   83a36:	4b1e      	ldr	r3, [pc, #120]	; (83ab0 <board_init+0x80>)
   83a38:	605a      	str	r2, [r3, #4]
   83a3a:	200b      	movs	r0, #11
   83a3c:	4c1d      	ldr	r4, [pc, #116]	; (83ab4 <board_init+0x84>)
   83a3e:	47a0      	blx	r4
   83a40:	200c      	movs	r0, #12
   83a42:	47a0      	blx	r4
   83a44:	200d      	movs	r0, #13
   83a46:	47a0      	blx	r4
   83a48:	200e      	movs	r0, #14
   83a4a:	47a0      	blx	r4
   83a4c:	f04f 5160 	mov.w	r1, #939524096	; 0x38000000
   83a50:	203b      	movs	r0, #59	; 0x3b
   83a52:	4c19      	ldr	r4, [pc, #100]	; (83ab8 <board_init+0x88>)
   83a54:	47a0      	blx	r4
   83a56:	f04f 5160 	mov.w	r1, #939524096	; 0x38000000
   83a5a:	2055      	movs	r0, #85	; 0x55
   83a5c:	47a0      	blx	r4
   83a5e:	f04f 5160 	mov.w	r1, #939524096	; 0x38000000
   83a62:	2056      	movs	r0, #86	; 0x56
   83a64:	47a0      	blx	r4
   83a66:	4915      	ldr	r1, [pc, #84]	; (83abc <board_init+0x8c>)
   83a68:	2068      	movs	r0, #104	; 0x68
   83a6a:	47a0      	blx	r4
   83a6c:	4914      	ldr	r1, [pc, #80]	; (83ac0 <board_init+0x90>)
   83a6e:	205c      	movs	r0, #92	; 0x5c
   83a70:	47a0      	blx	r4
   83a72:	4a14      	ldr	r2, [pc, #80]	; (83ac4 <board_init+0x94>)
   83a74:	f44f 7140 	mov.w	r1, #768	; 0x300
   83a78:	4813      	ldr	r0, [pc, #76]	; (83ac8 <board_init+0x98>)
   83a7a:	4b14      	ldr	r3, [pc, #80]	; (83acc <board_init+0x9c>)
   83a7c:	4798      	blx	r3
   83a7e:	f04f 6100 	mov.w	r1, #134217728	; 0x8000000
   83a82:	2011      	movs	r0, #17
   83a84:	47a0      	blx	r4
   83a86:	f04f 6100 	mov.w	r1, #134217728	; 0x8000000
   83a8a:	2012      	movs	r0, #18
   83a8c:	47a0      	blx	r4
   83a8e:	f04f 6100 	mov.w	r1, #134217728	; 0x8000000
   83a92:	202c      	movs	r0, #44	; 0x2c
   83a94:	47a0      	blx	r4
   83a96:	f04f 6100 	mov.w	r1, #134217728	; 0x8000000
   83a9a:	202d      	movs	r0, #45	; 0x2d
   83a9c:	47a0      	blx	r4
   83a9e:	f04f 6100 	mov.w	r1, #134217728	; 0x8000000
   83aa2:	202b      	movs	r0, #43	; 0x2b
   83aa4:	47a0      	blx	r4
   83aa6:	f04f 6100 	mov.w	r1, #134217728	; 0x8000000
   83aaa:	202a      	movs	r0, #42	; 0x2a
   83aac:	47a0      	blx	r4
   83aae:	bd10      	pop	{r4, pc}
   83ab0:	400e1a50 	.word	0x400e1a50
   83ab4:	00083f05 	.word	0x00083f05
   83ab8:	00083ba1 	.word	0x00083ba1
   83abc:	28000079 	.word	0x28000079
   83ac0:	28000001 	.word	0x28000001
   83ac4:	08000001 	.word	0x08000001
   83ac8:	400e0e00 	.word	0x400e0e00
   83acc:	00083c71 	.word	0x00083c71

00083ad0 <pio_set_peripheral>:
   83ad0:	6442      	str	r2, [r0, #68]	; 0x44
   83ad2:	f1b1 5f80 	cmp.w	r1, #268435456	; 0x10000000
   83ad6:	d016      	beq.n	83b06 <pio_set_peripheral+0x36>
   83ad8:	d80b      	bhi.n	83af2 <pio_set_peripheral+0x22>
   83ada:	b149      	cbz	r1, 83af0 <pio_set_peripheral+0x20>
   83adc:	f1b1 6f00 	cmp.w	r1, #134217728	; 0x8000000
   83ae0:	d105      	bne.n	83aee <pio_set_peripheral+0x1e>
   83ae2:	6f03      	ldr	r3, [r0, #112]	; 0x70
   83ae4:	6f01      	ldr	r1, [r0, #112]	; 0x70
   83ae6:	400b      	ands	r3, r1
   83ae8:	ea23 0302 	bic.w	r3, r3, r2
   83aec:	6703      	str	r3, [r0, #112]	; 0x70
   83aee:	6042      	str	r2, [r0, #4]
   83af0:	4770      	bx	lr
   83af2:	f1b1 5f40 	cmp.w	r1, #805306368	; 0x30000000
   83af6:	d0fb      	beq.n	83af0 <pio_set_peripheral+0x20>
   83af8:	f1b1 5f60 	cmp.w	r1, #939524096	; 0x38000000
   83afc:	d0f8      	beq.n	83af0 <pio_set_peripheral+0x20>
   83afe:	f1b1 5f20 	cmp.w	r1, #671088640	; 0x28000000
   83b02:	d1f4      	bne.n	83aee <pio_set_peripheral+0x1e>
   83b04:	4770      	bx	lr
   83b06:	6f03      	ldr	r3, [r0, #112]	; 0x70
   83b08:	4313      	orrs	r3, r2
   83b0a:	6703      	str	r3, [r0, #112]	; 0x70
   83b0c:	e7ef      	b.n	83aee <pio_set_peripheral+0x1e>

00083b0e <pio_set_input>:
   83b0e:	6441      	str	r1, [r0, #68]	; 0x44
   83b10:	f012 0f01 	tst.w	r2, #1
   83b14:	bf14      	ite	ne
   83b16:	6641      	strne	r1, [r0, #100]	; 0x64
   83b18:	6601      	streq	r1, [r0, #96]	; 0x60
   83b1a:	f012 0f0a 	tst.w	r2, #10
   83b1e:	bf14      	ite	ne
   83b20:	6201      	strne	r1, [r0, #32]
   83b22:	6241      	streq	r1, [r0, #36]	; 0x24
   83b24:	f012 0f02 	tst.w	r2, #2
   83b28:	d107      	bne.n	83b3a <pio_set_input+0x2c>
   83b2a:	f012 0f08 	tst.w	r2, #8
   83b2e:	bf18      	it	ne
   83b30:	f8c0 1084 	strne.w	r1, [r0, #132]	; 0x84
   83b34:	6141      	str	r1, [r0, #20]
   83b36:	6001      	str	r1, [r0, #0]
   83b38:	4770      	bx	lr
   83b3a:	f8c0 1080 	str.w	r1, [r0, #128]	; 0x80
   83b3e:	e7f9      	b.n	83b34 <pio_set_input+0x26>

00083b40 <pio_set_output>:
   83b40:	b410      	push	{r4}
   83b42:	9c01      	ldr	r4, [sp, #4]
   83b44:	6441      	str	r1, [r0, #68]	; 0x44
   83b46:	b944      	cbnz	r4, 83b5a <pio_set_output+0x1a>
   83b48:	6601      	str	r1, [r0, #96]	; 0x60
   83b4a:	b143      	cbz	r3, 83b5e <pio_set_output+0x1e>
   83b4c:	6501      	str	r1, [r0, #80]	; 0x50
   83b4e:	b942      	cbnz	r2, 83b62 <pio_set_output+0x22>
   83b50:	6341      	str	r1, [r0, #52]	; 0x34
   83b52:	6101      	str	r1, [r0, #16]
   83b54:	6001      	str	r1, [r0, #0]
   83b56:	bc10      	pop	{r4}
   83b58:	4770      	bx	lr
   83b5a:	6641      	str	r1, [r0, #100]	; 0x64
   83b5c:	e7f5      	b.n	83b4a <pio_set_output+0xa>
   83b5e:	6541      	str	r1, [r0, #84]	; 0x54
   83b60:	e7f5      	b.n	83b4e <pio_set_output+0xe>
   83b62:	6301      	str	r1, [r0, #48]	; 0x30
   83b64:	e7f5      	b.n	83b52 <pio_set_output+0x12>

00083b66 <pio_configure_interrupt>:
   83b66:	f012 0f10 	tst.w	r2, #16
   83b6a:	d010      	beq.n	83b8e <pio_configure_interrupt+0x28>
   83b6c:	f8c0 10b0 	str.w	r1, [r0, #176]	; 0xb0
   83b70:	f012 0f20 	tst.w	r2, #32
   83b74:	bf14      	ite	ne
   83b76:	f8c0 10d4 	strne.w	r1, [r0, #212]	; 0xd4
   83b7a:	f8c0 10d0 	streq.w	r1, [r0, #208]	; 0xd0
   83b7e:	f012 0f40 	tst.w	r2, #64	; 0x40
   83b82:	bf14      	ite	ne
   83b84:	f8c0 10c0 	strne.w	r1, [r0, #192]	; 0xc0
   83b88:	f8c0 10c4 	streq.w	r1, [r0, #196]	; 0xc4
   83b8c:	4770      	bx	lr
   83b8e:	f8c0 10b4 	str.w	r1, [r0, #180]	; 0xb4
   83b92:	4770      	bx	lr

00083b94 <pio_enable_interrupt>:
   83b94:	6401      	str	r1, [r0, #64]	; 0x40
   83b96:	4770      	bx	lr

00083b98 <pio_get_interrupt_status>:
   83b98:	6cc0      	ldr	r0, [r0, #76]	; 0x4c
   83b9a:	4770      	bx	lr

00083b9c <pio_get_interrupt_mask>:
   83b9c:	6c80      	ldr	r0, [r0, #72]	; 0x48
   83b9e:	4770      	bx	lr

00083ba0 <pio_configure_pin>:
   83ba0:	b570      	push	{r4, r5, r6, lr}
   83ba2:	b082      	sub	sp, #8
   83ba4:	460d      	mov	r5, r1
   83ba6:	0943      	lsrs	r3, r0, #5
   83ba8:	f503 1300 	add.w	r3, r3, #2097152	; 0x200000
   83bac:	f203 7307 	addw	r3, r3, #1799	; 0x707
   83bb0:	025c      	lsls	r4, r3, #9
   83bb2:	f001 43f0 	and.w	r3, r1, #2013265920	; 0x78000000
   83bb6:	f1b3 5f20 	cmp.w	r3, #671088640	; 0x28000000
   83bba:	d031      	beq.n	83c20 <pio_configure_pin+0x80>
   83bbc:	d816      	bhi.n	83bec <pio_configure_pin+0x4c>
   83bbe:	f1b3 6f00 	cmp.w	r3, #134217728	; 0x8000000
   83bc2:	d01b      	beq.n	83bfc <pio_configure_pin+0x5c>
   83bc4:	f1b3 5f80 	cmp.w	r3, #268435456	; 0x10000000
   83bc8:	d116      	bne.n	83bf8 <pio_configure_pin+0x58>
   83bca:	f000 001f 	and.w	r0, r0, #31
   83bce:	2601      	movs	r6, #1
   83bd0:	4086      	lsls	r6, r0
   83bd2:	4632      	mov	r2, r6
   83bd4:	f04f 5180 	mov.w	r1, #268435456	; 0x10000000
   83bd8:	4620      	mov	r0, r4
   83bda:	4b22      	ldr	r3, [pc, #136]	; (83c64 <pio_configure_pin+0xc4>)
   83bdc:	4798      	blx	r3
   83bde:	f015 0f01 	tst.w	r5, #1
   83be2:	bf14      	ite	ne
   83be4:	6666      	strne	r6, [r4, #100]	; 0x64
   83be6:	6626      	streq	r6, [r4, #96]	; 0x60
   83be8:	2001      	movs	r0, #1
   83bea:	e017      	b.n	83c1c <pio_configure_pin+0x7c>
   83bec:	f1b3 5f40 	cmp.w	r3, #805306368	; 0x30000000
   83bf0:	d021      	beq.n	83c36 <pio_configure_pin+0x96>
   83bf2:	f1b3 5f60 	cmp.w	r3, #939524096	; 0x38000000
   83bf6:	d01e      	beq.n	83c36 <pio_configure_pin+0x96>
   83bf8:	2000      	movs	r0, #0
   83bfa:	e00f      	b.n	83c1c <pio_configure_pin+0x7c>
   83bfc:	f000 001f 	and.w	r0, r0, #31
   83c00:	2601      	movs	r6, #1
   83c02:	4086      	lsls	r6, r0
   83c04:	4632      	mov	r2, r6
   83c06:	f04f 6100 	mov.w	r1, #134217728	; 0x8000000
   83c0a:	4620      	mov	r0, r4
   83c0c:	4b15      	ldr	r3, [pc, #84]	; (83c64 <pio_configure_pin+0xc4>)
   83c0e:	4798      	blx	r3
   83c10:	f015 0f01 	tst.w	r5, #1
   83c14:	bf14      	ite	ne
   83c16:	6666      	strne	r6, [r4, #100]	; 0x64
   83c18:	6626      	streq	r6, [r4, #96]	; 0x60
   83c1a:	2001      	movs	r0, #1
   83c1c:	b002      	add	sp, #8
   83c1e:	bd70      	pop	{r4, r5, r6, pc}
   83c20:	f000 011f 	and.w	r1, r0, #31
   83c24:	2601      	movs	r6, #1
   83c26:	462a      	mov	r2, r5
   83c28:	fa06 f101 	lsl.w	r1, r6, r1
   83c2c:	4620      	mov	r0, r4
   83c2e:	4b0e      	ldr	r3, [pc, #56]	; (83c68 <pio_configure_pin+0xc8>)
   83c30:	4798      	blx	r3
   83c32:	4630      	mov	r0, r6
   83c34:	e7f2      	b.n	83c1c <pio_configure_pin+0x7c>
   83c36:	f005 5260 	and.w	r2, r5, #939524096	; 0x38000000
   83c3a:	f000 011f 	and.w	r1, r0, #31
   83c3e:	2601      	movs	r6, #1
   83c40:	ea05 0306 	and.w	r3, r5, r6
   83c44:	9300      	str	r3, [sp, #0]
   83c46:	f3c5 0380 	ubfx	r3, r5, #2, #1
   83c4a:	f1b2 5f60 	cmp.w	r2, #939524096	; 0x38000000
   83c4e:	bf14      	ite	ne
   83c50:	2200      	movne	r2, #0
   83c52:	2201      	moveq	r2, #1
   83c54:	fa06 f101 	lsl.w	r1, r6, r1
   83c58:	4620      	mov	r0, r4
   83c5a:	4c04      	ldr	r4, [pc, #16]	; (83c6c <pio_configure_pin+0xcc>)
   83c5c:	47a0      	blx	r4
   83c5e:	4630      	mov	r0, r6
   83c60:	e7dc      	b.n	83c1c <pio_configure_pin+0x7c>
   83c62:	bf00      	nop
   83c64:	00083ad1 	.word	0x00083ad1
   83c68:	00083b0f 	.word	0x00083b0f
   83c6c:	00083b41 	.word	0x00083b41

00083c70 <pio_configure_pin_group>:
   83c70:	b570      	push	{r4, r5, r6, lr}
   83c72:	b082      	sub	sp, #8
   83c74:	4605      	mov	r5, r0
   83c76:	460e      	mov	r6, r1
   83c78:	4614      	mov	r4, r2
   83c7a:	f002 43f0 	and.w	r3, r2, #2013265920	; 0x78000000
   83c7e:	f1b3 5f20 	cmp.w	r3, #671088640	; 0x28000000
   83c82:	d027      	beq.n	83cd4 <pio_configure_pin_group+0x64>
   83c84:	d811      	bhi.n	83caa <pio_configure_pin_group+0x3a>
   83c86:	f1b3 6f00 	cmp.w	r3, #134217728	; 0x8000000
   83c8a:	d016      	beq.n	83cba <pio_configure_pin_group+0x4a>
   83c8c:	f1b3 5f80 	cmp.w	r3, #268435456	; 0x10000000
   83c90:	d111      	bne.n	83cb6 <pio_configure_pin_group+0x46>
   83c92:	460a      	mov	r2, r1
   83c94:	f04f 5180 	mov.w	r1, #268435456	; 0x10000000
   83c98:	4b19      	ldr	r3, [pc, #100]	; (83d00 <pio_configure_pin_group+0x90>)
   83c9a:	4798      	blx	r3
   83c9c:	f014 0f01 	tst.w	r4, #1
   83ca0:	bf14      	ite	ne
   83ca2:	666e      	strne	r6, [r5, #100]	; 0x64
   83ca4:	662e      	streq	r6, [r5, #96]	; 0x60
   83ca6:	2001      	movs	r0, #1
   83ca8:	e012      	b.n	83cd0 <pio_configure_pin_group+0x60>
   83caa:	f1b3 5f40 	cmp.w	r3, #805306368	; 0x30000000
   83cae:	d015      	beq.n	83cdc <pio_configure_pin_group+0x6c>
   83cb0:	f1b3 5f60 	cmp.w	r3, #939524096	; 0x38000000
   83cb4:	d012      	beq.n	83cdc <pio_configure_pin_group+0x6c>
   83cb6:	2000      	movs	r0, #0
   83cb8:	e00a      	b.n	83cd0 <pio_configure_pin_group+0x60>
   83cba:	460a      	mov	r2, r1
   83cbc:	f04f 6100 	mov.w	r1, #134217728	; 0x8000000
   83cc0:	4b0f      	ldr	r3, [pc, #60]	; (83d00 <pio_configure_pin_group+0x90>)
   83cc2:	4798      	blx	r3
   83cc4:	f014 0f01 	tst.w	r4, #1
   83cc8:	bf14      	ite	ne
   83cca:	666e      	strne	r6, [r5, #100]	; 0x64
   83ccc:	662e      	streq	r6, [r5, #96]	; 0x60
   83cce:	2001      	movs	r0, #1
   83cd0:	b002      	add	sp, #8
   83cd2:	bd70      	pop	{r4, r5, r6, pc}
   83cd4:	4b0b      	ldr	r3, [pc, #44]	; (83d04 <pio_configure_pin_group+0x94>)
   83cd6:	4798      	blx	r3
   83cd8:	2001      	movs	r0, #1
   83cda:	e7f9      	b.n	83cd0 <pio_configure_pin_group+0x60>
   83cdc:	f004 5260 	and.w	r2, r4, #939524096	; 0x38000000
   83ce0:	f004 0301 	and.w	r3, r4, #1
   83ce4:	9300      	str	r3, [sp, #0]
   83ce6:	f3c4 0380 	ubfx	r3, r4, #2, #1
   83cea:	f1b2 5f60 	cmp.w	r2, #939524096	; 0x38000000
   83cee:	bf14      	ite	ne
   83cf0:	2200      	movne	r2, #0
   83cf2:	2201      	moveq	r2, #1
   83cf4:	4631      	mov	r1, r6
   83cf6:	4628      	mov	r0, r5
   83cf8:	4c03      	ldr	r4, [pc, #12]	; (83d08 <pio_configure_pin_group+0x98>)
   83cfa:	47a0      	blx	r4
   83cfc:	2001      	movs	r0, #1
   83cfe:	e7e7      	b.n	83cd0 <pio_configure_pin_group+0x60>
   83d00:	00083ad1 	.word	0x00083ad1
   83d04:	00083b0f 	.word	0x00083b0f
   83d08:	00083b41 	.word	0x00083b41

00083d0c <pio_handler_process>:
   83d0c:	e92d 41f0 	stmdb	sp!, {r4, r5, r6, r7, r8, lr}
   83d10:	4604      	mov	r4, r0
   83d12:	4688      	mov	r8, r1
   83d14:	4b0e      	ldr	r3, [pc, #56]	; (83d50 <pio_handler_process+0x44>)
   83d16:	4798      	blx	r3
   83d18:	4605      	mov	r5, r0
   83d1a:	4620      	mov	r0, r4
   83d1c:	4b0d      	ldr	r3, [pc, #52]	; (83d54 <pio_handler_process+0x48>)
   83d1e:	4798      	blx	r3
   83d20:	4005      	ands	r5, r0
   83d22:	d013      	beq.n	83d4c <pio_handler_process+0x40>
   83d24:	4c0c      	ldr	r4, [pc, #48]	; (83d58 <pio_handler_process+0x4c>)
   83d26:	f104 0660 	add.w	r6, r4, #96	; 0x60
   83d2a:	e003      	b.n	83d34 <pio_handler_process+0x28>
   83d2c:	42b4      	cmp	r4, r6
   83d2e:	d00d      	beq.n	83d4c <pio_handler_process+0x40>
   83d30:	3410      	adds	r4, #16
   83d32:	b15d      	cbz	r5, 83d4c <pio_handler_process+0x40>
   83d34:	6820      	ldr	r0, [r4, #0]
   83d36:	4540      	cmp	r0, r8
   83d38:	d1f8      	bne.n	83d2c <pio_handler_process+0x20>
   83d3a:	6861      	ldr	r1, [r4, #4]
   83d3c:	4229      	tst	r1, r5
   83d3e:	d0f5      	beq.n	83d2c <pio_handler_process+0x20>
   83d40:	68e3      	ldr	r3, [r4, #12]
   83d42:	4798      	blx	r3
   83d44:	6863      	ldr	r3, [r4, #4]
   83d46:	ea25 0503 	bic.w	r5, r5, r3
   83d4a:	e7ef      	b.n	83d2c <pio_handler_process+0x20>
   83d4c:	e8bd 81f0 	ldmia.w	sp!, {r4, r5, r6, r7, r8, pc}
   83d50:	00083b99 	.word	0x00083b99
   83d54:	00083b9d 	.word	0x00083b9d
   83d58:	2007adc8 	.word	0x2007adc8

00083d5c <pio_handler_set>:
   83d5c:	b5f8      	push	{r3, r4, r5, r6, r7, lr}
   83d5e:	4c18      	ldr	r4, [pc, #96]	; (83dc0 <pio_handler_set+0x64>)
   83d60:	6826      	ldr	r6, [r4, #0]
   83d62:	2e06      	cmp	r6, #6
   83d64:	d829      	bhi.n	83dba <pio_handler_set+0x5e>
   83d66:	f04f 0c00 	mov.w	ip, #0
   83d6a:	4664      	mov	r4, ip
   83d6c:	4f15      	ldr	r7, [pc, #84]	; (83dc4 <pio_handler_set+0x68>)
   83d6e:	e004      	b.n	83d7a <pio_handler_set+0x1e>
   83d70:	3401      	adds	r4, #1
   83d72:	b2e4      	uxtb	r4, r4
   83d74:	46a4      	mov	ip, r4
   83d76:	42a6      	cmp	r6, r4
   83d78:	d309      	bcc.n	83d8e <pio_handler_set+0x32>
   83d7a:	46a6      	mov	lr, r4
   83d7c:	0125      	lsls	r5, r4, #4
   83d7e:	597d      	ldr	r5, [r7, r5]
   83d80:	428d      	cmp	r5, r1
   83d82:	d1f5      	bne.n	83d70 <pio_handler_set+0x14>
   83d84:	eb07 1504 	add.w	r5, r7, r4, lsl #4
   83d88:	686d      	ldr	r5, [r5, #4]
   83d8a:	4295      	cmp	r5, r2
   83d8c:	d1f0      	bne.n	83d70 <pio_handler_set+0x14>
   83d8e:	4d0d      	ldr	r5, [pc, #52]	; (83dc4 <pio_handler_set+0x68>)
   83d90:	ea4f 1e0e 	mov.w	lr, lr, lsl #4
   83d94:	eb05 040e 	add.w	r4, r5, lr
   83d98:	f845 100e 	str.w	r1, [r5, lr]
   83d9c:	6062      	str	r2, [r4, #4]
   83d9e:	60a3      	str	r3, [r4, #8]
   83da0:	9906      	ldr	r1, [sp, #24]
   83da2:	60e1      	str	r1, [r4, #12]
   83da4:	3601      	adds	r6, #1
   83da6:	4566      	cmp	r6, ip
   83da8:	bf04      	itt	eq
   83daa:	4905      	ldreq	r1, [pc, #20]	; (83dc0 <pio_handler_set+0x64>)
   83dac:	600e      	streq	r6, [r1, #0]
   83dae:	4611      	mov	r1, r2
   83db0:	461a      	mov	r2, r3
   83db2:	4b05      	ldr	r3, [pc, #20]	; (83dc8 <pio_handler_set+0x6c>)
   83db4:	4798      	blx	r3
   83db6:	2000      	movs	r0, #0
   83db8:	bdf8      	pop	{r3, r4, r5, r6, r7, pc}
   83dba:	2001      	movs	r0, #1
   83dbc:	bdf8      	pop	{r3, r4, r5, r6, r7, pc}
   83dbe:	bf00      	nop
   83dc0:	2007ae38 	.word	0x2007ae38
   83dc4:	2007adc8 	.word	0x2007adc8
   83dc8:	00083b67 	.word	0x00083b67

00083dcc <PIOA_Handler>:
   83dcc:	b508      	push	{r3, lr}
   83dce:	210b      	movs	r1, #11
   83dd0:	4801      	ldr	r0, [pc, #4]	; (83dd8 <PIOA_Handler+0xc>)
   83dd2:	4b02      	ldr	r3, [pc, #8]	; (83ddc <PIOA_Handler+0x10>)
   83dd4:	4798      	blx	r3
   83dd6:	bd08      	pop	{r3, pc}
   83dd8:	400e0e00 	.word	0x400e0e00
   83ddc:	00083d0d 	.word	0x00083d0d

00083de0 <PIOB_Handler>:
   83de0:	b508      	push	{r3, lr}
   83de2:	210c      	movs	r1, #12
   83de4:	4801      	ldr	r0, [pc, #4]	; (83dec <PIOB_Handler+0xc>)
   83de6:	4b02      	ldr	r3, [pc, #8]	; (83df0 <PIOB_Handler+0x10>)
   83de8:	4798      	blx	r3
   83dea:	bd08      	pop	{r3, pc}
   83dec:	400e1000 	.word	0x400e1000
   83df0:	00083d0d 	.word	0x00083d0d

00083df4 <PIOC_Handler>:
   83df4:	b508      	push	{r3, lr}
   83df6:	210d      	movs	r1, #13
   83df8:	4801      	ldr	r0, [pc, #4]	; (83e00 <PIOC_Handler+0xc>)
   83dfa:	4b02      	ldr	r3, [pc, #8]	; (83e04 <PIOC_Handler+0x10>)
   83dfc:	4798      	blx	r3
   83dfe:	bd08      	pop	{r3, pc}
   83e00:	400e1200 	.word	0x400e1200
   83e04:	00083d0d 	.word	0x00083d0d

00083e08 <PIOD_Handler>:
   83e08:	b508      	push	{r3, lr}
   83e0a:	210e      	movs	r1, #14
   83e0c:	4801      	ldr	r0, [pc, #4]	; (83e14 <PIOD_Handler+0xc>)
   83e0e:	4b02      	ldr	r3, [pc, #8]	; (83e18 <PIOD_Handler+0x10>)
   83e10:	4798      	blx	r3
   83e12:	bd08      	pop	{r3, pc}
   83e14:	400e1400 	.word	0x400e1400
   83e18:	00083d0d 	.word	0x00083d0d

00083e1c <pmc_switch_mck_to_pllack>:
   83e1c:	4a17      	ldr	r2, [pc, #92]	; (83e7c <pmc_switch_mck_to_pllack+0x60>)
   83e1e:	6b13      	ldr	r3, [r2, #48]	; 0x30
   83e20:	f023 0370 	bic.w	r3, r3, #112	; 0x70
   83e24:	4318      	orrs	r0, r3
   83e26:	6310      	str	r0, [r2, #48]	; 0x30
   83e28:	6e93      	ldr	r3, [r2, #104]	; 0x68
   83e2a:	f013 0f08 	tst.w	r3, #8
   83e2e:	d10a      	bne.n	83e46 <pmc_switch_mck_to_pllack+0x2a>
   83e30:	f44f 6300 	mov.w	r3, #2048	; 0x800
   83e34:	4911      	ldr	r1, [pc, #68]	; (83e7c <pmc_switch_mck_to_pllack+0x60>)
   83e36:	6e8a      	ldr	r2, [r1, #104]	; 0x68
   83e38:	f012 0f08 	tst.w	r2, #8
   83e3c:	d103      	bne.n	83e46 <pmc_switch_mck_to_pllack+0x2a>
   83e3e:	3b01      	subs	r3, #1
   83e40:	d1f9      	bne.n	83e36 <pmc_switch_mck_to_pllack+0x1a>
   83e42:	2001      	movs	r0, #1
   83e44:	4770      	bx	lr
   83e46:	4a0d      	ldr	r2, [pc, #52]	; (83e7c <pmc_switch_mck_to_pllack+0x60>)
   83e48:	6b13      	ldr	r3, [r2, #48]	; 0x30
   83e4a:	f023 0303 	bic.w	r3, r3, #3
   83e4e:	f043 0302 	orr.w	r3, r3, #2
   83e52:	6313      	str	r3, [r2, #48]	; 0x30
   83e54:	6e93      	ldr	r3, [r2, #104]	; 0x68
   83e56:	f013 0f08 	tst.w	r3, #8
   83e5a:	d10a      	bne.n	83e72 <pmc_switch_mck_to_pllack+0x56>
   83e5c:	f44f 6300 	mov.w	r3, #2048	; 0x800
   83e60:	4906      	ldr	r1, [pc, #24]	; (83e7c <pmc_switch_mck_to_pllack+0x60>)
   83e62:	6e8a      	ldr	r2, [r1, #104]	; 0x68
   83e64:	f012 0f08 	tst.w	r2, #8
   83e68:	d105      	bne.n	83e76 <pmc_switch_mck_to_pllack+0x5a>
   83e6a:	3b01      	subs	r3, #1
   83e6c:	d1f9      	bne.n	83e62 <pmc_switch_mck_to_pllack+0x46>
   83e6e:	2001      	movs	r0, #1
   83e70:	4770      	bx	lr
   83e72:	2000      	movs	r0, #0
   83e74:	4770      	bx	lr
   83e76:	2000      	movs	r0, #0
   83e78:	4770      	bx	lr
   83e7a:	bf00      	nop
   83e7c:	400e0600 	.word	0x400e0600

00083e80 <pmc_switch_mainck_to_xtal>:
   83e80:	b9c8      	cbnz	r0, 83eb6 <pmc_switch_mainck_to_xtal+0x36>
   83e82:	4a11      	ldr	r2, [pc, #68]	; (83ec8 <pmc_switch_mainck_to_xtal+0x48>)
   83e84:	6a13      	ldr	r3, [r2, #32]
   83e86:	0209      	lsls	r1, r1, #8
   83e88:	b289      	uxth	r1, r1
   83e8a:	f423 135c 	bic.w	r3, r3, #3604480	; 0x370000
   83e8e:	f023 0303 	bic.w	r3, r3, #3
   83e92:	f443 135c 	orr.w	r3, r3, #3604480	; 0x370000
   83e96:	f043 0301 	orr.w	r3, r3, #1
   83e9a:	430b      	orrs	r3, r1
   83e9c:	6213      	str	r3, [r2, #32]
   83e9e:	6e93      	ldr	r3, [r2, #104]	; 0x68
   83ea0:	f013 0f01 	tst.w	r3, #1
   83ea4:	d0fb      	beq.n	83e9e <pmc_switch_mainck_to_xtal+0x1e>
   83ea6:	4a08      	ldr	r2, [pc, #32]	; (83ec8 <pmc_switch_mainck_to_xtal+0x48>)
   83ea8:	6a13      	ldr	r3, [r2, #32]
   83eaa:	f043 739b 	orr.w	r3, r3, #20316160	; 0x1360000
   83eae:	f443 3380 	orr.w	r3, r3, #65536	; 0x10000
   83eb2:	6213      	str	r3, [r2, #32]
   83eb4:	4770      	bx	lr
   83eb6:	4904      	ldr	r1, [pc, #16]	; (83ec8 <pmc_switch_mainck_to_xtal+0x48>)
   83eb8:	6a0b      	ldr	r3, [r1, #32]
   83eba:	4a04      	ldr	r2, [pc, #16]	; (83ecc <pmc_switch_mainck_to_xtal+0x4c>)
   83ebc:	401a      	ands	r2, r3
   83ebe:	4b04      	ldr	r3, [pc, #16]	; (83ed0 <pmc_switch_mainck_to_xtal+0x50>)
   83ec0:	4313      	orrs	r3, r2
   83ec2:	620b      	str	r3, [r1, #32]
   83ec4:	4770      	bx	lr
   83ec6:	bf00      	nop
   83ec8:	400e0600 	.word	0x400e0600
   83ecc:	fec8fffc 	.word	0xfec8fffc
   83ed0:	01370002 	.word	0x01370002

00083ed4 <pmc_osc_is_ready_mainck>:
   83ed4:	4b02      	ldr	r3, [pc, #8]	; (83ee0 <pmc_osc_is_ready_mainck+0xc>)
   83ed6:	6e98      	ldr	r0, [r3, #104]	; 0x68
   83ed8:	f400 3080 	and.w	r0, r0, #65536	; 0x10000
   83edc:	4770      	bx	lr
   83ede:	bf00      	nop
   83ee0:	400e0600 	.word	0x400e0600

00083ee4 <pmc_disable_pllack>:
   83ee4:	f04f 5200 	mov.w	r2, #536870912	; 0x20000000
   83ee8:	4b01      	ldr	r3, [pc, #4]	; (83ef0 <pmc_disable_pllack+0xc>)
   83eea:	629a      	str	r2, [r3, #40]	; 0x28
   83eec:	4770      	bx	lr
   83eee:	bf00      	nop
   83ef0:	400e0600 	.word	0x400e0600

00083ef4 <pmc_is_locked_pllack>:
   83ef4:	4b02      	ldr	r3, [pc, #8]	; (83f00 <pmc_is_locked_pllack+0xc>)
   83ef6:	6e98      	ldr	r0, [r3, #104]	; 0x68
   83ef8:	f000 0002 	and.w	r0, r0, #2
   83efc:	4770      	bx	lr
   83efe:	bf00      	nop
   83f00:	400e0600 	.word	0x400e0600

00083f04 <pmc_enable_periph_clk>:
   83f04:	282c      	cmp	r0, #44	; 0x2c
   83f06:	d81e      	bhi.n	83f46 <pmc_enable_periph_clk+0x42>
   83f08:	281f      	cmp	r0, #31
   83f0a:	d80c      	bhi.n	83f26 <pmc_enable_periph_clk+0x22>
   83f0c:	4b11      	ldr	r3, [pc, #68]	; (83f54 <pmc_enable_periph_clk+0x50>)
   83f0e:	699a      	ldr	r2, [r3, #24]
   83f10:	2301      	movs	r3, #1
   83f12:	4083      	lsls	r3, r0
   83f14:	4393      	bics	r3, r2
   83f16:	d018      	beq.n	83f4a <pmc_enable_periph_clk+0x46>
   83f18:	2301      	movs	r3, #1
   83f1a:	fa03 f000 	lsl.w	r0, r3, r0
   83f1e:	4b0d      	ldr	r3, [pc, #52]	; (83f54 <pmc_enable_periph_clk+0x50>)
   83f20:	6118      	str	r0, [r3, #16]
   83f22:	2000      	movs	r0, #0
   83f24:	4770      	bx	lr
   83f26:	3820      	subs	r0, #32
   83f28:	4b0a      	ldr	r3, [pc, #40]	; (83f54 <pmc_enable_periph_clk+0x50>)
   83f2a:	f8d3 2108 	ldr.w	r2, [r3, #264]	; 0x108
   83f2e:	2301      	movs	r3, #1
   83f30:	4083      	lsls	r3, r0
   83f32:	4393      	bics	r3, r2
   83f34:	d00b      	beq.n	83f4e <pmc_enable_periph_clk+0x4a>
   83f36:	2301      	movs	r3, #1
   83f38:	fa03 f000 	lsl.w	r0, r3, r0
   83f3c:	4b05      	ldr	r3, [pc, #20]	; (83f54 <pmc_enable_periph_clk+0x50>)
   83f3e:	f8c3 0100 	str.w	r0, [r3, #256]	; 0x100
   83f42:	2000      	movs	r0, #0
   83f44:	4770      	bx	lr
   83f46:	2001      	movs	r0, #1
   83f48:	4770      	bx	lr
   83f4a:	2000      	movs	r0, #0
   83f4c:	4770      	bx	lr
   83f4e:	2000      	movs	r0, #0
   83f50:	4770      	bx	lr
   83f52:	bf00      	nop
   83f54:	400e0600 	.word	0x400e0600

00083f58 <Dummy_Handler>:
   83f58:	e7fe      	b.n	83f58 <Dummy_Handler>
	...

00083f5c <Reset_Handler>:
   83f5c:	b508      	push	{r3, lr}
   83f5e:	4b1c      	ldr	r3, [pc, #112]	; (83fd0 <Reset_Handler+0x74>)
   83f60:	4a1c      	ldr	r2, [pc, #112]	; (83fd4 <Reset_Handler+0x78>)
   83f62:	429a      	cmp	r2, r3
   83f64:	d010      	beq.n	83f88 <Reset_Handler+0x2c>
   83f66:	4b1c      	ldr	r3, [pc, #112]	; (83fd8 <Reset_Handler+0x7c>)
   83f68:	4a19      	ldr	r2, [pc, #100]	; (83fd0 <Reset_Handler+0x74>)
   83f6a:	429a      	cmp	r2, r3
   83f6c:	d20c      	bcs.n	83f88 <Reset_Handler+0x2c>
   83f6e:	3b01      	subs	r3, #1
   83f70:	1a9b      	subs	r3, r3, r2
   83f72:	f023 0303 	bic.w	r3, r3, #3
   83f76:	3304      	adds	r3, #4
   83f78:	4413      	add	r3, r2
   83f7a:	4916      	ldr	r1, [pc, #88]	; (83fd4 <Reset_Handler+0x78>)
   83f7c:	f851 0b04 	ldr.w	r0, [r1], #4
   83f80:	f842 0b04 	str.w	r0, [r2], #4
   83f84:	429a      	cmp	r2, r3
   83f86:	d1f9      	bne.n	83f7c <Reset_Handler+0x20>
   83f88:	4b14      	ldr	r3, [pc, #80]	; (83fdc <Reset_Handler+0x80>)
   83f8a:	4a15      	ldr	r2, [pc, #84]	; (83fe0 <Reset_Handler+0x84>)
   83f8c:	429a      	cmp	r2, r3
   83f8e:	d20a      	bcs.n	83fa6 <Reset_Handler+0x4a>
   83f90:	3b01      	subs	r3, #1
   83f92:	1a9b      	subs	r3, r3, r2
   83f94:	f023 0303 	bic.w	r3, r3, #3
   83f98:	3304      	adds	r3, #4
   83f9a:	4413      	add	r3, r2
   83f9c:	2100      	movs	r1, #0
   83f9e:	f842 1b04 	str.w	r1, [r2], #4
   83fa2:	4293      	cmp	r3, r2
   83fa4:	d1fb      	bne.n	83f9e <Reset_Handler+0x42>
   83fa6:	4b0f      	ldr	r3, [pc, #60]	; (83fe4 <Reset_Handler+0x88>)
   83fa8:	f023 4260 	bic.w	r2, r3, #3758096384	; 0xe0000000
   83fac:	f022 027f 	bic.w	r2, r2, #127	; 0x7f
   83fb0:	490d      	ldr	r1, [pc, #52]	; (83fe8 <Reset_Handler+0x8c>)
   83fb2:	608a      	str	r2, [r1, #8]
   83fb4:	f103 4360 	add.w	r3, r3, #3758096384	; 0xe0000000
   83fb8:	f5b3 1f80 	cmp.w	r3, #1048576	; 0x100000
   83fbc:	d203      	bcs.n	83fc6 <Reset_Handler+0x6a>
   83fbe:	688b      	ldr	r3, [r1, #8]
   83fc0:	f043 5300 	orr.w	r3, r3, #536870912	; 0x20000000
   83fc4:	608b      	str	r3, [r1, #8]
   83fc6:	4b09      	ldr	r3, [pc, #36]	; (83fec <Reset_Handler+0x90>)
   83fc8:	4798      	blx	r3
   83fca:	4b09      	ldr	r3, [pc, #36]	; (83ff0 <Reset_Handler+0x94>)
   83fcc:	4798      	blx	r3
   83fce:	e7fe      	b.n	83fce <Reset_Handler+0x72>
   83fd0:	20070000 	.word	0x20070000
   83fd4:	00088bec 	.word	0x00088bec
   83fd8:	20070b70 	.word	0x20070b70
   83fdc:	2007b0b8 	.word	0x2007b0b8
   83fe0:	20070b70 	.word	0x20070b70
   83fe4:	00080000 	.word	0x00080000
   83fe8:	e000ed00 	.word	0xe000ed00
   83fec:	000856c5 	.word	0x000856c5
   83ff0:	0008415d 	.word	0x0008415d

00083ff4 <SystemCoreClockUpdate>:
   83ff4:	4b3d      	ldr	r3, [pc, #244]	; (840ec <SystemCoreClockUpdate+0xf8>)
   83ff6:	6b1b      	ldr	r3, [r3, #48]	; 0x30
   83ff8:	f003 0303 	and.w	r3, r3, #3
   83ffc:	2b03      	cmp	r3, #3
   83ffe:	d80e      	bhi.n	8401e <SystemCoreClockUpdate+0x2a>
   84000:	e8df f003 	tbb	[pc, r3]
   84004:	38381c02 	.word	0x38381c02
   84008:	4b39      	ldr	r3, [pc, #228]	; (840f0 <SystemCoreClockUpdate+0xfc>)
   8400a:	695b      	ldr	r3, [r3, #20]
   8400c:	f013 0f80 	tst.w	r3, #128	; 0x80
   84010:	bf14      	ite	ne
   84012:	f44f 4200 	movne.w	r2, #32768	; 0x8000
   84016:	f44f 42fa 	moveq.w	r2, #32000	; 0x7d00
   8401a:	4b36      	ldr	r3, [pc, #216]	; (840f4 <SystemCoreClockUpdate+0x100>)
   8401c:	601a      	str	r2, [r3, #0]
   8401e:	4b33      	ldr	r3, [pc, #204]	; (840ec <SystemCoreClockUpdate+0xf8>)
   84020:	6b1b      	ldr	r3, [r3, #48]	; 0x30
   84022:	f003 0370 	and.w	r3, r3, #112	; 0x70
   84026:	2b70      	cmp	r3, #112	; 0x70
   84028:	d057      	beq.n	840da <SystemCoreClockUpdate+0xe6>
   8402a:	4b30      	ldr	r3, [pc, #192]	; (840ec <SystemCoreClockUpdate+0xf8>)
   8402c:	6b1a      	ldr	r2, [r3, #48]	; 0x30
   8402e:	4931      	ldr	r1, [pc, #196]	; (840f4 <SystemCoreClockUpdate+0x100>)
   84030:	f3c2 1202 	ubfx	r2, r2, #4, #3
   84034:	680b      	ldr	r3, [r1, #0]
   84036:	40d3      	lsrs	r3, r2
   84038:	600b      	str	r3, [r1, #0]
   8403a:	4770      	bx	lr
   8403c:	4b2b      	ldr	r3, [pc, #172]	; (840ec <SystemCoreClockUpdate+0xf8>)
   8403e:	6a1b      	ldr	r3, [r3, #32]
   84040:	f013 7f80 	tst.w	r3, #16777216	; 0x1000000
   84044:	d003      	beq.n	8404e <SystemCoreClockUpdate+0x5a>
   84046:	4a2c      	ldr	r2, [pc, #176]	; (840f8 <SystemCoreClockUpdate+0x104>)
   84048:	4b2a      	ldr	r3, [pc, #168]	; (840f4 <SystemCoreClockUpdate+0x100>)
   8404a:	601a      	str	r2, [r3, #0]
   8404c:	e7e7      	b.n	8401e <SystemCoreClockUpdate+0x2a>
   8404e:	4a2b      	ldr	r2, [pc, #172]	; (840fc <SystemCoreClockUpdate+0x108>)
   84050:	4b28      	ldr	r3, [pc, #160]	; (840f4 <SystemCoreClockUpdate+0x100>)
   84052:	601a      	str	r2, [r3, #0]
   84054:	4b25      	ldr	r3, [pc, #148]	; (840ec <SystemCoreClockUpdate+0xf8>)
   84056:	6a1b      	ldr	r3, [r3, #32]
   84058:	f003 0370 	and.w	r3, r3, #112	; 0x70
   8405c:	2b10      	cmp	r3, #16
   8405e:	d005      	beq.n	8406c <SystemCoreClockUpdate+0x78>
   84060:	2b20      	cmp	r3, #32
   84062:	d1dc      	bne.n	8401e <SystemCoreClockUpdate+0x2a>
   84064:	4a24      	ldr	r2, [pc, #144]	; (840f8 <SystemCoreClockUpdate+0x104>)
   84066:	4b23      	ldr	r3, [pc, #140]	; (840f4 <SystemCoreClockUpdate+0x100>)
   84068:	601a      	str	r2, [r3, #0]
   8406a:	e7d8      	b.n	8401e <SystemCoreClockUpdate+0x2a>
   8406c:	4a24      	ldr	r2, [pc, #144]	; (84100 <SystemCoreClockUpdate+0x10c>)
   8406e:	4b21      	ldr	r3, [pc, #132]	; (840f4 <SystemCoreClockUpdate+0x100>)
   84070:	601a      	str	r2, [r3, #0]
   84072:	e7d4      	b.n	8401e <SystemCoreClockUpdate+0x2a>
   84074:	4b1d      	ldr	r3, [pc, #116]	; (840ec <SystemCoreClockUpdate+0xf8>)
   84076:	6a1b      	ldr	r3, [r3, #32]
   84078:	f013 7f80 	tst.w	r3, #16777216	; 0x1000000
   8407c:	d00c      	beq.n	84098 <SystemCoreClockUpdate+0xa4>
   8407e:	4a1e      	ldr	r2, [pc, #120]	; (840f8 <SystemCoreClockUpdate+0x104>)
   84080:	4b1c      	ldr	r3, [pc, #112]	; (840f4 <SystemCoreClockUpdate+0x100>)
   84082:	601a      	str	r2, [r3, #0]
   84084:	4b19      	ldr	r3, [pc, #100]	; (840ec <SystemCoreClockUpdate+0xf8>)
   84086:	6b1b      	ldr	r3, [r3, #48]	; 0x30
   84088:	f003 0303 	and.w	r3, r3, #3
   8408c:	2b02      	cmp	r3, #2
   8408e:	d016      	beq.n	840be <SystemCoreClockUpdate+0xca>
   84090:	4a1c      	ldr	r2, [pc, #112]	; (84104 <SystemCoreClockUpdate+0x110>)
   84092:	4b18      	ldr	r3, [pc, #96]	; (840f4 <SystemCoreClockUpdate+0x100>)
   84094:	601a      	str	r2, [r3, #0]
   84096:	e7c2      	b.n	8401e <SystemCoreClockUpdate+0x2a>
   84098:	4a18      	ldr	r2, [pc, #96]	; (840fc <SystemCoreClockUpdate+0x108>)
   8409a:	4b16      	ldr	r3, [pc, #88]	; (840f4 <SystemCoreClockUpdate+0x100>)
   8409c:	601a      	str	r2, [r3, #0]
   8409e:	4b13      	ldr	r3, [pc, #76]	; (840ec <SystemCoreClockUpdate+0xf8>)
   840a0:	6a1b      	ldr	r3, [r3, #32]
   840a2:	f003 0370 	and.w	r3, r3, #112	; 0x70
   840a6:	2b10      	cmp	r3, #16
   840a8:	d005      	beq.n	840b6 <SystemCoreClockUpdate+0xc2>
   840aa:	2b20      	cmp	r3, #32
   840ac:	d1ea      	bne.n	84084 <SystemCoreClockUpdate+0x90>
   840ae:	4a12      	ldr	r2, [pc, #72]	; (840f8 <SystemCoreClockUpdate+0x104>)
   840b0:	4b10      	ldr	r3, [pc, #64]	; (840f4 <SystemCoreClockUpdate+0x100>)
   840b2:	601a      	str	r2, [r3, #0]
   840b4:	e7e6      	b.n	84084 <SystemCoreClockUpdate+0x90>
   840b6:	4a12      	ldr	r2, [pc, #72]	; (84100 <SystemCoreClockUpdate+0x10c>)
   840b8:	4b0e      	ldr	r3, [pc, #56]	; (840f4 <SystemCoreClockUpdate+0x100>)
   840ba:	601a      	str	r2, [r3, #0]
   840bc:	e7e2      	b.n	84084 <SystemCoreClockUpdate+0x90>
   840be:	4a0b      	ldr	r2, [pc, #44]	; (840ec <SystemCoreClockUpdate+0xf8>)
   840c0:	6a91      	ldr	r1, [r2, #40]	; 0x28
   840c2:	6a92      	ldr	r2, [r2, #40]	; 0x28
   840c4:	480b      	ldr	r0, [pc, #44]	; (840f4 <SystemCoreClockUpdate+0x100>)
   840c6:	f3c1 410a 	ubfx	r1, r1, #16, #11
   840ca:	6803      	ldr	r3, [r0, #0]
   840cc:	fb01 3303 	mla	r3, r1, r3, r3
   840d0:	b2d2      	uxtb	r2, r2
   840d2:	fbb3 f3f2 	udiv	r3, r3, r2
   840d6:	6003      	str	r3, [r0, #0]
   840d8:	e7a1      	b.n	8401e <SystemCoreClockUpdate+0x2a>
   840da:	4a06      	ldr	r2, [pc, #24]	; (840f4 <SystemCoreClockUpdate+0x100>)
   840dc:	6813      	ldr	r3, [r2, #0]
   840de:	490a      	ldr	r1, [pc, #40]	; (84108 <SystemCoreClockUpdate+0x114>)
   840e0:	fba1 1303 	umull	r1, r3, r1, r3
   840e4:	085b      	lsrs	r3, r3, #1
   840e6:	6013      	str	r3, [r2, #0]
   840e8:	4770      	bx	lr
   840ea:	bf00      	nop
   840ec:	400e0600 	.word	0x400e0600
   840f0:	400e1a10 	.word	0x400e1a10
   840f4:	200701bc 	.word	0x200701bc
   840f8:	00b71b00 	.word	0x00b71b00
   840fc:	003d0900 	.word	0x003d0900
   84100:	007a1200 	.word	0x007a1200
   84104:	0e4e1c00 	.word	0x0e4e1c00
   84108:	aaaaaaab 	.word	0xaaaaaaab

0008410c <_sbrk>:
   8410c:	4b0a      	ldr	r3, [pc, #40]	; (84138 <_sbrk+0x2c>)
   8410e:	681b      	ldr	r3, [r3, #0]
   84110:	b153      	cbz	r3, 84128 <_sbrk+0x1c>
   84112:	4b09      	ldr	r3, [pc, #36]	; (84138 <_sbrk+0x2c>)
   84114:	681b      	ldr	r3, [r3, #0]
   84116:	181a      	adds	r2, r3, r0
   84118:	4908      	ldr	r1, [pc, #32]	; (8413c <_sbrk+0x30>)
   8411a:	4291      	cmp	r1, r2
   8411c:	db08      	blt.n	84130 <_sbrk+0x24>
   8411e:	4610      	mov	r0, r2
   84120:	4a05      	ldr	r2, [pc, #20]	; (84138 <_sbrk+0x2c>)
   84122:	6010      	str	r0, [r2, #0]
   84124:	4618      	mov	r0, r3
   84126:	4770      	bx	lr
   84128:	4a05      	ldr	r2, [pc, #20]	; (84140 <_sbrk+0x34>)
   8412a:	4b03      	ldr	r3, [pc, #12]	; (84138 <_sbrk+0x2c>)
   8412c:	601a      	str	r2, [r3, #0]
   8412e:	e7f0      	b.n	84112 <_sbrk+0x6>
   84130:	f04f 30ff 	mov.w	r0, #4294967295
   84134:	4770      	bx	lr
   84136:	bf00      	nop
   84138:	2007ae3c 	.word	0x2007ae3c
   8413c:	20087ffc 	.word	0x20087ffc
   84140:	2007d0b8 	.word	0x2007d0b8

00084144 <_close>:
   84144:	f04f 30ff 	mov.w	r0, #4294967295
   84148:	4770      	bx	lr

0008414a <_fstat>:
   8414a:	f44f 5300 	mov.w	r3, #8192	; 0x2000
   8414e:	604b      	str	r3, [r1, #4]
   84150:	2000      	movs	r0, #0
   84152:	4770      	bx	lr

00084154 <_isatty>:
   84154:	2001      	movs	r0, #1
   84156:	4770      	bx	lr

00084158 <_lseek>:
   84158:	2000      	movs	r0, #0
   8415a:	4770      	bx	lr

0008415c <main>:
   8415c:	b508      	push	{r3, lr}
   8415e:	4b03      	ldr	r3, [pc, #12]	; (8416c <main+0x10>)
   84160:	4798      	blx	r3
   84162:	4b03      	ldr	r3, [pc, #12]	; (84170 <main+0x14>)
   84164:	4798      	blx	r3
   84166:	2000      	movs	r0, #0
   84168:	bd08      	pop	{r3, pc}
   8416a:	bf00      	nop
   8416c:	0008214d 	.word	0x0008214d
   84170:	000822ad 	.word	0x000822ad

00084174 <round>:
   84174:	b5f8      	push	{r3, r4, r5, r6, r7, lr}
   84176:	f3c1 560a 	ubfx	r6, r1, #20, #11
   8417a:	f2a6 35ff 	subw	r5, r6, #1023	; 0x3ff
   8417e:	2d13      	cmp	r5, #19
   84180:	460a      	mov	r2, r1
   84182:	460b      	mov	r3, r1
   84184:	4604      	mov	r4, r0
   84186:	dc11      	bgt.n	841ac <round+0x38>
   84188:	2d00      	cmp	r5, #0
   8418a:	db2e      	blt.n	841ea <round+0x76>
   8418c:	468e      	mov	lr, r1
   8418e:	4920      	ldr	r1, [pc, #128]	; (84210 <round+0x9c>)
   84190:	4129      	asrs	r1, r5
   84192:	420a      	tst	r2, r1
   84194:	d025      	beq.n	841e2 <round+0x6e>
   84196:	f44f 2300 	mov.w	r3, #524288	; 0x80000
   8419a:	2600      	movs	r6, #0
   8419c:	412b      	asrs	r3, r5
   8419e:	4473      	add	r3, lr
   841a0:	ea23 0301 	bic.w	r3, r3, r1
   841a4:	4619      	mov	r1, r3
   841a6:	4634      	mov	r4, r6
   841a8:	4620      	mov	r0, r4
   841aa:	bdf8      	pop	{r3, r4, r5, r6, r7, pc}
   841ac:	2d33      	cmp	r5, #51	; 0x33
   841ae:	dd05      	ble.n	841bc <round+0x48>
   841b0:	f5b5 6f80 	cmp.w	r5, #1024	; 0x400
   841b4:	d01f      	beq.n	841f6 <round+0x82>
   841b6:	4611      	mov	r1, r2
   841b8:	4620      	mov	r0, r4
   841ba:	bdf8      	pop	{r3, r4, r5, r6, r7, pc}
   841bc:	f04f 31ff 	mov.w	r1, #4294967295
   841c0:	f2a6 4613 	subw	r6, r6, #1043	; 0x413
   841c4:	fa21 f606 	lsr.w	r6, r1, r6
   841c8:	4230      	tst	r0, r6
   841ca:	d0f4      	beq.n	841b6 <round+0x42>
   841cc:	2101      	movs	r1, #1
   841ce:	f1c5 0233 	rsb	r2, r5, #51	; 0x33
   841d2:	fa01 f202 	lsl.w	r2, r1, r2
   841d6:	1812      	adds	r2, r2, r0
   841d8:	bf28      	it	cs
   841da:	185b      	addcs	r3, r3, r1
   841dc:	ea22 0606 	bic.w	r6, r2, r6
   841e0:	e7e0      	b.n	841a4 <round+0x30>
   841e2:	2800      	cmp	r0, #0
   841e4:	d1d7      	bne.n	84196 <round+0x22>
   841e6:	4611      	mov	r1, r2
   841e8:	e7e6      	b.n	841b8 <round+0x44>
   841ea:	3501      	adds	r5, #1
   841ec:	f001 4300 	and.w	r3, r1, #2147483648	; 0x80000000
   841f0:	d007      	beq.n	84202 <round+0x8e>
   841f2:	2600      	movs	r6, #0
   841f4:	e7d6      	b.n	841a4 <round+0x30>
   841f6:	4602      	mov	r2, r0
   841f8:	460b      	mov	r3, r1
   841fa:	f000 faa5 	bl	84748 <__adddf3>
   841fe:	4604      	mov	r4, r0
   84200:	e7d2      	b.n	841a8 <round+0x34>
   84202:	f043 537f 	orr.w	r3, r3, #1069547520	; 0x3fc00000
   84206:	f443 1340 	orr.w	r3, r3, #3145728	; 0x300000
   8420a:	2600      	movs	r6, #0
   8420c:	e7ca      	b.n	841a4 <round+0x30>
   8420e:	bf00      	nop
   84210:	000fffff 	.word	0x000fffff

00084214 <atan2>:
   84214:	f000 b800 	b.w	84218 <__ieee754_atan2>

00084218 <__ieee754_atan2>:
   84218:	e92d 4ff8 	stmdb	sp!, {r3, r4, r5, r6, r7, r8, r9, sl, fp, lr}
   8421c:	4254      	negs	r4, r2
   8421e:	4314      	orrs	r4, r2
   84220:	f023 4900 	bic.w	r9, r3, #2147483648	; 0x80000000
   84224:	f8df e1c0 	ldr.w	lr, [pc, #448]	; 843e8 <__ieee754_atan2+0x1d0>
   84228:	ea49 74d4 	orr.w	r4, r9, r4, lsr #31
   8422c:	4574      	cmp	r4, lr
   8422e:	4606      	mov	r6, r0
   84230:	460d      	mov	r5, r1
   84232:	d840      	bhi.n	842b6 <__ieee754_atan2+0x9e>
   84234:	4244      	negs	r4, r0
   84236:	4304      	orrs	r4, r0
   84238:	f021 4b00 	bic.w	fp, r1, #2147483648	; 0x80000000
   8423c:	ea4b 74d4 	orr.w	r4, fp, r4, lsr #31
   84240:	4574      	cmp	r4, lr
   84242:	468a      	mov	sl, r1
   84244:	d837      	bhi.n	842b6 <__ieee754_atan2+0x9e>
   84246:	f103 4440 	add.w	r4, r3, #3221225472	; 0xc0000000
   8424a:	f504 1480 	add.w	r4, r4, #1048576	; 0x100000
   8424e:	4314      	orrs	r4, r2
   84250:	d04a      	beq.n	842e8 <__ieee754_atan2+0xd0>
   84252:	179c      	asrs	r4, r3, #30
   84254:	f004 0402 	and.w	r4, r4, #2
   84258:	ea44 74d1 	orr.w	r4, r4, r1, lsr #31
   8425c:	ea50 010b 	orrs.w	r1, r0, fp
   84260:	d031      	beq.n	842c6 <__ieee754_atan2+0xae>
   84262:	ea52 0109 	orrs.w	r1, r2, r9
   84266:	d037      	beq.n	842d8 <__ieee754_atan2+0xc0>
   84268:	45f1      	cmp	r9, lr
   8426a:	d052      	beq.n	84312 <__ieee754_atan2+0xfa>
   8426c:	45f3      	cmp	fp, lr
   8426e:	d033      	beq.n	842d8 <__ieee754_atan2+0xc0>
   84270:	ebab 0909 	sub.w	r9, fp, r9
   84274:	ea4f 5929 	mov.w	r9, r9, asr #20
   84278:	f1b9 0f3c 	cmp.w	r9, #60	; 0x3c
   8427c:	dc3b      	bgt.n	842f6 <__ieee754_atan2+0xde>
   8427e:	2b00      	cmp	r3, #0
   84280:	db66      	blt.n	84350 <__ieee754_atan2+0x138>
   84282:	4630      	mov	r0, r6
   84284:	4629      	mov	r1, r5
   84286:	f000 fd3b 	bl	84d00 <__aeabi_ddiv>
   8428a:	f000 fa53 	bl	84734 <fabs>
   8428e:	f000 f8af 	bl	843f0 <atan>
   84292:	2c01      	cmp	r4, #1
   84294:	d058      	beq.n	84348 <__ieee754_atan2+0x130>
   84296:	2c02      	cmp	r4, #2
   84298:	d048      	beq.n	8432c <__ieee754_atan2+0x114>
   8429a:	2c00      	cmp	r4, #0
   8429c:	d05e      	beq.n	8435c <__ieee754_atan2+0x144>
   8429e:	a340      	add	r3, pc, #256	; (adr r3, 843a0 <__ieee754_atan2+0x188>)
   842a0:	e9d3 2300 	ldrd	r2, r3, [r3]
   842a4:	f000 fa4e 	bl	84744 <__aeabi_dsub>
   842a8:	a33f      	add	r3, pc, #252	; (adr r3, 843a8 <__ieee754_atan2+0x190>)
   842aa:	e9d3 2300 	ldrd	r2, r3, [r3]
   842ae:	f000 fa49 	bl	84744 <__aeabi_dsub>
   842b2:	e8bd 8ff8 	ldmia.w	sp!, {r3, r4, r5, r6, r7, r8, r9, sl, fp, pc}
   842b6:	4610      	mov	r0, r2
   842b8:	4619      	mov	r1, r3
   842ba:	4632      	mov	r2, r6
   842bc:	462b      	mov	r3, r5
   842be:	f000 fa43 	bl	84748 <__adddf3>
   842c2:	e8bd 8ff8 	ldmia.w	sp!, {r3, r4, r5, r6, r7, r8, r9, sl, fp, pc}
   842c6:	2c02      	cmp	r4, #2
   842c8:	d019      	beq.n	842fe <__ieee754_atan2+0xe6>
   842ca:	2c03      	cmp	r4, #3
   842cc:	d110      	bne.n	842f0 <__ieee754_atan2+0xd8>
   842ce:	a138      	add	r1, pc, #224	; (adr r1, 843b0 <__ieee754_atan2+0x198>)
   842d0:	e9d1 0100 	ldrd	r0, r1, [r1]
   842d4:	e8bd 8ff8 	ldmia.w	sp!, {r3, r4, r5, r6, r7, r8, r9, sl, fp, pc}
   842d8:	f1ba 0f00 	cmp.w	sl, #0
   842dc:	db14      	blt.n	84308 <__ieee754_atan2+0xf0>
   842de:	a136      	add	r1, pc, #216	; (adr r1, 843b8 <__ieee754_atan2+0x1a0>)
   842e0:	e9d1 0100 	ldrd	r0, r1, [r1]
   842e4:	e8bd 8ff8 	ldmia.w	sp!, {r3, r4, r5, r6, r7, r8, r9, sl, fp, pc}
   842e8:	e8bd 4ff8 	ldmia.w	sp!, {r3, r4, r5, r6, r7, r8, r9, sl, fp, lr}
   842ec:	f000 b880 	b.w	843f0 <atan>
   842f0:	4629      	mov	r1, r5
   842f2:	e8bd 8ff8 	ldmia.w	sp!, {r3, r4, r5, r6, r7, r8, r9, sl, fp, pc}
   842f6:	a130      	add	r1, pc, #192	; (adr r1, 843b8 <__ieee754_atan2+0x1a0>)
   842f8:	e9d1 0100 	ldrd	r0, r1, [r1]
   842fc:	e7c9      	b.n	84292 <__ieee754_atan2+0x7a>
   842fe:	a12a      	add	r1, pc, #168	; (adr r1, 843a8 <__ieee754_atan2+0x190>)
   84300:	e9d1 0100 	ldrd	r0, r1, [r1]
   84304:	e8bd 8ff8 	ldmia.w	sp!, {r3, r4, r5, r6, r7, r8, r9, sl, fp, pc}
   84308:	a12d      	add	r1, pc, #180	; (adr r1, 843c0 <__ieee754_atan2+0x1a8>)
   8430a:	e9d1 0100 	ldrd	r0, r1, [r1]
   8430e:	e8bd 8ff8 	ldmia.w	sp!, {r3, r4, r5, r6, r7, r8, r9, sl, fp, pc}
   84312:	45cb      	cmp	fp, r9
   84314:	d024      	beq.n	84360 <__ieee754_atan2+0x148>
   84316:	2c02      	cmp	r4, #2
   84318:	d0f1      	beq.n	842fe <__ieee754_atan2+0xe6>
   8431a:	2c03      	cmp	r4, #3
   8431c:	d0d7      	beq.n	842ce <__ieee754_atan2+0xb6>
   8431e:	2c01      	cmp	r4, #1
   84320:	f04f 0000 	mov.w	r0, #0
   84324:	d027      	beq.n	84376 <__ieee754_atan2+0x15e>
   84326:	2100      	movs	r1, #0
   84328:	e8bd 8ff8 	ldmia.w	sp!, {r3, r4, r5, r6, r7, r8, r9, sl, fp, pc}
   8432c:	a31c      	add	r3, pc, #112	; (adr r3, 843a0 <__ieee754_atan2+0x188>)
   8432e:	e9d3 2300 	ldrd	r2, r3, [r3]
   84332:	f000 fa07 	bl	84744 <__aeabi_dsub>
   84336:	4602      	mov	r2, r0
   84338:	460b      	mov	r3, r1
   8433a:	a11b      	add	r1, pc, #108	; (adr r1, 843a8 <__ieee754_atan2+0x190>)
   8433c:	e9d1 0100 	ldrd	r0, r1, [r1]
   84340:	f000 fa00 	bl	84744 <__aeabi_dsub>
   84344:	e8bd 8ff8 	ldmia.w	sp!, {r3, r4, r5, r6, r7, r8, r9, sl, fp, pc}
   84348:	f101 4100 	add.w	r1, r1, #2147483648	; 0x80000000
   8434c:	e8bd 8ff8 	ldmia.w	sp!, {r3, r4, r5, r6, r7, r8, r9, sl, fp, pc}
   84350:	f119 0f3c 	cmn.w	r9, #60	; 0x3c
   84354:	da95      	bge.n	84282 <__ieee754_atan2+0x6a>
   84356:	2000      	movs	r0, #0
   84358:	2100      	movs	r1, #0
   8435a:	e79a      	b.n	84292 <__ieee754_atan2+0x7a>
   8435c:	e8bd 8ff8 	ldmia.w	sp!, {r3, r4, r5, r6, r7, r8, r9, sl, fp, pc}
   84360:	2c02      	cmp	r4, #2
   84362:	d016      	beq.n	84392 <__ieee754_atan2+0x17a>
   84364:	2c03      	cmp	r4, #3
   84366:	d00f      	beq.n	84388 <__ieee754_atan2+0x170>
   84368:	2c01      	cmp	r4, #1
   8436a:	d008      	beq.n	8437e <__ieee754_atan2+0x166>
   8436c:	a116      	add	r1, pc, #88	; (adr r1, 843c8 <__ieee754_atan2+0x1b0>)
   8436e:	e9d1 0100 	ldrd	r0, r1, [r1]
   84372:	e8bd 8ff8 	ldmia.w	sp!, {r3, r4, r5, r6, r7, r8, r9, sl, fp, pc}
   84376:	f04f 4100 	mov.w	r1, #2147483648	; 0x80000000
   8437a:	e8bd 8ff8 	ldmia.w	sp!, {r3, r4, r5, r6, r7, r8, r9, sl, fp, pc}
   8437e:	a114      	add	r1, pc, #80	; (adr r1, 843d0 <__ieee754_atan2+0x1b8>)
   84380:	e9d1 0100 	ldrd	r0, r1, [r1]
   84384:	e8bd 8ff8 	ldmia.w	sp!, {r3, r4, r5, r6, r7, r8, r9, sl, fp, pc}
   84388:	a113      	add	r1, pc, #76	; (adr r1, 843d8 <__ieee754_atan2+0x1c0>)
   8438a:	e9d1 0100 	ldrd	r0, r1, [r1]
   8438e:	e8bd 8ff8 	ldmia.w	sp!, {r3, r4, r5, r6, r7, r8, r9, sl, fp, pc}
   84392:	a113      	add	r1, pc, #76	; (adr r1, 843e0 <__ieee754_atan2+0x1c8>)
   84394:	e9d1 0100 	ldrd	r0, r1, [r1]
   84398:	e8bd 8ff8 	ldmia.w	sp!, {r3, r4, r5, r6, r7, r8, r9, sl, fp, pc}
   8439c:	f3af 8000 	nop.w
   843a0:	33145c07 	.word	0x33145c07
   843a4:	3ca1a626 	.word	0x3ca1a626
   843a8:	54442d18 	.word	0x54442d18
   843ac:	400921fb 	.word	0x400921fb
   843b0:	54442d18 	.word	0x54442d18
   843b4:	c00921fb 	.word	0xc00921fb
   843b8:	54442d18 	.word	0x54442d18
   843bc:	3ff921fb 	.word	0x3ff921fb
   843c0:	54442d18 	.word	0x54442d18
   843c4:	bff921fb 	.word	0xbff921fb
   843c8:	54442d18 	.word	0x54442d18
   843cc:	3fe921fb 	.word	0x3fe921fb
   843d0:	54442d18 	.word	0x54442d18
   843d4:	bfe921fb 	.word	0xbfe921fb
   843d8:	7f3321d2 	.word	0x7f3321d2
   843dc:	c002d97c 	.word	0xc002d97c
   843e0:	7f3321d2 	.word	0x7f3321d2
   843e4:	4002d97c 	.word	0x4002d97c
   843e8:	7ff00000 	.word	0x7ff00000
   843ec:	00000000 	.word	0x00000000

000843f0 <atan>:
   843f0:	e92d 4ff8 	stmdb	sp!, {r3, r4, r5, r6, r7, r8, r9, sl, fp, lr}
   843f4:	4bc2      	ldr	r3, [pc, #776]	; (84700 <atan+0x310>)
   843f6:	f021 4600 	bic.w	r6, r1, #2147483648	; 0x80000000
   843fa:	429e      	cmp	r6, r3
   843fc:	460d      	mov	r5, r1
   843fe:	468a      	mov	sl, r1
   84400:	4604      	mov	r4, r0
   84402:	dd10      	ble.n	84426 <atan+0x36>
   84404:	4bbf      	ldr	r3, [pc, #764]	; (84704 <atan+0x314>)
   84406:	429e      	cmp	r6, r3
   84408:	f300 80b5 	bgt.w	84576 <atan+0x186>
   8440c:	f000 80b0 	beq.w	84570 <atan+0x180>
   84410:	4bbd      	ldr	r3, [pc, #756]	; (84708 <atan+0x318>)
   84412:	49be      	ldr	r1, [pc, #760]	; (8470c <atan+0x31c>)
   84414:	4cbe      	ldr	r4, [pc, #760]	; (84710 <atan+0x320>)
   84416:	f1ba 0f00 	cmp.w	sl, #0
   8441a:	bfd8      	it	le
   8441c:	460b      	movle	r3, r1
   8441e:	4620      	mov	r0, r4
   84420:	4619      	mov	r1, r3
   84422:	e8bd 8ff8 	ldmia.w	sp!, {r3, r4, r5, r6, r7, r8, r9, sl, fp, pc}
   84426:	4bbb      	ldr	r3, [pc, #748]	; (84714 <atan+0x324>)
   84428:	429e      	cmp	r6, r3
   8442a:	f300 80c1 	bgt.w	845b0 <atan+0x1c0>
   8442e:	f1a3 73de 	sub.w	r3, r3, #29097984	; 0x1bc0000
   84432:	429e      	cmp	r6, r3
   84434:	f340 80ab 	ble.w	8458e <atan+0x19e>
   84438:	f04f 3bff 	mov.w	fp, #4294967295
   8443c:	4622      	mov	r2, r4
   8443e:	462b      	mov	r3, r5
   84440:	4620      	mov	r0, r4
   84442:	4629      	mov	r1, r5
   84444:	f000 fb32 	bl	84aac <__aeabi_dmul>
   84448:	4602      	mov	r2, r0
   8444a:	460b      	mov	r3, r1
   8444c:	4680      	mov	r8, r0
   8444e:	4689      	mov	r9, r1
   84450:	f000 fb2c 	bl	84aac <__aeabi_dmul>
   84454:	a392      	add	r3, pc, #584	; (adr r3, 846a0 <atan+0x2b0>)
   84456:	e9d3 2300 	ldrd	r2, r3, [r3]
   8445a:	4606      	mov	r6, r0
   8445c:	460f      	mov	r7, r1
   8445e:	f000 fb25 	bl	84aac <__aeabi_dmul>
   84462:	a391      	add	r3, pc, #580	; (adr r3, 846a8 <atan+0x2b8>)
   84464:	e9d3 2300 	ldrd	r2, r3, [r3]
   84468:	f000 f96e 	bl	84748 <__adddf3>
   8446c:	4632      	mov	r2, r6
   8446e:	463b      	mov	r3, r7
   84470:	f000 fb1c 	bl	84aac <__aeabi_dmul>
   84474:	a38e      	add	r3, pc, #568	; (adr r3, 846b0 <atan+0x2c0>)
   84476:	e9d3 2300 	ldrd	r2, r3, [r3]
   8447a:	f000 f965 	bl	84748 <__adddf3>
   8447e:	4632      	mov	r2, r6
   84480:	463b      	mov	r3, r7
   84482:	f000 fb13 	bl	84aac <__aeabi_dmul>
   84486:	a38c      	add	r3, pc, #560	; (adr r3, 846b8 <atan+0x2c8>)
   84488:	e9d3 2300 	ldrd	r2, r3, [r3]
   8448c:	f000 f95c 	bl	84748 <__adddf3>
   84490:	4632      	mov	r2, r6
   84492:	463b      	mov	r3, r7
   84494:	f000 fb0a 	bl	84aac <__aeabi_dmul>
   84498:	a389      	add	r3, pc, #548	; (adr r3, 846c0 <atan+0x2d0>)
   8449a:	e9d3 2300 	ldrd	r2, r3, [r3]
   8449e:	f000 f953 	bl	84748 <__adddf3>
   844a2:	4632      	mov	r2, r6
   844a4:	463b      	mov	r3, r7
   844a6:	f000 fb01 	bl	84aac <__aeabi_dmul>
   844aa:	a387      	add	r3, pc, #540	; (adr r3, 846c8 <atan+0x2d8>)
   844ac:	e9d3 2300 	ldrd	r2, r3, [r3]
   844b0:	f000 f94a 	bl	84748 <__adddf3>
   844b4:	4642      	mov	r2, r8
   844b6:	464b      	mov	r3, r9
   844b8:	f000 faf8 	bl	84aac <__aeabi_dmul>
   844bc:	a384      	add	r3, pc, #528	; (adr r3, 846d0 <atan+0x2e0>)
   844be:	e9d3 2300 	ldrd	r2, r3, [r3]
   844c2:	4680      	mov	r8, r0
   844c4:	4689      	mov	r9, r1
   844c6:	4630      	mov	r0, r6
   844c8:	4639      	mov	r1, r7
   844ca:	f000 faef 	bl	84aac <__aeabi_dmul>
   844ce:	a382      	add	r3, pc, #520	; (adr r3, 846d8 <atan+0x2e8>)
   844d0:	e9d3 2300 	ldrd	r2, r3, [r3]
   844d4:	f000 f936 	bl	84744 <__aeabi_dsub>
   844d8:	4632      	mov	r2, r6
   844da:	463b      	mov	r3, r7
   844dc:	f000 fae6 	bl	84aac <__aeabi_dmul>
   844e0:	a37f      	add	r3, pc, #508	; (adr r3, 846e0 <atan+0x2f0>)
   844e2:	e9d3 2300 	ldrd	r2, r3, [r3]
   844e6:	f000 f92d 	bl	84744 <__aeabi_dsub>
   844ea:	4632      	mov	r2, r6
   844ec:	463b      	mov	r3, r7
   844ee:	f000 fadd 	bl	84aac <__aeabi_dmul>
   844f2:	a37d      	add	r3, pc, #500	; (adr r3, 846e8 <atan+0x2f8>)
   844f4:	e9d3 2300 	ldrd	r2, r3, [r3]
   844f8:	f000 f924 	bl	84744 <__aeabi_dsub>
   844fc:	4632      	mov	r2, r6
   844fe:	463b      	mov	r3, r7
   84500:	f000 fad4 	bl	84aac <__aeabi_dmul>
   84504:	a37a      	add	r3, pc, #488	; (adr r3, 846f0 <atan+0x300>)
   84506:	e9d3 2300 	ldrd	r2, r3, [r3]
   8450a:	f000 f91b 	bl	84744 <__aeabi_dsub>
   8450e:	4632      	mov	r2, r6
   84510:	463b      	mov	r3, r7
   84512:	f000 facb 	bl	84aac <__aeabi_dmul>
   84516:	f1bb 3fff 	cmp.w	fp, #4294967295
   8451a:	4602      	mov	r2, r0
   8451c:	460b      	mov	r3, r1
   8451e:	d06e      	beq.n	845fe <atan+0x20e>
   84520:	4640      	mov	r0, r8
   84522:	4649      	mov	r1, r9
   84524:	f000 f910 	bl	84748 <__adddf3>
   84528:	4622      	mov	r2, r4
   8452a:	462b      	mov	r3, r5
   8452c:	f000 fabe 	bl	84aac <__aeabi_dmul>
   84530:	4e79      	ldr	r6, [pc, #484]	; (84718 <atan+0x328>)
   84532:	4b7a      	ldr	r3, [pc, #488]	; (8471c <atan+0x32c>)
   84534:	ea4f 0bcb 	mov.w	fp, fp, lsl #3
   84538:	445e      	add	r6, fp
   8453a:	449b      	add	fp, r3
   8453c:	e9db 2300 	ldrd	r2, r3, [fp]
   84540:	f000 f900 	bl	84744 <__aeabi_dsub>
   84544:	4622      	mov	r2, r4
   84546:	462b      	mov	r3, r5
   84548:	f000 f8fc 	bl	84744 <__aeabi_dsub>
   8454c:	460b      	mov	r3, r1
   8454e:	4602      	mov	r2, r0
   84550:	e9d6 0100 	ldrd	r0, r1, [r6]
   84554:	f000 f8f6 	bl	84744 <__aeabi_dsub>
   84558:	f1ba 0f00 	cmp.w	sl, #0
   8455c:	4604      	mov	r4, r0
   8455e:	460b      	mov	r3, r1
   84560:	f6bf af5d 	bge.w	8441e <atan+0x2e>
   84564:	f101 4300 	add.w	r3, r1, #2147483648	; 0x80000000
   84568:	4620      	mov	r0, r4
   8456a:	4619      	mov	r1, r3
   8456c:	e8bd 8ff8 	ldmia.w	sp!, {r3, r4, r5, r6, r7, r8, r9, sl, fp, pc}
   84570:	2800      	cmp	r0, #0
   84572:	f43f af4d 	beq.w	84410 <atan+0x20>
   84576:	4622      	mov	r2, r4
   84578:	462b      	mov	r3, r5
   8457a:	4620      	mov	r0, r4
   8457c:	4629      	mov	r1, r5
   8457e:	f000 f8e3 	bl	84748 <__adddf3>
   84582:	4604      	mov	r4, r0
   84584:	460b      	mov	r3, r1
   84586:	4620      	mov	r0, r4
   84588:	4619      	mov	r1, r3
   8458a:	e8bd 8ff8 	ldmia.w	sp!, {r3, r4, r5, r6, r7, r8, r9, sl, fp, pc}
   8458e:	a35a      	add	r3, pc, #360	; (adr r3, 846f8 <atan+0x308>)
   84590:	e9d3 2300 	ldrd	r2, r3, [r3]
   84594:	f000 f8d8 	bl	84748 <__adddf3>
   84598:	2200      	movs	r2, #0
   8459a:	4b61      	ldr	r3, [pc, #388]	; (84720 <atan+0x330>)
   8459c:	f000 fd16 	bl	84fcc <__aeabi_dcmpgt>
   845a0:	2800      	cmp	r0, #0
   845a2:	f43f af49 	beq.w	84438 <atan+0x48>
   845a6:	462b      	mov	r3, r5
   845a8:	4620      	mov	r0, r4
   845aa:	4619      	mov	r1, r3
   845ac:	e8bd 8ff8 	ldmia.w	sp!, {r3, r4, r5, r6, r7, r8, r9, sl, fp, pc}
   845b0:	f000 f8c0 	bl	84734 <fabs>
   845b4:	4b5b      	ldr	r3, [pc, #364]	; (84724 <atan+0x334>)
   845b6:	4604      	mov	r4, r0
   845b8:	429e      	cmp	r6, r3
   845ba:	460d      	mov	r5, r1
   845bc:	dc30      	bgt.n	84620 <atan+0x230>
   845be:	f5a3 2350 	sub.w	r3, r3, #851968	; 0xd0000
   845c2:	429e      	cmp	r6, r3
   845c4:	dc55      	bgt.n	84672 <atan+0x282>
   845c6:	4602      	mov	r2, r0
   845c8:	460b      	mov	r3, r1
   845ca:	f000 f8bd 	bl	84748 <__adddf3>
   845ce:	2200      	movs	r2, #0
   845d0:	4b53      	ldr	r3, [pc, #332]	; (84720 <atan+0x330>)
   845d2:	f000 f8b7 	bl	84744 <__aeabi_dsub>
   845d6:	2200      	movs	r2, #0
   845d8:	4606      	mov	r6, r0
   845da:	460f      	mov	r7, r1
   845dc:	f04f 4380 	mov.w	r3, #1073741824	; 0x40000000
   845e0:	4620      	mov	r0, r4
   845e2:	4629      	mov	r1, r5
   845e4:	f000 f8b0 	bl	84748 <__adddf3>
   845e8:	4602      	mov	r2, r0
   845ea:	460b      	mov	r3, r1
   845ec:	4630      	mov	r0, r6
   845ee:	4639      	mov	r1, r7
   845f0:	f000 fb86 	bl	84d00 <__aeabi_ddiv>
   845f4:	f04f 0b00 	mov.w	fp, #0
   845f8:	4604      	mov	r4, r0
   845fa:	460d      	mov	r5, r1
   845fc:	e71e      	b.n	8443c <atan+0x4c>
   845fe:	4640      	mov	r0, r8
   84600:	4649      	mov	r1, r9
   84602:	f000 f8a1 	bl	84748 <__adddf3>
   84606:	4622      	mov	r2, r4
   84608:	462b      	mov	r3, r5
   8460a:	f000 fa4f 	bl	84aac <__aeabi_dmul>
   8460e:	460b      	mov	r3, r1
   84610:	4602      	mov	r2, r0
   84612:	4629      	mov	r1, r5
   84614:	4620      	mov	r0, r4
   84616:	f000 f895 	bl	84744 <__aeabi_dsub>
   8461a:	4604      	mov	r4, r0
   8461c:	460b      	mov	r3, r1
   8461e:	e6fe      	b.n	8441e <atan+0x2e>
   84620:	4b41      	ldr	r3, [pc, #260]	; (84728 <atan+0x338>)
   84622:	429e      	cmp	r6, r3
   84624:	dc1a      	bgt.n	8465c <atan+0x26c>
   84626:	2200      	movs	r2, #0
   84628:	4b40      	ldr	r3, [pc, #256]	; (8472c <atan+0x33c>)
   8462a:	f000 f88b 	bl	84744 <__aeabi_dsub>
   8462e:	2200      	movs	r2, #0
   84630:	4606      	mov	r6, r0
   84632:	460f      	mov	r7, r1
   84634:	4b3d      	ldr	r3, [pc, #244]	; (8472c <atan+0x33c>)
   84636:	4620      	mov	r0, r4
   84638:	4629      	mov	r1, r5
   8463a:	f000 fa37 	bl	84aac <__aeabi_dmul>
   8463e:	2200      	movs	r2, #0
   84640:	4b37      	ldr	r3, [pc, #220]	; (84720 <atan+0x330>)
   84642:	f000 f881 	bl	84748 <__adddf3>
   84646:	4602      	mov	r2, r0
   84648:	460b      	mov	r3, r1
   8464a:	4630      	mov	r0, r6
   8464c:	4639      	mov	r1, r7
   8464e:	f000 fb57 	bl	84d00 <__aeabi_ddiv>
   84652:	f04f 0b02 	mov.w	fp, #2
   84656:	4604      	mov	r4, r0
   84658:	460d      	mov	r5, r1
   8465a:	e6ef      	b.n	8443c <atan+0x4c>
   8465c:	4602      	mov	r2, r0
   8465e:	460b      	mov	r3, r1
   84660:	2000      	movs	r0, #0
   84662:	4933      	ldr	r1, [pc, #204]	; (84730 <atan+0x340>)
   84664:	f000 fb4c 	bl	84d00 <__aeabi_ddiv>
   84668:	f04f 0b03 	mov.w	fp, #3
   8466c:	4604      	mov	r4, r0
   8466e:	460d      	mov	r5, r1
   84670:	e6e4      	b.n	8443c <atan+0x4c>
   84672:	2200      	movs	r2, #0
   84674:	4b2a      	ldr	r3, [pc, #168]	; (84720 <atan+0x330>)
   84676:	f000 f865 	bl	84744 <__aeabi_dsub>
   8467a:	2200      	movs	r2, #0
   8467c:	4606      	mov	r6, r0
   8467e:	460f      	mov	r7, r1
   84680:	4b27      	ldr	r3, [pc, #156]	; (84720 <atan+0x330>)
   84682:	4620      	mov	r0, r4
   84684:	4629      	mov	r1, r5
   84686:	f000 f85f 	bl	84748 <__adddf3>
   8468a:	4602      	mov	r2, r0
   8468c:	460b      	mov	r3, r1
   8468e:	4630      	mov	r0, r6
   84690:	4639      	mov	r1, r7
   84692:	f000 fb35 	bl	84d00 <__aeabi_ddiv>
   84696:	f04f 0b01 	mov.w	fp, #1
   8469a:	4604      	mov	r4, r0
   8469c:	460d      	mov	r5, r1
   8469e:	e6cd      	b.n	8443c <atan+0x4c>
   846a0:	e322da11 	.word	0xe322da11
   846a4:	3f90ad3a 	.word	0x3f90ad3a
   846a8:	24760deb 	.word	0x24760deb
   846ac:	3fa97b4b 	.word	0x3fa97b4b
   846b0:	a0d03d51 	.word	0xa0d03d51
   846b4:	3fb10d66 	.word	0x3fb10d66
   846b8:	c54c206e 	.word	0xc54c206e
   846bc:	3fb745cd 	.word	0x3fb745cd
   846c0:	920083ff 	.word	0x920083ff
   846c4:	3fc24924 	.word	0x3fc24924
   846c8:	5555550d 	.word	0x5555550d
   846cc:	3fd55555 	.word	0x3fd55555
   846d0:	2c6a6c2f 	.word	0x2c6a6c2f
   846d4:	bfa2b444 	.word	0xbfa2b444
   846d8:	52defd9a 	.word	0x52defd9a
   846dc:	3fadde2d 	.word	0x3fadde2d
   846e0:	af749a6d 	.word	0xaf749a6d
   846e4:	3fb3b0f2 	.word	0x3fb3b0f2
   846e8:	fe231671 	.word	0xfe231671
   846ec:	3fbc71c6 	.word	0x3fbc71c6
   846f0:	9998ebc4 	.word	0x9998ebc4
   846f4:	3fc99999 	.word	0x3fc99999
   846f8:	8800759c 	.word	0x8800759c
   846fc:	7e37e43c 	.word	0x7e37e43c
   84700:	440fffff 	.word	0x440fffff
   84704:	7ff00000 	.word	0x7ff00000
   84708:	3ff921fb 	.word	0x3ff921fb
   8470c:	bff921fb 	.word	0xbff921fb
   84710:	54442d18 	.word	0x54442d18
   84714:	3fdbffff 	.word	0x3fdbffff
   84718:	00088a18 	.word	0x00088a18
   8471c:	00088a38 	.word	0x00088a38
   84720:	3ff00000 	.word	0x3ff00000
   84724:	3ff2ffff 	.word	0x3ff2ffff
   84728:	40037fff 	.word	0x40037fff
   8472c:	3ff80000 	.word	0x3ff80000
   84730:	bff00000 	.word	0xbff00000

00084734 <fabs>:
   84734:	f021 4100 	bic.w	r1, r1, #2147483648	; 0x80000000
   84738:	4770      	bx	lr
   8473a:	bf00      	nop

0008473c <__aeabi_drsub>:
   8473c:	f081 4100 	eor.w	r1, r1, #2147483648	; 0x80000000
   84740:	e002      	b.n	84748 <__adddf3>
   84742:	bf00      	nop

00084744 <__aeabi_dsub>:
   84744:	f083 4300 	eor.w	r3, r3, #2147483648	; 0x80000000

00084748 <__adddf3>:
   84748:	b530      	push	{r4, r5, lr}
   8474a:	ea4f 0441 	mov.w	r4, r1, lsl #1
   8474e:	ea4f 0543 	mov.w	r5, r3, lsl #1
   84752:	ea94 0f05 	teq	r4, r5
   84756:	bf08      	it	eq
   84758:	ea90 0f02 	teqeq	r0, r2
   8475c:	bf1f      	itttt	ne
   8475e:	ea54 0c00 	orrsne.w	ip, r4, r0
   84762:	ea55 0c02 	orrsne.w	ip, r5, r2
   84766:	ea7f 5c64 	mvnsne.w	ip, r4, asr #21
   8476a:	ea7f 5c65 	mvnsne.w	ip, r5, asr #21
   8476e:	f000 80e2 	beq.w	84936 <__adddf3+0x1ee>
   84772:	ea4f 5454 	mov.w	r4, r4, lsr #21
   84776:	ebd4 5555 	rsbs	r5, r4, r5, lsr #21
   8477a:	bfb8      	it	lt
   8477c:	426d      	neglt	r5, r5
   8477e:	dd0c      	ble.n	8479a <__adddf3+0x52>
   84780:	442c      	add	r4, r5
   84782:	ea80 0202 	eor.w	r2, r0, r2
   84786:	ea81 0303 	eor.w	r3, r1, r3
   8478a:	ea82 0000 	eor.w	r0, r2, r0
   8478e:	ea83 0101 	eor.w	r1, r3, r1
   84792:	ea80 0202 	eor.w	r2, r0, r2
   84796:	ea81 0303 	eor.w	r3, r1, r3
   8479a:	2d36      	cmp	r5, #54	; 0x36
   8479c:	bf88      	it	hi
   8479e:	bd30      	pophi	{r4, r5, pc}
   847a0:	f011 4f00 	tst.w	r1, #2147483648	; 0x80000000
   847a4:	ea4f 3101 	mov.w	r1, r1, lsl #12
   847a8:	f44f 1c80 	mov.w	ip, #1048576	; 0x100000
   847ac:	ea4c 3111 	orr.w	r1, ip, r1, lsr #12
   847b0:	d002      	beq.n	847b8 <__adddf3+0x70>
   847b2:	4240      	negs	r0, r0
   847b4:	eb61 0141 	sbc.w	r1, r1, r1, lsl #1
   847b8:	f013 4f00 	tst.w	r3, #2147483648	; 0x80000000
   847bc:	ea4f 3303 	mov.w	r3, r3, lsl #12
   847c0:	ea4c 3313 	orr.w	r3, ip, r3, lsr #12
   847c4:	d002      	beq.n	847cc <__adddf3+0x84>
   847c6:	4252      	negs	r2, r2
   847c8:	eb63 0343 	sbc.w	r3, r3, r3, lsl #1
   847cc:	ea94 0f05 	teq	r4, r5
   847d0:	f000 80a7 	beq.w	84922 <__adddf3+0x1da>
   847d4:	f1a4 0401 	sub.w	r4, r4, #1
   847d8:	f1d5 0e20 	rsbs	lr, r5, #32
   847dc:	db0d      	blt.n	847fa <__adddf3+0xb2>
   847de:	fa02 fc0e 	lsl.w	ip, r2, lr
   847e2:	fa22 f205 	lsr.w	r2, r2, r5
   847e6:	1880      	adds	r0, r0, r2
   847e8:	f141 0100 	adc.w	r1, r1, #0
   847ec:	fa03 f20e 	lsl.w	r2, r3, lr
   847f0:	1880      	adds	r0, r0, r2
   847f2:	fa43 f305 	asr.w	r3, r3, r5
   847f6:	4159      	adcs	r1, r3
   847f8:	e00e      	b.n	84818 <__adddf3+0xd0>
   847fa:	f1a5 0520 	sub.w	r5, r5, #32
   847fe:	f10e 0e20 	add.w	lr, lr, #32
   84802:	2a01      	cmp	r2, #1
   84804:	fa03 fc0e 	lsl.w	ip, r3, lr
   84808:	bf28      	it	cs
   8480a:	f04c 0c02 	orrcs.w	ip, ip, #2
   8480e:	fa43 f305 	asr.w	r3, r3, r5
   84812:	18c0      	adds	r0, r0, r3
   84814:	eb51 71e3 	adcs.w	r1, r1, r3, asr #31
   84818:	f001 4500 	and.w	r5, r1, #2147483648	; 0x80000000
   8481c:	d507      	bpl.n	8482e <__adddf3+0xe6>
   8481e:	f04f 0e00 	mov.w	lr, #0
   84822:	f1dc 0c00 	rsbs	ip, ip, #0
   84826:	eb7e 0000 	sbcs.w	r0, lr, r0
   8482a:	eb6e 0101 	sbc.w	r1, lr, r1
   8482e:	f5b1 1f80 	cmp.w	r1, #1048576	; 0x100000
   84832:	d31b      	bcc.n	8486c <__adddf3+0x124>
   84834:	f5b1 1f00 	cmp.w	r1, #2097152	; 0x200000
   84838:	d30c      	bcc.n	84854 <__adddf3+0x10c>
   8483a:	0849      	lsrs	r1, r1, #1
   8483c:	ea5f 0030 	movs.w	r0, r0, rrx
   84840:	ea4f 0c3c 	mov.w	ip, ip, rrx
   84844:	f104 0401 	add.w	r4, r4, #1
   84848:	ea4f 5244 	mov.w	r2, r4, lsl #21
   8484c:	f512 0f80 	cmn.w	r2, #4194304	; 0x400000
   84850:	f080 809a 	bcs.w	84988 <__adddf3+0x240>
   84854:	f1bc 4f00 	cmp.w	ip, #2147483648	; 0x80000000
   84858:	bf08      	it	eq
   8485a:	ea5f 0c50 	movseq.w	ip, r0, lsr #1
   8485e:	f150 0000 	adcs.w	r0, r0, #0
   84862:	eb41 5104 	adc.w	r1, r1, r4, lsl #20
   84866:	ea41 0105 	orr.w	r1, r1, r5
   8486a:	bd30      	pop	{r4, r5, pc}
   8486c:	ea5f 0c4c 	movs.w	ip, ip, lsl #1
   84870:	4140      	adcs	r0, r0
   84872:	eb41 0101 	adc.w	r1, r1, r1
   84876:	f411 1f80 	tst.w	r1, #1048576	; 0x100000
   8487a:	f1a4 0401 	sub.w	r4, r4, #1
   8487e:	d1e9      	bne.n	84854 <__adddf3+0x10c>
   84880:	f091 0f00 	teq	r1, #0
   84884:	bf04      	itt	eq
   84886:	4601      	moveq	r1, r0
   84888:	2000      	moveq	r0, #0
   8488a:	fab1 f381 	clz	r3, r1
   8488e:	bf08      	it	eq
   84890:	3320      	addeq	r3, #32
   84892:	f1a3 030b 	sub.w	r3, r3, #11
   84896:	f1b3 0220 	subs.w	r2, r3, #32
   8489a:	da0c      	bge.n	848b6 <__adddf3+0x16e>
   8489c:	320c      	adds	r2, #12
   8489e:	dd08      	ble.n	848b2 <__adddf3+0x16a>
   848a0:	f102 0c14 	add.w	ip, r2, #20
   848a4:	f1c2 020c 	rsb	r2, r2, #12
   848a8:	fa01 f00c 	lsl.w	r0, r1, ip
   848ac:	fa21 f102 	lsr.w	r1, r1, r2
   848b0:	e00c      	b.n	848cc <__adddf3+0x184>
   848b2:	f102 0214 	add.w	r2, r2, #20
   848b6:	bfd8      	it	le
   848b8:	f1c2 0c20 	rsble	ip, r2, #32
   848bc:	fa01 f102 	lsl.w	r1, r1, r2
   848c0:	fa20 fc0c 	lsr.w	ip, r0, ip
   848c4:	bfdc      	itt	le
   848c6:	ea41 010c 	orrle.w	r1, r1, ip
   848ca:	4090      	lslle	r0, r2
   848cc:	1ae4      	subs	r4, r4, r3
   848ce:	bfa2      	ittt	ge
   848d0:	eb01 5104 	addge.w	r1, r1, r4, lsl #20
   848d4:	4329      	orrge	r1, r5
   848d6:	bd30      	popge	{r4, r5, pc}
   848d8:	ea6f 0404 	mvn.w	r4, r4
   848dc:	3c1f      	subs	r4, #31
   848de:	da1c      	bge.n	8491a <__adddf3+0x1d2>
   848e0:	340c      	adds	r4, #12
   848e2:	dc0e      	bgt.n	84902 <__adddf3+0x1ba>
   848e4:	f104 0414 	add.w	r4, r4, #20
   848e8:	f1c4 0220 	rsb	r2, r4, #32
   848ec:	fa20 f004 	lsr.w	r0, r0, r4
   848f0:	fa01 f302 	lsl.w	r3, r1, r2
   848f4:	ea40 0003 	orr.w	r0, r0, r3
   848f8:	fa21 f304 	lsr.w	r3, r1, r4
   848fc:	ea45 0103 	orr.w	r1, r5, r3
   84900:	bd30      	pop	{r4, r5, pc}
   84902:	f1c4 040c 	rsb	r4, r4, #12
   84906:	f1c4 0220 	rsb	r2, r4, #32
   8490a:	fa20 f002 	lsr.w	r0, r0, r2
   8490e:	fa01 f304 	lsl.w	r3, r1, r4
   84912:	ea40 0003 	orr.w	r0, r0, r3
   84916:	4629      	mov	r1, r5
   84918:	bd30      	pop	{r4, r5, pc}
   8491a:	fa21 f004 	lsr.w	r0, r1, r4
   8491e:	4629      	mov	r1, r5
   84920:	bd30      	pop	{r4, r5, pc}
   84922:	f094 0f00 	teq	r4, #0
   84926:	f483 1380 	eor.w	r3, r3, #1048576	; 0x100000
   8492a:	bf06      	itte	eq
   8492c:	f481 1180 	eoreq.w	r1, r1, #1048576	; 0x100000
   84930:	3401      	addeq	r4, #1
   84932:	3d01      	subne	r5, #1
   84934:	e74e      	b.n	847d4 <__adddf3+0x8c>
   84936:	ea7f 5c64 	mvns.w	ip, r4, asr #21
   8493a:	bf18      	it	ne
   8493c:	ea7f 5c65 	mvnsne.w	ip, r5, asr #21
   84940:	d029      	beq.n	84996 <__adddf3+0x24e>
   84942:	ea94 0f05 	teq	r4, r5
   84946:	bf08      	it	eq
   84948:	ea90 0f02 	teqeq	r0, r2
   8494c:	d005      	beq.n	8495a <__adddf3+0x212>
   8494e:	ea54 0c00 	orrs.w	ip, r4, r0
   84952:	bf04      	itt	eq
   84954:	4619      	moveq	r1, r3
   84956:	4610      	moveq	r0, r2
   84958:	bd30      	pop	{r4, r5, pc}
   8495a:	ea91 0f03 	teq	r1, r3
   8495e:	bf1e      	ittt	ne
   84960:	2100      	movne	r1, #0
   84962:	2000      	movne	r0, #0
   84964:	bd30      	popne	{r4, r5, pc}
   84966:	ea5f 5c54 	movs.w	ip, r4, lsr #21
   8496a:	d105      	bne.n	84978 <__adddf3+0x230>
   8496c:	0040      	lsls	r0, r0, #1
   8496e:	4149      	adcs	r1, r1
   84970:	bf28      	it	cs
   84972:	f041 4100 	orrcs.w	r1, r1, #2147483648	; 0x80000000
   84976:	bd30      	pop	{r4, r5, pc}
   84978:	f514 0480 	adds.w	r4, r4, #4194304	; 0x400000
   8497c:	bf3c      	itt	cc
   8497e:	f501 1180 	addcc.w	r1, r1, #1048576	; 0x100000
   84982:	bd30      	popcc	{r4, r5, pc}
   84984:	f001 4500 	and.w	r5, r1, #2147483648	; 0x80000000
   84988:	f045 41fe 	orr.w	r1, r5, #2130706432	; 0x7f000000
   8498c:	f441 0170 	orr.w	r1, r1, #15728640	; 0xf00000
   84990:	f04f 0000 	mov.w	r0, #0
   84994:	bd30      	pop	{r4, r5, pc}
   84996:	ea7f 5c64 	mvns.w	ip, r4, asr #21
   8499a:	bf1a      	itte	ne
   8499c:	4619      	movne	r1, r3
   8499e:	4610      	movne	r0, r2
   849a0:	ea7f 5c65 	mvnseq.w	ip, r5, asr #21
   849a4:	bf1c      	itt	ne
   849a6:	460b      	movne	r3, r1
   849a8:	4602      	movne	r2, r0
   849aa:	ea50 3401 	orrs.w	r4, r0, r1, lsl #12
   849ae:	bf06      	itte	eq
   849b0:	ea52 3503 	orrseq.w	r5, r2, r3, lsl #12
   849b4:	ea91 0f03 	teqeq	r1, r3
   849b8:	f441 2100 	orrne.w	r1, r1, #524288	; 0x80000
   849bc:	bd30      	pop	{r4, r5, pc}
   849be:	bf00      	nop

000849c0 <__aeabi_ui2d>:
   849c0:	f090 0f00 	teq	r0, #0
   849c4:	bf04      	itt	eq
   849c6:	2100      	moveq	r1, #0
   849c8:	4770      	bxeq	lr
   849ca:	b530      	push	{r4, r5, lr}
   849cc:	f44f 6480 	mov.w	r4, #1024	; 0x400
   849d0:	f104 0432 	add.w	r4, r4, #50	; 0x32
   849d4:	f04f 0500 	mov.w	r5, #0
   849d8:	f04f 0100 	mov.w	r1, #0
   849dc:	e750      	b.n	84880 <__adddf3+0x138>
   849de:	bf00      	nop

000849e0 <__aeabi_i2d>:
   849e0:	f090 0f00 	teq	r0, #0
   849e4:	bf04      	itt	eq
   849e6:	2100      	moveq	r1, #0
   849e8:	4770      	bxeq	lr
   849ea:	b530      	push	{r4, r5, lr}
   849ec:	f44f 6480 	mov.w	r4, #1024	; 0x400
   849f0:	f104 0432 	add.w	r4, r4, #50	; 0x32
   849f4:	f010 4500 	ands.w	r5, r0, #2147483648	; 0x80000000
   849f8:	bf48      	it	mi
   849fa:	4240      	negmi	r0, r0
   849fc:	f04f 0100 	mov.w	r1, #0
   84a00:	e73e      	b.n	84880 <__adddf3+0x138>
   84a02:	bf00      	nop

00084a04 <__aeabi_f2d>:
   84a04:	0042      	lsls	r2, r0, #1
   84a06:	ea4f 01e2 	mov.w	r1, r2, asr #3
   84a0a:	ea4f 0131 	mov.w	r1, r1, rrx
   84a0e:	ea4f 7002 	mov.w	r0, r2, lsl #28
   84a12:	bf1f      	itttt	ne
   84a14:	f012 437f 	andsne.w	r3, r2, #4278190080	; 0xff000000
   84a18:	f093 4f7f 	teqne	r3, #4278190080	; 0xff000000
   84a1c:	f081 5160 	eorne.w	r1, r1, #939524096	; 0x38000000
   84a20:	4770      	bxne	lr
   84a22:	f092 0f00 	teq	r2, #0
   84a26:	bf14      	ite	ne
   84a28:	f093 4f7f 	teqne	r3, #4278190080	; 0xff000000
   84a2c:	4770      	bxeq	lr
   84a2e:	b530      	push	{r4, r5, lr}
   84a30:	f44f 7460 	mov.w	r4, #896	; 0x380
   84a34:	f001 4500 	and.w	r5, r1, #2147483648	; 0x80000000
   84a38:	f021 4100 	bic.w	r1, r1, #2147483648	; 0x80000000
   84a3c:	e720      	b.n	84880 <__adddf3+0x138>
   84a3e:	bf00      	nop

00084a40 <__aeabi_ul2d>:
   84a40:	ea50 0201 	orrs.w	r2, r0, r1
   84a44:	bf08      	it	eq
   84a46:	4770      	bxeq	lr
   84a48:	b530      	push	{r4, r5, lr}
   84a4a:	f04f 0500 	mov.w	r5, #0
   84a4e:	e00a      	b.n	84a66 <__aeabi_l2d+0x16>

00084a50 <__aeabi_l2d>:
   84a50:	ea50 0201 	orrs.w	r2, r0, r1
   84a54:	bf08      	it	eq
   84a56:	4770      	bxeq	lr
   84a58:	b530      	push	{r4, r5, lr}
   84a5a:	f011 4500 	ands.w	r5, r1, #2147483648	; 0x80000000
   84a5e:	d502      	bpl.n	84a66 <__aeabi_l2d+0x16>
   84a60:	4240      	negs	r0, r0
   84a62:	eb61 0141 	sbc.w	r1, r1, r1, lsl #1
   84a66:	f44f 6480 	mov.w	r4, #1024	; 0x400
   84a6a:	f104 0432 	add.w	r4, r4, #50	; 0x32
   84a6e:	ea5f 5c91 	movs.w	ip, r1, lsr #22
   84a72:	f43f aedc 	beq.w	8482e <__adddf3+0xe6>
   84a76:	f04f 0203 	mov.w	r2, #3
   84a7a:	ea5f 0cdc 	movs.w	ip, ip, lsr #3
   84a7e:	bf18      	it	ne
   84a80:	3203      	addne	r2, #3
   84a82:	ea5f 0cdc 	movs.w	ip, ip, lsr #3
   84a86:	bf18      	it	ne
   84a88:	3203      	addne	r2, #3
   84a8a:	eb02 02dc 	add.w	r2, r2, ip, lsr #3
   84a8e:	f1c2 0320 	rsb	r3, r2, #32
   84a92:	fa00 fc03 	lsl.w	ip, r0, r3
   84a96:	fa20 f002 	lsr.w	r0, r0, r2
   84a9a:	fa01 fe03 	lsl.w	lr, r1, r3
   84a9e:	ea40 000e 	orr.w	r0, r0, lr
   84aa2:	fa21 f102 	lsr.w	r1, r1, r2
   84aa6:	4414      	add	r4, r2
   84aa8:	e6c1      	b.n	8482e <__adddf3+0xe6>
   84aaa:	bf00      	nop

00084aac <__aeabi_dmul>:
   84aac:	b570      	push	{r4, r5, r6, lr}
   84aae:	f04f 0cff 	mov.w	ip, #255	; 0xff
   84ab2:	f44c 6ce0 	orr.w	ip, ip, #1792	; 0x700
   84ab6:	ea1c 5411 	ands.w	r4, ip, r1, lsr #20
   84aba:	bf1d      	ittte	ne
   84abc:	ea1c 5513 	andsne.w	r5, ip, r3, lsr #20
   84ac0:	ea94 0f0c 	teqne	r4, ip
   84ac4:	ea95 0f0c 	teqne	r5, ip
   84ac8:	f000 f8de 	bleq	84c88 <__aeabi_dmul+0x1dc>
   84acc:	442c      	add	r4, r5
   84ace:	ea81 0603 	eor.w	r6, r1, r3
   84ad2:	ea21 514c 	bic.w	r1, r1, ip, lsl #21
   84ad6:	ea23 534c 	bic.w	r3, r3, ip, lsl #21
   84ada:	ea50 3501 	orrs.w	r5, r0, r1, lsl #12
   84ade:	bf18      	it	ne
   84ae0:	ea52 3503 	orrsne.w	r5, r2, r3, lsl #12
   84ae4:	f441 1180 	orr.w	r1, r1, #1048576	; 0x100000
   84ae8:	f443 1380 	orr.w	r3, r3, #1048576	; 0x100000
   84aec:	d038      	beq.n	84b60 <__aeabi_dmul+0xb4>
   84aee:	fba0 ce02 	umull	ip, lr, r0, r2
   84af2:	f04f 0500 	mov.w	r5, #0
   84af6:	fbe1 e502 	umlal	lr, r5, r1, r2
   84afa:	f006 4200 	and.w	r2, r6, #2147483648	; 0x80000000
   84afe:	fbe0 e503 	umlal	lr, r5, r0, r3
   84b02:	f04f 0600 	mov.w	r6, #0
   84b06:	fbe1 5603 	umlal	r5, r6, r1, r3
   84b0a:	f09c 0f00 	teq	ip, #0
   84b0e:	bf18      	it	ne
   84b10:	f04e 0e01 	orrne.w	lr, lr, #1
   84b14:	f1a4 04ff 	sub.w	r4, r4, #255	; 0xff
   84b18:	f5b6 7f00 	cmp.w	r6, #512	; 0x200
   84b1c:	f564 7440 	sbc.w	r4, r4, #768	; 0x300
   84b20:	d204      	bcs.n	84b2c <__aeabi_dmul+0x80>
   84b22:	ea5f 0e4e 	movs.w	lr, lr, lsl #1
   84b26:	416d      	adcs	r5, r5
   84b28:	eb46 0606 	adc.w	r6, r6, r6
   84b2c:	ea42 21c6 	orr.w	r1, r2, r6, lsl #11
   84b30:	ea41 5155 	orr.w	r1, r1, r5, lsr #21
   84b34:	ea4f 20c5 	mov.w	r0, r5, lsl #11
   84b38:	ea40 505e 	orr.w	r0, r0, lr, lsr #21
   84b3c:	ea4f 2ece 	mov.w	lr, lr, lsl #11
   84b40:	f1b4 0cfd 	subs.w	ip, r4, #253	; 0xfd
   84b44:	bf88      	it	hi
   84b46:	f5bc 6fe0 	cmphi.w	ip, #1792	; 0x700
   84b4a:	d81e      	bhi.n	84b8a <__aeabi_dmul+0xde>
   84b4c:	f1be 4f00 	cmp.w	lr, #2147483648	; 0x80000000
   84b50:	bf08      	it	eq
   84b52:	ea5f 0e50 	movseq.w	lr, r0, lsr #1
   84b56:	f150 0000 	adcs.w	r0, r0, #0
   84b5a:	eb41 5104 	adc.w	r1, r1, r4, lsl #20
   84b5e:	bd70      	pop	{r4, r5, r6, pc}
   84b60:	f006 4600 	and.w	r6, r6, #2147483648	; 0x80000000
   84b64:	ea46 0101 	orr.w	r1, r6, r1
   84b68:	ea40 0002 	orr.w	r0, r0, r2
   84b6c:	ea81 0103 	eor.w	r1, r1, r3
   84b70:	ebb4 045c 	subs.w	r4, r4, ip, lsr #1
   84b74:	bfc2      	ittt	gt
   84b76:	ebd4 050c 	rsbsgt	r5, r4, ip
   84b7a:	ea41 5104 	orrgt.w	r1, r1, r4, lsl #20
   84b7e:	bd70      	popgt	{r4, r5, r6, pc}
   84b80:	f441 1180 	orr.w	r1, r1, #1048576	; 0x100000
   84b84:	f04f 0e00 	mov.w	lr, #0
   84b88:	3c01      	subs	r4, #1
   84b8a:	f300 80ab 	bgt.w	84ce4 <__aeabi_dmul+0x238>
   84b8e:	f114 0f36 	cmn.w	r4, #54	; 0x36
   84b92:	bfde      	ittt	le
   84b94:	2000      	movle	r0, #0
   84b96:	f001 4100 	andle.w	r1, r1, #2147483648	; 0x80000000
   84b9a:	bd70      	pople	{r4, r5, r6, pc}
   84b9c:	f1c4 0400 	rsb	r4, r4, #0
   84ba0:	3c20      	subs	r4, #32
   84ba2:	da35      	bge.n	84c10 <__aeabi_dmul+0x164>
   84ba4:	340c      	adds	r4, #12
   84ba6:	dc1b      	bgt.n	84be0 <__aeabi_dmul+0x134>
   84ba8:	f104 0414 	add.w	r4, r4, #20
   84bac:	f1c4 0520 	rsb	r5, r4, #32
   84bb0:	fa00 f305 	lsl.w	r3, r0, r5
   84bb4:	fa20 f004 	lsr.w	r0, r0, r4
   84bb8:	fa01 f205 	lsl.w	r2, r1, r5
   84bbc:	ea40 0002 	orr.w	r0, r0, r2
   84bc0:	f001 4200 	and.w	r2, r1, #2147483648	; 0x80000000
   84bc4:	f021 4100 	bic.w	r1, r1, #2147483648	; 0x80000000
   84bc8:	eb10 70d3 	adds.w	r0, r0, r3, lsr #31
   84bcc:	fa21 f604 	lsr.w	r6, r1, r4
   84bd0:	eb42 0106 	adc.w	r1, r2, r6
   84bd4:	ea5e 0e43 	orrs.w	lr, lr, r3, lsl #1
   84bd8:	bf08      	it	eq
   84bda:	ea20 70d3 	biceq.w	r0, r0, r3, lsr #31
   84bde:	bd70      	pop	{r4, r5, r6, pc}
   84be0:	f1c4 040c 	rsb	r4, r4, #12
   84be4:	f1c4 0520 	rsb	r5, r4, #32
   84be8:	fa00 f304 	lsl.w	r3, r0, r4
   84bec:	fa20 f005 	lsr.w	r0, r0, r5
   84bf0:	fa01 f204 	lsl.w	r2, r1, r4
   84bf4:	ea40 0002 	orr.w	r0, r0, r2
   84bf8:	f001 4100 	and.w	r1, r1, #2147483648	; 0x80000000
   84bfc:	eb10 70d3 	adds.w	r0, r0, r3, lsr #31
   84c00:	f141 0100 	adc.w	r1, r1, #0
   84c04:	ea5e 0e43 	orrs.w	lr, lr, r3, lsl #1
   84c08:	bf08      	it	eq
   84c0a:	ea20 70d3 	biceq.w	r0, r0, r3, lsr #31
   84c0e:	bd70      	pop	{r4, r5, r6, pc}
   84c10:	f1c4 0520 	rsb	r5, r4, #32
   84c14:	fa00 f205 	lsl.w	r2, r0, r5
   84c18:	ea4e 0e02 	orr.w	lr, lr, r2
   84c1c:	fa20 f304 	lsr.w	r3, r0, r4
   84c20:	fa01 f205 	lsl.w	r2, r1, r5
   84c24:	ea43 0302 	orr.w	r3, r3, r2
   84c28:	fa21 f004 	lsr.w	r0, r1, r4
   84c2c:	f001 4100 	and.w	r1, r1, #2147483648	; 0x80000000
   84c30:	fa21 f204 	lsr.w	r2, r1, r4
   84c34:	ea20 0002 	bic.w	r0, r0, r2
   84c38:	eb00 70d3 	add.w	r0, r0, r3, lsr #31
   84c3c:	ea5e 0e43 	orrs.w	lr, lr, r3, lsl #1
   84c40:	bf08      	it	eq
   84c42:	ea20 70d3 	biceq.w	r0, r0, r3, lsr #31
   84c46:	bd70      	pop	{r4, r5, r6, pc}
   84c48:	f094 0f00 	teq	r4, #0
   84c4c:	d10f      	bne.n	84c6e <__aeabi_dmul+0x1c2>
   84c4e:	f001 4600 	and.w	r6, r1, #2147483648	; 0x80000000
   84c52:	0040      	lsls	r0, r0, #1
   84c54:	eb41 0101 	adc.w	r1, r1, r1
   84c58:	f411 1f80 	tst.w	r1, #1048576	; 0x100000
   84c5c:	bf08      	it	eq
   84c5e:	3c01      	subeq	r4, #1
   84c60:	d0f7      	beq.n	84c52 <__aeabi_dmul+0x1a6>
   84c62:	ea41 0106 	orr.w	r1, r1, r6
   84c66:	f095 0f00 	teq	r5, #0
   84c6a:	bf18      	it	ne
   84c6c:	4770      	bxne	lr
   84c6e:	f003 4600 	and.w	r6, r3, #2147483648	; 0x80000000
   84c72:	0052      	lsls	r2, r2, #1
   84c74:	eb43 0303 	adc.w	r3, r3, r3
   84c78:	f413 1f80 	tst.w	r3, #1048576	; 0x100000
   84c7c:	bf08      	it	eq
   84c7e:	3d01      	subeq	r5, #1
   84c80:	d0f7      	beq.n	84c72 <__aeabi_dmul+0x1c6>
   84c82:	ea43 0306 	orr.w	r3, r3, r6
   84c86:	4770      	bx	lr
   84c88:	ea94 0f0c 	teq	r4, ip
   84c8c:	ea0c 5513 	and.w	r5, ip, r3, lsr #20
   84c90:	bf18      	it	ne
   84c92:	ea95 0f0c 	teqne	r5, ip
   84c96:	d00c      	beq.n	84cb2 <__aeabi_dmul+0x206>
   84c98:	ea50 0641 	orrs.w	r6, r0, r1, lsl #1
   84c9c:	bf18      	it	ne
   84c9e:	ea52 0643 	orrsne.w	r6, r2, r3, lsl #1
   84ca2:	d1d1      	bne.n	84c48 <__aeabi_dmul+0x19c>
   84ca4:	ea81 0103 	eor.w	r1, r1, r3
   84ca8:	f001 4100 	and.w	r1, r1, #2147483648	; 0x80000000
   84cac:	f04f 0000 	mov.w	r0, #0
   84cb0:	bd70      	pop	{r4, r5, r6, pc}
   84cb2:	ea50 0641 	orrs.w	r6, r0, r1, lsl #1
   84cb6:	bf06      	itte	eq
   84cb8:	4610      	moveq	r0, r2
   84cba:	4619      	moveq	r1, r3
   84cbc:	ea52 0643 	orrsne.w	r6, r2, r3, lsl #1
   84cc0:	d019      	beq.n	84cf6 <__aeabi_dmul+0x24a>
   84cc2:	ea94 0f0c 	teq	r4, ip
   84cc6:	d102      	bne.n	84cce <__aeabi_dmul+0x222>
   84cc8:	ea50 3601 	orrs.w	r6, r0, r1, lsl #12
   84ccc:	d113      	bne.n	84cf6 <__aeabi_dmul+0x24a>
   84cce:	ea95 0f0c 	teq	r5, ip
   84cd2:	d105      	bne.n	84ce0 <__aeabi_dmul+0x234>
   84cd4:	ea52 3603 	orrs.w	r6, r2, r3, lsl #12
   84cd8:	bf1c      	itt	ne
   84cda:	4610      	movne	r0, r2
   84cdc:	4619      	movne	r1, r3
   84cde:	d10a      	bne.n	84cf6 <__aeabi_dmul+0x24a>
   84ce0:	ea81 0103 	eor.w	r1, r1, r3
   84ce4:	f001 4100 	and.w	r1, r1, #2147483648	; 0x80000000
   84ce8:	f041 41fe 	orr.w	r1, r1, #2130706432	; 0x7f000000
   84cec:	f441 0170 	orr.w	r1, r1, #15728640	; 0xf00000
   84cf0:	f04f 0000 	mov.w	r0, #0
   84cf4:	bd70      	pop	{r4, r5, r6, pc}
   84cf6:	f041 41fe 	orr.w	r1, r1, #2130706432	; 0x7f000000
   84cfa:	f441 0178 	orr.w	r1, r1, #16252928	; 0xf80000
   84cfe:	bd70      	pop	{r4, r5, r6, pc}

00084d00 <__aeabi_ddiv>:
   84d00:	b570      	push	{r4, r5, r6, lr}
   84d02:	f04f 0cff 	mov.w	ip, #255	; 0xff
   84d06:	f44c 6ce0 	orr.w	ip, ip, #1792	; 0x700
   84d0a:	ea1c 5411 	ands.w	r4, ip, r1, lsr #20
   84d0e:	bf1d      	ittte	ne
   84d10:	ea1c 5513 	andsne.w	r5, ip, r3, lsr #20
   84d14:	ea94 0f0c 	teqne	r4, ip
   84d18:	ea95 0f0c 	teqne	r5, ip
   84d1c:	f000 f8a7 	bleq	84e6e <__aeabi_ddiv+0x16e>
   84d20:	eba4 0405 	sub.w	r4, r4, r5
   84d24:	ea81 0e03 	eor.w	lr, r1, r3
   84d28:	ea52 3503 	orrs.w	r5, r2, r3, lsl #12
   84d2c:	ea4f 3101 	mov.w	r1, r1, lsl #12
   84d30:	f000 8088 	beq.w	84e44 <__aeabi_ddiv+0x144>
   84d34:	ea4f 3303 	mov.w	r3, r3, lsl #12
   84d38:	f04f 5580 	mov.w	r5, #268435456	; 0x10000000
   84d3c:	ea45 1313 	orr.w	r3, r5, r3, lsr #4
   84d40:	ea43 6312 	orr.w	r3, r3, r2, lsr #24
   84d44:	ea4f 2202 	mov.w	r2, r2, lsl #8
   84d48:	ea45 1511 	orr.w	r5, r5, r1, lsr #4
   84d4c:	ea45 6510 	orr.w	r5, r5, r0, lsr #24
   84d50:	ea4f 2600 	mov.w	r6, r0, lsl #8
   84d54:	f00e 4100 	and.w	r1, lr, #2147483648	; 0x80000000
   84d58:	429d      	cmp	r5, r3
   84d5a:	bf08      	it	eq
   84d5c:	4296      	cmpeq	r6, r2
   84d5e:	f144 04fd 	adc.w	r4, r4, #253	; 0xfd
   84d62:	f504 7440 	add.w	r4, r4, #768	; 0x300
   84d66:	d202      	bcs.n	84d6e <__aeabi_ddiv+0x6e>
   84d68:	085b      	lsrs	r3, r3, #1
   84d6a:	ea4f 0232 	mov.w	r2, r2, rrx
   84d6e:	1ab6      	subs	r6, r6, r2
   84d70:	eb65 0503 	sbc.w	r5, r5, r3
   84d74:	085b      	lsrs	r3, r3, #1
   84d76:	ea4f 0232 	mov.w	r2, r2, rrx
   84d7a:	f44f 1080 	mov.w	r0, #1048576	; 0x100000
   84d7e:	f44f 2c00 	mov.w	ip, #524288	; 0x80000
   84d82:	ebb6 0e02 	subs.w	lr, r6, r2
   84d86:	eb75 0e03 	sbcs.w	lr, r5, r3
   84d8a:	bf22      	ittt	cs
   84d8c:	1ab6      	subcs	r6, r6, r2
   84d8e:	4675      	movcs	r5, lr
   84d90:	ea40 000c 	orrcs.w	r0, r0, ip
   84d94:	085b      	lsrs	r3, r3, #1
   84d96:	ea4f 0232 	mov.w	r2, r2, rrx
   84d9a:	ebb6 0e02 	subs.w	lr, r6, r2
   84d9e:	eb75 0e03 	sbcs.w	lr, r5, r3
   84da2:	bf22      	ittt	cs
   84da4:	1ab6      	subcs	r6, r6, r2
   84da6:	4675      	movcs	r5, lr
   84da8:	ea40 005c 	orrcs.w	r0, r0, ip, lsr #1
   84dac:	085b      	lsrs	r3, r3, #1
   84dae:	ea4f 0232 	mov.w	r2, r2, rrx
   84db2:	ebb6 0e02 	subs.w	lr, r6, r2
   84db6:	eb75 0e03 	sbcs.w	lr, r5, r3
   84dba:	bf22      	ittt	cs
   84dbc:	1ab6      	subcs	r6, r6, r2
   84dbe:	4675      	movcs	r5, lr
   84dc0:	ea40 009c 	orrcs.w	r0, r0, ip, lsr #2
   84dc4:	085b      	lsrs	r3, r3, #1
   84dc6:	ea4f 0232 	mov.w	r2, r2, rrx
   84dca:	ebb6 0e02 	subs.w	lr, r6, r2
   84dce:	eb75 0e03 	sbcs.w	lr, r5, r3
   84dd2:	bf22      	ittt	cs
   84dd4:	1ab6      	subcs	r6, r6, r2
   84dd6:	4675      	movcs	r5, lr
   84dd8:	ea40 00dc 	orrcs.w	r0, r0, ip, lsr #3
   84ddc:	ea55 0e06 	orrs.w	lr, r5, r6
   84de0:	d018      	beq.n	84e14 <__aeabi_ddiv+0x114>
   84de2:	ea4f 1505 	mov.w	r5, r5, lsl #4
   84de6:	ea45 7516 	orr.w	r5, r5, r6, lsr #28
   84dea:	ea4f 1606 	mov.w	r6, r6, lsl #4
   84dee:	ea4f 03c3 	mov.w	r3, r3, lsl #3
   84df2:	ea43 7352 	orr.w	r3, r3, r2, lsr #29
   84df6:	ea4f 02c2 	mov.w	r2, r2, lsl #3
   84dfa:	ea5f 1c1c 	movs.w	ip, ip, lsr #4
   84dfe:	d1c0      	bne.n	84d82 <__aeabi_ddiv+0x82>
   84e00:	f411 1f80 	tst.w	r1, #1048576	; 0x100000
   84e04:	d10b      	bne.n	84e1e <__aeabi_ddiv+0x11e>
   84e06:	ea41 0100 	orr.w	r1, r1, r0
   84e0a:	f04f 0000 	mov.w	r0, #0
   84e0e:	f04f 4c00 	mov.w	ip, #2147483648	; 0x80000000
   84e12:	e7b6      	b.n	84d82 <__aeabi_ddiv+0x82>
   84e14:	f411 1f80 	tst.w	r1, #1048576	; 0x100000
   84e18:	bf04      	itt	eq
   84e1a:	4301      	orreq	r1, r0
   84e1c:	2000      	moveq	r0, #0
   84e1e:	f1b4 0cfd 	subs.w	ip, r4, #253	; 0xfd
   84e22:	bf88      	it	hi
   84e24:	f5bc 6fe0 	cmphi.w	ip, #1792	; 0x700
   84e28:	f63f aeaf 	bhi.w	84b8a <__aeabi_dmul+0xde>
   84e2c:	ebb5 0c03 	subs.w	ip, r5, r3
   84e30:	bf04      	itt	eq
   84e32:	ebb6 0c02 	subseq.w	ip, r6, r2
   84e36:	ea5f 0c50 	movseq.w	ip, r0, lsr #1
   84e3a:	f150 0000 	adcs.w	r0, r0, #0
   84e3e:	eb41 5104 	adc.w	r1, r1, r4, lsl #20
   84e42:	bd70      	pop	{r4, r5, r6, pc}
   84e44:	f00e 4e00 	and.w	lr, lr, #2147483648	; 0x80000000
   84e48:	ea4e 3111 	orr.w	r1, lr, r1, lsr #12
   84e4c:	eb14 045c 	adds.w	r4, r4, ip, lsr #1
   84e50:	bfc2      	ittt	gt
   84e52:	ebd4 050c 	rsbsgt	r5, r4, ip
   84e56:	ea41 5104 	orrgt.w	r1, r1, r4, lsl #20
   84e5a:	bd70      	popgt	{r4, r5, r6, pc}
   84e5c:	f441 1180 	orr.w	r1, r1, #1048576	; 0x100000
   84e60:	f04f 0e00 	mov.w	lr, #0
   84e64:	3c01      	subs	r4, #1
   84e66:	e690      	b.n	84b8a <__aeabi_dmul+0xde>
   84e68:	ea45 0e06 	orr.w	lr, r5, r6
   84e6c:	e68d      	b.n	84b8a <__aeabi_dmul+0xde>
   84e6e:	ea0c 5513 	and.w	r5, ip, r3, lsr #20
   84e72:	ea94 0f0c 	teq	r4, ip
   84e76:	bf08      	it	eq
   84e78:	ea95 0f0c 	teqeq	r5, ip
   84e7c:	f43f af3b 	beq.w	84cf6 <__aeabi_dmul+0x24a>
   84e80:	ea94 0f0c 	teq	r4, ip
   84e84:	d10a      	bne.n	84e9c <__aeabi_ddiv+0x19c>
   84e86:	ea50 3401 	orrs.w	r4, r0, r1, lsl #12
   84e8a:	f47f af34 	bne.w	84cf6 <__aeabi_dmul+0x24a>
   84e8e:	ea95 0f0c 	teq	r5, ip
   84e92:	f47f af25 	bne.w	84ce0 <__aeabi_dmul+0x234>
   84e96:	4610      	mov	r0, r2
   84e98:	4619      	mov	r1, r3
   84e9a:	e72c      	b.n	84cf6 <__aeabi_dmul+0x24a>
   84e9c:	ea95 0f0c 	teq	r5, ip
   84ea0:	d106      	bne.n	84eb0 <__aeabi_ddiv+0x1b0>
   84ea2:	ea52 3503 	orrs.w	r5, r2, r3, lsl #12
   84ea6:	f43f aefd 	beq.w	84ca4 <__aeabi_dmul+0x1f8>
   84eaa:	4610      	mov	r0, r2
   84eac:	4619      	mov	r1, r3
   84eae:	e722      	b.n	84cf6 <__aeabi_dmul+0x24a>
   84eb0:	ea50 0641 	orrs.w	r6, r0, r1, lsl #1
   84eb4:	bf18      	it	ne
   84eb6:	ea52 0643 	orrsne.w	r6, r2, r3, lsl #1
   84eba:	f47f aec5 	bne.w	84c48 <__aeabi_dmul+0x19c>
   84ebe:	ea50 0441 	orrs.w	r4, r0, r1, lsl #1
   84ec2:	f47f af0d 	bne.w	84ce0 <__aeabi_dmul+0x234>
   84ec6:	ea52 0543 	orrs.w	r5, r2, r3, lsl #1
   84eca:	f47f aeeb 	bne.w	84ca4 <__aeabi_dmul+0x1f8>
   84ece:	e712      	b.n	84cf6 <__aeabi_dmul+0x24a>

00084ed0 <__gedf2>:
   84ed0:	f04f 3cff 	mov.w	ip, #4294967295
   84ed4:	e006      	b.n	84ee4 <__cmpdf2+0x4>
   84ed6:	bf00      	nop

00084ed8 <__ledf2>:
   84ed8:	f04f 0c01 	mov.w	ip, #1
   84edc:	e002      	b.n	84ee4 <__cmpdf2+0x4>
   84ede:	bf00      	nop

00084ee0 <__cmpdf2>:
   84ee0:	f04f 0c01 	mov.w	ip, #1
   84ee4:	f84d cd04 	str.w	ip, [sp, #-4]!
   84ee8:	ea4f 0c41 	mov.w	ip, r1, lsl #1
   84eec:	ea7f 5c6c 	mvns.w	ip, ip, asr #21
   84ef0:	ea4f 0c43 	mov.w	ip, r3, lsl #1
   84ef4:	bf18      	it	ne
   84ef6:	ea7f 5c6c 	mvnsne.w	ip, ip, asr #21
   84efa:	d01b      	beq.n	84f34 <__cmpdf2+0x54>
   84efc:	b001      	add	sp, #4
   84efe:	ea50 0c41 	orrs.w	ip, r0, r1, lsl #1
   84f02:	bf0c      	ite	eq
   84f04:	ea52 0c43 	orrseq.w	ip, r2, r3, lsl #1
   84f08:	ea91 0f03 	teqne	r1, r3
   84f0c:	bf02      	ittt	eq
   84f0e:	ea90 0f02 	teqeq	r0, r2
   84f12:	2000      	moveq	r0, #0
   84f14:	4770      	bxeq	lr
   84f16:	f110 0f00 	cmn.w	r0, #0
   84f1a:	ea91 0f03 	teq	r1, r3
   84f1e:	bf58      	it	pl
   84f20:	4299      	cmppl	r1, r3
   84f22:	bf08      	it	eq
   84f24:	4290      	cmpeq	r0, r2
   84f26:	bf2c      	ite	cs
   84f28:	17d8      	asrcs	r0, r3, #31
   84f2a:	ea6f 70e3 	mvncc.w	r0, r3, asr #31
   84f2e:	f040 0001 	orr.w	r0, r0, #1
   84f32:	4770      	bx	lr
   84f34:	ea4f 0c41 	mov.w	ip, r1, lsl #1
   84f38:	ea7f 5c6c 	mvns.w	ip, ip, asr #21
   84f3c:	d102      	bne.n	84f44 <__cmpdf2+0x64>
   84f3e:	ea50 3c01 	orrs.w	ip, r0, r1, lsl #12
   84f42:	d107      	bne.n	84f54 <__cmpdf2+0x74>
   84f44:	ea4f 0c43 	mov.w	ip, r3, lsl #1
   84f48:	ea7f 5c6c 	mvns.w	ip, ip, asr #21
   84f4c:	d1d6      	bne.n	84efc <__cmpdf2+0x1c>
   84f4e:	ea52 3c03 	orrs.w	ip, r2, r3, lsl #12
   84f52:	d0d3      	beq.n	84efc <__cmpdf2+0x1c>
   84f54:	f85d 0b04 	ldr.w	r0, [sp], #4
   84f58:	4770      	bx	lr
   84f5a:	bf00      	nop

00084f5c <__aeabi_cdrcmple>:
   84f5c:	4684      	mov	ip, r0
   84f5e:	4610      	mov	r0, r2
   84f60:	4662      	mov	r2, ip
   84f62:	468c      	mov	ip, r1
   84f64:	4619      	mov	r1, r3
   84f66:	4663      	mov	r3, ip
   84f68:	e000      	b.n	84f6c <__aeabi_cdcmpeq>
   84f6a:	bf00      	nop

00084f6c <__aeabi_cdcmpeq>:
   84f6c:	b501      	push	{r0, lr}
   84f6e:	f7ff ffb7 	bl	84ee0 <__cmpdf2>
   84f72:	2800      	cmp	r0, #0
   84f74:	bf48      	it	mi
   84f76:	f110 0f00 	cmnmi.w	r0, #0
   84f7a:	bd01      	pop	{r0, pc}

00084f7c <__aeabi_dcmpeq>:
   84f7c:	f84d ed08 	str.w	lr, [sp, #-8]!
   84f80:	f7ff fff4 	bl	84f6c <__aeabi_cdcmpeq>
   84f84:	bf0c      	ite	eq
   84f86:	2001      	moveq	r0, #1
   84f88:	2000      	movne	r0, #0
   84f8a:	f85d fb08 	ldr.w	pc, [sp], #8
   84f8e:	bf00      	nop

00084f90 <__aeabi_dcmplt>:
   84f90:	f84d ed08 	str.w	lr, [sp, #-8]!
   84f94:	f7ff ffea 	bl	84f6c <__aeabi_cdcmpeq>
   84f98:	bf34      	ite	cc
   84f9a:	2001      	movcc	r0, #1
   84f9c:	2000      	movcs	r0, #0
   84f9e:	f85d fb08 	ldr.w	pc, [sp], #8
   84fa2:	bf00      	nop

00084fa4 <__aeabi_dcmple>:
   84fa4:	f84d ed08 	str.w	lr, [sp, #-8]!
   84fa8:	f7ff ffe0 	bl	84f6c <__aeabi_cdcmpeq>
   84fac:	bf94      	ite	ls
   84fae:	2001      	movls	r0, #1
   84fb0:	2000      	movhi	r0, #0
   84fb2:	f85d fb08 	ldr.w	pc, [sp], #8
   84fb6:	bf00      	nop

00084fb8 <__aeabi_dcmpge>:
   84fb8:	f84d ed08 	str.w	lr, [sp, #-8]!
   84fbc:	f7ff ffce 	bl	84f5c <__aeabi_cdrcmple>
   84fc0:	bf94      	ite	ls
   84fc2:	2001      	movls	r0, #1
   84fc4:	2000      	movhi	r0, #0
   84fc6:	f85d fb08 	ldr.w	pc, [sp], #8
   84fca:	bf00      	nop

00084fcc <__aeabi_dcmpgt>:
   84fcc:	f84d ed08 	str.w	lr, [sp, #-8]!
   84fd0:	f7ff ffc4 	bl	84f5c <__aeabi_cdrcmple>
   84fd4:	bf34      	ite	cc
   84fd6:	2001      	movcc	r0, #1
   84fd8:	2000      	movcs	r0, #0
   84fda:	f85d fb08 	ldr.w	pc, [sp], #8
   84fde:	bf00      	nop

00084fe0 <__aeabi_d2iz>:
   84fe0:	ea4f 0241 	mov.w	r2, r1, lsl #1
   84fe4:	f512 1200 	adds.w	r2, r2, #2097152	; 0x200000
   84fe8:	d215      	bcs.n	85016 <__aeabi_d2iz+0x36>
   84fea:	d511      	bpl.n	85010 <__aeabi_d2iz+0x30>
   84fec:	f46f 7378 	mvn.w	r3, #992	; 0x3e0
   84ff0:	ebb3 5262 	subs.w	r2, r3, r2, asr #21
   84ff4:	d912      	bls.n	8501c <__aeabi_d2iz+0x3c>
   84ff6:	ea4f 23c1 	mov.w	r3, r1, lsl #11
   84ffa:	f043 4300 	orr.w	r3, r3, #2147483648	; 0x80000000
   84ffe:	ea43 5350 	orr.w	r3, r3, r0, lsr #21
   85002:	f011 4f00 	tst.w	r1, #2147483648	; 0x80000000
   85006:	fa23 f002 	lsr.w	r0, r3, r2
   8500a:	bf18      	it	ne
   8500c:	4240      	negne	r0, r0
   8500e:	4770      	bx	lr
   85010:	f04f 0000 	mov.w	r0, #0
   85014:	4770      	bx	lr
   85016:	ea50 3001 	orrs.w	r0, r0, r1, lsl #12
   8501a:	d105      	bne.n	85028 <__aeabi_d2iz+0x48>
   8501c:	f011 4000 	ands.w	r0, r1, #2147483648	; 0x80000000
   85020:	bf08      	it	eq
   85022:	f06f 4000 	mvneq.w	r0, #2147483648	; 0x80000000
   85026:	4770      	bx	lr
   85028:	f04f 0000 	mov.w	r0, #0
   8502c:	4770      	bx	lr
   8502e:	bf00      	nop

00085030 <__aeabi_d2f>:
   85030:	ea4f 0241 	mov.w	r2, r1, lsl #1
   85034:	f1b2 43e0 	subs.w	r3, r2, #1879048192	; 0x70000000
   85038:	bf24      	itt	cs
   8503a:	f5b3 1c00 	subscs.w	ip, r3, #2097152	; 0x200000
   8503e:	f1dc 5cfe 	rsbscs	ip, ip, #532676608	; 0x1fc00000
   85042:	d90d      	bls.n	85060 <__aeabi_d2f+0x30>
   85044:	f001 4c00 	and.w	ip, r1, #2147483648	; 0x80000000
   85048:	ea4f 02c0 	mov.w	r2, r0, lsl #3
   8504c:	ea4c 7050 	orr.w	r0, ip, r0, lsr #29
   85050:	f1b2 4f00 	cmp.w	r2, #2147483648	; 0x80000000
   85054:	eb40 0083 	adc.w	r0, r0, r3, lsl #2
   85058:	bf08      	it	eq
   8505a:	f020 0001 	biceq.w	r0, r0, #1
   8505e:	4770      	bx	lr
   85060:	f011 4f80 	tst.w	r1, #1073741824	; 0x40000000
   85064:	d121      	bne.n	850aa <__aeabi_d2f+0x7a>
   85066:	f113 7238 	adds.w	r2, r3, #48234496	; 0x2e00000
   8506a:	bfbc      	itt	lt
   8506c:	f001 4000 	andlt.w	r0, r1, #2147483648	; 0x80000000
   85070:	4770      	bxlt	lr
   85072:	f441 1180 	orr.w	r1, r1, #1048576	; 0x100000
   85076:	ea4f 5252 	mov.w	r2, r2, lsr #21
   8507a:	f1c2 0218 	rsb	r2, r2, #24
   8507e:	f1c2 0c20 	rsb	ip, r2, #32
   85082:	fa10 f30c 	lsls.w	r3, r0, ip
   85086:	fa20 f002 	lsr.w	r0, r0, r2
   8508a:	bf18      	it	ne
   8508c:	f040 0001 	orrne.w	r0, r0, #1
   85090:	ea4f 23c1 	mov.w	r3, r1, lsl #11
   85094:	ea4f 23d3 	mov.w	r3, r3, lsr #11
   85098:	fa03 fc0c 	lsl.w	ip, r3, ip
   8509c:	ea40 000c 	orr.w	r0, r0, ip
   850a0:	fa23 f302 	lsr.w	r3, r3, r2
   850a4:	ea4f 0343 	mov.w	r3, r3, lsl #1
   850a8:	e7cc      	b.n	85044 <__aeabi_d2f+0x14>
   850aa:	ea7f 5362 	mvns.w	r3, r2, asr #21
   850ae:	d107      	bne.n	850c0 <__aeabi_d2f+0x90>
   850b0:	ea50 3301 	orrs.w	r3, r0, r1, lsl #12
   850b4:	bf1e      	ittt	ne
   850b6:	f04f 40fe 	movne.w	r0, #2130706432	; 0x7f000000
   850ba:	f440 0040 	orrne.w	r0, r0, #12582912	; 0xc00000
   850be:	4770      	bxne	lr
   850c0:	f001 4000 	and.w	r0, r1, #2147483648	; 0x80000000
   850c4:	f040 40fe 	orr.w	r0, r0, #2130706432	; 0x7f000000
   850c8:	f440 0000 	orr.w	r0, r0, #8388608	; 0x800000
   850cc:	4770      	bx	lr
   850ce:	bf00      	nop

000850d0 <__aeabi_frsub>:
   850d0:	f080 4000 	eor.w	r0, r0, #2147483648	; 0x80000000
   850d4:	e002      	b.n	850dc <__addsf3>
   850d6:	bf00      	nop

000850d8 <__aeabi_fsub>:
   850d8:	f081 4100 	eor.w	r1, r1, #2147483648	; 0x80000000

000850dc <__addsf3>:
   850dc:	0042      	lsls	r2, r0, #1
   850de:	bf1f      	itttt	ne
   850e0:	ea5f 0341 	movsne.w	r3, r1, lsl #1
   850e4:	ea92 0f03 	teqne	r2, r3
   850e8:	ea7f 6c22 	mvnsne.w	ip, r2, asr #24
   850ec:	ea7f 6c23 	mvnsne.w	ip, r3, asr #24
   850f0:	d06a      	beq.n	851c8 <__addsf3+0xec>
   850f2:	ea4f 6212 	mov.w	r2, r2, lsr #24
   850f6:	ebd2 6313 	rsbs	r3, r2, r3, lsr #24
   850fa:	bfc1      	itttt	gt
   850fc:	18d2      	addgt	r2, r2, r3
   850fe:	4041      	eorgt	r1, r0
   85100:	4048      	eorgt	r0, r1
   85102:	4041      	eorgt	r1, r0
   85104:	bfb8      	it	lt
   85106:	425b      	neglt	r3, r3
   85108:	2b19      	cmp	r3, #25
   8510a:	bf88      	it	hi
   8510c:	4770      	bxhi	lr
   8510e:	f010 4f00 	tst.w	r0, #2147483648	; 0x80000000
   85112:	f440 0000 	orr.w	r0, r0, #8388608	; 0x800000
   85116:	f020 407f 	bic.w	r0, r0, #4278190080	; 0xff000000
   8511a:	bf18      	it	ne
   8511c:	4240      	negne	r0, r0
   8511e:	f011 4f00 	tst.w	r1, #2147483648	; 0x80000000
   85122:	f441 0100 	orr.w	r1, r1, #8388608	; 0x800000
   85126:	f021 417f 	bic.w	r1, r1, #4278190080	; 0xff000000
   8512a:	bf18      	it	ne
   8512c:	4249      	negne	r1, r1
   8512e:	ea92 0f03 	teq	r2, r3
   85132:	d03f      	beq.n	851b4 <__addsf3+0xd8>
   85134:	f1a2 0201 	sub.w	r2, r2, #1
   85138:	fa41 fc03 	asr.w	ip, r1, r3
   8513c:	eb10 000c 	adds.w	r0, r0, ip
   85140:	f1c3 0320 	rsb	r3, r3, #32
   85144:	fa01 f103 	lsl.w	r1, r1, r3
   85148:	f000 4300 	and.w	r3, r0, #2147483648	; 0x80000000
   8514c:	d502      	bpl.n	85154 <__addsf3+0x78>
   8514e:	4249      	negs	r1, r1
   85150:	eb60 0040 	sbc.w	r0, r0, r0, lsl #1
   85154:	f5b0 0f00 	cmp.w	r0, #8388608	; 0x800000
   85158:	d313      	bcc.n	85182 <__addsf3+0xa6>
   8515a:	f1b0 7f80 	cmp.w	r0, #16777216	; 0x1000000
   8515e:	d306      	bcc.n	8516e <__addsf3+0x92>
   85160:	0840      	lsrs	r0, r0, #1
   85162:	ea4f 0131 	mov.w	r1, r1, rrx
   85166:	f102 0201 	add.w	r2, r2, #1
   8516a:	2afe      	cmp	r2, #254	; 0xfe
   8516c:	d251      	bcs.n	85212 <__addsf3+0x136>
   8516e:	f1b1 4f00 	cmp.w	r1, #2147483648	; 0x80000000
   85172:	eb40 50c2 	adc.w	r0, r0, r2, lsl #23
   85176:	bf08      	it	eq
   85178:	f020 0001 	biceq.w	r0, r0, #1
   8517c:	ea40 0003 	orr.w	r0, r0, r3
   85180:	4770      	bx	lr
   85182:	0049      	lsls	r1, r1, #1
   85184:	eb40 0000 	adc.w	r0, r0, r0
   85188:	f410 0f00 	tst.w	r0, #8388608	; 0x800000
   8518c:	f1a2 0201 	sub.w	r2, r2, #1
   85190:	d1ed      	bne.n	8516e <__addsf3+0x92>
   85192:	fab0 fc80 	clz	ip, r0
   85196:	f1ac 0c08 	sub.w	ip, ip, #8
   8519a:	ebb2 020c 	subs.w	r2, r2, ip
   8519e:	fa00 f00c 	lsl.w	r0, r0, ip
   851a2:	bfaa      	itet	ge
   851a4:	eb00 50c2 	addge.w	r0, r0, r2, lsl #23
   851a8:	4252      	neglt	r2, r2
   851aa:	4318      	orrge	r0, r3
   851ac:	bfbc      	itt	lt
   851ae:	40d0      	lsrlt	r0, r2
   851b0:	4318      	orrlt	r0, r3
   851b2:	4770      	bx	lr
   851b4:	f092 0f00 	teq	r2, #0
   851b8:	f481 0100 	eor.w	r1, r1, #8388608	; 0x800000
   851bc:	bf06      	itte	eq
   851be:	f480 0000 	eoreq.w	r0, r0, #8388608	; 0x800000
   851c2:	3201      	addeq	r2, #1
   851c4:	3b01      	subne	r3, #1
   851c6:	e7b5      	b.n	85134 <__addsf3+0x58>
   851c8:	ea4f 0341 	mov.w	r3, r1, lsl #1
   851cc:	ea7f 6c22 	mvns.w	ip, r2, asr #24
   851d0:	bf18      	it	ne
   851d2:	ea7f 6c23 	mvnsne.w	ip, r3, asr #24
   851d6:	d021      	beq.n	8521c <__addsf3+0x140>
   851d8:	ea92 0f03 	teq	r2, r3
   851dc:	d004      	beq.n	851e8 <__addsf3+0x10c>
   851de:	f092 0f00 	teq	r2, #0
   851e2:	bf08      	it	eq
   851e4:	4608      	moveq	r0, r1
   851e6:	4770      	bx	lr
   851e8:	ea90 0f01 	teq	r0, r1
   851ec:	bf1c      	itt	ne
   851ee:	2000      	movne	r0, #0
   851f0:	4770      	bxne	lr
   851f2:	f012 4f7f 	tst.w	r2, #4278190080	; 0xff000000
   851f6:	d104      	bne.n	85202 <__addsf3+0x126>
   851f8:	0040      	lsls	r0, r0, #1
   851fa:	bf28      	it	cs
   851fc:	f040 4000 	orrcs.w	r0, r0, #2147483648	; 0x80000000
   85200:	4770      	bx	lr
   85202:	f112 7200 	adds.w	r2, r2, #33554432	; 0x2000000
   85206:	bf3c      	itt	cc
   85208:	f500 0000 	addcc.w	r0, r0, #8388608	; 0x800000
   8520c:	4770      	bxcc	lr
   8520e:	f000 4300 	and.w	r3, r0, #2147483648	; 0x80000000
   85212:	f043 40fe 	orr.w	r0, r3, #2130706432	; 0x7f000000
   85216:	f440 0000 	orr.w	r0, r0, #8388608	; 0x800000
   8521a:	4770      	bx	lr
   8521c:	ea7f 6222 	mvns.w	r2, r2, asr #24
   85220:	bf16      	itet	ne
   85222:	4608      	movne	r0, r1
   85224:	ea7f 6323 	mvnseq.w	r3, r3, asr #24
   85228:	4601      	movne	r1, r0
   8522a:	0242      	lsls	r2, r0, #9
   8522c:	bf06      	itte	eq
   8522e:	ea5f 2341 	movseq.w	r3, r1, lsl #9
   85232:	ea90 0f01 	teqeq	r0, r1
   85236:	f440 0080 	orrne.w	r0, r0, #4194304	; 0x400000
   8523a:	4770      	bx	lr

0008523c <__aeabi_ui2f>:
   8523c:	f04f 0300 	mov.w	r3, #0
   85240:	e004      	b.n	8524c <__aeabi_i2f+0x8>
   85242:	bf00      	nop

00085244 <__aeabi_i2f>:
   85244:	f010 4300 	ands.w	r3, r0, #2147483648	; 0x80000000
   85248:	bf48      	it	mi
   8524a:	4240      	negmi	r0, r0
   8524c:	ea5f 0c00 	movs.w	ip, r0
   85250:	bf08      	it	eq
   85252:	4770      	bxeq	lr
   85254:	f043 4396 	orr.w	r3, r3, #1258291200	; 0x4b000000
   85258:	4601      	mov	r1, r0
   8525a:	f04f 0000 	mov.w	r0, #0
   8525e:	e01c      	b.n	8529a <__aeabi_l2f+0x2a>

00085260 <__aeabi_ul2f>:
   85260:	ea50 0201 	orrs.w	r2, r0, r1
   85264:	bf08      	it	eq
   85266:	4770      	bxeq	lr
   85268:	f04f 0300 	mov.w	r3, #0
   8526c:	e00a      	b.n	85284 <__aeabi_l2f+0x14>
   8526e:	bf00      	nop

00085270 <__aeabi_l2f>:
   85270:	ea50 0201 	orrs.w	r2, r0, r1
   85274:	bf08      	it	eq
   85276:	4770      	bxeq	lr
   85278:	f011 4300 	ands.w	r3, r1, #2147483648	; 0x80000000
   8527c:	d502      	bpl.n	85284 <__aeabi_l2f+0x14>
   8527e:	4240      	negs	r0, r0
   85280:	eb61 0141 	sbc.w	r1, r1, r1, lsl #1
   85284:	ea5f 0c01 	movs.w	ip, r1
   85288:	bf02      	ittt	eq
   8528a:	4684      	moveq	ip, r0
   8528c:	4601      	moveq	r1, r0
   8528e:	2000      	moveq	r0, #0
   85290:	f043 43b6 	orr.w	r3, r3, #1526726656	; 0x5b000000
   85294:	bf08      	it	eq
   85296:	f1a3 5380 	subeq.w	r3, r3, #268435456	; 0x10000000
   8529a:	f5a3 0300 	sub.w	r3, r3, #8388608	; 0x800000
   8529e:	fabc f28c 	clz	r2, ip
   852a2:	3a08      	subs	r2, #8
   852a4:	eba3 53c2 	sub.w	r3, r3, r2, lsl #23
   852a8:	db10      	blt.n	852cc <__aeabi_l2f+0x5c>
   852aa:	fa01 fc02 	lsl.w	ip, r1, r2
   852ae:	4463      	add	r3, ip
   852b0:	fa00 fc02 	lsl.w	ip, r0, r2
   852b4:	f1c2 0220 	rsb	r2, r2, #32
   852b8:	f1bc 4f00 	cmp.w	ip, #2147483648	; 0x80000000
   852bc:	fa20 f202 	lsr.w	r2, r0, r2
   852c0:	eb43 0002 	adc.w	r0, r3, r2
   852c4:	bf08      	it	eq
   852c6:	f020 0001 	biceq.w	r0, r0, #1
   852ca:	4770      	bx	lr
   852cc:	f102 0220 	add.w	r2, r2, #32
   852d0:	fa01 fc02 	lsl.w	ip, r1, r2
   852d4:	f1c2 0220 	rsb	r2, r2, #32
   852d8:	ea50 004c 	orrs.w	r0, r0, ip, lsl #1
   852dc:	fa21 f202 	lsr.w	r2, r1, r2
   852e0:	eb43 0002 	adc.w	r0, r3, r2
   852e4:	bf08      	it	eq
   852e6:	ea20 70dc 	biceq.w	r0, r0, ip, lsr #31
   852ea:	4770      	bx	lr

000852ec <__aeabi_fmul>:
   852ec:	f04f 0cff 	mov.w	ip, #255	; 0xff
   852f0:	ea1c 52d0 	ands.w	r2, ip, r0, lsr #23
   852f4:	bf1e      	ittt	ne
   852f6:	ea1c 53d1 	andsne.w	r3, ip, r1, lsr #23
   852fa:	ea92 0f0c 	teqne	r2, ip
   852fe:	ea93 0f0c 	teqne	r3, ip
   85302:	d06f      	beq.n	853e4 <__aeabi_fmul+0xf8>
   85304:	441a      	add	r2, r3
   85306:	ea80 0c01 	eor.w	ip, r0, r1
   8530a:	0240      	lsls	r0, r0, #9
   8530c:	bf18      	it	ne
   8530e:	ea5f 2141 	movsne.w	r1, r1, lsl #9
   85312:	d01e      	beq.n	85352 <__aeabi_fmul+0x66>
   85314:	f04f 6300 	mov.w	r3, #134217728	; 0x8000000
   85318:	ea43 1050 	orr.w	r0, r3, r0, lsr #5
   8531c:	ea43 1151 	orr.w	r1, r3, r1, lsr #5
   85320:	fba0 3101 	umull	r3, r1, r0, r1
   85324:	f00c 4000 	and.w	r0, ip, #2147483648	; 0x80000000
   85328:	f5b1 0f00 	cmp.w	r1, #8388608	; 0x800000
   8532c:	bf3e      	ittt	cc
   8532e:	0049      	lslcc	r1, r1, #1
   85330:	ea41 71d3 	orrcc.w	r1, r1, r3, lsr #31
   85334:	005b      	lslcc	r3, r3, #1
   85336:	ea40 0001 	orr.w	r0, r0, r1
   8533a:	f162 027f 	sbc.w	r2, r2, #127	; 0x7f
   8533e:	2afd      	cmp	r2, #253	; 0xfd
   85340:	d81d      	bhi.n	8537e <__aeabi_fmul+0x92>
   85342:	f1b3 4f00 	cmp.w	r3, #2147483648	; 0x80000000
   85346:	eb40 50c2 	adc.w	r0, r0, r2, lsl #23
   8534a:	bf08      	it	eq
   8534c:	f020 0001 	biceq.w	r0, r0, #1
   85350:	4770      	bx	lr
   85352:	f090 0f00 	teq	r0, #0
   85356:	f00c 4c00 	and.w	ip, ip, #2147483648	; 0x80000000
   8535a:	bf08      	it	eq
   8535c:	0249      	lsleq	r1, r1, #9
   8535e:	ea4c 2050 	orr.w	r0, ip, r0, lsr #9
   85362:	ea40 2051 	orr.w	r0, r0, r1, lsr #9
   85366:	3a7f      	subs	r2, #127	; 0x7f
   85368:	bfc2      	ittt	gt
   8536a:	f1d2 03ff 	rsbsgt	r3, r2, #255	; 0xff
   8536e:	ea40 50c2 	orrgt.w	r0, r0, r2, lsl #23
   85372:	4770      	bxgt	lr
   85374:	f440 0000 	orr.w	r0, r0, #8388608	; 0x800000
   85378:	f04f 0300 	mov.w	r3, #0
   8537c:	3a01      	subs	r2, #1
   8537e:	dc5d      	bgt.n	8543c <__aeabi_fmul+0x150>
   85380:	f112 0f19 	cmn.w	r2, #25
   85384:	bfdc      	itt	le
   85386:	f000 4000 	andle.w	r0, r0, #2147483648	; 0x80000000
   8538a:	4770      	bxle	lr
   8538c:	f1c2 0200 	rsb	r2, r2, #0
   85390:	0041      	lsls	r1, r0, #1
   85392:	fa21 f102 	lsr.w	r1, r1, r2
   85396:	f1c2 0220 	rsb	r2, r2, #32
   8539a:	fa00 fc02 	lsl.w	ip, r0, r2
   8539e:	ea5f 0031 	movs.w	r0, r1, rrx
   853a2:	f140 0000 	adc.w	r0, r0, #0
   853a6:	ea53 034c 	orrs.w	r3, r3, ip, lsl #1
   853aa:	bf08      	it	eq
   853ac:	ea20 70dc 	biceq.w	r0, r0, ip, lsr #31
   853b0:	4770      	bx	lr
   853b2:	f092 0f00 	teq	r2, #0
   853b6:	f000 4c00 	and.w	ip, r0, #2147483648	; 0x80000000
   853ba:	bf02      	ittt	eq
   853bc:	0040      	lsleq	r0, r0, #1
   853be:	f410 0f00 	tsteq.w	r0, #8388608	; 0x800000
   853c2:	3a01      	subeq	r2, #1
   853c4:	d0f9      	beq.n	853ba <__aeabi_fmul+0xce>
   853c6:	ea40 000c 	orr.w	r0, r0, ip
   853ca:	f093 0f00 	teq	r3, #0
   853ce:	f001 4c00 	and.w	ip, r1, #2147483648	; 0x80000000
   853d2:	bf02      	ittt	eq
   853d4:	0049      	lsleq	r1, r1, #1
   853d6:	f411 0f00 	tsteq.w	r1, #8388608	; 0x800000
   853da:	3b01      	subeq	r3, #1
   853dc:	d0f9      	beq.n	853d2 <__aeabi_fmul+0xe6>
   853de:	ea41 010c 	orr.w	r1, r1, ip
   853e2:	e78f      	b.n	85304 <__aeabi_fmul+0x18>
   853e4:	ea0c 53d1 	and.w	r3, ip, r1, lsr #23
   853e8:	ea92 0f0c 	teq	r2, ip
   853ec:	bf18      	it	ne
   853ee:	ea93 0f0c 	teqne	r3, ip
   853f2:	d00a      	beq.n	8540a <__aeabi_fmul+0x11e>
   853f4:	f030 4c00 	bics.w	ip, r0, #2147483648	; 0x80000000
   853f8:	bf18      	it	ne
   853fa:	f031 4c00 	bicsne.w	ip, r1, #2147483648	; 0x80000000
   853fe:	d1d8      	bne.n	853b2 <__aeabi_fmul+0xc6>
   85400:	ea80 0001 	eor.w	r0, r0, r1
   85404:	f000 4000 	and.w	r0, r0, #2147483648	; 0x80000000
   85408:	4770      	bx	lr
   8540a:	f090 0f00 	teq	r0, #0
   8540e:	bf17      	itett	ne
   85410:	f090 4f00 	teqne	r0, #2147483648	; 0x80000000
   85414:	4608      	moveq	r0, r1
   85416:	f091 0f00 	teqne	r1, #0
   8541a:	f091 4f00 	teqne	r1, #2147483648	; 0x80000000
   8541e:	d014      	beq.n	8544a <__aeabi_fmul+0x15e>
   85420:	ea92 0f0c 	teq	r2, ip
   85424:	d101      	bne.n	8542a <__aeabi_fmul+0x13e>
   85426:	0242      	lsls	r2, r0, #9
   85428:	d10f      	bne.n	8544a <__aeabi_fmul+0x15e>
   8542a:	ea93 0f0c 	teq	r3, ip
   8542e:	d103      	bne.n	85438 <__aeabi_fmul+0x14c>
   85430:	024b      	lsls	r3, r1, #9
   85432:	bf18      	it	ne
   85434:	4608      	movne	r0, r1
   85436:	d108      	bne.n	8544a <__aeabi_fmul+0x15e>
   85438:	ea80 0001 	eor.w	r0, r0, r1
   8543c:	f000 4000 	and.w	r0, r0, #2147483648	; 0x80000000
   85440:	f040 40fe 	orr.w	r0, r0, #2130706432	; 0x7f000000
   85444:	f440 0000 	orr.w	r0, r0, #8388608	; 0x800000
   85448:	4770      	bx	lr
   8544a:	f040 40fe 	orr.w	r0, r0, #2130706432	; 0x7f000000
   8544e:	f440 0040 	orr.w	r0, r0, #12582912	; 0xc00000
   85452:	4770      	bx	lr

00085454 <__aeabi_fdiv>:
   85454:	f04f 0cff 	mov.w	ip, #255	; 0xff
   85458:	ea1c 52d0 	ands.w	r2, ip, r0, lsr #23
   8545c:	bf1e      	ittt	ne
   8545e:	ea1c 53d1 	andsne.w	r3, ip, r1, lsr #23
   85462:	ea92 0f0c 	teqne	r2, ip
   85466:	ea93 0f0c 	teqne	r3, ip
   8546a:	d069      	beq.n	85540 <__aeabi_fdiv+0xec>
   8546c:	eba2 0203 	sub.w	r2, r2, r3
   85470:	ea80 0c01 	eor.w	ip, r0, r1
   85474:	0249      	lsls	r1, r1, #9
   85476:	ea4f 2040 	mov.w	r0, r0, lsl #9
   8547a:	d037      	beq.n	854ec <__aeabi_fdiv+0x98>
   8547c:	f04f 5380 	mov.w	r3, #268435456	; 0x10000000
   85480:	ea43 1111 	orr.w	r1, r3, r1, lsr #4
   85484:	ea43 1310 	orr.w	r3, r3, r0, lsr #4
   85488:	f00c 4000 	and.w	r0, ip, #2147483648	; 0x80000000
   8548c:	428b      	cmp	r3, r1
   8548e:	bf38      	it	cc
   85490:	005b      	lslcc	r3, r3, #1
   85492:	f142 027d 	adc.w	r2, r2, #125	; 0x7d
   85496:	f44f 0c00 	mov.w	ip, #8388608	; 0x800000
   8549a:	428b      	cmp	r3, r1
   8549c:	bf24      	itt	cs
   8549e:	1a5b      	subcs	r3, r3, r1
   854a0:	ea40 000c 	orrcs.w	r0, r0, ip
   854a4:	ebb3 0f51 	cmp.w	r3, r1, lsr #1
   854a8:	bf24      	itt	cs
   854aa:	eba3 0351 	subcs.w	r3, r3, r1, lsr #1
   854ae:	ea40 005c 	orrcs.w	r0, r0, ip, lsr #1
   854b2:	ebb3 0f91 	cmp.w	r3, r1, lsr #2
   854b6:	bf24      	itt	cs
   854b8:	eba3 0391 	subcs.w	r3, r3, r1, lsr #2
   854bc:	ea40 009c 	orrcs.w	r0, r0, ip, lsr #2
   854c0:	ebb3 0fd1 	cmp.w	r3, r1, lsr #3
   854c4:	bf24      	itt	cs
   854c6:	eba3 03d1 	subcs.w	r3, r3, r1, lsr #3
   854ca:	ea40 00dc 	orrcs.w	r0, r0, ip, lsr #3
   854ce:	011b      	lsls	r3, r3, #4
   854d0:	bf18      	it	ne
   854d2:	ea5f 1c1c 	movsne.w	ip, ip, lsr #4
   854d6:	d1e0      	bne.n	8549a <__aeabi_fdiv+0x46>
   854d8:	2afd      	cmp	r2, #253	; 0xfd
   854da:	f63f af50 	bhi.w	8537e <__aeabi_fmul+0x92>
   854de:	428b      	cmp	r3, r1
   854e0:	eb40 50c2 	adc.w	r0, r0, r2, lsl #23
   854e4:	bf08      	it	eq
   854e6:	f020 0001 	biceq.w	r0, r0, #1
   854ea:	4770      	bx	lr
   854ec:	f00c 4c00 	and.w	ip, ip, #2147483648	; 0x80000000
   854f0:	ea4c 2050 	orr.w	r0, ip, r0, lsr #9
   854f4:	327f      	adds	r2, #127	; 0x7f
   854f6:	bfc2      	ittt	gt
   854f8:	f1d2 03ff 	rsbsgt	r3, r2, #255	; 0xff
   854fc:	ea40 50c2 	orrgt.w	r0, r0, r2, lsl #23
   85500:	4770      	bxgt	lr
   85502:	f440 0000 	orr.w	r0, r0, #8388608	; 0x800000
   85506:	f04f 0300 	mov.w	r3, #0
   8550a:	3a01      	subs	r2, #1
   8550c:	e737      	b.n	8537e <__aeabi_fmul+0x92>
   8550e:	f092 0f00 	teq	r2, #0
   85512:	f000 4c00 	and.w	ip, r0, #2147483648	; 0x80000000
   85516:	bf02      	ittt	eq
   85518:	0040      	lsleq	r0, r0, #1
   8551a:	f410 0f00 	tsteq.w	r0, #8388608	; 0x800000
   8551e:	3a01      	subeq	r2, #1
   85520:	d0f9      	beq.n	85516 <__aeabi_fdiv+0xc2>
   85522:	ea40 000c 	orr.w	r0, r0, ip
   85526:	f093 0f00 	teq	r3, #0
   8552a:	f001 4c00 	and.w	ip, r1, #2147483648	; 0x80000000
   8552e:	bf02      	ittt	eq
   85530:	0049      	lsleq	r1, r1, #1
   85532:	f411 0f00 	tsteq.w	r1, #8388608	; 0x800000
   85536:	3b01      	subeq	r3, #1
   85538:	d0f9      	beq.n	8552e <__aeabi_fdiv+0xda>
   8553a:	ea41 010c 	orr.w	r1, r1, ip
   8553e:	e795      	b.n	8546c <__aeabi_fdiv+0x18>
   85540:	ea0c 53d1 	and.w	r3, ip, r1, lsr #23
   85544:	ea92 0f0c 	teq	r2, ip
   85548:	d108      	bne.n	8555c <__aeabi_fdiv+0x108>
   8554a:	0242      	lsls	r2, r0, #9
   8554c:	f47f af7d 	bne.w	8544a <__aeabi_fmul+0x15e>
   85550:	ea93 0f0c 	teq	r3, ip
   85554:	f47f af70 	bne.w	85438 <__aeabi_fmul+0x14c>
   85558:	4608      	mov	r0, r1
   8555a:	e776      	b.n	8544a <__aeabi_fmul+0x15e>
   8555c:	ea93 0f0c 	teq	r3, ip
   85560:	d104      	bne.n	8556c <__aeabi_fdiv+0x118>
   85562:	024b      	lsls	r3, r1, #9
   85564:	f43f af4c 	beq.w	85400 <__aeabi_fmul+0x114>
   85568:	4608      	mov	r0, r1
   8556a:	e76e      	b.n	8544a <__aeabi_fmul+0x15e>
   8556c:	f030 4c00 	bics.w	ip, r0, #2147483648	; 0x80000000
   85570:	bf18      	it	ne
   85572:	f031 4c00 	bicsne.w	ip, r1, #2147483648	; 0x80000000
   85576:	d1ca      	bne.n	8550e <__aeabi_fdiv+0xba>
   85578:	f030 4200 	bics.w	r2, r0, #2147483648	; 0x80000000
   8557c:	f47f af5c 	bne.w	85438 <__aeabi_fmul+0x14c>
   85580:	f031 4300 	bics.w	r3, r1, #2147483648	; 0x80000000
   85584:	f47f af3c 	bne.w	85400 <__aeabi_fmul+0x114>
   85588:	e75f      	b.n	8544a <__aeabi_fmul+0x15e>
   8558a:	bf00      	nop

0008558c <__gesf2>:
   8558c:	f04f 3cff 	mov.w	ip, #4294967295
   85590:	e006      	b.n	855a0 <__cmpsf2+0x4>
   85592:	bf00      	nop

00085594 <__lesf2>:
   85594:	f04f 0c01 	mov.w	ip, #1
   85598:	e002      	b.n	855a0 <__cmpsf2+0x4>
   8559a:	bf00      	nop

0008559c <__cmpsf2>:
   8559c:	f04f 0c01 	mov.w	ip, #1
   855a0:	f84d cd04 	str.w	ip, [sp, #-4]!
   855a4:	ea4f 0240 	mov.w	r2, r0, lsl #1
   855a8:	ea4f 0341 	mov.w	r3, r1, lsl #1
   855ac:	ea7f 6c22 	mvns.w	ip, r2, asr #24
   855b0:	bf18      	it	ne
   855b2:	ea7f 6c23 	mvnsne.w	ip, r3, asr #24
   855b6:	d011      	beq.n	855dc <__cmpsf2+0x40>
   855b8:	b001      	add	sp, #4
   855ba:	ea52 0c53 	orrs.w	ip, r2, r3, lsr #1
   855be:	bf18      	it	ne
   855c0:	ea90 0f01 	teqne	r0, r1
   855c4:	bf58      	it	pl
   855c6:	ebb2 0003 	subspl.w	r0, r2, r3
   855ca:	bf88      	it	hi
   855cc:	17c8      	asrhi	r0, r1, #31
   855ce:	bf38      	it	cc
   855d0:	ea6f 70e1 	mvncc.w	r0, r1, asr #31
   855d4:	bf18      	it	ne
   855d6:	f040 0001 	orrne.w	r0, r0, #1
   855da:	4770      	bx	lr
   855dc:	ea7f 6c22 	mvns.w	ip, r2, asr #24
   855e0:	d102      	bne.n	855e8 <__cmpsf2+0x4c>
   855e2:	ea5f 2c40 	movs.w	ip, r0, lsl #9
   855e6:	d105      	bne.n	855f4 <__cmpsf2+0x58>
   855e8:	ea7f 6c23 	mvns.w	ip, r3, asr #24
   855ec:	d1e4      	bne.n	855b8 <__cmpsf2+0x1c>
   855ee:	ea5f 2c41 	movs.w	ip, r1, lsl #9
   855f2:	d0e1      	beq.n	855b8 <__cmpsf2+0x1c>
   855f4:	f85d 0b04 	ldr.w	r0, [sp], #4
   855f8:	4770      	bx	lr
   855fa:	bf00      	nop

000855fc <__aeabi_cfrcmple>:
   855fc:	4684      	mov	ip, r0
   855fe:	4608      	mov	r0, r1
   85600:	4661      	mov	r1, ip
   85602:	e7ff      	b.n	85604 <__aeabi_cfcmpeq>

00085604 <__aeabi_cfcmpeq>:
   85604:	b50f      	push	{r0, r1, r2, r3, lr}
   85606:	f7ff ffc9 	bl	8559c <__cmpsf2>
   8560a:	2800      	cmp	r0, #0
   8560c:	bf48      	it	mi
   8560e:	f110 0f00 	cmnmi.w	r0, #0
   85612:	bd0f      	pop	{r0, r1, r2, r3, pc}

00085614 <__aeabi_fcmpeq>:
   85614:	f84d ed08 	str.w	lr, [sp, #-8]!
   85618:	f7ff fff4 	bl	85604 <__aeabi_cfcmpeq>
   8561c:	bf0c      	ite	eq
   8561e:	2001      	moveq	r0, #1
   85620:	2000      	movne	r0, #0
   85622:	f85d fb08 	ldr.w	pc, [sp], #8
   85626:	bf00      	nop

00085628 <__aeabi_fcmplt>:
   85628:	f84d ed08 	str.w	lr, [sp, #-8]!
   8562c:	f7ff ffea 	bl	85604 <__aeabi_cfcmpeq>
   85630:	bf34      	ite	cc
   85632:	2001      	movcc	r0, #1
   85634:	2000      	movcs	r0, #0
   85636:	f85d fb08 	ldr.w	pc, [sp], #8
   8563a:	bf00      	nop

0008563c <__aeabi_fcmple>:
   8563c:	f84d ed08 	str.w	lr, [sp, #-8]!
   85640:	f7ff ffe0 	bl	85604 <__aeabi_cfcmpeq>
   85644:	bf94      	ite	ls
   85646:	2001      	movls	r0, #1
   85648:	2000      	movhi	r0, #0
   8564a:	f85d fb08 	ldr.w	pc, [sp], #8
   8564e:	bf00      	nop

00085650 <__aeabi_fcmpge>:
   85650:	f84d ed08 	str.w	lr, [sp, #-8]!
   85654:	f7ff ffd2 	bl	855fc <__aeabi_cfrcmple>
   85658:	bf94      	ite	ls
   8565a:	2001      	movls	r0, #1
   8565c:	2000      	movhi	r0, #0
   8565e:	f85d fb08 	ldr.w	pc, [sp], #8
   85662:	bf00      	nop

00085664 <__aeabi_fcmpgt>:
   85664:	f84d ed08 	str.w	lr, [sp, #-8]!
   85668:	f7ff ffc8 	bl	855fc <__aeabi_cfrcmple>
   8566c:	bf34      	ite	cc
   8566e:	2001      	movcc	r0, #1
   85670:	2000      	movcs	r0, #0
   85672:	f85d fb08 	ldr.w	pc, [sp], #8
   85676:	bf00      	nop

00085678 <__aeabi_f2iz>:
   85678:	ea4f 0240 	mov.w	r2, r0, lsl #1
   8567c:	f1b2 4ffe 	cmp.w	r2, #2130706432	; 0x7f000000
   85680:	d30f      	bcc.n	856a2 <__aeabi_f2iz+0x2a>
   85682:	f04f 039e 	mov.w	r3, #158	; 0x9e
   85686:	ebb3 6212 	subs.w	r2, r3, r2, lsr #24
   8568a:	d90d      	bls.n	856a8 <__aeabi_f2iz+0x30>
   8568c:	ea4f 2300 	mov.w	r3, r0, lsl #8
   85690:	f043 4300 	orr.w	r3, r3, #2147483648	; 0x80000000
   85694:	f010 4f00 	tst.w	r0, #2147483648	; 0x80000000
   85698:	fa23 f002 	lsr.w	r0, r3, r2
   8569c:	bf18      	it	ne
   8569e:	4240      	negne	r0, r0
   856a0:	4770      	bx	lr
   856a2:	f04f 0000 	mov.w	r0, #0
   856a6:	4770      	bx	lr
   856a8:	f112 0f61 	cmn.w	r2, #97	; 0x61
   856ac:	d101      	bne.n	856b2 <__aeabi_f2iz+0x3a>
   856ae:	0242      	lsls	r2, r0, #9
   856b0:	d105      	bne.n	856be <__aeabi_f2iz+0x46>
   856b2:	f010 4000 	ands.w	r0, r0, #2147483648	; 0x80000000
   856b6:	bf08      	it	eq
   856b8:	f06f 4000 	mvneq.w	r0, #2147483648	; 0x80000000
   856bc:	4770      	bx	lr
   856be:	f04f 0000 	mov.w	r0, #0
   856c2:	4770      	bx	lr

000856c4 <__libc_init_array>:
   856c4:	b570      	push	{r4, r5, r6, lr}
   856c6:	4e0f      	ldr	r6, [pc, #60]	; (85704 <__libc_init_array+0x40>)
   856c8:	4d0f      	ldr	r5, [pc, #60]	; (85708 <__libc_init_array+0x44>)
   856ca:	1b76      	subs	r6, r6, r5
   856cc:	10b6      	asrs	r6, r6, #2
   856ce:	bf18      	it	ne
   856d0:	2400      	movne	r4, #0
   856d2:	d005      	beq.n	856e0 <__libc_init_array+0x1c>
   856d4:	3401      	adds	r4, #1
   856d6:	f855 3b04 	ldr.w	r3, [r5], #4
   856da:	4798      	blx	r3
   856dc:	42a6      	cmp	r6, r4
   856de:	d1f9      	bne.n	856d4 <__libc_init_array+0x10>
   856e0:	4e0a      	ldr	r6, [pc, #40]	; (8570c <__libc_init_array+0x48>)
   856e2:	4d0b      	ldr	r5, [pc, #44]	; (85710 <__libc_init_array+0x4c>)
   856e4:	f003 fa6c 	bl	88bc0 <_init>
   856e8:	1b76      	subs	r6, r6, r5
   856ea:	10b6      	asrs	r6, r6, #2
   856ec:	bf18      	it	ne
   856ee:	2400      	movne	r4, #0
   856f0:	d006      	beq.n	85700 <__libc_init_array+0x3c>
   856f2:	3401      	adds	r4, #1
   856f4:	f855 3b04 	ldr.w	r3, [r5], #4
   856f8:	4798      	blx	r3
   856fa:	42a6      	cmp	r6, r4
   856fc:	d1f9      	bne.n	856f2 <__libc_init_array+0x2e>
   856fe:	bd70      	pop	{r4, r5, r6, pc}
   85700:	bd70      	pop	{r4, r5, r6, pc}
   85702:	bf00      	nop
   85704:	00088bcc 	.word	0x00088bcc
   85708:	00088bcc 	.word	0x00088bcc
   8570c:	00088bd4 	.word	0x00088bd4
   85710:	00088bcc 	.word	0x00088bcc

00085714 <iprintf>:
   85714:	b40f      	push	{r0, r1, r2, r3}
   85716:	b510      	push	{r4, lr}
   85718:	4b07      	ldr	r3, [pc, #28]	; (85738 <iprintf+0x24>)
   8571a:	b082      	sub	sp, #8
   8571c:	ac04      	add	r4, sp, #16
   8571e:	f854 2b04 	ldr.w	r2, [r4], #4
   85722:	6818      	ldr	r0, [r3, #0]
   85724:	4623      	mov	r3, r4
   85726:	6881      	ldr	r1, [r0, #8]
   85728:	9401      	str	r4, [sp, #4]
   8572a:	f000 fa3b 	bl	85ba4 <_vfiprintf_r>
   8572e:	b002      	add	sp, #8
   85730:	e8bd 4010 	ldmia.w	sp!, {r4, lr}
   85734:	b004      	add	sp, #16
   85736:	4770      	bx	lr
   85738:	200701c0 	.word	0x200701c0

0008573c <memcpy>:
   8573c:	4684      	mov	ip, r0
   8573e:	ea41 0300 	orr.w	r3, r1, r0
   85742:	f013 0303 	ands.w	r3, r3, #3
   85746:	d149      	bne.n	857dc <memcpy+0xa0>
   85748:	3a40      	subs	r2, #64	; 0x40
   8574a:	d323      	bcc.n	85794 <memcpy+0x58>
   8574c:	680b      	ldr	r3, [r1, #0]
   8574e:	6003      	str	r3, [r0, #0]
   85750:	684b      	ldr	r3, [r1, #4]
   85752:	6043      	str	r3, [r0, #4]
   85754:	688b      	ldr	r3, [r1, #8]
   85756:	6083      	str	r3, [r0, #8]
   85758:	68cb      	ldr	r3, [r1, #12]
   8575a:	60c3      	str	r3, [r0, #12]
   8575c:	690b      	ldr	r3, [r1, #16]
   8575e:	6103      	str	r3, [r0, #16]
   85760:	694b      	ldr	r3, [r1, #20]
   85762:	6143      	str	r3, [r0, #20]
   85764:	698b      	ldr	r3, [r1, #24]
   85766:	6183      	str	r3, [r0, #24]
   85768:	69cb      	ldr	r3, [r1, #28]
   8576a:	61c3      	str	r3, [r0, #28]
   8576c:	6a0b      	ldr	r3, [r1, #32]
   8576e:	6203      	str	r3, [r0, #32]
   85770:	6a4b      	ldr	r3, [r1, #36]	; 0x24
   85772:	6243      	str	r3, [r0, #36]	; 0x24
   85774:	6a8b      	ldr	r3, [r1, #40]	; 0x28
   85776:	6283      	str	r3, [r0, #40]	; 0x28
   85778:	6acb      	ldr	r3, [r1, #44]	; 0x2c
   8577a:	62c3      	str	r3, [r0, #44]	; 0x2c
   8577c:	6b0b      	ldr	r3, [r1, #48]	; 0x30
   8577e:	6303      	str	r3, [r0, #48]	; 0x30
   85780:	6b4b      	ldr	r3, [r1, #52]	; 0x34
   85782:	6343      	str	r3, [r0, #52]	; 0x34
   85784:	6b8b      	ldr	r3, [r1, #56]	; 0x38
   85786:	6383      	str	r3, [r0, #56]	; 0x38
   85788:	6bcb      	ldr	r3, [r1, #60]	; 0x3c
   8578a:	63c3      	str	r3, [r0, #60]	; 0x3c
   8578c:	3040      	adds	r0, #64	; 0x40
   8578e:	3140      	adds	r1, #64	; 0x40
   85790:	3a40      	subs	r2, #64	; 0x40
   85792:	d2db      	bcs.n	8574c <memcpy+0x10>
   85794:	3230      	adds	r2, #48	; 0x30
   85796:	d30b      	bcc.n	857b0 <memcpy+0x74>
   85798:	680b      	ldr	r3, [r1, #0]
   8579a:	6003      	str	r3, [r0, #0]
   8579c:	684b      	ldr	r3, [r1, #4]
   8579e:	6043      	str	r3, [r0, #4]
   857a0:	688b      	ldr	r3, [r1, #8]
   857a2:	6083      	str	r3, [r0, #8]
   857a4:	68cb      	ldr	r3, [r1, #12]
   857a6:	60c3      	str	r3, [r0, #12]
   857a8:	3010      	adds	r0, #16
   857aa:	3110      	adds	r1, #16
   857ac:	3a10      	subs	r2, #16
   857ae:	d2f3      	bcs.n	85798 <memcpy+0x5c>
   857b0:	320c      	adds	r2, #12
   857b2:	d305      	bcc.n	857c0 <memcpy+0x84>
   857b4:	f851 3b04 	ldr.w	r3, [r1], #4
   857b8:	f840 3b04 	str.w	r3, [r0], #4
   857bc:	3a04      	subs	r2, #4
   857be:	d2f9      	bcs.n	857b4 <memcpy+0x78>
   857c0:	3204      	adds	r2, #4
   857c2:	d008      	beq.n	857d6 <memcpy+0x9a>
   857c4:	07d2      	lsls	r2, r2, #31
   857c6:	bf1c      	itt	ne
   857c8:	f811 3b01 	ldrbne.w	r3, [r1], #1
   857cc:	f800 3b01 	strbne.w	r3, [r0], #1
   857d0:	d301      	bcc.n	857d6 <memcpy+0x9a>
   857d2:	880b      	ldrh	r3, [r1, #0]
   857d4:	8003      	strh	r3, [r0, #0]
   857d6:	4660      	mov	r0, ip
   857d8:	4770      	bx	lr
   857da:	bf00      	nop
   857dc:	2a08      	cmp	r2, #8
   857de:	d313      	bcc.n	85808 <memcpy+0xcc>
   857e0:	078b      	lsls	r3, r1, #30
   857e2:	d0b1      	beq.n	85748 <memcpy+0xc>
   857e4:	f010 0303 	ands.w	r3, r0, #3
   857e8:	d0ae      	beq.n	85748 <memcpy+0xc>
   857ea:	f1c3 0304 	rsb	r3, r3, #4
   857ee:	1ad2      	subs	r2, r2, r3
   857f0:	07db      	lsls	r3, r3, #31
   857f2:	bf1c      	itt	ne
   857f4:	f811 3b01 	ldrbne.w	r3, [r1], #1
   857f8:	f800 3b01 	strbne.w	r3, [r0], #1
   857fc:	d3a4      	bcc.n	85748 <memcpy+0xc>
   857fe:	f831 3b02 	ldrh.w	r3, [r1], #2
   85802:	f820 3b02 	strh.w	r3, [r0], #2
   85806:	e79f      	b.n	85748 <memcpy+0xc>
   85808:	3a04      	subs	r2, #4
   8580a:	d3d9      	bcc.n	857c0 <memcpy+0x84>
   8580c:	3a01      	subs	r2, #1
   8580e:	f811 3b01 	ldrb.w	r3, [r1], #1
   85812:	f800 3b01 	strb.w	r3, [r0], #1
   85816:	d2f9      	bcs.n	8580c <memcpy+0xd0>
   85818:	780b      	ldrb	r3, [r1, #0]
   8581a:	7003      	strb	r3, [r0, #0]
   8581c:	784b      	ldrb	r3, [r1, #1]
   8581e:	7043      	strb	r3, [r0, #1]
   85820:	788b      	ldrb	r3, [r1, #2]
   85822:	7083      	strb	r3, [r0, #2]
   85824:	4660      	mov	r0, ip
   85826:	4770      	bx	lr

00085828 <memset>:
   85828:	b470      	push	{r4, r5, r6}
   8582a:	0786      	lsls	r6, r0, #30
   8582c:	d046      	beq.n	858bc <memset+0x94>
   8582e:	1e54      	subs	r4, r2, #1
   85830:	2a00      	cmp	r2, #0
   85832:	d041      	beq.n	858b8 <memset+0x90>
   85834:	b2ca      	uxtb	r2, r1
   85836:	4603      	mov	r3, r0
   85838:	e002      	b.n	85840 <memset+0x18>
   8583a:	f114 34ff 	adds.w	r4, r4, #4294967295
   8583e:	d33b      	bcc.n	858b8 <memset+0x90>
   85840:	f803 2b01 	strb.w	r2, [r3], #1
   85844:	079d      	lsls	r5, r3, #30
   85846:	d1f8      	bne.n	8583a <memset+0x12>
   85848:	2c03      	cmp	r4, #3
   8584a:	d92e      	bls.n	858aa <memset+0x82>
   8584c:	b2cd      	uxtb	r5, r1
   8584e:	ea45 2505 	orr.w	r5, r5, r5, lsl #8
   85852:	2c0f      	cmp	r4, #15
   85854:	ea45 4505 	orr.w	r5, r5, r5, lsl #16
   85858:	d919      	bls.n	8588e <memset+0x66>
   8585a:	4626      	mov	r6, r4
   8585c:	f103 0210 	add.w	r2, r3, #16
   85860:	3e10      	subs	r6, #16
   85862:	2e0f      	cmp	r6, #15
   85864:	f842 5c10 	str.w	r5, [r2, #-16]
   85868:	f842 5c0c 	str.w	r5, [r2, #-12]
   8586c:	f842 5c08 	str.w	r5, [r2, #-8]
   85870:	f842 5c04 	str.w	r5, [r2, #-4]
   85874:	f102 0210 	add.w	r2, r2, #16
   85878:	d8f2      	bhi.n	85860 <memset+0x38>
   8587a:	f1a4 0210 	sub.w	r2, r4, #16
   8587e:	f022 020f 	bic.w	r2, r2, #15
   85882:	f004 040f 	and.w	r4, r4, #15
   85886:	3210      	adds	r2, #16
   85888:	2c03      	cmp	r4, #3
   8588a:	4413      	add	r3, r2
   8588c:	d90d      	bls.n	858aa <memset+0x82>
   8588e:	461e      	mov	r6, r3
   85890:	4622      	mov	r2, r4
   85892:	3a04      	subs	r2, #4
   85894:	2a03      	cmp	r2, #3
   85896:	f846 5b04 	str.w	r5, [r6], #4
   8589a:	d8fa      	bhi.n	85892 <memset+0x6a>
   8589c:	1f22      	subs	r2, r4, #4
   8589e:	f022 0203 	bic.w	r2, r2, #3
   858a2:	3204      	adds	r2, #4
   858a4:	4413      	add	r3, r2
   858a6:	f004 0403 	and.w	r4, r4, #3
   858aa:	b12c      	cbz	r4, 858b8 <memset+0x90>
   858ac:	b2c9      	uxtb	r1, r1
   858ae:	441c      	add	r4, r3
   858b0:	f803 1b01 	strb.w	r1, [r3], #1
   858b4:	429c      	cmp	r4, r3
   858b6:	d1fb      	bne.n	858b0 <memset+0x88>
   858b8:	bc70      	pop	{r4, r5, r6}
   858ba:	4770      	bx	lr
   858bc:	4614      	mov	r4, r2
   858be:	4603      	mov	r3, r0
   858c0:	e7c2      	b.n	85848 <memset+0x20>
   858c2:	bf00      	nop

000858c4 <setbuf>:
   858c4:	2900      	cmp	r1, #0
   858c6:	bf0c      	ite	eq
   858c8:	2202      	moveq	r2, #2
   858ca:	2200      	movne	r2, #0
   858cc:	f44f 6380 	mov.w	r3, #1024	; 0x400
   858d0:	f000 b800 	b.w	858d4 <setvbuf>

000858d4 <setvbuf>:
   858d4:	e92d 43f0 	stmdb	sp!, {r4, r5, r6, r7, r8, r9, lr}
   858d8:	4d61      	ldr	r5, [pc, #388]	; (85a60 <setvbuf+0x18c>)
   858da:	b083      	sub	sp, #12
   858dc:	682d      	ldr	r5, [r5, #0]
   858de:	4604      	mov	r4, r0
   858e0:	460f      	mov	r7, r1
   858e2:	4690      	mov	r8, r2
   858e4:	461e      	mov	r6, r3
   858e6:	b115      	cbz	r5, 858ee <setvbuf+0x1a>
   858e8:	6bab      	ldr	r3, [r5, #56]	; 0x38
   858ea:	2b00      	cmp	r3, #0
   858ec:	d064      	beq.n	859b8 <setvbuf+0xe4>
   858ee:	f1b8 0f02 	cmp.w	r8, #2
   858f2:	d006      	beq.n	85902 <setvbuf+0x2e>
   858f4:	f1b8 0f01 	cmp.w	r8, #1
   858f8:	f200 809f 	bhi.w	85a3a <setvbuf+0x166>
   858fc:	2e00      	cmp	r6, #0
   858fe:	f2c0 809c 	blt.w	85a3a <setvbuf+0x166>
   85902:	6e63      	ldr	r3, [r4, #100]	; 0x64
   85904:	07d8      	lsls	r0, r3, #31
   85906:	d534      	bpl.n	85972 <setvbuf+0x9e>
   85908:	4621      	mov	r1, r4
   8590a:	4628      	mov	r0, r5
   8590c:	f001 f8e2 	bl	86ad4 <_fflush_r>
   85910:	6b21      	ldr	r1, [r4, #48]	; 0x30
   85912:	b141      	cbz	r1, 85926 <setvbuf+0x52>
   85914:	f104 0340 	add.w	r3, r4, #64	; 0x40
   85918:	4299      	cmp	r1, r3
   8591a:	d002      	beq.n	85922 <setvbuf+0x4e>
   8591c:	4628      	mov	r0, r5
   8591e:	f001 fa57 	bl	86dd0 <_free_r>
   85922:	2300      	movs	r3, #0
   85924:	6323      	str	r3, [r4, #48]	; 0x30
   85926:	2200      	movs	r2, #0
   85928:	f9b4 300c 	ldrsh.w	r3, [r4, #12]
   8592c:	61a2      	str	r2, [r4, #24]
   8592e:	6062      	str	r2, [r4, #4]
   85930:	061a      	lsls	r2, r3, #24
   85932:	d43a      	bmi.n	859aa <setvbuf+0xd6>
   85934:	f423 634a 	bic.w	r3, r3, #3232	; 0xca0
   85938:	f023 0303 	bic.w	r3, r3, #3
   8593c:	f1b8 0f02 	cmp.w	r8, #2
   85940:	81a3      	strh	r3, [r4, #12]
   85942:	d01d      	beq.n	85980 <setvbuf+0xac>
   85944:	ab01      	add	r3, sp, #4
   85946:	466a      	mov	r2, sp
   85948:	4621      	mov	r1, r4
   8594a:	4628      	mov	r0, r5
   8594c:	f001 fcde 	bl	8730c <__swhatbuf_r>
   85950:	89a3      	ldrh	r3, [r4, #12]
   85952:	4318      	orrs	r0, r3
   85954:	81a0      	strh	r0, [r4, #12]
   85956:	2e00      	cmp	r6, #0
   85958:	d132      	bne.n	859c0 <setvbuf+0xec>
   8595a:	9e00      	ldr	r6, [sp, #0]
   8595c:	4630      	mov	r0, r6
   8595e:	f001 fd4d 	bl	873fc <malloc>
   85962:	4607      	mov	r7, r0
   85964:	2800      	cmp	r0, #0
   85966:	d06b      	beq.n	85a40 <setvbuf+0x16c>
   85968:	89a3      	ldrh	r3, [r4, #12]
   8596a:	f043 0380 	orr.w	r3, r3, #128	; 0x80
   8596e:	81a3      	strh	r3, [r4, #12]
   85970:	e028      	b.n	859c4 <setvbuf+0xf0>
   85972:	89a3      	ldrh	r3, [r4, #12]
   85974:	0599      	lsls	r1, r3, #22
   85976:	d4c7      	bmi.n	85908 <setvbuf+0x34>
   85978:	6da0      	ldr	r0, [r4, #88]	; 0x58
   8597a:	f001 fcc3 	bl	87304 <__retarget_lock_acquire_recursive>
   8597e:	e7c3      	b.n	85908 <setvbuf+0x34>
   85980:	2500      	movs	r5, #0
   85982:	2600      	movs	r6, #0
   85984:	2001      	movs	r0, #1
   85986:	6e61      	ldr	r1, [r4, #100]	; 0x64
   85988:	f104 0243 	add.w	r2, r4, #67	; 0x43
   8598c:	f043 0302 	orr.w	r3, r3, #2
   85990:	60a6      	str	r6, [r4, #8]
   85992:	07ce      	lsls	r6, r1, #31
   85994:	81a3      	strh	r3, [r4, #12]
   85996:	6160      	str	r0, [r4, #20]
   85998:	6022      	str	r2, [r4, #0]
   8599a:	6122      	str	r2, [r4, #16]
   8599c:	d401      	bmi.n	859a2 <setvbuf+0xce>
   8599e:	0598      	lsls	r0, r3, #22
   859a0:	d53e      	bpl.n	85a20 <setvbuf+0x14c>
   859a2:	4628      	mov	r0, r5
   859a4:	b003      	add	sp, #12
   859a6:	e8bd 83f0 	ldmia.w	sp!, {r4, r5, r6, r7, r8, r9, pc}
   859aa:	6921      	ldr	r1, [r4, #16]
   859ac:	4628      	mov	r0, r5
   859ae:	f001 fa0f 	bl	86dd0 <_free_r>
   859b2:	f9b4 300c 	ldrsh.w	r3, [r4, #12]
   859b6:	e7bd      	b.n	85934 <setvbuf+0x60>
   859b8:	4628      	mov	r0, r5
   859ba:	f001 f8e3 	bl	86b84 <__sinit>
   859be:	e796      	b.n	858ee <setvbuf+0x1a>
   859c0:	2f00      	cmp	r7, #0
   859c2:	d0cb      	beq.n	8595c <setvbuf+0x88>
   859c4:	6bab      	ldr	r3, [r5, #56]	; 0x38
   859c6:	2b00      	cmp	r3, #0
   859c8:	d033      	beq.n	85a32 <setvbuf+0x15e>
   859ca:	9b00      	ldr	r3, [sp, #0]
   859cc:	f9b4 200c 	ldrsh.w	r2, [r4, #12]
   859d0:	429e      	cmp	r6, r3
   859d2:	bf1c      	itt	ne
   859d4:	f442 6200 	orrne.w	r2, r2, #2048	; 0x800
   859d8:	81a2      	strhne	r2, [r4, #12]
   859da:	f1b8 0f01 	cmp.w	r8, #1
   859de:	bf04      	itt	eq
   859e0:	f042 0201 	orreq.w	r2, r2, #1
   859e4:	81a2      	strheq	r2, [r4, #12]
   859e6:	b292      	uxth	r2, r2
   859e8:	f012 0308 	ands.w	r3, r2, #8
   859ec:	6027      	str	r7, [r4, #0]
   859ee:	6127      	str	r7, [r4, #16]
   859f0:	6166      	str	r6, [r4, #20]
   859f2:	d00e      	beq.n	85a12 <setvbuf+0x13e>
   859f4:	07d1      	lsls	r1, r2, #31
   859f6:	d51a      	bpl.n	85a2e <setvbuf+0x15a>
   859f8:	2300      	movs	r3, #0
   859fa:	6e65      	ldr	r5, [r4, #100]	; 0x64
   859fc:	4276      	negs	r6, r6
   859fe:	f015 0501 	ands.w	r5, r5, #1
   85a02:	61a6      	str	r6, [r4, #24]
   85a04:	60a3      	str	r3, [r4, #8]
   85a06:	d009      	beq.n	85a1c <setvbuf+0x148>
   85a08:	2500      	movs	r5, #0
   85a0a:	4628      	mov	r0, r5
   85a0c:	b003      	add	sp, #12
   85a0e:	e8bd 83f0 	ldmia.w	sp!, {r4, r5, r6, r7, r8, r9, pc}
   85a12:	60a3      	str	r3, [r4, #8]
   85a14:	6e65      	ldr	r5, [r4, #100]	; 0x64
   85a16:	f015 0501 	ands.w	r5, r5, #1
   85a1a:	d1f5      	bne.n	85a08 <setvbuf+0x134>
   85a1c:	0593      	lsls	r3, r2, #22
   85a1e:	d4c0      	bmi.n	859a2 <setvbuf+0xce>
   85a20:	6da0      	ldr	r0, [r4, #88]	; 0x58
   85a22:	f001 fc71 	bl	87308 <__retarget_lock_release_recursive>
   85a26:	4628      	mov	r0, r5
   85a28:	b003      	add	sp, #12
   85a2a:	e8bd 83f0 	ldmia.w	sp!, {r4, r5, r6, r7, r8, r9, pc}
   85a2e:	60a6      	str	r6, [r4, #8]
   85a30:	e7f0      	b.n	85a14 <setvbuf+0x140>
   85a32:	4628      	mov	r0, r5
   85a34:	f001 f8a6 	bl	86b84 <__sinit>
   85a38:	e7c7      	b.n	859ca <setvbuf+0xf6>
   85a3a:	f04f 35ff 	mov.w	r5, #4294967295
   85a3e:	e7b0      	b.n	859a2 <setvbuf+0xce>
   85a40:	f8dd 9000 	ldr.w	r9, [sp]
   85a44:	45b1      	cmp	r9, r6
   85a46:	d004      	beq.n	85a52 <setvbuf+0x17e>
   85a48:	4648      	mov	r0, r9
   85a4a:	f001 fcd7 	bl	873fc <malloc>
   85a4e:	4607      	mov	r7, r0
   85a50:	b920      	cbnz	r0, 85a5c <setvbuf+0x188>
   85a52:	f9b4 300c 	ldrsh.w	r3, [r4, #12]
   85a56:	f04f 35ff 	mov.w	r5, #4294967295
   85a5a:	e792      	b.n	85982 <setvbuf+0xae>
   85a5c:	464e      	mov	r6, r9
   85a5e:	e783      	b.n	85968 <setvbuf+0x94>
   85a60:	200701c0 	.word	0x200701c0

00085a64 <strlen>:
   85a64:	f020 0103 	bic.w	r1, r0, #3
   85a68:	f010 0003 	ands.w	r0, r0, #3
   85a6c:	f1c0 0000 	rsb	r0, r0, #0
   85a70:	f851 3b04 	ldr.w	r3, [r1], #4
   85a74:	f100 0c04 	add.w	ip, r0, #4
   85a78:	ea4f 0ccc 	mov.w	ip, ip, lsl #3
   85a7c:	f06f 0200 	mvn.w	r2, #0
   85a80:	bf1c      	itt	ne
   85a82:	fa22 f20c 	lsrne.w	r2, r2, ip
   85a86:	4313      	orrne	r3, r2
   85a88:	f04f 0c01 	mov.w	ip, #1
   85a8c:	ea4c 2c0c 	orr.w	ip, ip, ip, lsl #8
   85a90:	ea4c 4c0c 	orr.w	ip, ip, ip, lsl #16
   85a94:	eba3 020c 	sub.w	r2, r3, ip
   85a98:	ea22 0203 	bic.w	r2, r2, r3
   85a9c:	ea12 12cc 	ands.w	r2, r2, ip, lsl #7
   85aa0:	bf04      	itt	eq
   85aa2:	f851 3b04 	ldreq.w	r3, [r1], #4
   85aa6:	3004      	addeq	r0, #4
   85aa8:	d0f4      	beq.n	85a94 <strlen+0x30>
   85aaa:	f1c2 0100 	rsb	r1, r2, #0
   85aae:	ea02 0201 	and.w	r2, r2, r1
   85ab2:	fab2 f282 	clz	r2, r2
   85ab6:	f1c2 021f 	rsb	r2, r2, #31
   85aba:	eb00 00d2 	add.w	r0, r0, r2, lsr #3
   85abe:	4770      	bx	lr

00085ac0 <strncpy>:
   85ac0:	ea40 0301 	orr.w	r3, r0, r1
   85ac4:	f013 0f03 	tst.w	r3, #3
   85ac8:	b470      	push	{r4, r5, r6}
   85aca:	4603      	mov	r3, r0
   85acc:	d024      	beq.n	85b18 <strncpy+0x58>
   85ace:	b1a2      	cbz	r2, 85afa <strncpy+0x3a>
   85ad0:	780c      	ldrb	r4, [r1, #0]
   85ad2:	3a01      	subs	r2, #1
   85ad4:	701c      	strb	r4, [r3, #0]
   85ad6:	3101      	adds	r1, #1
   85ad8:	3301      	adds	r3, #1
   85ada:	b13c      	cbz	r4, 85aec <strncpy+0x2c>
   85adc:	b16a      	cbz	r2, 85afa <strncpy+0x3a>
   85ade:	f811 4b01 	ldrb.w	r4, [r1], #1
   85ae2:	3a01      	subs	r2, #1
   85ae4:	f803 4b01 	strb.w	r4, [r3], #1
   85ae8:	2c00      	cmp	r4, #0
   85aea:	d1f7      	bne.n	85adc <strncpy+0x1c>
   85aec:	b12a      	cbz	r2, 85afa <strncpy+0x3a>
   85aee:	2100      	movs	r1, #0
   85af0:	441a      	add	r2, r3
   85af2:	f803 1b01 	strb.w	r1, [r3], #1
   85af6:	429a      	cmp	r2, r3
   85af8:	d1fb      	bne.n	85af2 <strncpy+0x32>
   85afa:	bc70      	pop	{r4, r5, r6}
   85afc:	4770      	bx	lr
   85afe:	460e      	mov	r6, r1
   85b00:	f851 5b04 	ldr.w	r5, [r1], #4
   85b04:	f1a5 3401 	sub.w	r4, r5, #16843009	; 0x1010101
   85b08:	ea24 0405 	bic.w	r4, r4, r5
   85b0c:	f014 3f80 	tst.w	r4, #2155905152	; 0x80808080
   85b10:	d105      	bne.n	85b1e <strncpy+0x5e>
   85b12:	3a04      	subs	r2, #4
   85b14:	f843 5b04 	str.w	r5, [r3], #4
   85b18:	2a03      	cmp	r2, #3
   85b1a:	d8f0      	bhi.n	85afe <strncpy+0x3e>
   85b1c:	e7d7      	b.n	85ace <strncpy+0xe>
   85b1e:	4631      	mov	r1, r6
   85b20:	e7d6      	b.n	85ad0 <strncpy+0x10>
   85b22:	bf00      	nop

00085b24 <__sprint_r.part.0>:
   85b24:	e92d 4ff8 	stmdb	sp!, {r3, r4, r5, r6, r7, r8, r9, sl, fp, lr}
   85b28:	6e4b      	ldr	r3, [r1, #100]	; 0x64
   85b2a:	4693      	mov	fp, r2
   85b2c:	049c      	lsls	r4, r3, #18
   85b2e:	d52f      	bpl.n	85b90 <__sprint_r.part.0+0x6c>
   85b30:	6893      	ldr	r3, [r2, #8]
   85b32:	6812      	ldr	r2, [r2, #0]
   85b34:	b353      	cbz	r3, 85b8c <__sprint_r.part.0+0x68>
   85b36:	460e      	mov	r6, r1
   85b38:	4607      	mov	r7, r0
   85b3a:	f102 0908 	add.w	r9, r2, #8
   85b3e:	e919 0420 	ldmdb	r9, {r5, sl}
   85b42:	ea5f 089a 	movs.w	r8, sl, lsr #2
   85b46:	d017      	beq.n	85b78 <__sprint_r.part.0+0x54>
   85b48:	2400      	movs	r4, #0
   85b4a:	3d04      	subs	r5, #4
   85b4c:	e001      	b.n	85b52 <__sprint_r.part.0+0x2e>
   85b4e:	45a0      	cmp	r8, r4
   85b50:	d010      	beq.n	85b74 <__sprint_r.part.0+0x50>
   85b52:	4632      	mov	r2, r6
   85b54:	f855 1f04 	ldr.w	r1, [r5, #4]!
   85b58:	4638      	mov	r0, r7
   85b5a:	f001 f8b5 	bl	86cc8 <_fputwc_r>
   85b5e:	1c43      	adds	r3, r0, #1
   85b60:	f104 0401 	add.w	r4, r4, #1
   85b64:	d1f3      	bne.n	85b4e <__sprint_r.part.0+0x2a>
   85b66:	2300      	movs	r3, #0
   85b68:	f8cb 3008 	str.w	r3, [fp, #8]
   85b6c:	f8cb 3004 	str.w	r3, [fp, #4]
   85b70:	e8bd 8ff8 	ldmia.w	sp!, {r3, r4, r5, r6, r7, r8, r9, sl, fp, pc}
   85b74:	f8db 3008 	ldr.w	r3, [fp, #8]
   85b78:	f02a 0a03 	bic.w	sl, sl, #3
   85b7c:	eba3 030a 	sub.w	r3, r3, sl
   85b80:	f8cb 3008 	str.w	r3, [fp, #8]
   85b84:	f109 0908 	add.w	r9, r9, #8
   85b88:	2b00      	cmp	r3, #0
   85b8a:	d1d8      	bne.n	85b3e <__sprint_r.part.0+0x1a>
   85b8c:	2000      	movs	r0, #0
   85b8e:	e7ea      	b.n	85b66 <__sprint_r.part.0+0x42>
   85b90:	f001 fa04 	bl	86f9c <__sfvwrite_r>
   85b94:	2300      	movs	r3, #0
   85b96:	f8cb 3008 	str.w	r3, [fp, #8]
   85b9a:	f8cb 3004 	str.w	r3, [fp, #4]
   85b9e:	e8bd 8ff8 	ldmia.w	sp!, {r3, r4, r5, r6, r7, r8, r9, sl, fp, pc}
   85ba2:	bf00      	nop

00085ba4 <_vfiprintf_r>:
   85ba4:	e92d 4ff0 	stmdb	sp!, {r4, r5, r6, r7, r8, r9, sl, fp, lr}
   85ba8:	b0ad      	sub	sp, #180	; 0xb4
   85baa:	461d      	mov	r5, r3
   85bac:	468b      	mov	fp, r1
   85bae:	4690      	mov	r8, r2
   85bb0:	9307      	str	r3, [sp, #28]
   85bb2:	9006      	str	r0, [sp, #24]
   85bb4:	b118      	cbz	r0, 85bbe <_vfiprintf_r+0x1a>
   85bb6:	6b83      	ldr	r3, [r0, #56]	; 0x38
   85bb8:	2b00      	cmp	r3, #0
   85bba:	f000 80f3 	beq.w	85da4 <_vfiprintf_r+0x200>
   85bbe:	f8db 3064 	ldr.w	r3, [fp, #100]	; 0x64
   85bc2:	f9bb 000c 	ldrsh.w	r0, [fp, #12]
   85bc6:	07df      	lsls	r7, r3, #31
   85bc8:	b281      	uxth	r1, r0
   85bca:	d402      	bmi.n	85bd2 <_vfiprintf_r+0x2e>
   85bcc:	058e      	lsls	r6, r1, #22
   85bce:	f140 80fc 	bpl.w	85dca <_vfiprintf_r+0x226>
   85bd2:	048c      	lsls	r4, r1, #18
   85bd4:	d40a      	bmi.n	85bec <_vfiprintf_r+0x48>
   85bd6:	f8db 3064 	ldr.w	r3, [fp, #100]	; 0x64
   85bda:	f440 5100 	orr.w	r1, r0, #8192	; 0x2000
   85bde:	f423 5300 	bic.w	r3, r3, #8192	; 0x2000
   85be2:	f8ab 100c 	strh.w	r1, [fp, #12]
   85be6:	f8cb 3064 	str.w	r3, [fp, #100]	; 0x64
   85bea:	b289      	uxth	r1, r1
   85bec:	0708      	lsls	r0, r1, #28
   85bee:	f140 80b3 	bpl.w	85d58 <_vfiprintf_r+0x1b4>
   85bf2:	f8db 3010 	ldr.w	r3, [fp, #16]
   85bf6:	2b00      	cmp	r3, #0
   85bf8:	f000 80ae 	beq.w	85d58 <_vfiprintf_r+0x1b4>
   85bfc:	f001 031a 	and.w	r3, r1, #26
   85c00:	2b0a      	cmp	r3, #10
   85c02:	f000 80b5 	beq.w	85d70 <_vfiprintf_r+0x1cc>
   85c06:	2300      	movs	r3, #0
   85c08:	f10d 0a70 	add.w	sl, sp, #112	; 0x70
   85c0c:	46d1      	mov	r9, sl
   85c0e:	930b      	str	r3, [sp, #44]	; 0x2c
   85c10:	9303      	str	r3, [sp, #12]
   85c12:	9311      	str	r3, [sp, #68]	; 0x44
   85c14:	9310      	str	r3, [sp, #64]	; 0x40
   85c16:	f8cd a03c 	str.w	sl, [sp, #60]	; 0x3c
   85c1a:	f8cd b010 	str.w	fp, [sp, #16]
   85c1e:	f898 3000 	ldrb.w	r3, [r8]
   85c22:	4644      	mov	r4, r8
   85c24:	b1fb      	cbz	r3, 85c66 <_vfiprintf_r+0xc2>
   85c26:	2b25      	cmp	r3, #37	; 0x25
   85c28:	d102      	bne.n	85c30 <_vfiprintf_r+0x8c>
   85c2a:	e01c      	b.n	85c66 <_vfiprintf_r+0xc2>
   85c2c:	2b25      	cmp	r3, #37	; 0x25
   85c2e:	d003      	beq.n	85c38 <_vfiprintf_r+0x94>
   85c30:	f814 3f01 	ldrb.w	r3, [r4, #1]!
   85c34:	2b00      	cmp	r3, #0
   85c36:	d1f9      	bne.n	85c2c <_vfiprintf_r+0x88>
   85c38:	eba4 0508 	sub.w	r5, r4, r8
   85c3c:	b19d      	cbz	r5, 85c66 <_vfiprintf_r+0xc2>
   85c3e:	9b10      	ldr	r3, [sp, #64]	; 0x40
   85c40:	9a11      	ldr	r2, [sp, #68]	; 0x44
   85c42:	3301      	adds	r3, #1
   85c44:	442a      	add	r2, r5
   85c46:	2b07      	cmp	r3, #7
   85c48:	f8c9 8000 	str.w	r8, [r9]
   85c4c:	f8c9 5004 	str.w	r5, [r9, #4]
   85c50:	9211      	str	r2, [sp, #68]	; 0x44
   85c52:	9310      	str	r3, [sp, #64]	; 0x40
   85c54:	dd7a      	ble.n	85d4c <_vfiprintf_r+0x1a8>
   85c56:	2a00      	cmp	r2, #0
   85c58:	f040 84b5 	bne.w	865c6 <_vfiprintf_r+0xa22>
   85c5c:	46d1      	mov	r9, sl
   85c5e:	9b03      	ldr	r3, [sp, #12]
   85c60:	9210      	str	r2, [sp, #64]	; 0x40
   85c62:	442b      	add	r3, r5
   85c64:	9303      	str	r3, [sp, #12]
   85c66:	7823      	ldrb	r3, [r4, #0]
   85c68:	2b00      	cmp	r3, #0
   85c6a:	f000 83e5 	beq.w	86438 <_vfiprintf_r+0x894>
   85c6e:	2000      	movs	r0, #0
   85c70:	f04f 0300 	mov.w	r3, #0
   85c74:	f104 0801 	add.w	r8, r4, #1
   85c78:	f88d 3037 	strb.w	r3, [sp, #55]	; 0x37
   85c7c:	7862      	ldrb	r2, [r4, #1]
   85c7e:	4606      	mov	r6, r0
   85c80:	4605      	mov	r5, r0
   85c82:	4603      	mov	r3, r0
   85c84:	f04f 34ff 	mov.w	r4, #4294967295
   85c88:	f108 0801 	add.w	r8, r8, #1
   85c8c:	f1a2 0120 	sub.w	r1, r2, #32
   85c90:	2958      	cmp	r1, #88	; 0x58
   85c92:	f200 82d9 	bhi.w	86248 <_vfiprintf_r+0x6a4>
   85c96:	e8df f011 	tbh	[pc, r1, lsl #1]
   85c9a:	0228      	.short	0x0228
   85c9c:	02d702d7 	.word	0x02d702d7
   85ca0:	02d70230 	.word	0x02d70230
   85ca4:	02d702d7 	.word	0x02d702d7
   85ca8:	02d702d7 	.word	0x02d702d7
   85cac:	00a002d7 	.word	0x00a002d7
   85cb0:	02d70288 	.word	0x02d70288
   85cb4:	02b800a8 	.word	0x02b800a8
   85cb8:	01a602d7 	.word	0x01a602d7
   85cbc:	01ab01ab 	.word	0x01ab01ab
   85cc0:	01ab01ab 	.word	0x01ab01ab
   85cc4:	01ab01ab 	.word	0x01ab01ab
   85cc8:	01ab01ab 	.word	0x01ab01ab
   85ccc:	02d701ab 	.word	0x02d701ab
   85cd0:	02d702d7 	.word	0x02d702d7
   85cd4:	02d702d7 	.word	0x02d702d7
   85cd8:	02d702d7 	.word	0x02d702d7
   85cdc:	02d702d7 	.word	0x02d702d7
   85ce0:	01b902d7 	.word	0x01b902d7
   85ce4:	02d702d7 	.word	0x02d702d7
   85ce8:	02d702d7 	.word	0x02d702d7
   85cec:	02d702d7 	.word	0x02d702d7
   85cf0:	02d702d7 	.word	0x02d702d7
   85cf4:	02d702d7 	.word	0x02d702d7
   85cf8:	02d7019e 	.word	0x02d7019e
   85cfc:	02d702d7 	.word	0x02d702d7
   85d00:	02d702d7 	.word	0x02d702d7
   85d04:	02d701a2 	.word	0x02d701a2
   85d08:	025a02d7 	.word	0x025a02d7
   85d0c:	02d702d7 	.word	0x02d702d7
   85d10:	02d702d7 	.word	0x02d702d7
   85d14:	02d702d7 	.word	0x02d702d7
   85d18:	02d702d7 	.word	0x02d702d7
   85d1c:	02d702d7 	.word	0x02d702d7
   85d20:	02220261 	.word	0x02220261
   85d24:	02d702d7 	.word	0x02d702d7
   85d28:	027602d7 	.word	0x027602d7
   85d2c:	02d70222 	.word	0x02d70222
   85d30:	027b02d7 	.word	0x027b02d7
   85d34:	01fc02d7 	.word	0x01fc02d7
   85d38:	02100189 	.word	0x02100189
   85d3c:	02d702d2 	.word	0x02d702d2
   85d40:	02d70295 	.word	0x02d70295
   85d44:	02d700ad 	.word	0x02d700ad
   85d48:	023502d7 	.word	0x023502d7
   85d4c:	f109 0908 	add.w	r9, r9, #8
   85d50:	9b03      	ldr	r3, [sp, #12]
   85d52:	442b      	add	r3, r5
   85d54:	9303      	str	r3, [sp, #12]
   85d56:	e786      	b.n	85c66 <_vfiprintf_r+0xc2>
   85d58:	4659      	mov	r1, fp
   85d5a:	9806      	ldr	r0, [sp, #24]
   85d5c:	f000 fdaa 	bl	868b4 <__swsetup_r>
   85d60:	bb18      	cbnz	r0, 85daa <_vfiprintf_r+0x206>
   85d62:	f8bb 100c 	ldrh.w	r1, [fp, #12]
   85d66:	f001 031a 	and.w	r3, r1, #26
   85d6a:	2b0a      	cmp	r3, #10
   85d6c:	f47f af4b 	bne.w	85c06 <_vfiprintf_r+0x62>
   85d70:	f9bb 300e 	ldrsh.w	r3, [fp, #14]
   85d74:	2b00      	cmp	r3, #0
   85d76:	f6ff af46 	blt.w	85c06 <_vfiprintf_r+0x62>
   85d7a:	f8db 3064 	ldr.w	r3, [fp, #100]	; 0x64
   85d7e:	07db      	lsls	r3, r3, #31
   85d80:	d405      	bmi.n	85d8e <_vfiprintf_r+0x1ea>
   85d82:	058f      	lsls	r7, r1, #22
   85d84:	d403      	bmi.n	85d8e <_vfiprintf_r+0x1ea>
   85d86:	f8db 0058 	ldr.w	r0, [fp, #88]	; 0x58
   85d8a:	f001 fabd 	bl	87308 <__retarget_lock_release_recursive>
   85d8e:	462b      	mov	r3, r5
   85d90:	4642      	mov	r2, r8
   85d92:	4659      	mov	r1, fp
   85d94:	9806      	ldr	r0, [sp, #24]
   85d96:	f000 fd49 	bl	8682c <__sbprintf>
   85d9a:	9003      	str	r0, [sp, #12]
   85d9c:	9803      	ldr	r0, [sp, #12]
   85d9e:	b02d      	add	sp, #180	; 0xb4
   85da0:	e8bd 8ff0 	ldmia.w	sp!, {r4, r5, r6, r7, r8, r9, sl, fp, pc}
   85da4:	f000 feee 	bl	86b84 <__sinit>
   85da8:	e709      	b.n	85bbe <_vfiprintf_r+0x1a>
   85daa:	f8db 3064 	ldr.w	r3, [fp, #100]	; 0x64
   85dae:	07d9      	lsls	r1, r3, #31
   85db0:	d404      	bmi.n	85dbc <_vfiprintf_r+0x218>
   85db2:	f8bb 300c 	ldrh.w	r3, [fp, #12]
   85db6:	059a      	lsls	r2, r3, #22
   85db8:	f140 84ae 	bpl.w	86718 <_vfiprintf_r+0xb74>
   85dbc:	f04f 33ff 	mov.w	r3, #4294967295
   85dc0:	9303      	str	r3, [sp, #12]
   85dc2:	9803      	ldr	r0, [sp, #12]
   85dc4:	b02d      	add	sp, #180	; 0xb4
   85dc6:	e8bd 8ff0 	ldmia.w	sp!, {r4, r5, r6, r7, r8, r9, sl, fp, pc}
   85dca:	f8db 0058 	ldr.w	r0, [fp, #88]	; 0x58
   85dce:	f001 fa99 	bl	87304 <__retarget_lock_acquire_recursive>
   85dd2:	f9bb 000c 	ldrsh.w	r0, [fp, #12]
   85dd6:	b281      	uxth	r1, r0
   85dd8:	e6fb      	b.n	85bd2 <_vfiprintf_r+0x2e>
   85dda:	9907      	ldr	r1, [sp, #28]
   85ddc:	460a      	mov	r2, r1
   85dde:	680d      	ldr	r5, [r1, #0]
   85de0:	3204      	adds	r2, #4
   85de2:	2d00      	cmp	r5, #0
   85de4:	9207      	str	r2, [sp, #28]
   85de6:	da02      	bge.n	85dee <_vfiprintf_r+0x24a>
   85de8:	426d      	negs	r5, r5
   85dea:	f043 0304 	orr.w	r3, r3, #4
   85dee:	f898 2000 	ldrb.w	r2, [r8]
   85df2:	e749      	b.n	85c88 <_vfiprintf_r+0xe4>
   85df4:	9508      	str	r5, [sp, #32]
   85df6:	069e      	lsls	r6, r3, #26
   85df8:	f100 845a 	bmi.w	866b0 <_vfiprintf_r+0xb0c>
   85dfc:	9907      	ldr	r1, [sp, #28]
   85dfe:	06dd      	lsls	r5, r3, #27
   85e00:	460a      	mov	r2, r1
   85e02:	f100 83ef 	bmi.w	865e4 <_vfiprintf_r+0xa40>
   85e06:	0658      	lsls	r0, r3, #25
   85e08:	f140 83ec 	bpl.w	865e4 <_vfiprintf_r+0xa40>
   85e0c:	2700      	movs	r7, #0
   85e0e:	2201      	movs	r2, #1
   85e10:	880e      	ldrh	r6, [r1, #0]
   85e12:	3104      	adds	r1, #4
   85e14:	9107      	str	r1, [sp, #28]
   85e16:	f04f 0100 	mov.w	r1, #0
   85e1a:	2500      	movs	r5, #0
   85e1c:	f88d 1037 	strb.w	r1, [sp, #55]	; 0x37
   85e20:	1c61      	adds	r1, r4, #1
   85e22:	f000 8117 	beq.w	86054 <_vfiprintf_r+0x4b0>
   85e26:	f023 0180 	bic.w	r1, r3, #128	; 0x80
   85e2a:	9102      	str	r1, [sp, #8]
   85e2c:	ea56 0107 	orrs.w	r1, r6, r7
   85e30:	f040 8115 	bne.w	8605e <_vfiprintf_r+0x4ba>
   85e34:	2c00      	cmp	r4, #0
   85e36:	f040 835b 	bne.w	864f0 <_vfiprintf_r+0x94c>
   85e3a:	2a00      	cmp	r2, #0
   85e3c:	f040 83b6 	bne.w	865ac <_vfiprintf_r+0xa08>
   85e40:	f013 0301 	ands.w	r3, r3, #1
   85e44:	9305      	str	r3, [sp, #20]
   85e46:	f000 8455 	beq.w	866f4 <_vfiprintf_r+0xb50>
   85e4a:	2330      	movs	r3, #48	; 0x30
   85e4c:	f10d 0bb0 	add.w	fp, sp, #176	; 0xb0
   85e50:	f80b 3d41 	strb.w	r3, [fp, #-65]!
   85e54:	9b05      	ldr	r3, [sp, #20]
   85e56:	42a3      	cmp	r3, r4
   85e58:	bfb8      	it	lt
   85e5a:	4623      	movlt	r3, r4
   85e5c:	9301      	str	r3, [sp, #4]
   85e5e:	b10d      	cbz	r5, 85e64 <_vfiprintf_r+0x2c0>
   85e60:	3301      	adds	r3, #1
   85e62:	9301      	str	r3, [sp, #4]
   85e64:	9b02      	ldr	r3, [sp, #8]
   85e66:	f013 0302 	ands.w	r3, r3, #2
   85e6a:	9309      	str	r3, [sp, #36]	; 0x24
   85e6c:	d002      	beq.n	85e74 <_vfiprintf_r+0x2d0>
   85e6e:	9b01      	ldr	r3, [sp, #4]
   85e70:	3302      	adds	r3, #2
   85e72:	9301      	str	r3, [sp, #4]
   85e74:	9b02      	ldr	r3, [sp, #8]
   85e76:	f013 0384 	ands.w	r3, r3, #132	; 0x84
   85e7a:	930a      	str	r3, [sp, #40]	; 0x28
   85e7c:	f040 8215 	bne.w	862aa <_vfiprintf_r+0x706>
   85e80:	9b08      	ldr	r3, [sp, #32]
   85e82:	9a01      	ldr	r2, [sp, #4]
   85e84:	1a9d      	subs	r5, r3, r2
   85e86:	2d00      	cmp	r5, #0
   85e88:	f340 820f 	ble.w	862aa <_vfiprintf_r+0x706>
   85e8c:	2d10      	cmp	r5, #16
   85e8e:	f340 8484 	ble.w	8679a <_vfiprintf_r+0xbf6>
   85e92:	9b10      	ldr	r3, [sp, #64]	; 0x40
   85e94:	46ce      	mov	lr, r9
   85e96:	2710      	movs	r7, #16
   85e98:	46a1      	mov	r9, r4
   85e9a:	9a11      	ldr	r2, [sp, #68]	; 0x44
   85e9c:	4ec5      	ldr	r6, [pc, #788]	; (861b4 <_vfiprintf_r+0x610>)
   85e9e:	4619      	mov	r1, r3
   85ea0:	9c06      	ldr	r4, [sp, #24]
   85ea2:	e007      	b.n	85eb4 <_vfiprintf_r+0x310>
   85ea4:	f101 0c02 	add.w	ip, r1, #2
   85ea8:	4601      	mov	r1, r0
   85eaa:	f10e 0e08 	add.w	lr, lr, #8
   85eae:	3d10      	subs	r5, #16
   85eb0:	2d10      	cmp	r5, #16
   85eb2:	dd11      	ble.n	85ed8 <_vfiprintf_r+0x334>
   85eb4:	1c48      	adds	r0, r1, #1
   85eb6:	3210      	adds	r2, #16
   85eb8:	2807      	cmp	r0, #7
   85eba:	9211      	str	r2, [sp, #68]	; 0x44
   85ebc:	e88e 00c0 	stmia.w	lr, {r6, r7}
   85ec0:	9010      	str	r0, [sp, #64]	; 0x40
   85ec2:	ddef      	ble.n	85ea4 <_vfiprintf_r+0x300>
   85ec4:	2a00      	cmp	r2, #0
   85ec6:	f040 81d9 	bne.w	8627c <_vfiprintf_r+0x6d8>
   85eca:	3d10      	subs	r5, #16
   85ecc:	2d10      	cmp	r5, #16
   85ece:	4611      	mov	r1, r2
   85ed0:	f04f 0c01 	mov.w	ip, #1
   85ed4:	46d6      	mov	lr, sl
   85ed6:	dced      	bgt.n	85eb4 <_vfiprintf_r+0x310>
   85ed8:	464c      	mov	r4, r9
   85eda:	4661      	mov	r1, ip
   85edc:	46f1      	mov	r9, lr
   85ede:	442a      	add	r2, r5
   85ee0:	2907      	cmp	r1, #7
   85ee2:	9211      	str	r2, [sp, #68]	; 0x44
   85ee4:	f8c9 6000 	str.w	r6, [r9]
   85ee8:	f8c9 5004 	str.w	r5, [r9, #4]
   85eec:	9110      	str	r1, [sp, #64]	; 0x40
   85eee:	f300 82eb 	bgt.w	864c8 <_vfiprintf_r+0x924>
   85ef2:	f89d 5037 	ldrb.w	r5, [sp, #55]	; 0x37
   85ef6:	f109 0908 	add.w	r9, r9, #8
   85efa:	1c48      	adds	r0, r1, #1
   85efc:	2d00      	cmp	r5, #0
   85efe:	f040 81dc 	bne.w	862ba <_vfiprintf_r+0x716>
   85f02:	9b09      	ldr	r3, [sp, #36]	; 0x24
   85f04:	2b00      	cmp	r3, #0
   85f06:	f000 81f6 	beq.w	862f6 <_vfiprintf_r+0x752>
   85f0a:	2102      	movs	r1, #2
   85f0c:	ab0e      	add	r3, sp, #56	; 0x38
   85f0e:	440a      	add	r2, r1
   85f10:	2807      	cmp	r0, #7
   85f12:	9211      	str	r2, [sp, #68]	; 0x44
   85f14:	9010      	str	r0, [sp, #64]	; 0x40
   85f16:	f8c9 1004 	str.w	r1, [r9, #4]
   85f1a:	f8c9 3000 	str.w	r3, [r9]
   85f1e:	f340 81e6 	ble.w	862ee <_vfiprintf_r+0x74a>
   85f22:	2a00      	cmp	r2, #0
   85f24:	f040 8395 	bne.w	86652 <_vfiprintf_r+0xaae>
   85f28:	9b0a      	ldr	r3, [sp, #40]	; 0x28
   85f2a:	2001      	movs	r0, #1
   85f2c:	2b80      	cmp	r3, #128	; 0x80
   85f2e:	4611      	mov	r1, r2
   85f30:	46d1      	mov	r9, sl
   85f32:	f040 81e4 	bne.w	862fe <_vfiprintf_r+0x75a>
   85f36:	9b08      	ldr	r3, [sp, #32]
   85f38:	9d01      	ldr	r5, [sp, #4]
   85f3a:	1b5e      	subs	r6, r3, r5
   85f3c:	2e00      	cmp	r6, #0
   85f3e:	f340 81de 	ble.w	862fe <_vfiprintf_r+0x75a>
   85f42:	2e10      	cmp	r6, #16
   85f44:	f340 843c 	ble.w	867c0 <_vfiprintf_r+0xc1c>
   85f48:	46cc      	mov	ip, r9
   85f4a:	2710      	movs	r7, #16
   85f4c:	46a1      	mov	r9, r4
   85f4e:	4d9a      	ldr	r5, [pc, #616]	; (861b8 <_vfiprintf_r+0x614>)
   85f50:	9c06      	ldr	r4, [sp, #24]
   85f52:	e007      	b.n	85f64 <_vfiprintf_r+0x3c0>
   85f54:	f101 0e02 	add.w	lr, r1, #2
   85f58:	4601      	mov	r1, r0
   85f5a:	f10c 0c08 	add.w	ip, ip, #8
   85f5e:	3e10      	subs	r6, #16
   85f60:	2e10      	cmp	r6, #16
   85f62:	dd11      	ble.n	85f88 <_vfiprintf_r+0x3e4>
   85f64:	1c48      	adds	r0, r1, #1
   85f66:	3210      	adds	r2, #16
   85f68:	2807      	cmp	r0, #7
   85f6a:	9211      	str	r2, [sp, #68]	; 0x44
   85f6c:	e88c 00a0 	stmia.w	ip, {r5, r7}
   85f70:	9010      	str	r0, [sp, #64]	; 0x40
   85f72:	ddef      	ble.n	85f54 <_vfiprintf_r+0x3b0>
   85f74:	2a00      	cmp	r2, #0
   85f76:	f040 829b 	bne.w	864b0 <_vfiprintf_r+0x90c>
   85f7a:	3e10      	subs	r6, #16
   85f7c:	2e10      	cmp	r6, #16
   85f7e:	f04f 0e01 	mov.w	lr, #1
   85f82:	4611      	mov	r1, r2
   85f84:	46d4      	mov	ip, sl
   85f86:	dced      	bgt.n	85f64 <_vfiprintf_r+0x3c0>
   85f88:	464c      	mov	r4, r9
   85f8a:	46e1      	mov	r9, ip
   85f8c:	4432      	add	r2, r6
   85f8e:	f1be 0f07 	cmp.w	lr, #7
   85f92:	9211      	str	r2, [sp, #68]	; 0x44
   85f94:	e889 0060 	stmia.w	r9, {r5, r6}
   85f98:	f8cd e040 	str.w	lr, [sp, #64]	; 0x40
   85f9c:	f300 8366 	bgt.w	8666c <_vfiprintf_r+0xac8>
   85fa0:	f109 0908 	add.w	r9, r9, #8
   85fa4:	f10e 0001 	add.w	r0, lr, #1
   85fa8:	4671      	mov	r1, lr
   85faa:	e1a8      	b.n	862fe <_vfiprintf_r+0x75a>
   85fac:	9508      	str	r5, [sp, #32]
   85fae:	f013 0220 	ands.w	r2, r3, #32
   85fb2:	f040 8389 	bne.w	866c8 <_vfiprintf_r+0xb24>
   85fb6:	f013 0110 	ands.w	r1, r3, #16
   85fba:	f040 8319 	bne.w	865f0 <_vfiprintf_r+0xa4c>
   85fbe:	f013 0240 	ands.w	r2, r3, #64	; 0x40
   85fc2:	f000 8315 	beq.w	865f0 <_vfiprintf_r+0xa4c>
   85fc6:	9807      	ldr	r0, [sp, #28]
   85fc8:	460a      	mov	r2, r1
   85fca:	4601      	mov	r1, r0
   85fcc:	3104      	adds	r1, #4
   85fce:	8806      	ldrh	r6, [r0, #0]
   85fd0:	2700      	movs	r7, #0
   85fd2:	9107      	str	r1, [sp, #28]
   85fd4:	e71f      	b.n	85e16 <_vfiprintf_r+0x272>
   85fd6:	9508      	str	r5, [sp, #32]
   85fd8:	f043 0310 	orr.w	r3, r3, #16
   85fdc:	e7e7      	b.n	85fae <_vfiprintf_r+0x40a>
   85fde:	9508      	str	r5, [sp, #32]
   85fe0:	f043 0310 	orr.w	r3, r3, #16
   85fe4:	e707      	b.n	85df6 <_vfiprintf_r+0x252>
   85fe6:	f043 0380 	orr.w	r3, r3, #128	; 0x80
   85fea:	f898 2000 	ldrb.w	r2, [r8]
   85fee:	e64b      	b.n	85c88 <_vfiprintf_r+0xe4>
   85ff0:	2500      	movs	r5, #0
   85ff2:	f1a2 0130 	sub.w	r1, r2, #48	; 0x30
   85ff6:	f818 2b01 	ldrb.w	r2, [r8], #1
   85ffa:	eb05 0585 	add.w	r5, r5, r5, lsl #2
   85ffe:	eb01 0545 	add.w	r5, r1, r5, lsl #1
   86002:	f1a2 0130 	sub.w	r1, r2, #48	; 0x30
   86006:	2909      	cmp	r1, #9
   86008:	d9f5      	bls.n	85ff6 <_vfiprintf_r+0x452>
   8600a:	e63f      	b.n	85c8c <_vfiprintf_r+0xe8>
   8600c:	9508      	str	r5, [sp, #32]
   8600e:	2800      	cmp	r0, #0
   86010:	f040 8402 	bne.w	86818 <_vfiprintf_r+0xc74>
   86014:	f043 0310 	orr.w	r3, r3, #16
   86018:	069e      	lsls	r6, r3, #26
   8601a:	f100 833d 	bmi.w	86698 <_vfiprintf_r+0xaf4>
   8601e:	9907      	ldr	r1, [sp, #28]
   86020:	06dd      	lsls	r5, r3, #27
   86022:	460a      	mov	r2, r1
   86024:	f100 82f0 	bmi.w	86608 <_vfiprintf_r+0xa64>
   86028:	0658      	lsls	r0, r3, #25
   8602a:	f140 82ed 	bpl.w	86608 <_vfiprintf_r+0xa64>
   8602e:	f9b1 6000 	ldrsh.w	r6, [r1]
   86032:	3204      	adds	r2, #4
   86034:	17f7      	asrs	r7, r6, #31
   86036:	4630      	mov	r0, r6
   86038:	4639      	mov	r1, r7
   8603a:	9207      	str	r2, [sp, #28]
   8603c:	2800      	cmp	r0, #0
   8603e:	f171 0200 	sbcs.w	r2, r1, #0
   86042:	f2c0 835a 	blt.w	866fa <_vfiprintf_r+0xb56>
   86046:	1c61      	adds	r1, r4, #1
   86048:	f89d 5037 	ldrb.w	r5, [sp, #55]	; 0x37
   8604c:	f04f 0201 	mov.w	r2, #1
   86050:	f47f aee9 	bne.w	85e26 <_vfiprintf_r+0x282>
   86054:	ea56 0107 	orrs.w	r1, r6, r7
   86058:	f000 824b 	beq.w	864f2 <_vfiprintf_r+0x94e>
   8605c:	9302      	str	r3, [sp, #8]
   8605e:	2a01      	cmp	r2, #1
   86060:	f000 828a 	beq.w	86578 <_vfiprintf_r+0x9d4>
   86064:	2a02      	cmp	r2, #2
   86066:	f040 825a 	bne.w	8651e <_vfiprintf_r+0x97a>
   8606a:	46d3      	mov	fp, sl
   8606c:	980b      	ldr	r0, [sp, #44]	; 0x2c
   8606e:	0933      	lsrs	r3, r6, #4
   86070:	ea43 7307 	orr.w	r3, r3, r7, lsl #28
   86074:	0939      	lsrs	r1, r7, #4
   86076:	f006 020f 	and.w	r2, r6, #15
   8607a:	460f      	mov	r7, r1
   8607c:	461e      	mov	r6, r3
   8607e:	5c83      	ldrb	r3, [r0, r2]
   86080:	f80b 3d01 	strb.w	r3, [fp, #-1]!
   86084:	ea56 0307 	orrs.w	r3, r6, r7
   86088:	d1f1      	bne.n	8606e <_vfiprintf_r+0x4ca>
   8608a:	ebaa 030b 	sub.w	r3, sl, fp
   8608e:	9305      	str	r3, [sp, #20]
   86090:	e6e0      	b.n	85e54 <_vfiprintf_r+0x2b0>
   86092:	2800      	cmp	r0, #0
   86094:	f040 83bd 	bne.w	86812 <_vfiprintf_r+0xc6e>
   86098:	0699      	lsls	r1, r3, #26
   8609a:	f100 8359 	bmi.w	86750 <_vfiprintf_r+0xbac>
   8609e:	06da      	lsls	r2, r3, #27
   860a0:	f100 80e5 	bmi.w	8626e <_vfiprintf_r+0x6ca>
   860a4:	065b      	lsls	r3, r3, #25
   860a6:	f140 80e2 	bpl.w	8626e <_vfiprintf_r+0x6ca>
   860aa:	9a07      	ldr	r2, [sp, #28]
   860ac:	6813      	ldr	r3, [r2, #0]
   860ae:	3204      	adds	r2, #4
   860b0:	9207      	str	r2, [sp, #28]
   860b2:	f8bd 200c 	ldrh.w	r2, [sp, #12]
   860b6:	801a      	strh	r2, [r3, #0]
   860b8:	e5b1      	b.n	85c1e <_vfiprintf_r+0x7a>
   860ba:	2278      	movs	r2, #120	; 0x78
   860bc:	2130      	movs	r1, #48	; 0x30
   860be:	9508      	str	r5, [sp, #32]
   860c0:	9d07      	ldr	r5, [sp, #28]
   860c2:	f88d 2039 	strb.w	r2, [sp, #57]	; 0x39
   860c6:	1d2a      	adds	r2, r5, #4
   860c8:	9207      	str	r2, [sp, #28]
   860ca:	4a3c      	ldr	r2, [pc, #240]	; (861bc <_vfiprintf_r+0x618>)
   860cc:	682e      	ldr	r6, [r5, #0]
   860ce:	920b      	str	r2, [sp, #44]	; 0x2c
   860d0:	f043 0302 	orr.w	r3, r3, #2
   860d4:	f88d 1038 	strb.w	r1, [sp, #56]	; 0x38
   860d8:	2700      	movs	r7, #0
   860da:	2202      	movs	r2, #2
   860dc:	e69b      	b.n	85e16 <_vfiprintf_r+0x272>
   860de:	9508      	str	r5, [sp, #32]
   860e0:	2800      	cmp	r0, #0
   860e2:	d099      	beq.n	86018 <_vfiprintf_r+0x474>
   860e4:	f88d 6037 	strb.w	r6, [sp, #55]	; 0x37
   860e8:	e796      	b.n	86018 <_vfiprintf_r+0x474>
   860ea:	f898 2000 	ldrb.w	r2, [r8]
   860ee:	2e00      	cmp	r6, #0
   860f0:	f47f adca 	bne.w	85c88 <_vfiprintf_r+0xe4>
   860f4:	2001      	movs	r0, #1
   860f6:	2620      	movs	r6, #32
   860f8:	e5c6      	b.n	85c88 <_vfiprintf_r+0xe4>
   860fa:	f043 0301 	orr.w	r3, r3, #1
   860fe:	f898 2000 	ldrb.w	r2, [r8]
   86102:	e5c1      	b.n	85c88 <_vfiprintf_r+0xe4>
   86104:	9508      	str	r5, [sp, #32]
   86106:	2800      	cmp	r0, #0
   86108:	f040 8380 	bne.w	8680c <_vfiprintf_r+0xc68>
   8610c:	492b      	ldr	r1, [pc, #172]	; (861bc <_vfiprintf_r+0x618>)
   8610e:	910b      	str	r1, [sp, #44]	; 0x2c
   86110:	069f      	lsls	r7, r3, #26
   86112:	f100 82e5 	bmi.w	866e0 <_vfiprintf_r+0xb3c>
   86116:	9807      	ldr	r0, [sp, #28]
   86118:	06de      	lsls	r6, r3, #27
   8611a:	4601      	mov	r1, r0
   8611c:	f100 826f 	bmi.w	865fe <_vfiprintf_r+0xa5a>
   86120:	065d      	lsls	r5, r3, #25
   86122:	f140 826c 	bpl.w	865fe <_vfiprintf_r+0xa5a>
   86126:	2700      	movs	r7, #0
   86128:	3104      	adds	r1, #4
   8612a:	8806      	ldrh	r6, [r0, #0]
   8612c:	9107      	str	r1, [sp, #28]
   8612e:	07d8      	lsls	r0, r3, #31
   86130:	f140 8220 	bpl.w	86574 <_vfiprintf_r+0x9d0>
   86134:	ea56 0107 	orrs.w	r1, r6, r7
   86138:	f000 821c 	beq.w	86574 <_vfiprintf_r+0x9d0>
   8613c:	2130      	movs	r1, #48	; 0x30
   8613e:	f88d 2039 	strb.w	r2, [sp, #57]	; 0x39
   86142:	f043 0302 	orr.w	r3, r3, #2
   86146:	f88d 1038 	strb.w	r1, [sp, #56]	; 0x38
   8614a:	2202      	movs	r2, #2
   8614c:	e663      	b.n	85e16 <_vfiprintf_r+0x272>
   8614e:	9508      	str	r5, [sp, #32]
   86150:	2800      	cmp	r0, #0
   86152:	f040 8355 	bne.w	86800 <_vfiprintf_r+0xc5c>
   86156:	491a      	ldr	r1, [pc, #104]	; (861c0 <_vfiprintf_r+0x61c>)
   86158:	910b      	str	r1, [sp, #44]	; 0x2c
   8615a:	e7d9      	b.n	86110 <_vfiprintf_r+0x56c>
   8615c:	2201      	movs	r2, #1
   8615e:	9807      	ldr	r0, [sp, #28]
   86160:	4611      	mov	r1, r2
   86162:	9201      	str	r2, [sp, #4]
   86164:	6802      	ldr	r2, [r0, #0]
   86166:	f04f 0400 	mov.w	r4, #0
   8616a:	f88d 2048 	strb.w	r2, [sp, #72]	; 0x48
   8616e:	4602      	mov	r2, r0
   86170:	3204      	adds	r2, #4
   86172:	9508      	str	r5, [sp, #32]
   86174:	f88d 4037 	strb.w	r4, [sp, #55]	; 0x37
   86178:	9105      	str	r1, [sp, #20]
   8617a:	9207      	str	r2, [sp, #28]
   8617c:	f10d 0b48 	add.w	fp, sp, #72	; 0x48
   86180:	9302      	str	r3, [sp, #8]
   86182:	2400      	movs	r4, #0
   86184:	e66e      	b.n	85e64 <_vfiprintf_r+0x2c0>
   86186:	f043 0340 	orr.w	r3, r3, #64	; 0x40
   8618a:	f898 2000 	ldrb.w	r2, [r8]
   8618e:	e57b      	b.n	85c88 <_vfiprintf_r+0xe4>
   86190:	f898 2000 	ldrb.w	r2, [r8]
   86194:	2a6c      	cmp	r2, #108	; 0x6c
   86196:	bf03      	ittte	eq
   86198:	f898 2001 	ldrbeq.w	r2, [r8, #1]
   8619c:	f043 0320 	orreq.w	r3, r3, #32
   861a0:	f108 0801 	addeq.w	r8, r8, #1
   861a4:	f043 0310 	orrne.w	r3, r3, #16
   861a8:	e56e      	b.n	85c88 <_vfiprintf_r+0xe4>
   861aa:	f898 2000 	ldrb.w	r2, [r8]
   861ae:	2001      	movs	r0, #1
   861b0:	262b      	movs	r6, #43	; 0x2b
   861b2:	e569      	b.n	85c88 <_vfiprintf_r+0xe4>
   861b4:	00088a8c 	.word	0x00088a8c
   861b8:	00088a9c 	.word	0x00088a9c
   861bc:	00088a70 	.word	0x00088a70
   861c0:	00088a5c 	.word	0x00088a5c
   861c4:	f04f 0200 	mov.w	r2, #0
   861c8:	9907      	ldr	r1, [sp, #28]
   861ca:	9508      	str	r5, [sp, #32]
   861cc:	f8d1 b000 	ldr.w	fp, [r1]
   861d0:	f88d 2037 	strb.w	r2, [sp, #55]	; 0x37
   861d4:	1d0d      	adds	r5, r1, #4
   861d6:	f1bb 0f00 	cmp.w	fp, #0
   861da:	f000 82e4 	beq.w	867a6 <_vfiprintf_r+0xc02>
   861de:	1c67      	adds	r7, r4, #1
   861e0:	f000 82c3 	beq.w	8676a <_vfiprintf_r+0xbc6>
   861e4:	4622      	mov	r2, r4
   861e6:	2100      	movs	r1, #0
   861e8:	4658      	mov	r0, fp
   861ea:	9301      	str	r3, [sp, #4]
   861ec:	f001 fbc6 	bl	8797c <memchr>
   861f0:	9b01      	ldr	r3, [sp, #4]
   861f2:	2800      	cmp	r0, #0
   861f4:	f000 82e8 	beq.w	867c8 <_vfiprintf_r+0xc24>
   861f8:	eba0 020b 	sub.w	r2, r0, fp
   861fc:	9507      	str	r5, [sp, #28]
   861fe:	9205      	str	r2, [sp, #20]
   86200:	9302      	str	r3, [sp, #8]
   86202:	f89d 5037 	ldrb.w	r5, [sp, #55]	; 0x37
   86206:	2400      	movs	r4, #0
   86208:	e624      	b.n	85e54 <_vfiprintf_r+0x2b0>
   8620a:	f898 2000 	ldrb.w	r2, [r8]
   8620e:	f108 0701 	add.w	r7, r8, #1
   86212:	2a2a      	cmp	r2, #42	; 0x2a
   86214:	f000 82e9 	beq.w	867ea <_vfiprintf_r+0xc46>
   86218:	f1a2 0130 	sub.w	r1, r2, #48	; 0x30
   8621c:	2909      	cmp	r1, #9
   8621e:	46b8      	mov	r8, r7
   86220:	f04f 0400 	mov.w	r4, #0
   86224:	f63f ad32 	bhi.w	85c8c <_vfiprintf_r+0xe8>
   86228:	f818 2b01 	ldrb.w	r2, [r8], #1
   8622c:	eb04 0484 	add.w	r4, r4, r4, lsl #2
   86230:	eb01 0444 	add.w	r4, r1, r4, lsl #1
   86234:	f1a2 0130 	sub.w	r1, r2, #48	; 0x30
   86238:	2909      	cmp	r1, #9
   8623a:	d9f5      	bls.n	86228 <_vfiprintf_r+0x684>
   8623c:	e526      	b.n	85c8c <_vfiprintf_r+0xe8>
   8623e:	f043 0320 	orr.w	r3, r3, #32
   86242:	f898 2000 	ldrb.w	r2, [r8]
   86246:	e51f      	b.n	85c88 <_vfiprintf_r+0xe4>
   86248:	9508      	str	r5, [sp, #32]
   8624a:	2800      	cmp	r0, #0
   8624c:	f040 82db 	bne.w	86806 <_vfiprintf_r+0xc62>
   86250:	2a00      	cmp	r2, #0
   86252:	f000 80f1 	beq.w	86438 <_vfiprintf_r+0x894>
   86256:	2101      	movs	r1, #1
   86258:	f88d 2048 	strb.w	r2, [sp, #72]	; 0x48
   8625c:	f04f 0200 	mov.w	r2, #0
   86260:	9101      	str	r1, [sp, #4]
   86262:	f88d 2037 	strb.w	r2, [sp, #55]	; 0x37
   86266:	9105      	str	r1, [sp, #20]
   86268:	f10d 0b48 	add.w	fp, sp, #72	; 0x48
   8626c:	e788      	b.n	86180 <_vfiprintf_r+0x5dc>
   8626e:	9a07      	ldr	r2, [sp, #28]
   86270:	6813      	ldr	r3, [r2, #0]
   86272:	3204      	adds	r2, #4
   86274:	9207      	str	r2, [sp, #28]
   86276:	9a03      	ldr	r2, [sp, #12]
   86278:	601a      	str	r2, [r3, #0]
   8627a:	e4d0      	b.n	85c1e <_vfiprintf_r+0x7a>
   8627c:	aa0f      	add	r2, sp, #60	; 0x3c
   8627e:	9904      	ldr	r1, [sp, #16]
   86280:	4620      	mov	r0, r4
   86282:	f7ff fc4f 	bl	85b24 <__sprint_r.part.0>
   86286:	2800      	cmp	r0, #0
   86288:	f040 8143 	bne.w	86512 <_vfiprintf_r+0x96e>
   8628c:	9910      	ldr	r1, [sp, #64]	; 0x40
   8628e:	46d6      	mov	lr, sl
   86290:	9a11      	ldr	r2, [sp, #68]	; 0x44
   86292:	f101 0c01 	add.w	ip, r1, #1
   86296:	e60a      	b.n	85eae <_vfiprintf_r+0x30a>
   86298:	aa0f      	add	r2, sp, #60	; 0x3c
   8629a:	9904      	ldr	r1, [sp, #16]
   8629c:	9806      	ldr	r0, [sp, #24]
   8629e:	f7ff fc41 	bl	85b24 <__sprint_r.part.0>
   862a2:	2800      	cmp	r0, #0
   862a4:	f040 8135 	bne.w	86512 <_vfiprintf_r+0x96e>
   862a8:	46d1      	mov	r9, sl
   862aa:	9910      	ldr	r1, [sp, #64]	; 0x40
   862ac:	f89d 5037 	ldrb.w	r5, [sp, #55]	; 0x37
   862b0:	9a11      	ldr	r2, [sp, #68]	; 0x44
   862b2:	1c48      	adds	r0, r1, #1
   862b4:	2d00      	cmp	r5, #0
   862b6:	f43f ae24 	beq.w	85f02 <_vfiprintf_r+0x35e>
   862ba:	2101      	movs	r1, #1
   862bc:	f10d 0537 	add.w	r5, sp, #55	; 0x37
   862c0:	440a      	add	r2, r1
   862c2:	2807      	cmp	r0, #7
   862c4:	9211      	str	r2, [sp, #68]	; 0x44
   862c6:	9010      	str	r0, [sp, #64]	; 0x40
   862c8:	f8c9 1004 	str.w	r1, [r9, #4]
   862cc:	f8c9 5000 	str.w	r5, [r9]
   862d0:	f340 8109 	ble.w	864e6 <_vfiprintf_r+0x942>
   862d4:	2a00      	cmp	r2, #0
   862d6:	f040 81af 	bne.w	86638 <_vfiprintf_r+0xa94>
   862da:	9b09      	ldr	r3, [sp, #36]	; 0x24
   862dc:	2b00      	cmp	r3, #0
   862de:	f43f ae23 	beq.w	85f28 <_vfiprintf_r+0x384>
   862e2:	2202      	movs	r2, #2
   862e4:	4608      	mov	r0, r1
   862e6:	46d1      	mov	r9, sl
   862e8:	ab0e      	add	r3, sp, #56	; 0x38
   862ea:	921d      	str	r2, [sp, #116]	; 0x74
   862ec:	931c      	str	r3, [sp, #112]	; 0x70
   862ee:	4601      	mov	r1, r0
   862f0:	f109 0908 	add.w	r9, r9, #8
   862f4:	3001      	adds	r0, #1
   862f6:	9b0a      	ldr	r3, [sp, #40]	; 0x28
   862f8:	2b80      	cmp	r3, #128	; 0x80
   862fa:	f43f ae1c 	beq.w	85f36 <_vfiprintf_r+0x392>
   862fe:	9b05      	ldr	r3, [sp, #20]
   86300:	1ae4      	subs	r4, r4, r3
   86302:	2c00      	cmp	r4, #0
   86304:	dd2f      	ble.n	86366 <_vfiprintf_r+0x7c2>
   86306:	2c10      	cmp	r4, #16
   86308:	f340 8220 	ble.w	8674c <_vfiprintf_r+0xba8>
   8630c:	46ce      	mov	lr, r9
   8630e:	2610      	movs	r6, #16
   86310:	4db2      	ldr	r5, [pc, #712]	; (865dc <_vfiprintf_r+0xa38>)
   86312:	9f06      	ldr	r7, [sp, #24]
   86314:	f8dd 9010 	ldr.w	r9, [sp, #16]
   86318:	e006      	b.n	86328 <_vfiprintf_r+0x784>
   8631a:	1c88      	adds	r0, r1, #2
   8631c:	4619      	mov	r1, r3
   8631e:	f10e 0e08 	add.w	lr, lr, #8
   86322:	3c10      	subs	r4, #16
   86324:	2c10      	cmp	r4, #16
   86326:	dd10      	ble.n	8634a <_vfiprintf_r+0x7a6>
   86328:	1c4b      	adds	r3, r1, #1
   8632a:	3210      	adds	r2, #16
   8632c:	2b07      	cmp	r3, #7
   8632e:	9211      	str	r2, [sp, #68]	; 0x44
   86330:	e88e 0060 	stmia.w	lr, {r5, r6}
   86334:	9310      	str	r3, [sp, #64]	; 0x40
   86336:	ddf0      	ble.n	8631a <_vfiprintf_r+0x776>
   86338:	2a00      	cmp	r2, #0
   8633a:	d165      	bne.n	86408 <_vfiprintf_r+0x864>
   8633c:	3c10      	subs	r4, #16
   8633e:	2c10      	cmp	r4, #16
   86340:	f04f 0001 	mov.w	r0, #1
   86344:	4611      	mov	r1, r2
   86346:	46d6      	mov	lr, sl
   86348:	dcee      	bgt.n	86328 <_vfiprintf_r+0x784>
   8634a:	46f1      	mov	r9, lr
   8634c:	4422      	add	r2, r4
   8634e:	2807      	cmp	r0, #7
   86350:	9211      	str	r2, [sp, #68]	; 0x44
   86352:	f8c9 5000 	str.w	r5, [r9]
   86356:	f8c9 4004 	str.w	r4, [r9, #4]
   8635a:	9010      	str	r0, [sp, #64]	; 0x40
   8635c:	f300 8085 	bgt.w	8646a <_vfiprintf_r+0x8c6>
   86360:	f109 0908 	add.w	r9, r9, #8
   86364:	3001      	adds	r0, #1
   86366:	9905      	ldr	r1, [sp, #20]
   86368:	2807      	cmp	r0, #7
   8636a:	440a      	add	r2, r1
   8636c:	9211      	str	r2, [sp, #68]	; 0x44
   8636e:	f8c9 b000 	str.w	fp, [r9]
   86372:	f8c9 1004 	str.w	r1, [r9, #4]
   86376:	9010      	str	r0, [sp, #64]	; 0x40
   86378:	f340 8082 	ble.w	86480 <_vfiprintf_r+0x8dc>
   8637c:	2a00      	cmp	r2, #0
   8637e:	f040 8118 	bne.w	865b2 <_vfiprintf_r+0xa0e>
   86382:	9b02      	ldr	r3, [sp, #8]
   86384:	9210      	str	r2, [sp, #64]	; 0x40
   86386:	0758      	lsls	r0, r3, #29
   86388:	d535      	bpl.n	863f6 <_vfiprintf_r+0x852>
   8638a:	9b08      	ldr	r3, [sp, #32]
   8638c:	9901      	ldr	r1, [sp, #4]
   8638e:	1a5c      	subs	r4, r3, r1
   86390:	2c00      	cmp	r4, #0
   86392:	f340 80e7 	ble.w	86564 <_vfiprintf_r+0x9c0>
   86396:	46d1      	mov	r9, sl
   86398:	2c10      	cmp	r4, #16
   8639a:	f340 820d 	ble.w	867b8 <_vfiprintf_r+0xc14>
   8639e:	2510      	movs	r5, #16
   863a0:	9910      	ldr	r1, [sp, #64]	; 0x40
   863a2:	4e8f      	ldr	r6, [pc, #572]	; (865e0 <_vfiprintf_r+0xa3c>)
   863a4:	9f06      	ldr	r7, [sp, #24]
   863a6:	f8dd b010 	ldr.w	fp, [sp, #16]
   863aa:	e006      	b.n	863ba <_vfiprintf_r+0x816>
   863ac:	1c88      	adds	r0, r1, #2
   863ae:	4619      	mov	r1, r3
   863b0:	f109 0908 	add.w	r9, r9, #8
   863b4:	3c10      	subs	r4, #16
   863b6:	2c10      	cmp	r4, #16
   863b8:	dd11      	ble.n	863de <_vfiprintf_r+0x83a>
   863ba:	1c4b      	adds	r3, r1, #1
   863bc:	3210      	adds	r2, #16
   863be:	2b07      	cmp	r3, #7
   863c0:	9211      	str	r2, [sp, #68]	; 0x44
   863c2:	f8c9 6000 	str.w	r6, [r9]
   863c6:	f8c9 5004 	str.w	r5, [r9, #4]
   863ca:	9310      	str	r3, [sp, #64]	; 0x40
   863cc:	ddee      	ble.n	863ac <_vfiprintf_r+0x808>
   863ce:	bb42      	cbnz	r2, 86422 <_vfiprintf_r+0x87e>
   863d0:	3c10      	subs	r4, #16
   863d2:	2c10      	cmp	r4, #16
   863d4:	f04f 0001 	mov.w	r0, #1
   863d8:	4611      	mov	r1, r2
   863da:	46d1      	mov	r9, sl
   863dc:	dced      	bgt.n	863ba <_vfiprintf_r+0x816>
   863de:	4422      	add	r2, r4
   863e0:	2807      	cmp	r0, #7
   863e2:	9211      	str	r2, [sp, #68]	; 0x44
   863e4:	f8c9 6000 	str.w	r6, [r9]
   863e8:	f8c9 4004 	str.w	r4, [r9, #4]
   863ec:	9010      	str	r0, [sp, #64]	; 0x40
   863ee:	dd51      	ble.n	86494 <_vfiprintf_r+0x8f0>
   863f0:	2a00      	cmp	r2, #0
   863f2:	f040 819a 	bne.w	8672a <_vfiprintf_r+0xb86>
   863f6:	9b03      	ldr	r3, [sp, #12]
   863f8:	9a08      	ldr	r2, [sp, #32]
   863fa:	9901      	ldr	r1, [sp, #4]
   863fc:	428a      	cmp	r2, r1
   863fe:	bfac      	ite	ge
   86400:	189b      	addge	r3, r3, r2
   86402:	185b      	addlt	r3, r3, r1
   86404:	9303      	str	r3, [sp, #12]
   86406:	e04e      	b.n	864a6 <_vfiprintf_r+0x902>
   86408:	aa0f      	add	r2, sp, #60	; 0x3c
   8640a:	4649      	mov	r1, r9
   8640c:	4638      	mov	r0, r7
   8640e:	f7ff fb89 	bl	85b24 <__sprint_r.part.0>
   86412:	2800      	cmp	r0, #0
   86414:	f040 813e 	bne.w	86694 <_vfiprintf_r+0xaf0>
   86418:	9910      	ldr	r1, [sp, #64]	; 0x40
   8641a:	46d6      	mov	lr, sl
   8641c:	9a11      	ldr	r2, [sp, #68]	; 0x44
   8641e:	1c48      	adds	r0, r1, #1
   86420:	e77f      	b.n	86322 <_vfiprintf_r+0x77e>
   86422:	aa0f      	add	r2, sp, #60	; 0x3c
   86424:	4659      	mov	r1, fp
   86426:	4638      	mov	r0, r7
   86428:	f7ff fb7c 	bl	85b24 <__sprint_r.part.0>
   8642c:	b960      	cbnz	r0, 86448 <_vfiprintf_r+0x8a4>
   8642e:	9910      	ldr	r1, [sp, #64]	; 0x40
   86430:	46d1      	mov	r9, sl
   86432:	9a11      	ldr	r2, [sp, #68]	; 0x44
   86434:	1c48      	adds	r0, r1, #1
   86436:	e7bd      	b.n	863b4 <_vfiprintf_r+0x810>
   86438:	9b11      	ldr	r3, [sp, #68]	; 0x44
   8643a:	f8dd b010 	ldr.w	fp, [sp, #16]
   8643e:	2b00      	cmp	r3, #0
   86440:	f040 81ca 	bne.w	867d8 <_vfiprintf_r+0xc34>
   86444:	2300      	movs	r3, #0
   86446:	9310      	str	r3, [sp, #64]	; 0x40
   86448:	f8db 3064 	ldr.w	r3, [fp, #100]	; 0x64
   8644c:	f013 0f01 	tst.w	r3, #1
   86450:	f8bb 300c 	ldrh.w	r3, [fp, #12]
   86454:	d102      	bne.n	8645c <_vfiprintf_r+0x8b8>
   86456:	059a      	lsls	r2, r3, #22
   86458:	f140 80dd 	bpl.w	86616 <_vfiprintf_r+0xa72>
   8645c:	065b      	lsls	r3, r3, #25
   8645e:	f53f acad 	bmi.w	85dbc <_vfiprintf_r+0x218>
   86462:	9803      	ldr	r0, [sp, #12]
   86464:	b02d      	add	sp, #180	; 0xb4
   86466:	e8bd 8ff0 	ldmia.w	sp!, {r4, r5, r6, r7, r8, r9, sl, fp, pc}
   8646a:	2a00      	cmp	r2, #0
   8646c:	f040 8105 	bne.w	8667a <_vfiprintf_r+0xad6>
   86470:	2301      	movs	r3, #1
   86472:	46d1      	mov	r9, sl
   86474:	9a05      	ldr	r2, [sp, #20]
   86476:	f8cd b070 	str.w	fp, [sp, #112]	; 0x70
   8647a:	921d      	str	r2, [sp, #116]	; 0x74
   8647c:	9211      	str	r2, [sp, #68]	; 0x44
   8647e:	9310      	str	r3, [sp, #64]	; 0x40
   86480:	f109 0908 	add.w	r9, r9, #8
   86484:	9b02      	ldr	r3, [sp, #8]
   86486:	0759      	lsls	r1, r3, #29
   86488:	d504      	bpl.n	86494 <_vfiprintf_r+0x8f0>
   8648a:	9b08      	ldr	r3, [sp, #32]
   8648c:	9901      	ldr	r1, [sp, #4]
   8648e:	1a5c      	subs	r4, r3, r1
   86490:	2c00      	cmp	r4, #0
   86492:	dc81      	bgt.n	86398 <_vfiprintf_r+0x7f4>
   86494:	9b03      	ldr	r3, [sp, #12]
   86496:	9908      	ldr	r1, [sp, #32]
   86498:	9801      	ldr	r0, [sp, #4]
   8649a:	4281      	cmp	r1, r0
   8649c:	bfac      	ite	ge
   8649e:	185b      	addge	r3, r3, r1
   864a0:	181b      	addlt	r3, r3, r0
   864a2:	9303      	str	r3, [sp, #12]
   864a4:	bb72      	cbnz	r2, 86504 <_vfiprintf_r+0x960>
   864a6:	2300      	movs	r3, #0
   864a8:	46d1      	mov	r9, sl
   864aa:	9310      	str	r3, [sp, #64]	; 0x40
   864ac:	f7ff bbb7 	b.w	85c1e <_vfiprintf_r+0x7a>
   864b0:	aa0f      	add	r2, sp, #60	; 0x3c
   864b2:	9904      	ldr	r1, [sp, #16]
   864b4:	4620      	mov	r0, r4
   864b6:	f7ff fb35 	bl	85b24 <__sprint_r.part.0>
   864ba:	bb50      	cbnz	r0, 86512 <_vfiprintf_r+0x96e>
   864bc:	9910      	ldr	r1, [sp, #64]	; 0x40
   864be:	46d4      	mov	ip, sl
   864c0:	9a11      	ldr	r2, [sp, #68]	; 0x44
   864c2:	f101 0e01 	add.w	lr, r1, #1
   864c6:	e54a      	b.n	85f5e <_vfiprintf_r+0x3ba>
   864c8:	2a00      	cmp	r2, #0
   864ca:	f47f aee5 	bne.w	86298 <_vfiprintf_r+0x6f4>
   864ce:	f89d 1037 	ldrb.w	r1, [sp, #55]	; 0x37
   864d2:	2900      	cmp	r1, #0
   864d4:	f000 811a 	beq.w	8670c <_vfiprintf_r+0xb68>
   864d8:	2201      	movs	r2, #1
   864da:	46d1      	mov	r9, sl
   864dc:	4610      	mov	r0, r2
   864de:	f10d 0137 	add.w	r1, sp, #55	; 0x37
   864e2:	921d      	str	r2, [sp, #116]	; 0x74
   864e4:	911c      	str	r1, [sp, #112]	; 0x70
   864e6:	4601      	mov	r1, r0
   864e8:	f109 0908 	add.w	r9, r9, #8
   864ec:	3001      	adds	r0, #1
   864ee:	e508      	b.n	85f02 <_vfiprintf_r+0x35e>
   864f0:	9b02      	ldr	r3, [sp, #8]
   864f2:	2a01      	cmp	r2, #1
   864f4:	f000 8097 	beq.w	86626 <_vfiprintf_r+0xa82>
   864f8:	2a02      	cmp	r2, #2
   864fa:	d10d      	bne.n	86518 <_vfiprintf_r+0x974>
   864fc:	9302      	str	r3, [sp, #8]
   864fe:	2600      	movs	r6, #0
   86500:	2700      	movs	r7, #0
   86502:	e5b2      	b.n	8606a <_vfiprintf_r+0x4c6>
   86504:	aa0f      	add	r2, sp, #60	; 0x3c
   86506:	9904      	ldr	r1, [sp, #16]
   86508:	9806      	ldr	r0, [sp, #24]
   8650a:	f7ff fb0b 	bl	85b24 <__sprint_r.part.0>
   8650e:	2800      	cmp	r0, #0
   86510:	d0c9      	beq.n	864a6 <_vfiprintf_r+0x902>
   86512:	f8dd b010 	ldr.w	fp, [sp, #16]
   86516:	e797      	b.n	86448 <_vfiprintf_r+0x8a4>
   86518:	2600      	movs	r6, #0
   8651a:	2700      	movs	r7, #0
   8651c:	9302      	str	r3, [sp, #8]
   8651e:	4651      	mov	r1, sl
   86520:	e000      	b.n	86524 <_vfiprintf_r+0x980>
   86522:	4659      	mov	r1, fp
   86524:	08f2      	lsrs	r2, r6, #3
   86526:	ea42 7247 	orr.w	r2, r2, r7, lsl #29
   8652a:	08f8      	lsrs	r0, r7, #3
   8652c:	f006 0307 	and.w	r3, r6, #7
   86530:	4607      	mov	r7, r0
   86532:	4616      	mov	r6, r2
   86534:	3330      	adds	r3, #48	; 0x30
   86536:	ea56 0207 	orrs.w	r2, r6, r7
   8653a:	f801 3c01 	strb.w	r3, [r1, #-1]
   8653e:	f101 3bff 	add.w	fp, r1, #4294967295
   86542:	d1ee      	bne.n	86522 <_vfiprintf_r+0x97e>
   86544:	9a02      	ldr	r2, [sp, #8]
   86546:	07d6      	lsls	r6, r2, #31
   86548:	f57f ad9f 	bpl.w	8608a <_vfiprintf_r+0x4e6>
   8654c:	2b30      	cmp	r3, #48	; 0x30
   8654e:	f43f ad9c 	beq.w	8608a <_vfiprintf_r+0x4e6>
   86552:	2330      	movs	r3, #48	; 0x30
   86554:	3902      	subs	r1, #2
   86556:	f80b 3c01 	strb.w	r3, [fp, #-1]
   8655a:	ebaa 0301 	sub.w	r3, sl, r1
   8655e:	9305      	str	r3, [sp, #20]
   86560:	468b      	mov	fp, r1
   86562:	e477      	b.n	85e54 <_vfiprintf_r+0x2b0>
   86564:	9b03      	ldr	r3, [sp, #12]
   86566:	9a08      	ldr	r2, [sp, #32]
   86568:	428a      	cmp	r2, r1
   8656a:	bfac      	ite	ge
   8656c:	189b      	addge	r3, r3, r2
   8656e:	185b      	addlt	r3, r3, r1
   86570:	9303      	str	r3, [sp, #12]
   86572:	e798      	b.n	864a6 <_vfiprintf_r+0x902>
   86574:	2202      	movs	r2, #2
   86576:	e44e      	b.n	85e16 <_vfiprintf_r+0x272>
   86578:	2f00      	cmp	r7, #0
   8657a:	bf08      	it	eq
   8657c:	2e0a      	cmpeq	r6, #10
   8657e:	d351      	bcc.n	86624 <_vfiprintf_r+0xa80>
   86580:	46d3      	mov	fp, sl
   86582:	4630      	mov	r0, r6
   86584:	4639      	mov	r1, r7
   86586:	220a      	movs	r2, #10
   86588:	2300      	movs	r3, #0
   8658a:	f001 fe85 	bl	88298 <__aeabi_uldivmod>
   8658e:	3230      	adds	r2, #48	; 0x30
   86590:	f80b 2d01 	strb.w	r2, [fp, #-1]!
   86594:	4630      	mov	r0, r6
   86596:	4639      	mov	r1, r7
   86598:	2300      	movs	r3, #0
   8659a:	220a      	movs	r2, #10
   8659c:	f001 fe7c 	bl	88298 <__aeabi_uldivmod>
   865a0:	4606      	mov	r6, r0
   865a2:	460f      	mov	r7, r1
   865a4:	ea56 0307 	orrs.w	r3, r6, r7
   865a8:	d1eb      	bne.n	86582 <_vfiprintf_r+0x9de>
   865aa:	e56e      	b.n	8608a <_vfiprintf_r+0x4e6>
   865ac:	9405      	str	r4, [sp, #20]
   865ae:	46d3      	mov	fp, sl
   865b0:	e450      	b.n	85e54 <_vfiprintf_r+0x2b0>
   865b2:	aa0f      	add	r2, sp, #60	; 0x3c
   865b4:	9904      	ldr	r1, [sp, #16]
   865b6:	9806      	ldr	r0, [sp, #24]
   865b8:	f7ff fab4 	bl	85b24 <__sprint_r.part.0>
   865bc:	2800      	cmp	r0, #0
   865be:	d1a8      	bne.n	86512 <_vfiprintf_r+0x96e>
   865c0:	46d1      	mov	r9, sl
   865c2:	9a11      	ldr	r2, [sp, #68]	; 0x44
   865c4:	e75e      	b.n	86484 <_vfiprintf_r+0x8e0>
   865c6:	aa0f      	add	r2, sp, #60	; 0x3c
   865c8:	9904      	ldr	r1, [sp, #16]
   865ca:	9806      	ldr	r0, [sp, #24]
   865cc:	f7ff faaa 	bl	85b24 <__sprint_r.part.0>
   865d0:	2800      	cmp	r0, #0
   865d2:	d19e      	bne.n	86512 <_vfiprintf_r+0x96e>
   865d4:	46d1      	mov	r9, sl
   865d6:	f7ff bbbb 	b.w	85d50 <_vfiprintf_r+0x1ac>
   865da:	bf00      	nop
   865dc:	00088a9c 	.word	0x00088a9c
   865e0:	00088a8c 	.word	0x00088a8c
   865e4:	3104      	adds	r1, #4
   865e6:	6816      	ldr	r6, [r2, #0]
   865e8:	2700      	movs	r7, #0
   865ea:	2201      	movs	r2, #1
   865ec:	9107      	str	r1, [sp, #28]
   865ee:	e412      	b.n	85e16 <_vfiprintf_r+0x272>
   865f0:	9807      	ldr	r0, [sp, #28]
   865f2:	2700      	movs	r7, #0
   865f4:	4601      	mov	r1, r0
   865f6:	3104      	adds	r1, #4
   865f8:	6806      	ldr	r6, [r0, #0]
   865fa:	9107      	str	r1, [sp, #28]
   865fc:	e40b      	b.n	85e16 <_vfiprintf_r+0x272>
   865fe:	680e      	ldr	r6, [r1, #0]
   86600:	3104      	adds	r1, #4
   86602:	9107      	str	r1, [sp, #28]
   86604:	2700      	movs	r7, #0
   86606:	e592      	b.n	8612e <_vfiprintf_r+0x58a>
   86608:	6816      	ldr	r6, [r2, #0]
   8660a:	3204      	adds	r2, #4
   8660c:	17f7      	asrs	r7, r6, #31
   8660e:	9207      	str	r2, [sp, #28]
   86610:	4630      	mov	r0, r6
   86612:	4639      	mov	r1, r7
   86614:	e512      	b.n	8603c <_vfiprintf_r+0x498>
   86616:	f8db 0058 	ldr.w	r0, [fp, #88]	; 0x58
   8661a:	f000 fe75 	bl	87308 <__retarget_lock_release_recursive>
   8661e:	f8bb 300c 	ldrh.w	r3, [fp, #12]
   86622:	e71b      	b.n	8645c <_vfiprintf_r+0x8b8>
   86624:	9b02      	ldr	r3, [sp, #8]
   86626:	9302      	str	r3, [sp, #8]
   86628:	2301      	movs	r3, #1
   8662a:	f10d 0bb0 	add.w	fp, sp, #176	; 0xb0
   8662e:	3630      	adds	r6, #48	; 0x30
   86630:	f80b 6d41 	strb.w	r6, [fp, #-65]!
   86634:	9305      	str	r3, [sp, #20]
   86636:	e40d      	b.n	85e54 <_vfiprintf_r+0x2b0>
   86638:	aa0f      	add	r2, sp, #60	; 0x3c
   8663a:	9904      	ldr	r1, [sp, #16]
   8663c:	9806      	ldr	r0, [sp, #24]
   8663e:	f7ff fa71 	bl	85b24 <__sprint_r.part.0>
   86642:	2800      	cmp	r0, #0
   86644:	f47f af65 	bne.w	86512 <_vfiprintf_r+0x96e>
   86648:	9910      	ldr	r1, [sp, #64]	; 0x40
   8664a:	46d1      	mov	r9, sl
   8664c:	9a11      	ldr	r2, [sp, #68]	; 0x44
   8664e:	1c48      	adds	r0, r1, #1
   86650:	e457      	b.n	85f02 <_vfiprintf_r+0x35e>
   86652:	aa0f      	add	r2, sp, #60	; 0x3c
   86654:	9904      	ldr	r1, [sp, #16]
   86656:	9806      	ldr	r0, [sp, #24]
   86658:	f7ff fa64 	bl	85b24 <__sprint_r.part.0>
   8665c:	2800      	cmp	r0, #0
   8665e:	f47f af58 	bne.w	86512 <_vfiprintf_r+0x96e>
   86662:	9910      	ldr	r1, [sp, #64]	; 0x40
   86664:	46d1      	mov	r9, sl
   86666:	9a11      	ldr	r2, [sp, #68]	; 0x44
   86668:	1c48      	adds	r0, r1, #1
   8666a:	e644      	b.n	862f6 <_vfiprintf_r+0x752>
   8666c:	2a00      	cmp	r2, #0
   8666e:	f040 8087 	bne.w	86780 <_vfiprintf_r+0xbdc>
   86672:	2001      	movs	r0, #1
   86674:	4611      	mov	r1, r2
   86676:	46d1      	mov	r9, sl
   86678:	e641      	b.n	862fe <_vfiprintf_r+0x75a>
   8667a:	aa0f      	add	r2, sp, #60	; 0x3c
   8667c:	9904      	ldr	r1, [sp, #16]
   8667e:	9806      	ldr	r0, [sp, #24]
   86680:	f7ff fa50 	bl	85b24 <__sprint_r.part.0>
   86684:	2800      	cmp	r0, #0
   86686:	f47f af44 	bne.w	86512 <_vfiprintf_r+0x96e>
   8668a:	9810      	ldr	r0, [sp, #64]	; 0x40
   8668c:	46d1      	mov	r9, sl
   8668e:	9a11      	ldr	r2, [sp, #68]	; 0x44
   86690:	3001      	adds	r0, #1
   86692:	e668      	b.n	86366 <_vfiprintf_r+0x7c2>
   86694:	46cb      	mov	fp, r9
   86696:	e6d7      	b.n	86448 <_vfiprintf_r+0x8a4>
   86698:	9d07      	ldr	r5, [sp, #28]
   8669a:	3507      	adds	r5, #7
   8669c:	f025 0507 	bic.w	r5, r5, #7
   866a0:	f105 0208 	add.w	r2, r5, #8
   866a4:	e9d5 0100 	ldrd	r0, r1, [r5]
   866a8:	9207      	str	r2, [sp, #28]
   866aa:	4606      	mov	r6, r0
   866ac:	460f      	mov	r7, r1
   866ae:	e4c5      	b.n	8603c <_vfiprintf_r+0x498>
   866b0:	9d07      	ldr	r5, [sp, #28]
   866b2:	3507      	adds	r5, #7
   866b4:	f025 0207 	bic.w	r2, r5, #7
   866b8:	f102 0108 	add.w	r1, r2, #8
   866bc:	e9d2 6700 	ldrd	r6, r7, [r2]
   866c0:	9107      	str	r1, [sp, #28]
   866c2:	2201      	movs	r2, #1
   866c4:	f7ff bba7 	b.w	85e16 <_vfiprintf_r+0x272>
   866c8:	9d07      	ldr	r5, [sp, #28]
   866ca:	3507      	adds	r5, #7
   866cc:	f025 0207 	bic.w	r2, r5, #7
   866d0:	f102 0108 	add.w	r1, r2, #8
   866d4:	e9d2 6700 	ldrd	r6, r7, [r2]
   866d8:	9107      	str	r1, [sp, #28]
   866da:	2200      	movs	r2, #0
   866dc:	f7ff bb9b 	b.w	85e16 <_vfiprintf_r+0x272>
   866e0:	9d07      	ldr	r5, [sp, #28]
   866e2:	3507      	adds	r5, #7
   866e4:	f025 0107 	bic.w	r1, r5, #7
   866e8:	f101 0008 	add.w	r0, r1, #8
   866ec:	9007      	str	r0, [sp, #28]
   866ee:	e9d1 6700 	ldrd	r6, r7, [r1]
   866f2:	e51c      	b.n	8612e <_vfiprintf_r+0x58a>
   866f4:	46d3      	mov	fp, sl
   866f6:	f7ff bbad 	b.w	85e54 <_vfiprintf_r+0x2b0>
   866fa:	252d      	movs	r5, #45	; 0x2d
   866fc:	4276      	negs	r6, r6
   866fe:	eb67 0747 	sbc.w	r7, r7, r7, lsl #1
   86702:	f88d 5037 	strb.w	r5, [sp, #55]	; 0x37
   86706:	2201      	movs	r2, #1
   86708:	f7ff bb8a 	b.w	85e20 <_vfiprintf_r+0x27c>
   8670c:	9b09      	ldr	r3, [sp, #36]	; 0x24
   8670e:	b9b3      	cbnz	r3, 8673e <_vfiprintf_r+0xb9a>
   86710:	4611      	mov	r1, r2
   86712:	2001      	movs	r0, #1
   86714:	46d1      	mov	r9, sl
   86716:	e5f2      	b.n	862fe <_vfiprintf_r+0x75a>
   86718:	f8db 0058 	ldr.w	r0, [fp, #88]	; 0x58
   8671c:	f000 fdf4 	bl	87308 <__retarget_lock_release_recursive>
   86720:	f04f 33ff 	mov.w	r3, #4294967295
   86724:	9303      	str	r3, [sp, #12]
   86726:	f7ff bb4c 	b.w	85dc2 <_vfiprintf_r+0x21e>
   8672a:	aa0f      	add	r2, sp, #60	; 0x3c
   8672c:	9904      	ldr	r1, [sp, #16]
   8672e:	9806      	ldr	r0, [sp, #24]
   86730:	f7ff f9f8 	bl	85b24 <__sprint_r.part.0>
   86734:	2800      	cmp	r0, #0
   86736:	f47f aeec 	bne.w	86512 <_vfiprintf_r+0x96e>
   8673a:	9a11      	ldr	r2, [sp, #68]	; 0x44
   8673c:	e6aa      	b.n	86494 <_vfiprintf_r+0x8f0>
   8673e:	2202      	movs	r2, #2
   86740:	ab0e      	add	r3, sp, #56	; 0x38
   86742:	921d      	str	r2, [sp, #116]	; 0x74
   86744:	931c      	str	r3, [sp, #112]	; 0x70
   86746:	2001      	movs	r0, #1
   86748:	46d1      	mov	r9, sl
   8674a:	e5d0      	b.n	862ee <_vfiprintf_r+0x74a>
   8674c:	4d34      	ldr	r5, [pc, #208]	; (86820 <_vfiprintf_r+0xc7c>)
   8674e:	e5fd      	b.n	8634c <_vfiprintf_r+0x7a8>
   86750:	9a07      	ldr	r2, [sp, #28]
   86752:	4613      	mov	r3, r2
   86754:	3304      	adds	r3, #4
   86756:	9307      	str	r3, [sp, #28]
   86758:	9b03      	ldr	r3, [sp, #12]
   8675a:	6811      	ldr	r1, [r2, #0]
   8675c:	17dd      	asrs	r5, r3, #31
   8675e:	461a      	mov	r2, r3
   86760:	462b      	mov	r3, r5
   86762:	e9c1 2300 	strd	r2, r3, [r1]
   86766:	f7ff ba5a 	b.w	85c1e <_vfiprintf_r+0x7a>
   8676a:	4658      	mov	r0, fp
   8676c:	9507      	str	r5, [sp, #28]
   8676e:	9302      	str	r3, [sp, #8]
   86770:	f7ff f978 	bl	85a64 <strlen>
   86774:	2400      	movs	r4, #0
   86776:	9005      	str	r0, [sp, #20]
   86778:	f89d 5037 	ldrb.w	r5, [sp, #55]	; 0x37
   8677c:	f7ff bb6a 	b.w	85e54 <_vfiprintf_r+0x2b0>
   86780:	aa0f      	add	r2, sp, #60	; 0x3c
   86782:	9904      	ldr	r1, [sp, #16]
   86784:	9806      	ldr	r0, [sp, #24]
   86786:	f7ff f9cd 	bl	85b24 <__sprint_r.part.0>
   8678a:	2800      	cmp	r0, #0
   8678c:	f47f aec1 	bne.w	86512 <_vfiprintf_r+0x96e>
   86790:	9910      	ldr	r1, [sp, #64]	; 0x40
   86792:	46d1      	mov	r9, sl
   86794:	9a11      	ldr	r2, [sp, #68]	; 0x44
   86796:	1c48      	adds	r0, r1, #1
   86798:	e5b1      	b.n	862fe <_vfiprintf_r+0x75a>
   8679a:	9910      	ldr	r1, [sp, #64]	; 0x40
   8679c:	9a11      	ldr	r2, [sp, #68]	; 0x44
   8679e:	3101      	adds	r1, #1
   867a0:	4e20      	ldr	r6, [pc, #128]	; (86824 <_vfiprintf_r+0xc80>)
   867a2:	f7ff bb9c 	b.w	85ede <_vfiprintf_r+0x33a>
   867a6:	2c06      	cmp	r4, #6
   867a8:	bf28      	it	cs
   867aa:	2406      	movcs	r4, #6
   867ac:	9507      	str	r5, [sp, #28]
   867ae:	9405      	str	r4, [sp, #20]
   867b0:	9401      	str	r4, [sp, #4]
   867b2:	f8df b074 	ldr.w	fp, [pc, #116]	; 86828 <_vfiprintf_r+0xc84>
   867b6:	e4e3      	b.n	86180 <_vfiprintf_r+0x5dc>
   867b8:	9810      	ldr	r0, [sp, #64]	; 0x40
   867ba:	4e1a      	ldr	r6, [pc, #104]	; (86824 <_vfiprintf_r+0xc80>)
   867bc:	3001      	adds	r0, #1
   867be:	e60e      	b.n	863de <_vfiprintf_r+0x83a>
   867c0:	4686      	mov	lr, r0
   867c2:	4d17      	ldr	r5, [pc, #92]	; (86820 <_vfiprintf_r+0xc7c>)
   867c4:	f7ff bbe2 	b.w	85f8c <_vfiprintf_r+0x3e8>
   867c8:	9405      	str	r4, [sp, #20]
   867ca:	9507      	str	r5, [sp, #28]
   867cc:	9302      	str	r3, [sp, #8]
   867ce:	4604      	mov	r4, r0
   867d0:	f89d 5037 	ldrb.w	r5, [sp, #55]	; 0x37
   867d4:	f7ff bb3e 	b.w	85e54 <_vfiprintf_r+0x2b0>
   867d8:	9806      	ldr	r0, [sp, #24]
   867da:	aa0f      	add	r2, sp, #60	; 0x3c
   867dc:	4659      	mov	r1, fp
   867de:	f7ff f9a1 	bl	85b24 <__sprint_r.part.0>
   867e2:	2800      	cmp	r0, #0
   867e4:	f43f ae2e 	beq.w	86444 <_vfiprintf_r+0x8a0>
   867e8:	e62e      	b.n	86448 <_vfiprintf_r+0x8a4>
   867ea:	9907      	ldr	r1, [sp, #28]
   867ec:	f898 2001 	ldrb.w	r2, [r8, #1]
   867f0:	680c      	ldr	r4, [r1, #0]
   867f2:	3104      	adds	r1, #4
   867f4:	ea44 74e4 	orr.w	r4, r4, r4, asr #31
   867f8:	46b8      	mov	r8, r7
   867fa:	9107      	str	r1, [sp, #28]
   867fc:	f7ff ba44 	b.w	85c88 <_vfiprintf_r+0xe4>
   86800:	f88d 6037 	strb.w	r6, [sp, #55]	; 0x37
   86804:	e4a7      	b.n	86156 <_vfiprintf_r+0x5b2>
   86806:	f88d 6037 	strb.w	r6, [sp, #55]	; 0x37
   8680a:	e521      	b.n	86250 <_vfiprintf_r+0x6ac>
   8680c:	f88d 6037 	strb.w	r6, [sp, #55]	; 0x37
   86810:	e47c      	b.n	8610c <_vfiprintf_r+0x568>
   86812:	f88d 6037 	strb.w	r6, [sp, #55]	; 0x37
   86816:	e43f      	b.n	86098 <_vfiprintf_r+0x4f4>
   86818:	f88d 6037 	strb.w	r6, [sp, #55]	; 0x37
   8681c:	f7ff bbfa 	b.w	86014 <_vfiprintf_r+0x470>
   86820:	00088a9c 	.word	0x00088a9c
   86824:	00088a8c 	.word	0x00088a8c
   86828:	00088a84 	.word	0x00088a84

0008682c <__sbprintf>:
   8682c:	e92d 41f0 	stmdb	sp!, {r4, r5, r6, r7, r8, lr}
   86830:	460c      	mov	r4, r1
   86832:	f04f 0e00 	mov.w	lr, #0
   86836:	f44f 6580 	mov.w	r5, #1024	; 0x400
   8683a:	4606      	mov	r6, r0
   8683c:	4617      	mov	r7, r2
   8683e:	4698      	mov	r8, r3
   86840:	6e62      	ldr	r2, [r4, #100]	; 0x64
   86842:	89e3      	ldrh	r3, [r4, #14]
   86844:	8989      	ldrh	r1, [r1, #12]
   86846:	f5ad 6d8d 	sub.w	sp, sp, #1128	; 0x468
   8684a:	f021 0102 	bic.w	r1, r1, #2
   8684e:	9219      	str	r2, [sp, #100]	; 0x64
   86850:	f8ad 300e 	strh.w	r3, [sp, #14]
   86854:	69e2      	ldr	r2, [r4, #28]
   86856:	6a63      	ldr	r3, [r4, #36]	; 0x24
   86858:	f8ad 100c 	strh.w	r1, [sp, #12]
   8685c:	a816      	add	r0, sp, #88	; 0x58
   8685e:	a91a      	add	r1, sp, #104	; 0x68
   86860:	f8cd e018 	str.w	lr, [sp, #24]
   86864:	9207      	str	r2, [sp, #28]
   86866:	9309      	str	r3, [sp, #36]	; 0x24
   86868:	9100      	str	r1, [sp, #0]
   8686a:	9104      	str	r1, [sp, #16]
   8686c:	9502      	str	r5, [sp, #8]
   8686e:	9505      	str	r5, [sp, #20]
   86870:	f000 fd44 	bl	872fc <__retarget_lock_init_recursive>
   86874:	4643      	mov	r3, r8
   86876:	463a      	mov	r2, r7
   86878:	4669      	mov	r1, sp
   8687a:	4630      	mov	r0, r6
   8687c:	f7ff f992 	bl	85ba4 <_vfiprintf_r>
   86880:	1e05      	subs	r5, r0, #0
   86882:	db07      	blt.n	86894 <__sbprintf+0x68>
   86884:	4630      	mov	r0, r6
   86886:	4669      	mov	r1, sp
   86888:	f000 f924 	bl	86ad4 <_fflush_r>
   8688c:	2800      	cmp	r0, #0
   8688e:	bf18      	it	ne
   86890:	f04f 35ff 	movne.w	r5, #4294967295
   86894:	f8bd 300c 	ldrh.w	r3, [sp, #12]
   86898:	065b      	lsls	r3, r3, #25
   8689a:	d503      	bpl.n	868a4 <__sbprintf+0x78>
   8689c:	89a3      	ldrh	r3, [r4, #12]
   8689e:	f043 0340 	orr.w	r3, r3, #64	; 0x40
   868a2:	81a3      	strh	r3, [r4, #12]
   868a4:	9816      	ldr	r0, [sp, #88]	; 0x58
   868a6:	f000 fd2b 	bl	87300 <__retarget_lock_close_recursive>
   868aa:	4628      	mov	r0, r5
   868ac:	f50d 6d8d 	add.w	sp, sp, #1128	; 0x468
   868b0:	e8bd 81f0 	ldmia.w	sp!, {r4, r5, r6, r7, r8, pc}

000868b4 <__swsetup_r>:
   868b4:	b538      	push	{r3, r4, r5, lr}
   868b6:	4b30      	ldr	r3, [pc, #192]	; (86978 <__swsetup_r+0xc4>)
   868b8:	4605      	mov	r5, r0
   868ba:	6818      	ldr	r0, [r3, #0]
   868bc:	460c      	mov	r4, r1
   868be:	b110      	cbz	r0, 868c6 <__swsetup_r+0x12>
   868c0:	6b83      	ldr	r3, [r0, #56]	; 0x38
   868c2:	2b00      	cmp	r3, #0
   868c4:	d038      	beq.n	86938 <__swsetup_r+0x84>
   868c6:	f9b4 200c 	ldrsh.w	r2, [r4, #12]
   868ca:	b293      	uxth	r3, r2
   868cc:	0718      	lsls	r0, r3, #28
   868ce:	d50c      	bpl.n	868ea <__swsetup_r+0x36>
   868d0:	6920      	ldr	r0, [r4, #16]
   868d2:	b1a8      	cbz	r0, 86900 <__swsetup_r+0x4c>
   868d4:	f013 0201 	ands.w	r2, r3, #1
   868d8:	d01e      	beq.n	86918 <__swsetup_r+0x64>
   868da:	2200      	movs	r2, #0
   868dc:	6963      	ldr	r3, [r4, #20]
   868de:	60a2      	str	r2, [r4, #8]
   868e0:	425b      	negs	r3, r3
   868e2:	61a3      	str	r3, [r4, #24]
   868e4:	b1f0      	cbz	r0, 86924 <__swsetup_r+0x70>
   868e6:	2000      	movs	r0, #0
   868e8:	bd38      	pop	{r3, r4, r5, pc}
   868ea:	06d9      	lsls	r1, r3, #27
   868ec:	d53b      	bpl.n	86966 <__swsetup_r+0xb2>
   868ee:	0758      	lsls	r0, r3, #29
   868f0:	d425      	bmi.n	8693e <__swsetup_r+0x8a>
   868f2:	6920      	ldr	r0, [r4, #16]
   868f4:	f042 0308 	orr.w	r3, r2, #8
   868f8:	81a3      	strh	r3, [r4, #12]
   868fa:	b29b      	uxth	r3, r3
   868fc:	2800      	cmp	r0, #0
   868fe:	d1e9      	bne.n	868d4 <__swsetup_r+0x20>
   86900:	f403 7220 	and.w	r2, r3, #640	; 0x280
   86904:	f5b2 7f00 	cmp.w	r2, #512	; 0x200
   86908:	d0e4      	beq.n	868d4 <__swsetup_r+0x20>
   8690a:	4628      	mov	r0, r5
   8690c:	4621      	mov	r1, r4
   8690e:	f000 fd2b 	bl	87368 <__smakebuf_r>
   86912:	89a3      	ldrh	r3, [r4, #12]
   86914:	6920      	ldr	r0, [r4, #16]
   86916:	e7dd      	b.n	868d4 <__swsetup_r+0x20>
   86918:	0799      	lsls	r1, r3, #30
   8691a:	bf58      	it	pl
   8691c:	6962      	ldrpl	r2, [r4, #20]
   8691e:	60a2      	str	r2, [r4, #8]
   86920:	2800      	cmp	r0, #0
   86922:	d1e0      	bne.n	868e6 <__swsetup_r+0x32>
   86924:	f9b4 300c 	ldrsh.w	r3, [r4, #12]
   86928:	061a      	lsls	r2, r3, #24
   8692a:	d5dd      	bpl.n	868e8 <__swsetup_r+0x34>
   8692c:	f043 0340 	orr.w	r3, r3, #64	; 0x40
   86930:	81a3      	strh	r3, [r4, #12]
   86932:	f04f 30ff 	mov.w	r0, #4294967295
   86936:	bd38      	pop	{r3, r4, r5, pc}
   86938:	f000 f924 	bl	86b84 <__sinit>
   8693c:	e7c3      	b.n	868c6 <__swsetup_r+0x12>
   8693e:	6b21      	ldr	r1, [r4, #48]	; 0x30
   86940:	b151      	cbz	r1, 86958 <__swsetup_r+0xa4>
   86942:	f104 0340 	add.w	r3, r4, #64	; 0x40
   86946:	4299      	cmp	r1, r3
   86948:	d004      	beq.n	86954 <__swsetup_r+0xa0>
   8694a:	4628      	mov	r0, r5
   8694c:	f000 fa40 	bl	86dd0 <_free_r>
   86950:	f9b4 200c 	ldrsh.w	r2, [r4, #12]
   86954:	2300      	movs	r3, #0
   86956:	6323      	str	r3, [r4, #48]	; 0x30
   86958:	2300      	movs	r3, #0
   8695a:	6920      	ldr	r0, [r4, #16]
   8695c:	f022 0224 	bic.w	r2, r2, #36	; 0x24
   86960:	e884 0009 	stmia.w	r4, {r0, r3}
   86964:	e7c6      	b.n	868f4 <__swsetup_r+0x40>
   86966:	2309      	movs	r3, #9
   86968:	f042 0240 	orr.w	r2, r2, #64	; 0x40
   8696c:	602b      	str	r3, [r5, #0]
   8696e:	f04f 30ff 	mov.w	r0, #4294967295
   86972:	81a2      	strh	r2, [r4, #12]
   86974:	bd38      	pop	{r3, r4, r5, pc}
   86976:	bf00      	nop
   86978:	200701c0 	.word	0x200701c0

0008697c <register_fini>:
   8697c:	4b02      	ldr	r3, [pc, #8]	; (86988 <register_fini+0xc>)
   8697e:	b113      	cbz	r3, 86986 <register_fini+0xa>
   86980:	4802      	ldr	r0, [pc, #8]	; (8698c <register_fini+0x10>)
   86982:	f000 b805 	b.w	86990 <atexit>
   86986:	4770      	bx	lr
   86988:	00000000 	.word	0x00000000
   8698c:	00086bfd 	.word	0x00086bfd

00086990 <atexit>:
   86990:	2300      	movs	r3, #0
   86992:	4601      	mov	r1, r0
   86994:	461a      	mov	r2, r3
   86996:	4618      	mov	r0, r3
   86998:	f001 bb56 	b.w	88048 <__register_exitproc>

0008699c <__sflush_r>:
   8699c:	f9b1 300c 	ldrsh.w	r3, [r1, #12]
   869a0:	e92d 41f0 	stmdb	sp!, {r4, r5, r6, r7, r8, lr}
   869a4:	b29a      	uxth	r2, r3
   869a6:	460d      	mov	r5, r1
   869a8:	0711      	lsls	r1, r2, #28
   869aa:	4680      	mov	r8, r0
   869ac:	d43a      	bmi.n	86a24 <__sflush_r+0x88>
   869ae:	686a      	ldr	r2, [r5, #4]
   869b0:	f443 6300 	orr.w	r3, r3, #2048	; 0x800
   869b4:	2a00      	cmp	r2, #0
   869b6:	81ab      	strh	r3, [r5, #12]
   869b8:	dd70      	ble.n	86a9c <__sflush_r+0x100>
   869ba:	6aac      	ldr	r4, [r5, #40]	; 0x28
   869bc:	2c00      	cmp	r4, #0
   869be:	d04a      	beq.n	86a56 <__sflush_r+0xba>
   869c0:	2200      	movs	r2, #0
   869c2:	b29b      	uxth	r3, r3
   869c4:	f8d8 6000 	ldr.w	r6, [r8]
   869c8:	f8c8 2000 	str.w	r2, [r8]
   869cc:	f413 5280 	ands.w	r2, r3, #4096	; 0x1000
   869d0:	d068      	beq.n	86aa4 <__sflush_r+0x108>
   869d2:	6d2a      	ldr	r2, [r5, #80]	; 0x50
   869d4:	075f      	lsls	r7, r3, #29
   869d6:	d505      	bpl.n	869e4 <__sflush_r+0x48>
   869d8:	6869      	ldr	r1, [r5, #4]
   869da:	6b2b      	ldr	r3, [r5, #48]	; 0x30
   869dc:	1a52      	subs	r2, r2, r1
   869de:	b10b      	cbz	r3, 869e4 <__sflush_r+0x48>
   869e0:	6beb      	ldr	r3, [r5, #60]	; 0x3c
   869e2:	1ad2      	subs	r2, r2, r3
   869e4:	2300      	movs	r3, #0
   869e6:	69e9      	ldr	r1, [r5, #28]
   869e8:	4640      	mov	r0, r8
   869ea:	47a0      	blx	r4
   869ec:	1c44      	adds	r4, r0, #1
   869ee:	d03d      	beq.n	86a6c <__sflush_r+0xd0>
   869f0:	2100      	movs	r1, #0
   869f2:	f9b5 300c 	ldrsh.w	r3, [r5, #12]
   869f6:	692a      	ldr	r2, [r5, #16]
   869f8:	f423 6300 	bic.w	r3, r3, #2048	; 0x800
   869fc:	81ab      	strh	r3, [r5, #12]
   869fe:	04db      	lsls	r3, r3, #19
   86a00:	6069      	str	r1, [r5, #4]
   86a02:	602a      	str	r2, [r5, #0]
   86a04:	d448      	bmi.n	86a98 <__sflush_r+0xfc>
   86a06:	6b29      	ldr	r1, [r5, #48]	; 0x30
   86a08:	f8c8 6000 	str.w	r6, [r8]
   86a0c:	b319      	cbz	r1, 86a56 <__sflush_r+0xba>
   86a0e:	f105 0340 	add.w	r3, r5, #64	; 0x40
   86a12:	4299      	cmp	r1, r3
   86a14:	d002      	beq.n	86a1c <__sflush_r+0x80>
   86a16:	4640      	mov	r0, r8
   86a18:	f000 f9da 	bl	86dd0 <_free_r>
   86a1c:	2000      	movs	r0, #0
   86a1e:	6328      	str	r0, [r5, #48]	; 0x30
   86a20:	e8bd 81f0 	ldmia.w	sp!, {r4, r5, r6, r7, r8, pc}
   86a24:	692e      	ldr	r6, [r5, #16]
   86a26:	b1b6      	cbz	r6, 86a56 <__sflush_r+0xba>
   86a28:	0791      	lsls	r1, r2, #30
   86a2a:	bf18      	it	ne
   86a2c:	2300      	movne	r3, #0
   86a2e:	682c      	ldr	r4, [r5, #0]
   86a30:	bf08      	it	eq
   86a32:	696b      	ldreq	r3, [r5, #20]
   86a34:	602e      	str	r6, [r5, #0]
   86a36:	1ba4      	subs	r4, r4, r6
   86a38:	60ab      	str	r3, [r5, #8]
   86a3a:	e00a      	b.n	86a52 <__sflush_r+0xb6>
   86a3c:	4623      	mov	r3, r4
   86a3e:	4632      	mov	r2, r6
   86a40:	6a6f      	ldr	r7, [r5, #36]	; 0x24
   86a42:	69e9      	ldr	r1, [r5, #28]
   86a44:	4640      	mov	r0, r8
   86a46:	47b8      	blx	r7
   86a48:	2800      	cmp	r0, #0
   86a4a:	eba4 0400 	sub.w	r4, r4, r0
   86a4e:	4406      	add	r6, r0
   86a50:	dd04      	ble.n	86a5c <__sflush_r+0xc0>
   86a52:	2c00      	cmp	r4, #0
   86a54:	dcf2      	bgt.n	86a3c <__sflush_r+0xa0>
   86a56:	2000      	movs	r0, #0
   86a58:	e8bd 81f0 	ldmia.w	sp!, {r4, r5, r6, r7, r8, pc}
   86a5c:	89ab      	ldrh	r3, [r5, #12]
   86a5e:	f04f 30ff 	mov.w	r0, #4294967295
   86a62:	f043 0340 	orr.w	r3, r3, #64	; 0x40
   86a66:	81ab      	strh	r3, [r5, #12]
   86a68:	e8bd 81f0 	ldmia.w	sp!, {r4, r5, r6, r7, r8, pc}
   86a6c:	f8d8 4000 	ldr.w	r4, [r8]
   86a70:	2c1d      	cmp	r4, #29
   86a72:	d8f3      	bhi.n	86a5c <__sflush_r+0xc0>
   86a74:	4b16      	ldr	r3, [pc, #88]	; (86ad0 <__sflush_r+0x134>)
   86a76:	40e3      	lsrs	r3, r4
   86a78:	43db      	mvns	r3, r3
   86a7a:	f013 0301 	ands.w	r3, r3, #1
   86a7e:	d1ed      	bne.n	86a5c <__sflush_r+0xc0>
   86a80:	f9b5 200c 	ldrsh.w	r2, [r5, #12]
   86a84:	6929      	ldr	r1, [r5, #16]
   86a86:	f422 6200 	bic.w	r2, r2, #2048	; 0x800
   86a8a:	81aa      	strh	r2, [r5, #12]
   86a8c:	04d2      	lsls	r2, r2, #19
   86a8e:	606b      	str	r3, [r5, #4]
   86a90:	6029      	str	r1, [r5, #0]
   86a92:	d5b8      	bpl.n	86a06 <__sflush_r+0x6a>
   86a94:	2c00      	cmp	r4, #0
   86a96:	d1b6      	bne.n	86a06 <__sflush_r+0x6a>
   86a98:	6528      	str	r0, [r5, #80]	; 0x50
   86a9a:	e7b4      	b.n	86a06 <__sflush_r+0x6a>
   86a9c:	6bea      	ldr	r2, [r5, #60]	; 0x3c
   86a9e:	2a00      	cmp	r2, #0
   86aa0:	dc8b      	bgt.n	869ba <__sflush_r+0x1e>
   86aa2:	e7d8      	b.n	86a56 <__sflush_r+0xba>
   86aa4:	2301      	movs	r3, #1
   86aa6:	69e9      	ldr	r1, [r5, #28]
   86aa8:	4640      	mov	r0, r8
   86aaa:	47a0      	blx	r4
   86aac:	1c43      	adds	r3, r0, #1
   86aae:	4602      	mov	r2, r0
   86ab0:	d002      	beq.n	86ab8 <__sflush_r+0x11c>
   86ab2:	89ab      	ldrh	r3, [r5, #12]
   86ab4:	6aac      	ldr	r4, [r5, #40]	; 0x28
   86ab6:	e78d      	b.n	869d4 <__sflush_r+0x38>
   86ab8:	f8d8 3000 	ldr.w	r3, [r8]
   86abc:	2b00      	cmp	r3, #0
   86abe:	d0f8      	beq.n	86ab2 <__sflush_r+0x116>
   86ac0:	2b1d      	cmp	r3, #29
   86ac2:	d001      	beq.n	86ac8 <__sflush_r+0x12c>
   86ac4:	2b16      	cmp	r3, #22
   86ac6:	d1c9      	bne.n	86a5c <__sflush_r+0xc0>
   86ac8:	f8c8 6000 	str.w	r6, [r8]
   86acc:	e7c3      	b.n	86a56 <__sflush_r+0xba>
   86ace:	bf00      	nop
   86ad0:	20400001 	.word	0x20400001

00086ad4 <_fflush_r>:
   86ad4:	b538      	push	{r3, r4, r5, lr}
   86ad6:	460d      	mov	r5, r1
   86ad8:	4604      	mov	r4, r0
   86ada:	b108      	cbz	r0, 86ae0 <_fflush_r+0xc>
   86adc:	6b83      	ldr	r3, [r0, #56]	; 0x38
   86ade:	b1bb      	cbz	r3, 86b10 <_fflush_r+0x3c>
   86ae0:	f9b5 000c 	ldrsh.w	r0, [r5, #12]
   86ae4:	b188      	cbz	r0, 86b0a <_fflush_r+0x36>
   86ae6:	6e6b      	ldr	r3, [r5, #100]	; 0x64
   86ae8:	07db      	lsls	r3, r3, #31
   86aea:	d401      	bmi.n	86af0 <_fflush_r+0x1c>
   86aec:	0581      	lsls	r1, r0, #22
   86aee:	d517      	bpl.n	86b20 <_fflush_r+0x4c>
   86af0:	4620      	mov	r0, r4
   86af2:	4629      	mov	r1, r5
   86af4:	f7ff ff52 	bl	8699c <__sflush_r>
   86af8:	6e6b      	ldr	r3, [r5, #100]	; 0x64
   86afa:	4604      	mov	r4, r0
   86afc:	07da      	lsls	r2, r3, #31
   86afe:	d402      	bmi.n	86b06 <_fflush_r+0x32>
   86b00:	89ab      	ldrh	r3, [r5, #12]
   86b02:	059b      	lsls	r3, r3, #22
   86b04:	d507      	bpl.n	86b16 <_fflush_r+0x42>
   86b06:	4620      	mov	r0, r4
   86b08:	bd38      	pop	{r3, r4, r5, pc}
   86b0a:	4604      	mov	r4, r0
   86b0c:	4620      	mov	r0, r4
   86b0e:	bd38      	pop	{r3, r4, r5, pc}
   86b10:	f000 f838 	bl	86b84 <__sinit>
   86b14:	e7e4      	b.n	86ae0 <_fflush_r+0xc>
   86b16:	6da8      	ldr	r0, [r5, #88]	; 0x58
   86b18:	f000 fbf6 	bl	87308 <__retarget_lock_release_recursive>
   86b1c:	4620      	mov	r0, r4
   86b1e:	bd38      	pop	{r3, r4, r5, pc}
   86b20:	6da8      	ldr	r0, [r5, #88]	; 0x58
   86b22:	f000 fbef 	bl	87304 <__retarget_lock_acquire_recursive>
   86b26:	e7e3      	b.n	86af0 <_fflush_r+0x1c>

00086b28 <_cleanup_r>:
   86b28:	4901      	ldr	r1, [pc, #4]	; (86b30 <_cleanup_r+0x8>)
   86b2a:	f000 bbb1 	b.w	87290 <_fwalk_reent>
   86b2e:	bf00      	nop
   86b30:	00088131 	.word	0x00088131

00086b34 <std.isra.0>:
   86b34:	2300      	movs	r3, #0
   86b36:	b510      	push	{r4, lr}
   86b38:	4604      	mov	r4, r0
   86b3a:	8181      	strh	r1, [r0, #12]
   86b3c:	81c2      	strh	r2, [r0, #14]
   86b3e:	6003      	str	r3, [r0, #0]
   86b40:	6043      	str	r3, [r0, #4]
   86b42:	6083      	str	r3, [r0, #8]
   86b44:	6643      	str	r3, [r0, #100]	; 0x64
   86b46:	6103      	str	r3, [r0, #16]
   86b48:	6143      	str	r3, [r0, #20]
   86b4a:	6183      	str	r3, [r0, #24]
   86b4c:	4619      	mov	r1, r3
   86b4e:	2208      	movs	r2, #8
   86b50:	305c      	adds	r0, #92	; 0x5c
   86b52:	f7fe fe69 	bl	85828 <memset>
   86b56:	4807      	ldr	r0, [pc, #28]	; (86b74 <std.isra.0+0x40>)
   86b58:	4907      	ldr	r1, [pc, #28]	; (86b78 <std.isra.0+0x44>)
   86b5a:	4a08      	ldr	r2, [pc, #32]	; (86b7c <std.isra.0+0x48>)
   86b5c:	4b08      	ldr	r3, [pc, #32]	; (86b80 <std.isra.0+0x4c>)
   86b5e:	6220      	str	r0, [r4, #32]
   86b60:	61e4      	str	r4, [r4, #28]
   86b62:	6261      	str	r1, [r4, #36]	; 0x24
   86b64:	62a2      	str	r2, [r4, #40]	; 0x28
   86b66:	62e3      	str	r3, [r4, #44]	; 0x2c
   86b68:	f104 0058 	add.w	r0, r4, #88	; 0x58
   86b6c:	e8bd 4010 	ldmia.w	sp!, {r4, lr}
   86b70:	f000 bbc4 	b.w	872fc <__retarget_lock_init_recursive>
   86b74:	00087e79 	.word	0x00087e79
   86b78:	00087e9d 	.word	0x00087e9d
   86b7c:	00087ed9 	.word	0x00087ed9
   86b80:	00087ef9 	.word	0x00087ef9

00086b84 <__sinit>:
   86b84:	b510      	push	{r4, lr}
   86b86:	4604      	mov	r4, r0
   86b88:	4814      	ldr	r0, [pc, #80]	; (86bdc <__sinit+0x58>)
   86b8a:	f000 fbbb 	bl	87304 <__retarget_lock_acquire_recursive>
   86b8e:	6ba2      	ldr	r2, [r4, #56]	; 0x38
   86b90:	b9fa      	cbnz	r2, 86bd2 <__sinit+0x4e>
   86b92:	2003      	movs	r0, #3
   86b94:	4912      	ldr	r1, [pc, #72]	; (86be0 <__sinit+0x5c>)
   86b96:	f504 733b 	add.w	r3, r4, #748	; 0x2ec
   86b9a:	f8c4 32e8 	str.w	r3, [r4, #744]	; 0x2e8
   86b9e:	f8c4 22e0 	str.w	r2, [r4, #736]	; 0x2e0
   86ba2:	f8c4 02e4 	str.w	r0, [r4, #740]	; 0x2e4
   86ba6:	63e1      	str	r1, [r4, #60]	; 0x3c
   86ba8:	6860      	ldr	r0, [r4, #4]
   86baa:	2104      	movs	r1, #4
   86bac:	f7ff ffc2 	bl	86b34 <std.isra.0>
   86bb0:	68a0      	ldr	r0, [r4, #8]
   86bb2:	2201      	movs	r2, #1
   86bb4:	2109      	movs	r1, #9
   86bb6:	f7ff ffbd 	bl	86b34 <std.isra.0>
   86bba:	68e0      	ldr	r0, [r4, #12]
   86bbc:	2202      	movs	r2, #2
   86bbe:	2112      	movs	r1, #18
   86bc0:	f7ff ffb8 	bl	86b34 <std.isra.0>
   86bc4:	2301      	movs	r3, #1
   86bc6:	4805      	ldr	r0, [pc, #20]	; (86bdc <__sinit+0x58>)
   86bc8:	63a3      	str	r3, [r4, #56]	; 0x38
   86bca:	e8bd 4010 	ldmia.w	sp!, {r4, lr}
   86bce:	f000 bb9b 	b.w	87308 <__retarget_lock_release_recursive>
   86bd2:	4802      	ldr	r0, [pc, #8]	; (86bdc <__sinit+0x58>)
   86bd4:	e8bd 4010 	ldmia.w	sp!, {r4, lr}
   86bd8:	f000 bb96 	b.w	87308 <__retarget_lock_release_recursive>
   86bdc:	2007b09c 	.word	0x2007b09c
   86be0:	00086b29 	.word	0x00086b29

00086be4 <__sfp_lock_acquire>:
   86be4:	4801      	ldr	r0, [pc, #4]	; (86bec <__sfp_lock_acquire+0x8>)
   86be6:	f000 bb8d 	b.w	87304 <__retarget_lock_acquire_recursive>
   86bea:	bf00      	nop
   86bec:	2007b0b0 	.word	0x2007b0b0

00086bf0 <__sfp_lock_release>:
   86bf0:	4801      	ldr	r0, [pc, #4]	; (86bf8 <__sfp_lock_release+0x8>)
   86bf2:	f000 bb89 	b.w	87308 <__retarget_lock_release_recursive>
   86bf6:	bf00      	nop
   86bf8:	2007b0b0 	.word	0x2007b0b0

00086bfc <__libc_fini_array>:
   86bfc:	b538      	push	{r3, r4, r5, lr}
   86bfe:	4c0a      	ldr	r4, [pc, #40]	; (86c28 <__libc_fini_array+0x2c>)
   86c00:	4d0a      	ldr	r5, [pc, #40]	; (86c2c <__libc_fini_array+0x30>)
   86c02:	1b64      	subs	r4, r4, r5
   86c04:	10a4      	asrs	r4, r4, #2
   86c06:	d00a      	beq.n	86c1e <__libc_fini_array+0x22>
   86c08:	f104 4380 	add.w	r3, r4, #1073741824	; 0x40000000
   86c0c:	3b01      	subs	r3, #1
   86c0e:	eb05 0583 	add.w	r5, r5, r3, lsl #2
   86c12:	3c01      	subs	r4, #1
   86c14:	f855 3904 	ldr.w	r3, [r5], #-4
   86c18:	4798      	blx	r3
   86c1a:	2c00      	cmp	r4, #0
   86c1c:	d1f9      	bne.n	86c12 <__libc_fini_array+0x16>
   86c1e:	e8bd 4038 	ldmia.w	sp!, {r3, r4, r5, lr}
   86c22:	f001 bfd7 	b.w	88bd4 <_fini>
   86c26:	bf00      	nop
   86c28:	00088be4 	.word	0x00088be4
   86c2c:	00088be0 	.word	0x00088be0

00086c30 <__fputwc>:
   86c30:	e92d 43f0 	stmdb	sp!, {r4, r5, r6, r7, r8, r9, lr}
   86c34:	b083      	sub	sp, #12
   86c36:	4607      	mov	r7, r0
   86c38:	4688      	mov	r8, r1
   86c3a:	4614      	mov	r4, r2
   86c3c:	f000 fb50 	bl	872e0 <__locale_mb_cur_max>
   86c40:	2801      	cmp	r0, #1
   86c42:	d033      	beq.n	86cac <__fputwc+0x7c>
   86c44:	4642      	mov	r2, r8
   86c46:	f104 035c 	add.w	r3, r4, #92	; 0x5c
   86c4a:	a901      	add	r1, sp, #4
   86c4c:	4638      	mov	r0, r7
   86c4e:	f001 f9af 	bl	87fb0 <_wcrtomb_r>
   86c52:	1c42      	adds	r2, r0, #1
   86c54:	4606      	mov	r6, r0
   86c56:	d022      	beq.n	86c9e <__fputwc+0x6e>
   86c58:	b390      	cbz	r0, 86cc0 <__fputwc+0x90>
   86c5a:	f89d 1004 	ldrb.w	r1, [sp, #4]
   86c5e:	2500      	movs	r5, #0
   86c60:	f10d 0904 	add.w	r9, sp, #4
   86c64:	e008      	b.n	86c78 <__fputwc+0x48>
   86c66:	6823      	ldr	r3, [r4, #0]
   86c68:	1c5a      	adds	r2, r3, #1
   86c6a:	6022      	str	r2, [r4, #0]
   86c6c:	7019      	strb	r1, [r3, #0]
   86c6e:	3501      	adds	r5, #1
   86c70:	42b5      	cmp	r5, r6
   86c72:	d225      	bcs.n	86cc0 <__fputwc+0x90>
   86c74:	f815 1009 	ldrb.w	r1, [r5, r9]
   86c78:	68a3      	ldr	r3, [r4, #8]
   86c7a:	3b01      	subs	r3, #1
   86c7c:	2b00      	cmp	r3, #0
   86c7e:	60a3      	str	r3, [r4, #8]
   86c80:	daf1      	bge.n	86c66 <__fputwc+0x36>
   86c82:	69a2      	ldr	r2, [r4, #24]
   86c84:	4293      	cmp	r3, r2
   86c86:	db01      	blt.n	86c8c <__fputwc+0x5c>
   86c88:	290a      	cmp	r1, #10
   86c8a:	d1ec      	bne.n	86c66 <__fputwc+0x36>
   86c8c:	4622      	mov	r2, r4
   86c8e:	4638      	mov	r0, r7
   86c90:	f001 f936 	bl	87f00 <__swbuf_r>
   86c94:	1c43      	adds	r3, r0, #1
   86c96:	d1ea      	bne.n	86c6e <__fputwc+0x3e>
   86c98:	b003      	add	sp, #12
   86c9a:	e8bd 83f0 	ldmia.w	sp!, {r4, r5, r6, r7, r8, r9, pc}
   86c9e:	89a3      	ldrh	r3, [r4, #12]
   86ca0:	f043 0340 	orr.w	r3, r3, #64	; 0x40
   86ca4:	81a3      	strh	r3, [r4, #12]
   86ca6:	b003      	add	sp, #12
   86ca8:	e8bd 83f0 	ldmia.w	sp!, {r4, r5, r6, r7, r8, r9, pc}
   86cac:	f108 33ff 	add.w	r3, r8, #4294967295
   86cb0:	2bfe      	cmp	r3, #254	; 0xfe
   86cb2:	d8c7      	bhi.n	86c44 <__fputwc+0x14>
   86cb4:	fa5f f188 	uxtb.w	r1, r8
   86cb8:	4606      	mov	r6, r0
   86cba:	f88d 1004 	strb.w	r1, [sp, #4]
   86cbe:	e7ce      	b.n	86c5e <__fputwc+0x2e>
   86cc0:	4640      	mov	r0, r8
   86cc2:	b003      	add	sp, #12
   86cc4:	e8bd 83f0 	ldmia.w	sp!, {r4, r5, r6, r7, r8, r9, pc}

00086cc8 <_fputwc_r>:
   86cc8:	b530      	push	{r4, r5, lr}
   86cca:	6e53      	ldr	r3, [r2, #100]	; 0x64
   86ccc:	4614      	mov	r4, r2
   86cce:	f013 0f01 	tst.w	r3, #1
   86cd2:	f9b2 300c 	ldrsh.w	r3, [r2, #12]
   86cd6:	b083      	sub	sp, #12
   86cd8:	4605      	mov	r5, r0
   86cda:	b29a      	uxth	r2, r3
   86cdc:	d101      	bne.n	86ce2 <_fputwc_r+0x1a>
   86cde:	0590      	lsls	r0, r2, #22
   86ce0:	d51c      	bpl.n	86d1c <_fputwc_r+0x54>
   86ce2:	0490      	lsls	r0, r2, #18
   86ce4:	d406      	bmi.n	86cf4 <_fputwc_r+0x2c>
   86ce6:	6e62      	ldr	r2, [r4, #100]	; 0x64
   86ce8:	f443 5300 	orr.w	r3, r3, #8192	; 0x2000
   86cec:	f442 5200 	orr.w	r2, r2, #8192	; 0x2000
   86cf0:	81a3      	strh	r3, [r4, #12]
   86cf2:	6662      	str	r2, [r4, #100]	; 0x64
   86cf4:	4628      	mov	r0, r5
   86cf6:	4622      	mov	r2, r4
   86cf8:	f7ff ff9a 	bl	86c30 <__fputwc>
   86cfc:	6e63      	ldr	r3, [r4, #100]	; 0x64
   86cfe:	4605      	mov	r5, r0
   86d00:	07da      	lsls	r2, r3, #31
   86d02:	d402      	bmi.n	86d0a <_fputwc_r+0x42>
   86d04:	89a3      	ldrh	r3, [r4, #12]
   86d06:	059b      	lsls	r3, r3, #22
   86d08:	d502      	bpl.n	86d10 <_fputwc_r+0x48>
   86d0a:	4628      	mov	r0, r5
   86d0c:	b003      	add	sp, #12
   86d0e:	bd30      	pop	{r4, r5, pc}
   86d10:	6da0      	ldr	r0, [r4, #88]	; 0x58
   86d12:	f000 faf9 	bl	87308 <__retarget_lock_release_recursive>
   86d16:	4628      	mov	r0, r5
   86d18:	b003      	add	sp, #12
   86d1a:	bd30      	pop	{r4, r5, pc}
   86d1c:	6da0      	ldr	r0, [r4, #88]	; 0x58
   86d1e:	9101      	str	r1, [sp, #4]
   86d20:	f000 faf0 	bl	87304 <__retarget_lock_acquire_recursive>
   86d24:	f9b4 300c 	ldrsh.w	r3, [r4, #12]
   86d28:	9901      	ldr	r1, [sp, #4]
   86d2a:	b29a      	uxth	r2, r3
   86d2c:	e7d9      	b.n	86ce2 <_fputwc_r+0x1a>
   86d2e:	bf00      	nop

00086d30 <_malloc_trim_r>:
   86d30:	b5f8      	push	{r3, r4, r5, r6, r7, lr}
   86d32:	460c      	mov	r4, r1
   86d34:	4f23      	ldr	r7, [pc, #140]	; (86dc4 <_malloc_trim_r+0x94>)
   86d36:	4606      	mov	r6, r0
   86d38:	f000 feca 	bl	87ad0 <__malloc_lock>
   86d3c:	68bb      	ldr	r3, [r7, #8]
   86d3e:	f5c4 617e 	rsb	r1, r4, #4064	; 0xfe0
   86d42:	685d      	ldr	r5, [r3, #4]
   86d44:	310f      	adds	r1, #15
   86d46:	f025 0503 	bic.w	r5, r5, #3
   86d4a:	4429      	add	r1, r5
   86d4c:	f421 617f 	bic.w	r1, r1, #4080	; 0xff0
   86d50:	f021 010f 	bic.w	r1, r1, #15
   86d54:	f5a1 5480 	sub.w	r4, r1, #4096	; 0x1000
   86d58:	f5b4 5f80 	cmp.w	r4, #4096	; 0x1000
   86d5c:	db07      	blt.n	86d6e <_malloc_trim_r+0x3e>
   86d5e:	2100      	movs	r1, #0
   86d60:	4630      	mov	r0, r6
   86d62:	f001 f877 	bl	87e54 <_sbrk_r>
   86d66:	68bb      	ldr	r3, [r7, #8]
   86d68:	442b      	add	r3, r5
   86d6a:	4298      	cmp	r0, r3
   86d6c:	d004      	beq.n	86d78 <_malloc_trim_r+0x48>
   86d6e:	4630      	mov	r0, r6
   86d70:	f000 feb4 	bl	87adc <__malloc_unlock>
   86d74:	2000      	movs	r0, #0
   86d76:	bdf8      	pop	{r3, r4, r5, r6, r7, pc}
   86d78:	4261      	negs	r1, r4
   86d7a:	4630      	mov	r0, r6
   86d7c:	f001 f86a 	bl	87e54 <_sbrk_r>
   86d80:	3001      	adds	r0, #1
   86d82:	d00d      	beq.n	86da0 <_malloc_trim_r+0x70>
   86d84:	4b10      	ldr	r3, [pc, #64]	; (86dc8 <_malloc_trim_r+0x98>)
   86d86:	68ba      	ldr	r2, [r7, #8]
   86d88:	6819      	ldr	r1, [r3, #0]
   86d8a:	1b2d      	subs	r5, r5, r4
   86d8c:	f045 0501 	orr.w	r5, r5, #1
   86d90:	4630      	mov	r0, r6
   86d92:	1b09      	subs	r1, r1, r4
   86d94:	6055      	str	r5, [r2, #4]
   86d96:	6019      	str	r1, [r3, #0]
   86d98:	f000 fea0 	bl	87adc <__malloc_unlock>
   86d9c:	2001      	movs	r0, #1
   86d9e:	bdf8      	pop	{r3, r4, r5, r6, r7, pc}
   86da0:	2100      	movs	r1, #0
   86da2:	4630      	mov	r0, r6
   86da4:	f001 f856 	bl	87e54 <_sbrk_r>
   86da8:	68ba      	ldr	r2, [r7, #8]
   86daa:	1a83      	subs	r3, r0, r2
   86dac:	2b0f      	cmp	r3, #15
   86dae:	ddde      	ble.n	86d6e <_malloc_trim_r+0x3e>
   86db0:	4c06      	ldr	r4, [pc, #24]	; (86dcc <_malloc_trim_r+0x9c>)
   86db2:	4905      	ldr	r1, [pc, #20]	; (86dc8 <_malloc_trim_r+0x98>)
   86db4:	6824      	ldr	r4, [r4, #0]
   86db6:	f043 0301 	orr.w	r3, r3, #1
   86dba:	1b00      	subs	r0, r0, r4
   86dbc:	6053      	str	r3, [r2, #4]
   86dbe:	6008      	str	r0, [r1, #0]
   86dc0:	e7d5      	b.n	86d6e <_malloc_trim_r+0x3e>
   86dc2:	bf00      	nop
   86dc4:	20070760 	.word	0x20070760
   86dc8:	2007ae40 	.word	0x2007ae40
   86dcc:	20070b68 	.word	0x20070b68

00086dd0 <_free_r>:
   86dd0:	2900      	cmp	r1, #0
   86dd2:	d044      	beq.n	86e5e <_free_r+0x8e>
   86dd4:	e92d 41f0 	stmdb	sp!, {r4, r5, r6, r7, r8, lr}
   86dd8:	460d      	mov	r5, r1
   86dda:	4680      	mov	r8, r0
   86ddc:	f000 fe78 	bl	87ad0 <__malloc_lock>
   86de0:	f855 7c04 	ldr.w	r7, [r5, #-4]
   86de4:	4969      	ldr	r1, [pc, #420]	; (86f8c <_free_r+0x1bc>)
   86de6:	f1a5 0408 	sub.w	r4, r5, #8
   86dea:	f027 0301 	bic.w	r3, r7, #1
   86dee:	18e2      	adds	r2, r4, r3
   86df0:	688e      	ldr	r6, [r1, #8]
   86df2:	6850      	ldr	r0, [r2, #4]
   86df4:	42b2      	cmp	r2, r6
   86df6:	f020 0003 	bic.w	r0, r0, #3
   86dfa:	d05e      	beq.n	86eba <_free_r+0xea>
   86dfc:	07fe      	lsls	r6, r7, #31
   86dfe:	6050      	str	r0, [r2, #4]
   86e00:	d40b      	bmi.n	86e1a <_free_r+0x4a>
   86e02:	f855 7c08 	ldr.w	r7, [r5, #-8]
   86e06:	f101 0e08 	add.w	lr, r1, #8
   86e0a:	1be4      	subs	r4, r4, r7
   86e0c:	68a5      	ldr	r5, [r4, #8]
   86e0e:	443b      	add	r3, r7
   86e10:	4575      	cmp	r5, lr
   86e12:	d06d      	beq.n	86ef0 <_free_r+0x120>
   86e14:	68e7      	ldr	r7, [r4, #12]
   86e16:	60ef      	str	r7, [r5, #12]
   86e18:	60bd      	str	r5, [r7, #8]
   86e1a:	1815      	adds	r5, r2, r0
   86e1c:	686d      	ldr	r5, [r5, #4]
   86e1e:	07ed      	lsls	r5, r5, #31
   86e20:	d53e      	bpl.n	86ea0 <_free_r+0xd0>
   86e22:	f043 0201 	orr.w	r2, r3, #1
   86e26:	6062      	str	r2, [r4, #4]
   86e28:	50e3      	str	r3, [r4, r3]
   86e2a:	f5b3 7f00 	cmp.w	r3, #512	; 0x200
   86e2e:	d217      	bcs.n	86e60 <_free_r+0x90>
   86e30:	2201      	movs	r2, #1
   86e32:	08db      	lsrs	r3, r3, #3
   86e34:	1098      	asrs	r0, r3, #2
   86e36:	684d      	ldr	r5, [r1, #4]
   86e38:	4413      	add	r3, r2
   86e3a:	f851 7033 	ldr.w	r7, [r1, r3, lsl #3]
   86e3e:	4082      	lsls	r2, r0
   86e40:	eb01 00c3 	add.w	r0, r1, r3, lsl #3
   86e44:	432a      	orrs	r2, r5
   86e46:	3808      	subs	r0, #8
   86e48:	60e0      	str	r0, [r4, #12]
   86e4a:	60a7      	str	r7, [r4, #8]
   86e4c:	604a      	str	r2, [r1, #4]
   86e4e:	f841 4033 	str.w	r4, [r1, r3, lsl #3]
   86e52:	60fc      	str	r4, [r7, #12]
   86e54:	4640      	mov	r0, r8
   86e56:	e8bd 41f0 	ldmia.w	sp!, {r4, r5, r6, r7, r8, lr}
   86e5a:	f000 be3f 	b.w	87adc <__malloc_unlock>
   86e5e:	4770      	bx	lr
   86e60:	0a5a      	lsrs	r2, r3, #9
   86e62:	2a04      	cmp	r2, #4
   86e64:	d852      	bhi.n	86f0c <_free_r+0x13c>
   86e66:	099a      	lsrs	r2, r3, #6
   86e68:	f102 0739 	add.w	r7, r2, #57	; 0x39
   86e6c:	00ff      	lsls	r7, r7, #3
   86e6e:	f102 0538 	add.w	r5, r2, #56	; 0x38
   86e72:	19c8      	adds	r0, r1, r7
   86e74:	59ca      	ldr	r2, [r1, r7]
   86e76:	3808      	subs	r0, #8
   86e78:	4290      	cmp	r0, r2
   86e7a:	d04f      	beq.n	86f1c <_free_r+0x14c>
   86e7c:	6851      	ldr	r1, [r2, #4]
   86e7e:	f021 0103 	bic.w	r1, r1, #3
   86e82:	428b      	cmp	r3, r1
   86e84:	d232      	bcs.n	86eec <_free_r+0x11c>
   86e86:	6892      	ldr	r2, [r2, #8]
   86e88:	4290      	cmp	r0, r2
   86e8a:	d1f7      	bne.n	86e7c <_free_r+0xac>
   86e8c:	68c3      	ldr	r3, [r0, #12]
   86e8e:	60a0      	str	r0, [r4, #8]
   86e90:	60e3      	str	r3, [r4, #12]
   86e92:	609c      	str	r4, [r3, #8]
   86e94:	60c4      	str	r4, [r0, #12]
   86e96:	4640      	mov	r0, r8
   86e98:	e8bd 41f0 	ldmia.w	sp!, {r4, r5, r6, r7, r8, lr}
   86e9c:	f000 be1e 	b.w	87adc <__malloc_unlock>
   86ea0:	6895      	ldr	r5, [r2, #8]
   86ea2:	4f3b      	ldr	r7, [pc, #236]	; (86f90 <_free_r+0x1c0>)
   86ea4:	4403      	add	r3, r0
   86ea6:	42bd      	cmp	r5, r7
   86ea8:	d040      	beq.n	86f2c <_free_r+0x15c>
   86eaa:	68d0      	ldr	r0, [r2, #12]
   86eac:	f043 0201 	orr.w	r2, r3, #1
   86eb0:	60e8      	str	r0, [r5, #12]
   86eb2:	6085      	str	r5, [r0, #8]
   86eb4:	6062      	str	r2, [r4, #4]
   86eb6:	50e3      	str	r3, [r4, r3]
   86eb8:	e7b7      	b.n	86e2a <_free_r+0x5a>
   86eba:	07ff      	lsls	r7, r7, #31
   86ebc:	4403      	add	r3, r0
   86ebe:	d407      	bmi.n	86ed0 <_free_r+0x100>
   86ec0:	f855 5c08 	ldr.w	r5, [r5, #-8]
   86ec4:	1b64      	subs	r4, r4, r5
   86ec6:	68e2      	ldr	r2, [r4, #12]
   86ec8:	68a0      	ldr	r0, [r4, #8]
   86eca:	442b      	add	r3, r5
   86ecc:	60c2      	str	r2, [r0, #12]
   86ece:	6090      	str	r0, [r2, #8]
   86ed0:	4a30      	ldr	r2, [pc, #192]	; (86f94 <_free_r+0x1c4>)
   86ed2:	f043 0001 	orr.w	r0, r3, #1
   86ed6:	6812      	ldr	r2, [r2, #0]
   86ed8:	6060      	str	r0, [r4, #4]
   86eda:	4293      	cmp	r3, r2
   86edc:	608c      	str	r4, [r1, #8]
   86ede:	d3b9      	bcc.n	86e54 <_free_r+0x84>
   86ee0:	4b2d      	ldr	r3, [pc, #180]	; (86f98 <_free_r+0x1c8>)
   86ee2:	4640      	mov	r0, r8
   86ee4:	6819      	ldr	r1, [r3, #0]
   86ee6:	f7ff ff23 	bl	86d30 <_malloc_trim_r>
   86eea:	e7b3      	b.n	86e54 <_free_r+0x84>
   86eec:	4610      	mov	r0, r2
   86eee:	e7cd      	b.n	86e8c <_free_r+0xbc>
   86ef0:	1811      	adds	r1, r2, r0
   86ef2:	6849      	ldr	r1, [r1, #4]
   86ef4:	07c9      	lsls	r1, r1, #31
   86ef6:	d444      	bmi.n	86f82 <_free_r+0x1b2>
   86ef8:	6891      	ldr	r1, [r2, #8]
   86efa:	4403      	add	r3, r0
   86efc:	68d2      	ldr	r2, [r2, #12]
   86efe:	f043 0001 	orr.w	r0, r3, #1
   86f02:	60ca      	str	r2, [r1, #12]
   86f04:	6091      	str	r1, [r2, #8]
   86f06:	6060      	str	r0, [r4, #4]
   86f08:	50e3      	str	r3, [r4, r3]
   86f0a:	e7a3      	b.n	86e54 <_free_r+0x84>
   86f0c:	2a14      	cmp	r2, #20
   86f0e:	d816      	bhi.n	86f3e <_free_r+0x16e>
   86f10:	f102 075c 	add.w	r7, r2, #92	; 0x5c
   86f14:	00ff      	lsls	r7, r7, #3
   86f16:	f102 055b 	add.w	r5, r2, #91	; 0x5b
   86f1a:	e7aa      	b.n	86e72 <_free_r+0xa2>
   86f1c:	2301      	movs	r3, #1
   86f1e:	10aa      	asrs	r2, r5, #2
   86f20:	684d      	ldr	r5, [r1, #4]
   86f22:	4093      	lsls	r3, r2
   86f24:	432b      	orrs	r3, r5
   86f26:	604b      	str	r3, [r1, #4]
   86f28:	4603      	mov	r3, r0
   86f2a:	e7b0      	b.n	86e8e <_free_r+0xbe>
   86f2c:	f043 0201 	orr.w	r2, r3, #1
   86f30:	614c      	str	r4, [r1, #20]
   86f32:	610c      	str	r4, [r1, #16]
   86f34:	60e5      	str	r5, [r4, #12]
   86f36:	60a5      	str	r5, [r4, #8]
   86f38:	6062      	str	r2, [r4, #4]
   86f3a:	50e3      	str	r3, [r4, r3]
   86f3c:	e78a      	b.n	86e54 <_free_r+0x84>
   86f3e:	2a54      	cmp	r2, #84	; 0x54
   86f40:	d806      	bhi.n	86f50 <_free_r+0x180>
   86f42:	0b1a      	lsrs	r2, r3, #12
   86f44:	f102 076f 	add.w	r7, r2, #111	; 0x6f
   86f48:	00ff      	lsls	r7, r7, #3
   86f4a:	f102 056e 	add.w	r5, r2, #110	; 0x6e
   86f4e:	e790      	b.n	86e72 <_free_r+0xa2>
   86f50:	f5b2 7faa 	cmp.w	r2, #340	; 0x154
   86f54:	d806      	bhi.n	86f64 <_free_r+0x194>
   86f56:	0bda      	lsrs	r2, r3, #15
   86f58:	f102 0778 	add.w	r7, r2, #120	; 0x78
   86f5c:	00ff      	lsls	r7, r7, #3
   86f5e:	f102 0577 	add.w	r5, r2, #119	; 0x77
   86f62:	e786      	b.n	86e72 <_free_r+0xa2>
   86f64:	f240 5054 	movw	r0, #1364	; 0x554
   86f68:	4282      	cmp	r2, r0
   86f6a:	d806      	bhi.n	86f7a <_free_r+0x1aa>
   86f6c:	0c9a      	lsrs	r2, r3, #18
   86f6e:	f102 077d 	add.w	r7, r2, #125	; 0x7d
   86f72:	00ff      	lsls	r7, r7, #3
   86f74:	f102 057c 	add.w	r5, r2, #124	; 0x7c
   86f78:	e77b      	b.n	86e72 <_free_r+0xa2>
   86f7a:	f44f 777e 	mov.w	r7, #1016	; 0x3f8
   86f7e:	257e      	movs	r5, #126	; 0x7e
   86f80:	e777      	b.n	86e72 <_free_r+0xa2>
   86f82:	f043 0101 	orr.w	r1, r3, #1
   86f86:	6061      	str	r1, [r4, #4]
   86f88:	6013      	str	r3, [r2, #0]
   86f8a:	e763      	b.n	86e54 <_free_r+0x84>
   86f8c:	20070760 	.word	0x20070760
   86f90:	20070768 	.word	0x20070768
   86f94:	20070b6c 	.word	0x20070b6c
   86f98:	2007ae70 	.word	0x2007ae70

00086f9c <__sfvwrite_r>:
   86f9c:	6893      	ldr	r3, [r2, #8]
   86f9e:	2b00      	cmp	r3, #0
   86fa0:	d071      	beq.n	87086 <__sfvwrite_r+0xea>
   86fa2:	e92d 4ff0 	stmdb	sp!, {r4, r5, r6, r7, r8, r9, sl, fp, lr}
   86fa6:	898b      	ldrh	r3, [r1, #12]
   86fa8:	b083      	sub	sp, #12
   86faa:	460c      	mov	r4, r1
   86fac:	0719      	lsls	r1, r3, #28
   86fae:	9000      	str	r0, [sp, #0]
   86fb0:	4616      	mov	r6, r2
   86fb2:	d525      	bpl.n	87000 <__sfvwrite_r+0x64>
   86fb4:	6922      	ldr	r2, [r4, #16]
   86fb6:	b31a      	cbz	r2, 87000 <__sfvwrite_r+0x64>
   86fb8:	f013 0002 	ands.w	r0, r3, #2
   86fbc:	6835      	ldr	r5, [r6, #0]
   86fbe:	d02b      	beq.n	87018 <__sfvwrite_r+0x7c>
   86fc0:	f04f 0900 	mov.w	r9, #0
   86fc4:	46b0      	mov	r8, r6
   86fc6:	464f      	mov	r7, r9
   86fc8:	f8df a2c0 	ldr.w	sl, [pc, #704]	; 8728c <__sfvwrite_r+0x2f0>
   86fcc:	2f00      	cmp	r7, #0
   86fce:	d055      	beq.n	8707c <__sfvwrite_r+0xe0>
   86fd0:	4557      	cmp	r7, sl
   86fd2:	463b      	mov	r3, r7
   86fd4:	464a      	mov	r2, r9
   86fd6:	bf28      	it	cs
   86fd8:	4653      	movcs	r3, sl
   86fda:	69e1      	ldr	r1, [r4, #28]
   86fdc:	9800      	ldr	r0, [sp, #0]
   86fde:	6a66      	ldr	r6, [r4, #36]	; 0x24
   86fe0:	47b0      	blx	r6
   86fe2:	2800      	cmp	r0, #0
   86fe4:	dd56      	ble.n	87094 <__sfvwrite_r+0xf8>
   86fe6:	f8d8 3008 	ldr.w	r3, [r8, #8]
   86fea:	4481      	add	r9, r0
   86fec:	1a1b      	subs	r3, r3, r0
   86fee:	1a3f      	subs	r7, r7, r0
   86ff0:	f8c8 3008 	str.w	r3, [r8, #8]
   86ff4:	2b00      	cmp	r3, #0
   86ff6:	d1e9      	bne.n	86fcc <__sfvwrite_r+0x30>
   86ff8:	2000      	movs	r0, #0
   86ffa:	b003      	add	sp, #12
   86ffc:	e8bd 8ff0 	ldmia.w	sp!, {r4, r5, r6, r7, r8, r9, sl, fp, pc}
   87000:	4621      	mov	r1, r4
   87002:	9800      	ldr	r0, [sp, #0]
   87004:	f7ff fc56 	bl	868b4 <__swsetup_r>
   87008:	2800      	cmp	r0, #0
   8700a:	f040 8135 	bne.w	87278 <__sfvwrite_r+0x2dc>
   8700e:	89a3      	ldrh	r3, [r4, #12]
   87010:	6835      	ldr	r5, [r6, #0]
   87012:	f013 0002 	ands.w	r0, r3, #2
   87016:	d1d3      	bne.n	86fc0 <__sfvwrite_r+0x24>
   87018:	f013 0901 	ands.w	r9, r3, #1
   8701c:	d144      	bne.n	870a8 <__sfvwrite_r+0x10c>
   8701e:	464f      	mov	r7, r9
   87020:	9601      	str	r6, [sp, #4]
   87022:	b337      	cbz	r7, 87072 <__sfvwrite_r+0xd6>
   87024:	059a      	lsls	r2, r3, #22
   87026:	f8d4 8008 	ldr.w	r8, [r4, #8]
   8702a:	f140 8085 	bpl.w	87138 <__sfvwrite_r+0x19c>
   8702e:	4547      	cmp	r7, r8
   87030:	46c3      	mov	fp, r8
   87032:	f0c0 80ad 	bcc.w	87190 <__sfvwrite_r+0x1f4>
   87036:	f413 6f90 	tst.w	r3, #1152	; 0x480
   8703a:	f040 80ae 	bne.w	8719a <__sfvwrite_r+0x1fe>
   8703e:	46ba      	mov	sl, r7
   87040:	6820      	ldr	r0, [r4, #0]
   87042:	465a      	mov	r2, fp
   87044:	4649      	mov	r1, r9
   87046:	f000 fcdf 	bl	87a08 <memmove>
   8704a:	68a2      	ldr	r2, [r4, #8]
   8704c:	6823      	ldr	r3, [r4, #0]
   8704e:	eba2 0208 	sub.w	r2, r2, r8
   87052:	445b      	add	r3, fp
   87054:	60a2      	str	r2, [r4, #8]
   87056:	6023      	str	r3, [r4, #0]
   87058:	9a01      	ldr	r2, [sp, #4]
   8705a:	44d1      	add	r9, sl
   8705c:	6893      	ldr	r3, [r2, #8]
   8705e:	eba7 070a 	sub.w	r7, r7, sl
   87062:	eba3 030a 	sub.w	r3, r3, sl
   87066:	6093      	str	r3, [r2, #8]
   87068:	2b00      	cmp	r3, #0
   8706a:	d0c5      	beq.n	86ff8 <__sfvwrite_r+0x5c>
   8706c:	89a3      	ldrh	r3, [r4, #12]
   8706e:	2f00      	cmp	r7, #0
   87070:	d1d8      	bne.n	87024 <__sfvwrite_r+0x88>
   87072:	f8d5 9000 	ldr.w	r9, [r5]
   87076:	686f      	ldr	r7, [r5, #4]
   87078:	3508      	adds	r5, #8
   8707a:	e7d2      	b.n	87022 <__sfvwrite_r+0x86>
   8707c:	f8d5 9000 	ldr.w	r9, [r5]
   87080:	686f      	ldr	r7, [r5, #4]
   87082:	3508      	adds	r5, #8
   87084:	e7a2      	b.n	86fcc <__sfvwrite_r+0x30>
   87086:	2000      	movs	r0, #0
   87088:	4770      	bx	lr
   8708a:	4621      	mov	r1, r4
   8708c:	9800      	ldr	r0, [sp, #0]
   8708e:	f7ff fd21 	bl	86ad4 <_fflush_r>
   87092:	b378      	cbz	r0, 870f4 <__sfvwrite_r+0x158>
   87094:	f9b4 300c 	ldrsh.w	r3, [r4, #12]
   87098:	f04f 30ff 	mov.w	r0, #4294967295
   8709c:	f043 0340 	orr.w	r3, r3, #64	; 0x40
   870a0:	81a3      	strh	r3, [r4, #12]
   870a2:	b003      	add	sp, #12
   870a4:	e8bd 8ff0 	ldmia.w	sp!, {r4, r5, r6, r7, r8, r9, sl, fp, pc}
   870a8:	4681      	mov	r9, r0
   870aa:	4633      	mov	r3, r6
   870ac:	464e      	mov	r6, r9
   870ae:	46a8      	mov	r8, r5
   870b0:	469a      	mov	sl, r3
   870b2:	464d      	mov	r5, r9
   870b4:	b356      	cbz	r6, 8710c <__sfvwrite_r+0x170>
   870b6:	2800      	cmp	r0, #0
   870b8:	d032      	beq.n	87120 <__sfvwrite_r+0x184>
   870ba:	45b1      	cmp	r9, r6
   870bc:	46cb      	mov	fp, r9
   870be:	bf28      	it	cs
   870c0:	46b3      	movcs	fp, r6
   870c2:	6820      	ldr	r0, [r4, #0]
   870c4:	6923      	ldr	r3, [r4, #16]
   870c6:	465f      	mov	r7, fp
   870c8:	4298      	cmp	r0, r3
   870ca:	6962      	ldr	r2, [r4, #20]
   870cc:	d904      	bls.n	870d8 <__sfvwrite_r+0x13c>
   870ce:	68a3      	ldr	r3, [r4, #8]
   870d0:	4413      	add	r3, r2
   870d2:	459b      	cmp	fp, r3
   870d4:	f300 80a8 	bgt.w	87228 <__sfvwrite_r+0x28c>
   870d8:	4593      	cmp	fp, r2
   870da:	db4d      	blt.n	87178 <__sfvwrite_r+0x1dc>
   870dc:	4613      	mov	r3, r2
   870de:	6a67      	ldr	r7, [r4, #36]	; 0x24
   870e0:	462a      	mov	r2, r5
   870e2:	69e1      	ldr	r1, [r4, #28]
   870e4:	9800      	ldr	r0, [sp, #0]
   870e6:	47b8      	blx	r7
   870e8:	1e07      	subs	r7, r0, #0
   870ea:	ddd3      	ble.n	87094 <__sfvwrite_r+0xf8>
   870ec:	ebb9 0907 	subs.w	r9, r9, r7
   870f0:	d0cb      	beq.n	8708a <__sfvwrite_r+0xee>
   870f2:	2001      	movs	r0, #1
   870f4:	f8da 3008 	ldr.w	r3, [sl, #8]
   870f8:	443d      	add	r5, r7
   870fa:	1bdb      	subs	r3, r3, r7
   870fc:	1bf6      	subs	r6, r6, r7
   870fe:	f8ca 3008 	str.w	r3, [sl, #8]
   87102:	2b00      	cmp	r3, #0
   87104:	f43f af78 	beq.w	86ff8 <__sfvwrite_r+0x5c>
   87108:	2e00      	cmp	r6, #0
   8710a:	d1d4      	bne.n	870b6 <__sfvwrite_r+0x11a>
   8710c:	f108 0308 	add.w	r3, r8, #8
   87110:	f853 6c04 	ldr.w	r6, [r3, #-4]
   87114:	4698      	mov	r8, r3
   87116:	f853 5c08 	ldr.w	r5, [r3, #-8]
   8711a:	3308      	adds	r3, #8
   8711c:	2e00      	cmp	r6, #0
   8711e:	d0f7      	beq.n	87110 <__sfvwrite_r+0x174>
   87120:	4632      	mov	r2, r6
   87122:	210a      	movs	r1, #10
   87124:	4628      	mov	r0, r5
   87126:	f000 fc29 	bl	8797c <memchr>
   8712a:	2800      	cmp	r0, #0
   8712c:	f000 80a1 	beq.w	87272 <__sfvwrite_r+0x2d6>
   87130:	3001      	adds	r0, #1
   87132:	eba0 0905 	sub.w	r9, r0, r5
   87136:	e7c0      	b.n	870ba <__sfvwrite_r+0x11e>
   87138:	6820      	ldr	r0, [r4, #0]
   8713a:	6923      	ldr	r3, [r4, #16]
   8713c:	4298      	cmp	r0, r3
   8713e:	d802      	bhi.n	87146 <__sfvwrite_r+0x1aa>
   87140:	6963      	ldr	r3, [r4, #20]
   87142:	429f      	cmp	r7, r3
   87144:	d25d      	bcs.n	87202 <__sfvwrite_r+0x266>
   87146:	45b8      	cmp	r8, r7
   87148:	bf28      	it	cs
   8714a:	46b8      	movcs	r8, r7
   8714c:	4649      	mov	r1, r9
   8714e:	4642      	mov	r2, r8
   87150:	f000 fc5a 	bl	87a08 <memmove>
   87154:	68a3      	ldr	r3, [r4, #8]
   87156:	6822      	ldr	r2, [r4, #0]
   87158:	eba3 0308 	sub.w	r3, r3, r8
   8715c:	4442      	add	r2, r8
   8715e:	60a3      	str	r3, [r4, #8]
   87160:	6022      	str	r2, [r4, #0]
   87162:	b10b      	cbz	r3, 87168 <__sfvwrite_r+0x1cc>
   87164:	46c2      	mov	sl, r8
   87166:	e777      	b.n	87058 <__sfvwrite_r+0xbc>
   87168:	4621      	mov	r1, r4
   8716a:	9800      	ldr	r0, [sp, #0]
   8716c:	f7ff fcb2 	bl	86ad4 <_fflush_r>
   87170:	2800      	cmp	r0, #0
   87172:	d18f      	bne.n	87094 <__sfvwrite_r+0xf8>
   87174:	46c2      	mov	sl, r8
   87176:	e76f      	b.n	87058 <__sfvwrite_r+0xbc>
   87178:	465a      	mov	r2, fp
   8717a:	4629      	mov	r1, r5
   8717c:	f000 fc44 	bl	87a08 <memmove>
   87180:	68a2      	ldr	r2, [r4, #8]
   87182:	6823      	ldr	r3, [r4, #0]
   87184:	eba2 020b 	sub.w	r2, r2, fp
   87188:	445b      	add	r3, fp
   8718a:	60a2      	str	r2, [r4, #8]
   8718c:	6023      	str	r3, [r4, #0]
   8718e:	e7ad      	b.n	870ec <__sfvwrite_r+0x150>
   87190:	46b8      	mov	r8, r7
   87192:	46ba      	mov	sl, r7
   87194:	46bb      	mov	fp, r7
   87196:	6820      	ldr	r0, [r4, #0]
   87198:	e753      	b.n	87042 <__sfvwrite_r+0xa6>
   8719a:	6962      	ldr	r2, [r4, #20]
   8719c:	6820      	ldr	r0, [r4, #0]
   8719e:	6921      	ldr	r1, [r4, #16]
   871a0:	eb02 0842 	add.w	r8, r2, r2, lsl #1
   871a4:	eba0 0a01 	sub.w	sl, r0, r1
   871a8:	eb08 78d8 	add.w	r8, r8, r8, lsr #31
   871ac:	f10a 0001 	add.w	r0, sl, #1
   871b0:	ea4f 0868 	mov.w	r8, r8, asr #1
   871b4:	4438      	add	r0, r7
   871b6:	4540      	cmp	r0, r8
   871b8:	4642      	mov	r2, r8
   871ba:	bf84      	itt	hi
   871bc:	4680      	movhi	r8, r0
   871be:	4642      	movhi	r2, r8
   871c0:	055b      	lsls	r3, r3, #21
   871c2:	d544      	bpl.n	8724e <__sfvwrite_r+0x2b2>
   871c4:	4611      	mov	r1, r2
   871c6:	9800      	ldr	r0, [sp, #0]
   871c8:	f000 f920 	bl	8740c <_malloc_r>
   871cc:	4683      	mov	fp, r0
   871ce:	2800      	cmp	r0, #0
   871d0:	d055      	beq.n	8727e <__sfvwrite_r+0x2e2>
   871d2:	4652      	mov	r2, sl
   871d4:	6921      	ldr	r1, [r4, #16]
   871d6:	f7fe fab1 	bl	8573c <memcpy>
   871da:	89a3      	ldrh	r3, [r4, #12]
   871dc:	f423 6390 	bic.w	r3, r3, #1152	; 0x480
   871e0:	f043 0380 	orr.w	r3, r3, #128	; 0x80
   871e4:	81a3      	strh	r3, [r4, #12]
   871e6:	eb0b 000a 	add.w	r0, fp, sl
   871ea:	eba8 030a 	sub.w	r3, r8, sl
   871ee:	f8c4 b010 	str.w	fp, [r4, #16]
   871f2:	f8c4 8014 	str.w	r8, [r4, #20]
   871f6:	6020      	str	r0, [r4, #0]
   871f8:	60a3      	str	r3, [r4, #8]
   871fa:	46b8      	mov	r8, r7
   871fc:	46ba      	mov	sl, r7
   871fe:	46bb      	mov	fp, r7
   87200:	e71f      	b.n	87042 <__sfvwrite_r+0xa6>
   87202:	f06f 4200 	mvn.w	r2, #2147483648	; 0x80000000
   87206:	42ba      	cmp	r2, r7
   87208:	bf28      	it	cs
   8720a:	463a      	movcs	r2, r7
   8720c:	fb92 f2f3 	sdiv	r2, r2, r3
   87210:	69e1      	ldr	r1, [r4, #28]
   87212:	fb03 f302 	mul.w	r3, r3, r2
   87216:	9800      	ldr	r0, [sp, #0]
   87218:	464a      	mov	r2, r9
   8721a:	6a66      	ldr	r6, [r4, #36]	; 0x24
   8721c:	47b0      	blx	r6
   8721e:	f1b0 0a00 	subs.w	sl, r0, #0
   87222:	f73f af19 	bgt.w	87058 <__sfvwrite_r+0xbc>
   87226:	e735      	b.n	87094 <__sfvwrite_r+0xf8>
   87228:	461a      	mov	r2, r3
   8722a:	4629      	mov	r1, r5
   8722c:	9301      	str	r3, [sp, #4]
   8722e:	f000 fbeb 	bl	87a08 <memmove>
   87232:	6822      	ldr	r2, [r4, #0]
   87234:	9b01      	ldr	r3, [sp, #4]
   87236:	4621      	mov	r1, r4
   87238:	441a      	add	r2, r3
   8723a:	6022      	str	r2, [r4, #0]
   8723c:	9800      	ldr	r0, [sp, #0]
   8723e:	f7ff fc49 	bl	86ad4 <_fflush_r>
   87242:	9b01      	ldr	r3, [sp, #4]
   87244:	2800      	cmp	r0, #0
   87246:	f47f af25 	bne.w	87094 <__sfvwrite_r+0xf8>
   8724a:	461f      	mov	r7, r3
   8724c:	e74e      	b.n	870ec <__sfvwrite_r+0x150>
   8724e:	9800      	ldr	r0, [sp, #0]
   87250:	f000 fc4a 	bl	87ae8 <_realloc_r>
   87254:	4683      	mov	fp, r0
   87256:	2800      	cmp	r0, #0
   87258:	d1c5      	bne.n	871e6 <__sfvwrite_r+0x24a>
   8725a:	9d00      	ldr	r5, [sp, #0]
   8725c:	6921      	ldr	r1, [r4, #16]
   8725e:	4628      	mov	r0, r5
   87260:	f7ff fdb6 	bl	86dd0 <_free_r>
   87264:	220c      	movs	r2, #12
   87266:	f9b4 300c 	ldrsh.w	r3, [r4, #12]
   8726a:	602a      	str	r2, [r5, #0]
   8726c:	f023 0380 	bic.w	r3, r3, #128	; 0x80
   87270:	e712      	b.n	87098 <__sfvwrite_r+0xfc>
   87272:	f106 0901 	add.w	r9, r6, #1
   87276:	e720      	b.n	870ba <__sfvwrite_r+0x11e>
   87278:	f04f 30ff 	mov.w	r0, #4294967295
   8727c:	e6bd      	b.n	86ffa <__sfvwrite_r+0x5e>
   8727e:	220c      	movs	r2, #12
   87280:	9900      	ldr	r1, [sp, #0]
   87282:	f9b4 300c 	ldrsh.w	r3, [r4, #12]
   87286:	600a      	str	r2, [r1, #0]
   87288:	e706      	b.n	87098 <__sfvwrite_r+0xfc>
   8728a:	bf00      	nop
   8728c:	7ffffc00 	.word	0x7ffffc00

00087290 <_fwalk_reent>:
   87290:	e92d 43f8 	stmdb	sp!, {r3, r4, r5, r6, r7, r8, r9, lr}
   87294:	f510 7638 	adds.w	r6, r0, #736	; 0x2e0
   87298:	d01e      	beq.n	872d8 <_fwalk_reent+0x48>
   8729a:	4688      	mov	r8, r1
   8729c:	4607      	mov	r7, r0
   8729e:	f04f 0900 	mov.w	r9, #0
   872a2:	6875      	ldr	r5, [r6, #4]
   872a4:	68b4      	ldr	r4, [r6, #8]
   872a6:	3d01      	subs	r5, #1
   872a8:	d410      	bmi.n	872cc <_fwalk_reent+0x3c>
   872aa:	89a3      	ldrh	r3, [r4, #12]
   872ac:	3d01      	subs	r5, #1
   872ae:	2b01      	cmp	r3, #1
   872b0:	d908      	bls.n	872c4 <_fwalk_reent+0x34>
   872b2:	f9b4 300e 	ldrsh.w	r3, [r4, #14]
   872b6:	3301      	adds	r3, #1
   872b8:	d004      	beq.n	872c4 <_fwalk_reent+0x34>
   872ba:	4621      	mov	r1, r4
   872bc:	4638      	mov	r0, r7
   872be:	47c0      	blx	r8
   872c0:	ea49 0900 	orr.w	r9, r9, r0
   872c4:	1c6b      	adds	r3, r5, #1
   872c6:	f104 0468 	add.w	r4, r4, #104	; 0x68
   872ca:	d1ee      	bne.n	872aa <_fwalk_reent+0x1a>
   872cc:	6836      	ldr	r6, [r6, #0]
   872ce:	2e00      	cmp	r6, #0
   872d0:	d1e7      	bne.n	872a2 <_fwalk_reent+0x12>
   872d2:	4648      	mov	r0, r9
   872d4:	e8bd 83f8 	ldmia.w	sp!, {r3, r4, r5, r6, r7, r8, r9, pc}
   872d8:	46b1      	mov	r9, r6
   872da:	4648      	mov	r0, r9
   872dc:	e8bd 83f8 	ldmia.w	sp!, {r3, r4, r5, r6, r7, r8, r9, pc}

000872e0 <__locale_mb_cur_max>:
   872e0:	4b04      	ldr	r3, [pc, #16]	; (872f4 <__locale_mb_cur_max+0x14>)
   872e2:	4a05      	ldr	r2, [pc, #20]	; (872f8 <__locale_mb_cur_max+0x18>)
   872e4:	681b      	ldr	r3, [r3, #0]
   872e6:	6b5b      	ldr	r3, [r3, #52]	; 0x34
   872e8:	2b00      	cmp	r3, #0
   872ea:	bf08      	it	eq
   872ec:	4613      	moveq	r3, r2
   872ee:	f893 0128 	ldrb.w	r0, [r3, #296]	; 0x128
   872f2:	4770      	bx	lr
   872f4:	200701c0 	.word	0x200701c0
   872f8:	200705f4 	.word	0x200705f4

000872fc <__retarget_lock_init_recursive>:
   872fc:	4770      	bx	lr
   872fe:	bf00      	nop

00087300 <__retarget_lock_close_recursive>:
   87300:	4770      	bx	lr
   87302:	bf00      	nop

00087304 <__retarget_lock_acquire_recursive>:
   87304:	4770      	bx	lr
   87306:	bf00      	nop

00087308 <__retarget_lock_release_recursive>:
   87308:	4770      	bx	lr
   8730a:	bf00      	nop

0008730c <__swhatbuf_r>:
   8730c:	b570      	push	{r4, r5, r6, lr}
   8730e:	460c      	mov	r4, r1
   87310:	f9b1 100e 	ldrsh.w	r1, [r1, #14]
   87314:	b090      	sub	sp, #64	; 0x40
   87316:	2900      	cmp	r1, #0
   87318:	4615      	mov	r5, r2
   8731a:	461e      	mov	r6, r3
   8731c:	db14      	blt.n	87348 <__swhatbuf_r+0x3c>
   8731e:	aa01      	add	r2, sp, #4
   87320:	f000 ff68 	bl	881f4 <_fstat_r>
   87324:	2800      	cmp	r0, #0
   87326:	db0f      	blt.n	87348 <__swhatbuf_r+0x3c>
   87328:	9a02      	ldr	r2, [sp, #8]
   8732a:	f44f 6380 	mov.w	r3, #1024	; 0x400
   8732e:	f402 4270 	and.w	r2, r2, #61440	; 0xf000
   87332:	f5a2 5200 	sub.w	r2, r2, #8192	; 0x2000
   87336:	fab2 f282 	clz	r2, r2
   8733a:	f44f 6000 	mov.w	r0, #2048	; 0x800
   8733e:	0952      	lsrs	r2, r2, #5
   87340:	6032      	str	r2, [r6, #0]
   87342:	602b      	str	r3, [r5, #0]
   87344:	b010      	add	sp, #64	; 0x40
   87346:	bd70      	pop	{r4, r5, r6, pc}
   87348:	2300      	movs	r3, #0
   8734a:	89a2      	ldrh	r2, [r4, #12]
   8734c:	6033      	str	r3, [r6, #0]
   8734e:	f012 0080 	ands.w	r0, r2, #128	; 0x80
   87352:	d004      	beq.n	8735e <__swhatbuf_r+0x52>
   87354:	2240      	movs	r2, #64	; 0x40
   87356:	4618      	mov	r0, r3
   87358:	602a      	str	r2, [r5, #0]
   8735a:	b010      	add	sp, #64	; 0x40
   8735c:	bd70      	pop	{r4, r5, r6, pc}
   8735e:	f44f 6380 	mov.w	r3, #1024	; 0x400
   87362:	602b      	str	r3, [r5, #0]
   87364:	b010      	add	sp, #64	; 0x40
   87366:	bd70      	pop	{r4, r5, r6, pc}

00087368 <__smakebuf_r>:
   87368:	898a      	ldrh	r2, [r1, #12]
   8736a:	460b      	mov	r3, r1
   8736c:	0792      	lsls	r2, r2, #30
   8736e:	d506      	bpl.n	8737e <__smakebuf_r+0x16>
   87370:	2101      	movs	r1, #1
   87372:	f103 0243 	add.w	r2, r3, #67	; 0x43
   87376:	6159      	str	r1, [r3, #20]
   87378:	601a      	str	r2, [r3, #0]
   8737a:	611a      	str	r2, [r3, #16]
   8737c:	4770      	bx	lr
   8737e:	b5f0      	push	{r4, r5, r6, r7, lr}
   87380:	b083      	sub	sp, #12
   87382:	ab01      	add	r3, sp, #4
   87384:	466a      	mov	r2, sp
   87386:	460c      	mov	r4, r1
   87388:	4606      	mov	r6, r0
   8738a:	f7ff ffbf 	bl	8730c <__swhatbuf_r>
   8738e:	9900      	ldr	r1, [sp, #0]
   87390:	4605      	mov	r5, r0
   87392:	4630      	mov	r0, r6
   87394:	f000 f83a 	bl	8740c <_malloc_r>
   87398:	f9b4 300c 	ldrsh.w	r3, [r4, #12]
   8739c:	b1d8      	cbz	r0, 873d6 <__smakebuf_r+0x6e>
   8739e:	e89d 0006 	ldmia.w	sp, {r1, r2}
   873a2:	4f15      	ldr	r7, [pc, #84]	; (873f8 <__smakebuf_r+0x90>)
   873a4:	f043 0380 	orr.w	r3, r3, #128	; 0x80
   873a8:	63f7      	str	r7, [r6, #60]	; 0x3c
   873aa:	81a3      	strh	r3, [r4, #12]
   873ac:	6020      	str	r0, [r4, #0]
   873ae:	6120      	str	r0, [r4, #16]
   873b0:	6161      	str	r1, [r4, #20]
   873b2:	b91a      	cbnz	r2, 873bc <__smakebuf_r+0x54>
   873b4:	432b      	orrs	r3, r5
   873b6:	81a3      	strh	r3, [r4, #12]
   873b8:	b003      	add	sp, #12
   873ba:	bdf0      	pop	{r4, r5, r6, r7, pc}
   873bc:	4630      	mov	r0, r6
   873be:	f9b4 100e 	ldrsh.w	r1, [r4, #14]
   873c2:	f000 ff2b 	bl	8821c <_isatty_r>
   873c6:	b1a0      	cbz	r0, 873f2 <__smakebuf_r+0x8a>
   873c8:	89a3      	ldrh	r3, [r4, #12]
   873ca:	f023 0303 	bic.w	r3, r3, #3
   873ce:	f043 0301 	orr.w	r3, r3, #1
   873d2:	b21b      	sxth	r3, r3
   873d4:	e7ee      	b.n	873b4 <__smakebuf_r+0x4c>
   873d6:	059a      	lsls	r2, r3, #22
   873d8:	d4ee      	bmi.n	873b8 <__smakebuf_r+0x50>
   873da:	2101      	movs	r1, #1
   873dc:	f023 0303 	bic.w	r3, r3, #3
   873e0:	f104 0243 	add.w	r2, r4, #67	; 0x43
   873e4:	f043 0302 	orr.w	r3, r3, #2
   873e8:	81a3      	strh	r3, [r4, #12]
   873ea:	6161      	str	r1, [r4, #20]
   873ec:	6022      	str	r2, [r4, #0]
   873ee:	6122      	str	r2, [r4, #16]
   873f0:	e7e2      	b.n	873b8 <__smakebuf_r+0x50>
   873f2:	f9b4 300c 	ldrsh.w	r3, [r4, #12]
   873f6:	e7dd      	b.n	873b4 <__smakebuf_r+0x4c>
   873f8:	00086b29 	.word	0x00086b29

000873fc <malloc>:
   873fc:	4b02      	ldr	r3, [pc, #8]	; (87408 <malloc+0xc>)
   873fe:	4601      	mov	r1, r0
   87400:	6818      	ldr	r0, [r3, #0]
   87402:	f000 b803 	b.w	8740c <_malloc_r>
   87406:	bf00      	nop
   87408:	200701c0 	.word	0x200701c0

0008740c <_malloc_r>:
   8740c:	e92d 4ff0 	stmdb	sp!, {r4, r5, r6, r7, r8, r9, sl, fp, lr}
   87410:	f101 060b 	add.w	r6, r1, #11
   87414:	2e16      	cmp	r6, #22
   87416:	b083      	sub	sp, #12
   87418:	4605      	mov	r5, r0
   8741a:	f240 809e 	bls.w	8755a <_malloc_r+0x14e>
   8741e:	f036 0607 	bics.w	r6, r6, #7
   87422:	f100 80bd 	bmi.w	875a0 <_malloc_r+0x194>
   87426:	42b1      	cmp	r1, r6
   87428:	f200 80ba 	bhi.w	875a0 <_malloc_r+0x194>
   8742c:	f000 fb50 	bl	87ad0 <__malloc_lock>
   87430:	f5b6 7ffc 	cmp.w	r6, #504	; 0x1f8
   87434:	f0c0 8285 	bcc.w	87942 <_malloc_r+0x536>
   87438:	0a73      	lsrs	r3, r6, #9
   8743a:	f000 80b8 	beq.w	875ae <_malloc_r+0x1a2>
   8743e:	2b04      	cmp	r3, #4
   87440:	f200 816c 	bhi.w	8771c <_malloc_r+0x310>
   87444:	09b3      	lsrs	r3, r6, #6
   87446:	f103 0039 	add.w	r0, r3, #57	; 0x39
   8744a:	f103 0e38 	add.w	lr, r3, #56	; 0x38
   8744e:	00c1      	lsls	r1, r0, #3
   87450:	4fb8      	ldr	r7, [pc, #736]	; (87734 <_malloc_r+0x328>)
   87452:	4439      	add	r1, r7
   87454:	684c      	ldr	r4, [r1, #4]
   87456:	3908      	subs	r1, #8
   87458:	42a1      	cmp	r1, r4
   8745a:	d106      	bne.n	8746a <_malloc_r+0x5e>
   8745c:	e00c      	b.n	87478 <_malloc_r+0x6c>
   8745e:	2a00      	cmp	r2, #0
   87460:	f280 80ab 	bge.w	875ba <_malloc_r+0x1ae>
   87464:	68e4      	ldr	r4, [r4, #12]
   87466:	42a1      	cmp	r1, r4
   87468:	d006      	beq.n	87478 <_malloc_r+0x6c>
   8746a:	6863      	ldr	r3, [r4, #4]
   8746c:	f023 0303 	bic.w	r3, r3, #3
   87470:	1b9a      	subs	r2, r3, r6
   87472:	2a0f      	cmp	r2, #15
   87474:	ddf3      	ble.n	8745e <_malloc_r+0x52>
   87476:	4670      	mov	r0, lr
   87478:	693c      	ldr	r4, [r7, #16]
   8747a:	f8df e2cc 	ldr.w	lr, [pc, #716]	; 87748 <_malloc_r+0x33c>
   8747e:	4574      	cmp	r4, lr
   87480:	f000 819e 	beq.w	877c0 <_malloc_r+0x3b4>
   87484:	6863      	ldr	r3, [r4, #4]
   87486:	f023 0303 	bic.w	r3, r3, #3
   8748a:	1b9a      	subs	r2, r3, r6
   8748c:	2a0f      	cmp	r2, #15
   8748e:	f300 8183 	bgt.w	87798 <_malloc_r+0x38c>
   87492:	2a00      	cmp	r2, #0
   87494:	f8c7 e014 	str.w	lr, [r7, #20]
   87498:	f8c7 e010 	str.w	lr, [r7, #16]
   8749c:	f280 8091 	bge.w	875c2 <_malloc_r+0x1b6>
   874a0:	f5b3 7f00 	cmp.w	r3, #512	; 0x200
   874a4:	f080 8154 	bcs.w	87750 <_malloc_r+0x344>
   874a8:	2201      	movs	r2, #1
   874aa:	08db      	lsrs	r3, r3, #3
   874ac:	6879      	ldr	r1, [r7, #4]
   874ae:	ea4f 0ca3 	mov.w	ip, r3, asr #2
   874b2:	4413      	add	r3, r2
   874b4:	f857 8033 	ldr.w	r8, [r7, r3, lsl #3]
   874b8:	fa02 f20c 	lsl.w	r2, r2, ip
   874bc:	eb07 0cc3 	add.w	ip, r7, r3, lsl #3
   874c0:	430a      	orrs	r2, r1
   874c2:	f1ac 0108 	sub.w	r1, ip, #8
   874c6:	60e1      	str	r1, [r4, #12]
   874c8:	f8c4 8008 	str.w	r8, [r4, #8]
   874cc:	607a      	str	r2, [r7, #4]
   874ce:	f847 4033 	str.w	r4, [r7, r3, lsl #3]
   874d2:	f8c8 400c 	str.w	r4, [r8, #12]
   874d6:	2401      	movs	r4, #1
   874d8:	1083      	asrs	r3, r0, #2
   874da:	409c      	lsls	r4, r3
   874dc:	4294      	cmp	r4, r2
   874de:	d87d      	bhi.n	875dc <_malloc_r+0x1d0>
   874e0:	4214      	tst	r4, r2
   874e2:	d106      	bne.n	874f2 <_malloc_r+0xe6>
   874e4:	f020 0003 	bic.w	r0, r0, #3
   874e8:	0064      	lsls	r4, r4, #1
   874ea:	4214      	tst	r4, r2
   874ec:	f100 0004 	add.w	r0, r0, #4
   874f0:	d0fa      	beq.n	874e8 <_malloc_r+0xdc>
   874f2:	eb07 09c0 	add.w	r9, r7, r0, lsl #3
   874f6:	46cc      	mov	ip, r9
   874f8:	4680      	mov	r8, r0
   874fa:	f8dc 300c 	ldr.w	r3, [ip, #12]
   874fe:	459c      	cmp	ip, r3
   87500:	d107      	bne.n	87512 <_malloc_r+0x106>
   87502:	e15f      	b.n	877c4 <_malloc_r+0x3b8>
   87504:	2a00      	cmp	r2, #0
   87506:	f280 816d 	bge.w	877e4 <_malloc_r+0x3d8>
   8750a:	68db      	ldr	r3, [r3, #12]
   8750c:	459c      	cmp	ip, r3
   8750e:	f000 8159 	beq.w	877c4 <_malloc_r+0x3b8>
   87512:	6859      	ldr	r1, [r3, #4]
   87514:	f021 0103 	bic.w	r1, r1, #3
   87518:	1b8a      	subs	r2, r1, r6
   8751a:	2a0f      	cmp	r2, #15
   8751c:	ddf2      	ble.n	87504 <_malloc_r+0xf8>
   8751e:	68dc      	ldr	r4, [r3, #12]
   87520:	f8d3 c008 	ldr.w	ip, [r3, #8]
   87524:	f046 0801 	orr.w	r8, r6, #1
   87528:	4628      	mov	r0, r5
   8752a:	441e      	add	r6, r3
   8752c:	f042 0501 	orr.w	r5, r2, #1
   87530:	f8c3 8004 	str.w	r8, [r3, #4]
   87534:	f8cc 400c 	str.w	r4, [ip, #12]
   87538:	f8c4 c008 	str.w	ip, [r4, #8]
   8753c:	617e      	str	r6, [r7, #20]
   8753e:	613e      	str	r6, [r7, #16]
   87540:	f8c6 e00c 	str.w	lr, [r6, #12]
   87544:	f8c6 e008 	str.w	lr, [r6, #8]
   87548:	6075      	str	r5, [r6, #4]
   8754a:	505a      	str	r2, [r3, r1]
   8754c:	9300      	str	r3, [sp, #0]
   8754e:	f000 fac5 	bl	87adc <__malloc_unlock>
   87552:	9b00      	ldr	r3, [sp, #0]
   87554:	f103 0408 	add.w	r4, r3, #8
   87558:	e01e      	b.n	87598 <_malloc_r+0x18c>
   8755a:	2910      	cmp	r1, #16
   8755c:	d820      	bhi.n	875a0 <_malloc_r+0x194>
   8755e:	f000 fab7 	bl	87ad0 <__malloc_lock>
   87562:	2610      	movs	r6, #16
   87564:	2318      	movs	r3, #24
   87566:	2002      	movs	r0, #2
   87568:	4f72      	ldr	r7, [pc, #456]	; (87734 <_malloc_r+0x328>)
   8756a:	443b      	add	r3, r7
   8756c:	685c      	ldr	r4, [r3, #4]
   8756e:	f1a3 0208 	sub.w	r2, r3, #8
   87572:	4294      	cmp	r4, r2
   87574:	f000 812f 	beq.w	877d6 <_malloc_r+0x3ca>
   87578:	6863      	ldr	r3, [r4, #4]
   8757a:	68e1      	ldr	r1, [r4, #12]
   8757c:	f023 0303 	bic.w	r3, r3, #3
   87580:	4423      	add	r3, r4
   87582:	685a      	ldr	r2, [r3, #4]
   87584:	68a6      	ldr	r6, [r4, #8]
   87586:	f042 0201 	orr.w	r2, r2, #1
   8758a:	60f1      	str	r1, [r6, #12]
   8758c:	4628      	mov	r0, r5
   8758e:	608e      	str	r6, [r1, #8]
   87590:	605a      	str	r2, [r3, #4]
   87592:	f000 faa3 	bl	87adc <__malloc_unlock>
   87596:	3408      	adds	r4, #8
   87598:	4620      	mov	r0, r4
   8759a:	b003      	add	sp, #12
   8759c:	e8bd 8ff0 	ldmia.w	sp!, {r4, r5, r6, r7, r8, r9, sl, fp, pc}
   875a0:	2400      	movs	r4, #0
   875a2:	230c      	movs	r3, #12
   875a4:	4620      	mov	r0, r4
   875a6:	602b      	str	r3, [r5, #0]
   875a8:	b003      	add	sp, #12
   875aa:	e8bd 8ff0 	ldmia.w	sp!, {r4, r5, r6, r7, r8, r9, sl, fp, pc}
   875ae:	2040      	movs	r0, #64	; 0x40
   875b0:	f44f 7100 	mov.w	r1, #512	; 0x200
   875b4:	f04f 0e3f 	mov.w	lr, #63	; 0x3f
   875b8:	e74a      	b.n	87450 <_malloc_r+0x44>
   875ba:	4423      	add	r3, r4
   875bc:	685a      	ldr	r2, [r3, #4]
   875be:	68e1      	ldr	r1, [r4, #12]
   875c0:	e7e0      	b.n	87584 <_malloc_r+0x178>
   875c2:	4423      	add	r3, r4
   875c4:	685a      	ldr	r2, [r3, #4]
   875c6:	4628      	mov	r0, r5
   875c8:	f042 0201 	orr.w	r2, r2, #1
   875cc:	605a      	str	r2, [r3, #4]
   875ce:	3408      	adds	r4, #8
   875d0:	f000 fa84 	bl	87adc <__malloc_unlock>
   875d4:	4620      	mov	r0, r4
   875d6:	b003      	add	sp, #12
   875d8:	e8bd 8ff0 	ldmia.w	sp!, {r4, r5, r6, r7, r8, r9, sl, fp, pc}
   875dc:	68bc      	ldr	r4, [r7, #8]
   875de:	6863      	ldr	r3, [r4, #4]
   875e0:	f023 0803 	bic.w	r8, r3, #3
   875e4:	45b0      	cmp	r8, r6
   875e6:	d304      	bcc.n	875f2 <_malloc_r+0x1e6>
   875e8:	eba8 0306 	sub.w	r3, r8, r6
   875ec:	2b0f      	cmp	r3, #15
   875ee:	f300 8085 	bgt.w	876fc <_malloc_r+0x2f0>
   875f2:	f8df 9158 	ldr.w	r9, [pc, #344]	; 8774c <_malloc_r+0x340>
   875f6:	4b50      	ldr	r3, [pc, #320]	; (87738 <_malloc_r+0x32c>)
   875f8:	f8d9 2000 	ldr.w	r2, [r9]
   875fc:	681b      	ldr	r3, [r3, #0]
   875fe:	3201      	adds	r2, #1
   87600:	4433      	add	r3, r6
   87602:	eb04 0a08 	add.w	sl, r4, r8
   87606:	f000 8154 	beq.w	878b2 <_malloc_r+0x4a6>
   8760a:	f503 5380 	add.w	r3, r3, #4096	; 0x1000
   8760e:	330f      	adds	r3, #15
   87610:	f423 6b7f 	bic.w	fp, r3, #4080	; 0xff0
   87614:	f02b 0b0f 	bic.w	fp, fp, #15
   87618:	4659      	mov	r1, fp
   8761a:	4628      	mov	r0, r5
   8761c:	f000 fc1a 	bl	87e54 <_sbrk_r>
   87620:	1c41      	adds	r1, r0, #1
   87622:	4602      	mov	r2, r0
   87624:	f000 80fb 	beq.w	8781e <_malloc_r+0x412>
   87628:	4582      	cmp	sl, r0
   8762a:	f200 80f6 	bhi.w	8781a <_malloc_r+0x40e>
   8762e:	4b43      	ldr	r3, [pc, #268]	; (8773c <_malloc_r+0x330>)
   87630:	6819      	ldr	r1, [r3, #0]
   87632:	4459      	add	r1, fp
   87634:	6019      	str	r1, [r3, #0]
   87636:	f000 814c 	beq.w	878d2 <_malloc_r+0x4c6>
   8763a:	f8d9 0000 	ldr.w	r0, [r9]
   8763e:	3001      	adds	r0, #1
   87640:	bf1b      	ittet	ne
   87642:	eba2 0a0a 	subne.w	sl, r2, sl
   87646:	4451      	addne	r1, sl
   87648:	f8c9 2000 	streq.w	r2, [r9]
   8764c:	6019      	strne	r1, [r3, #0]
   8764e:	f012 0107 	ands.w	r1, r2, #7
   87652:	f000 8114 	beq.w	8787e <_malloc_r+0x472>
   87656:	f1c1 0008 	rsb	r0, r1, #8
   8765a:	f5c1 5180 	rsb	r1, r1, #4096	; 0x1000
   8765e:	4402      	add	r2, r0
   87660:	3108      	adds	r1, #8
   87662:	eb02 090b 	add.w	r9, r2, fp
   87666:	f3c9 090b 	ubfx	r9, r9, #0, #12
   8766a:	eba1 0909 	sub.w	r9, r1, r9
   8766e:	4649      	mov	r1, r9
   87670:	4628      	mov	r0, r5
   87672:	9301      	str	r3, [sp, #4]
   87674:	9200      	str	r2, [sp, #0]
   87676:	f000 fbed 	bl	87e54 <_sbrk_r>
   8767a:	1c43      	adds	r3, r0, #1
   8767c:	e89d 000c 	ldmia.w	sp, {r2, r3}
   87680:	f000 8142 	beq.w	87908 <_malloc_r+0x4fc>
   87684:	1a80      	subs	r0, r0, r2
   87686:	4448      	add	r0, r9
   87688:	f040 0001 	orr.w	r0, r0, #1
   8768c:	6819      	ldr	r1, [r3, #0]
   8768e:	42bc      	cmp	r4, r7
   87690:	4449      	add	r1, r9
   87692:	60ba      	str	r2, [r7, #8]
   87694:	6019      	str	r1, [r3, #0]
   87696:	6050      	str	r0, [r2, #4]
   87698:	d017      	beq.n	876ca <_malloc_r+0x2be>
   8769a:	f1b8 0f0f 	cmp.w	r8, #15
   8769e:	f240 80fa 	bls.w	87896 <_malloc_r+0x48a>
   876a2:	f04f 0c05 	mov.w	ip, #5
   876a6:	6862      	ldr	r2, [r4, #4]
   876a8:	f1a8 000c 	sub.w	r0, r8, #12
   876ac:	f020 0007 	bic.w	r0, r0, #7
   876b0:	f002 0201 	and.w	r2, r2, #1
   876b4:	eb04 0e00 	add.w	lr, r4, r0
   876b8:	4302      	orrs	r2, r0
   876ba:	280f      	cmp	r0, #15
   876bc:	6062      	str	r2, [r4, #4]
   876be:	f8ce c004 	str.w	ip, [lr, #4]
   876c2:	f8ce c008 	str.w	ip, [lr, #8]
   876c6:	f200 8116 	bhi.w	878f6 <_malloc_r+0x4ea>
   876ca:	4b1d      	ldr	r3, [pc, #116]	; (87740 <_malloc_r+0x334>)
   876cc:	68bc      	ldr	r4, [r7, #8]
   876ce:	681a      	ldr	r2, [r3, #0]
   876d0:	4291      	cmp	r1, r2
   876d2:	bf88      	it	hi
   876d4:	6019      	strhi	r1, [r3, #0]
   876d6:	4b1b      	ldr	r3, [pc, #108]	; (87744 <_malloc_r+0x338>)
   876d8:	681a      	ldr	r2, [r3, #0]
   876da:	4291      	cmp	r1, r2
   876dc:	6862      	ldr	r2, [r4, #4]
   876de:	bf88      	it	hi
   876e0:	6019      	strhi	r1, [r3, #0]
   876e2:	f022 0203 	bic.w	r2, r2, #3
   876e6:	4296      	cmp	r6, r2
   876e8:	eba2 0306 	sub.w	r3, r2, r6
   876ec:	d801      	bhi.n	876f2 <_malloc_r+0x2e6>
   876ee:	2b0f      	cmp	r3, #15
   876f0:	dc04      	bgt.n	876fc <_malloc_r+0x2f0>
   876f2:	4628      	mov	r0, r5
   876f4:	f000 f9f2 	bl	87adc <__malloc_unlock>
   876f8:	2400      	movs	r4, #0
   876fa:	e74d      	b.n	87598 <_malloc_r+0x18c>
   876fc:	f046 0201 	orr.w	r2, r6, #1
   87700:	f043 0301 	orr.w	r3, r3, #1
   87704:	4426      	add	r6, r4
   87706:	6062      	str	r2, [r4, #4]
   87708:	4628      	mov	r0, r5
   8770a:	60be      	str	r6, [r7, #8]
   8770c:	3408      	adds	r4, #8
   8770e:	6073      	str	r3, [r6, #4]
   87710:	f000 f9e4 	bl	87adc <__malloc_unlock>
   87714:	4620      	mov	r0, r4
   87716:	b003      	add	sp, #12
   87718:	e8bd 8ff0 	ldmia.w	sp!, {r4, r5, r6, r7, r8, r9, sl, fp, pc}
   8771c:	2b14      	cmp	r3, #20
   8771e:	d970      	bls.n	87802 <_malloc_r+0x3f6>
   87720:	2b54      	cmp	r3, #84	; 0x54
   87722:	f200 80a2 	bhi.w	8786a <_malloc_r+0x45e>
   87726:	0b33      	lsrs	r3, r6, #12
   87728:	f103 006f 	add.w	r0, r3, #111	; 0x6f
   8772c:	f103 0e6e 	add.w	lr, r3, #110	; 0x6e
   87730:	00c1      	lsls	r1, r0, #3
   87732:	e68d      	b.n	87450 <_malloc_r+0x44>
   87734:	20070760 	.word	0x20070760
   87738:	2007ae70 	.word	0x2007ae70
   8773c:	2007ae40 	.word	0x2007ae40
   87740:	2007ae68 	.word	0x2007ae68
   87744:	2007ae6c 	.word	0x2007ae6c
   87748:	20070768 	.word	0x20070768
   8774c:	20070b68 	.word	0x20070b68
   87750:	0a5a      	lsrs	r2, r3, #9
   87752:	2a04      	cmp	r2, #4
   87754:	d95b      	bls.n	8780e <_malloc_r+0x402>
   87756:	2a14      	cmp	r2, #20
   87758:	f200 80ae 	bhi.w	878b8 <_malloc_r+0x4ac>
   8775c:	f102 015c 	add.w	r1, r2, #92	; 0x5c
   87760:	00c9      	lsls	r1, r1, #3
   87762:	325b      	adds	r2, #91	; 0x5b
   87764:	eb07 0c01 	add.w	ip, r7, r1
   87768:	5879      	ldr	r1, [r7, r1]
   8776a:	f1ac 0c08 	sub.w	ip, ip, #8
   8776e:	458c      	cmp	ip, r1
   87770:	f000 8088 	beq.w	87884 <_malloc_r+0x478>
   87774:	684a      	ldr	r2, [r1, #4]
   87776:	f022 0203 	bic.w	r2, r2, #3
   8777a:	4293      	cmp	r3, r2
   8777c:	d273      	bcs.n	87866 <_malloc_r+0x45a>
   8777e:	6889      	ldr	r1, [r1, #8]
   87780:	458c      	cmp	ip, r1
   87782:	d1f7      	bne.n	87774 <_malloc_r+0x368>
   87784:	f8dc 300c 	ldr.w	r3, [ip, #12]
   87788:	687a      	ldr	r2, [r7, #4]
   8778a:	60e3      	str	r3, [r4, #12]
   8778c:	f8c4 c008 	str.w	ip, [r4, #8]
   87790:	609c      	str	r4, [r3, #8]
   87792:	f8cc 400c 	str.w	r4, [ip, #12]
   87796:	e69e      	b.n	874d6 <_malloc_r+0xca>
   87798:	f046 0c01 	orr.w	ip, r6, #1
   8779c:	f042 0101 	orr.w	r1, r2, #1
   877a0:	4426      	add	r6, r4
   877a2:	f8c4 c004 	str.w	ip, [r4, #4]
   877a6:	4628      	mov	r0, r5
   877a8:	617e      	str	r6, [r7, #20]
   877aa:	613e      	str	r6, [r7, #16]
   877ac:	f8c6 e00c 	str.w	lr, [r6, #12]
   877b0:	f8c6 e008 	str.w	lr, [r6, #8]
   877b4:	6071      	str	r1, [r6, #4]
   877b6:	50e2      	str	r2, [r4, r3]
   877b8:	f000 f990 	bl	87adc <__malloc_unlock>
   877bc:	3408      	adds	r4, #8
   877be:	e6eb      	b.n	87598 <_malloc_r+0x18c>
   877c0:	687a      	ldr	r2, [r7, #4]
   877c2:	e688      	b.n	874d6 <_malloc_r+0xca>
   877c4:	f108 0801 	add.w	r8, r8, #1
   877c8:	f018 0f03 	tst.w	r8, #3
   877cc:	f10c 0c08 	add.w	ip, ip, #8
   877d0:	f47f ae93 	bne.w	874fa <_malloc_r+0xee>
   877d4:	e02d      	b.n	87832 <_malloc_r+0x426>
   877d6:	68dc      	ldr	r4, [r3, #12]
   877d8:	42a3      	cmp	r3, r4
   877da:	bf08      	it	eq
   877dc:	3002      	addeq	r0, #2
   877de:	f43f ae4b 	beq.w	87478 <_malloc_r+0x6c>
   877e2:	e6c9      	b.n	87578 <_malloc_r+0x16c>
   877e4:	461c      	mov	r4, r3
   877e6:	4419      	add	r1, r3
   877e8:	684a      	ldr	r2, [r1, #4]
   877ea:	68db      	ldr	r3, [r3, #12]
   877ec:	f854 6f08 	ldr.w	r6, [r4, #8]!
   877f0:	f042 0201 	orr.w	r2, r2, #1
   877f4:	604a      	str	r2, [r1, #4]
   877f6:	4628      	mov	r0, r5
   877f8:	60f3      	str	r3, [r6, #12]
   877fa:	609e      	str	r6, [r3, #8]
   877fc:	f000 f96e 	bl	87adc <__malloc_unlock>
   87800:	e6ca      	b.n	87598 <_malloc_r+0x18c>
   87802:	f103 005c 	add.w	r0, r3, #92	; 0x5c
   87806:	f103 0e5b 	add.w	lr, r3, #91	; 0x5b
   8780a:	00c1      	lsls	r1, r0, #3
   8780c:	e620      	b.n	87450 <_malloc_r+0x44>
   8780e:	099a      	lsrs	r2, r3, #6
   87810:	f102 0139 	add.w	r1, r2, #57	; 0x39
   87814:	00c9      	lsls	r1, r1, #3
   87816:	3238      	adds	r2, #56	; 0x38
   87818:	e7a4      	b.n	87764 <_malloc_r+0x358>
   8781a:	42bc      	cmp	r4, r7
   8781c:	d054      	beq.n	878c8 <_malloc_r+0x4bc>
   8781e:	68bc      	ldr	r4, [r7, #8]
   87820:	6862      	ldr	r2, [r4, #4]
   87822:	f022 0203 	bic.w	r2, r2, #3
   87826:	e75e      	b.n	876e6 <_malloc_r+0x2da>
   87828:	f859 3908 	ldr.w	r3, [r9], #-8
   8782c:	4599      	cmp	r9, r3
   8782e:	f040 8086 	bne.w	8793e <_malloc_r+0x532>
   87832:	f010 0f03 	tst.w	r0, #3
   87836:	f100 30ff 	add.w	r0, r0, #4294967295
   8783a:	d1f5      	bne.n	87828 <_malloc_r+0x41c>
   8783c:	687b      	ldr	r3, [r7, #4]
   8783e:	ea23 0304 	bic.w	r3, r3, r4
   87842:	607b      	str	r3, [r7, #4]
   87844:	0064      	lsls	r4, r4, #1
   87846:	429c      	cmp	r4, r3
   87848:	f63f aec8 	bhi.w	875dc <_malloc_r+0x1d0>
   8784c:	2c00      	cmp	r4, #0
   8784e:	f43f aec5 	beq.w	875dc <_malloc_r+0x1d0>
   87852:	421c      	tst	r4, r3
   87854:	4640      	mov	r0, r8
   87856:	f47f ae4c 	bne.w	874f2 <_malloc_r+0xe6>
   8785a:	0064      	lsls	r4, r4, #1
   8785c:	421c      	tst	r4, r3
   8785e:	f100 0004 	add.w	r0, r0, #4
   87862:	d0fa      	beq.n	8785a <_malloc_r+0x44e>
   87864:	e645      	b.n	874f2 <_malloc_r+0xe6>
   87866:	468c      	mov	ip, r1
   87868:	e78c      	b.n	87784 <_malloc_r+0x378>
   8786a:	f5b3 7faa 	cmp.w	r3, #340	; 0x154
   8786e:	d815      	bhi.n	8789c <_malloc_r+0x490>
   87870:	0bf3      	lsrs	r3, r6, #15
   87872:	f103 0078 	add.w	r0, r3, #120	; 0x78
   87876:	f103 0e77 	add.w	lr, r3, #119	; 0x77
   8787a:	00c1      	lsls	r1, r0, #3
   8787c:	e5e8      	b.n	87450 <_malloc_r+0x44>
   8787e:	f44f 5180 	mov.w	r1, #4096	; 0x1000
   87882:	e6ee      	b.n	87662 <_malloc_r+0x256>
   87884:	2101      	movs	r1, #1
   87886:	687b      	ldr	r3, [r7, #4]
   87888:	1092      	asrs	r2, r2, #2
   8788a:	fa01 f202 	lsl.w	r2, r1, r2
   8788e:	431a      	orrs	r2, r3
   87890:	607a      	str	r2, [r7, #4]
   87892:	4663      	mov	r3, ip
   87894:	e779      	b.n	8778a <_malloc_r+0x37e>
   87896:	2301      	movs	r3, #1
   87898:	6053      	str	r3, [r2, #4]
   8789a:	e72a      	b.n	876f2 <_malloc_r+0x2e6>
   8789c:	f240 5254 	movw	r2, #1364	; 0x554
   878a0:	4293      	cmp	r3, r2
   878a2:	d822      	bhi.n	878ea <_malloc_r+0x4de>
   878a4:	0cb3      	lsrs	r3, r6, #18
   878a6:	f103 007d 	add.w	r0, r3, #125	; 0x7d
   878aa:	f103 0e7c 	add.w	lr, r3, #124	; 0x7c
   878ae:	00c1      	lsls	r1, r0, #3
   878b0:	e5ce      	b.n	87450 <_malloc_r+0x44>
   878b2:	f103 0b10 	add.w	fp, r3, #16
   878b6:	e6af      	b.n	87618 <_malloc_r+0x20c>
   878b8:	2a54      	cmp	r2, #84	; 0x54
   878ba:	d829      	bhi.n	87910 <_malloc_r+0x504>
   878bc:	0b1a      	lsrs	r2, r3, #12
   878be:	f102 016f 	add.w	r1, r2, #111	; 0x6f
   878c2:	00c9      	lsls	r1, r1, #3
   878c4:	326e      	adds	r2, #110	; 0x6e
   878c6:	e74d      	b.n	87764 <_malloc_r+0x358>
   878c8:	4b20      	ldr	r3, [pc, #128]	; (8794c <_malloc_r+0x540>)
   878ca:	6819      	ldr	r1, [r3, #0]
   878cc:	4459      	add	r1, fp
   878ce:	6019      	str	r1, [r3, #0]
   878d0:	e6b3      	b.n	8763a <_malloc_r+0x22e>
   878d2:	f3ca 000b 	ubfx	r0, sl, #0, #12
   878d6:	2800      	cmp	r0, #0
   878d8:	f47f aeaf 	bne.w	8763a <_malloc_r+0x22e>
   878dc:	eb08 030b 	add.w	r3, r8, fp
   878e0:	68ba      	ldr	r2, [r7, #8]
   878e2:	f043 0301 	orr.w	r3, r3, #1
   878e6:	6053      	str	r3, [r2, #4]
   878e8:	e6ef      	b.n	876ca <_malloc_r+0x2be>
   878ea:	207f      	movs	r0, #127	; 0x7f
   878ec:	f44f 717e 	mov.w	r1, #1016	; 0x3f8
   878f0:	f04f 0e7e 	mov.w	lr, #126	; 0x7e
   878f4:	e5ac      	b.n	87450 <_malloc_r+0x44>
   878f6:	f104 0108 	add.w	r1, r4, #8
   878fa:	4628      	mov	r0, r5
   878fc:	9300      	str	r3, [sp, #0]
   878fe:	f7ff fa67 	bl	86dd0 <_free_r>
   87902:	9b00      	ldr	r3, [sp, #0]
   87904:	6819      	ldr	r1, [r3, #0]
   87906:	e6e0      	b.n	876ca <_malloc_r+0x2be>
   87908:	2001      	movs	r0, #1
   8790a:	f04f 0900 	mov.w	r9, #0
   8790e:	e6bd      	b.n	8768c <_malloc_r+0x280>
   87910:	f5b2 7faa 	cmp.w	r2, #340	; 0x154
   87914:	d805      	bhi.n	87922 <_malloc_r+0x516>
   87916:	0bda      	lsrs	r2, r3, #15
   87918:	f102 0178 	add.w	r1, r2, #120	; 0x78
   8791c:	00c9      	lsls	r1, r1, #3
   8791e:	3277      	adds	r2, #119	; 0x77
   87920:	e720      	b.n	87764 <_malloc_r+0x358>
   87922:	f240 5154 	movw	r1, #1364	; 0x554
   87926:	428a      	cmp	r2, r1
   87928:	d805      	bhi.n	87936 <_malloc_r+0x52a>
   8792a:	0c9a      	lsrs	r2, r3, #18
   8792c:	f102 017d 	add.w	r1, r2, #125	; 0x7d
   87930:	00c9      	lsls	r1, r1, #3
   87932:	327c      	adds	r2, #124	; 0x7c
   87934:	e716      	b.n	87764 <_malloc_r+0x358>
   87936:	f44f 717e 	mov.w	r1, #1016	; 0x3f8
   8793a:	227e      	movs	r2, #126	; 0x7e
   8793c:	e712      	b.n	87764 <_malloc_r+0x358>
   8793e:	687b      	ldr	r3, [r7, #4]
   87940:	e780      	b.n	87844 <_malloc_r+0x438>
   87942:	08f0      	lsrs	r0, r6, #3
   87944:	f106 0308 	add.w	r3, r6, #8
   87948:	e60e      	b.n	87568 <_malloc_r+0x15c>
   8794a:	bf00      	nop
   8794c:	2007ae40 	.word	0x2007ae40

00087950 <__ascii_mbtowc>:
   87950:	b082      	sub	sp, #8
   87952:	b149      	cbz	r1, 87968 <__ascii_mbtowc+0x18>
   87954:	b15a      	cbz	r2, 8796e <__ascii_mbtowc+0x1e>
   87956:	b16b      	cbz	r3, 87974 <__ascii_mbtowc+0x24>
   87958:	7813      	ldrb	r3, [r2, #0]
   8795a:	600b      	str	r3, [r1, #0]
   8795c:	7812      	ldrb	r2, [r2, #0]
   8795e:	1c10      	adds	r0, r2, #0
   87960:	bf18      	it	ne
   87962:	2001      	movne	r0, #1
   87964:	b002      	add	sp, #8
   87966:	4770      	bx	lr
   87968:	a901      	add	r1, sp, #4
   8796a:	2a00      	cmp	r2, #0
   8796c:	d1f3      	bne.n	87956 <__ascii_mbtowc+0x6>
   8796e:	4610      	mov	r0, r2
   87970:	b002      	add	sp, #8
   87972:	4770      	bx	lr
   87974:	f06f 0001 	mvn.w	r0, #1
   87978:	e7f4      	b.n	87964 <__ascii_mbtowc+0x14>
   8797a:	bf00      	nop

0008797c <memchr>:
   8797c:	0783      	lsls	r3, r0, #30
   8797e:	b470      	push	{r4, r5, r6}
   87980:	b2cd      	uxtb	r5, r1
   87982:	d03d      	beq.n	87a00 <memchr+0x84>
   87984:	1e54      	subs	r4, r2, #1
   87986:	b30a      	cbz	r2, 879cc <memchr+0x50>
   87988:	7803      	ldrb	r3, [r0, #0]
   8798a:	42ab      	cmp	r3, r5
   8798c:	d01f      	beq.n	879ce <memchr+0x52>
   8798e:	1c43      	adds	r3, r0, #1
   87990:	e005      	b.n	8799e <memchr+0x22>
   87992:	f114 34ff 	adds.w	r4, r4, #4294967295
   87996:	d319      	bcc.n	879cc <memchr+0x50>
   87998:	7802      	ldrb	r2, [r0, #0]
   8799a:	42aa      	cmp	r2, r5
   8799c:	d017      	beq.n	879ce <memchr+0x52>
   8799e:	f013 0f03 	tst.w	r3, #3
   879a2:	4618      	mov	r0, r3
   879a4:	f103 0301 	add.w	r3, r3, #1
   879a8:	d1f3      	bne.n	87992 <memchr+0x16>
   879aa:	2c03      	cmp	r4, #3
   879ac:	d811      	bhi.n	879d2 <memchr+0x56>
   879ae:	b34c      	cbz	r4, 87a04 <memchr+0x88>
   879b0:	7803      	ldrb	r3, [r0, #0]
   879b2:	42ab      	cmp	r3, r5
   879b4:	d00b      	beq.n	879ce <memchr+0x52>
   879b6:	4404      	add	r4, r0
   879b8:	1c43      	adds	r3, r0, #1
   879ba:	e002      	b.n	879c2 <memchr+0x46>
   879bc:	7802      	ldrb	r2, [r0, #0]
   879be:	42aa      	cmp	r2, r5
   879c0:	d005      	beq.n	879ce <memchr+0x52>
   879c2:	429c      	cmp	r4, r3
   879c4:	4618      	mov	r0, r3
   879c6:	f103 0301 	add.w	r3, r3, #1
   879ca:	d1f7      	bne.n	879bc <memchr+0x40>
   879cc:	2000      	movs	r0, #0
   879ce:	bc70      	pop	{r4, r5, r6}
   879d0:	4770      	bx	lr
   879d2:	0209      	lsls	r1, r1, #8
   879d4:	b289      	uxth	r1, r1
   879d6:	4329      	orrs	r1, r5
   879d8:	ea41 4101 	orr.w	r1, r1, r1, lsl #16
   879dc:	6803      	ldr	r3, [r0, #0]
   879de:	4606      	mov	r6, r0
   879e0:	404b      	eors	r3, r1
   879e2:	f1a3 3201 	sub.w	r2, r3, #16843009	; 0x1010101
   879e6:	ea22 0303 	bic.w	r3, r2, r3
   879ea:	f013 3f80 	tst.w	r3, #2155905152	; 0x80808080
   879ee:	f100 0004 	add.w	r0, r0, #4
   879f2:	d103      	bne.n	879fc <memchr+0x80>
   879f4:	3c04      	subs	r4, #4
   879f6:	2c03      	cmp	r4, #3
   879f8:	d8f0      	bhi.n	879dc <memchr+0x60>
   879fa:	e7d8      	b.n	879ae <memchr+0x32>
   879fc:	4630      	mov	r0, r6
   879fe:	e7d7      	b.n	879b0 <memchr+0x34>
   87a00:	4614      	mov	r4, r2
   87a02:	e7d2      	b.n	879aa <memchr+0x2e>
   87a04:	4620      	mov	r0, r4
   87a06:	e7e2      	b.n	879ce <memchr+0x52>

00087a08 <memmove>:
   87a08:	4288      	cmp	r0, r1
   87a0a:	b5f0      	push	{r4, r5, r6, r7, lr}
   87a0c:	d90d      	bls.n	87a2a <memmove+0x22>
   87a0e:	188b      	adds	r3, r1, r2
   87a10:	4298      	cmp	r0, r3
   87a12:	d20a      	bcs.n	87a2a <memmove+0x22>
   87a14:	1884      	adds	r4, r0, r2
   87a16:	2a00      	cmp	r2, #0
   87a18:	d051      	beq.n	87abe <memmove+0xb6>
   87a1a:	4622      	mov	r2, r4
   87a1c:	f813 4d01 	ldrb.w	r4, [r3, #-1]!
   87a20:	4299      	cmp	r1, r3
   87a22:	f802 4d01 	strb.w	r4, [r2, #-1]!
   87a26:	d1f9      	bne.n	87a1c <memmove+0x14>
   87a28:	bdf0      	pop	{r4, r5, r6, r7, pc}
   87a2a:	2a0f      	cmp	r2, #15
   87a2c:	d948      	bls.n	87ac0 <memmove+0xb8>
   87a2e:	ea41 0300 	orr.w	r3, r1, r0
   87a32:	079b      	lsls	r3, r3, #30
   87a34:	d146      	bne.n	87ac4 <memmove+0xbc>
   87a36:	4615      	mov	r5, r2
   87a38:	f100 0410 	add.w	r4, r0, #16
   87a3c:	f101 0310 	add.w	r3, r1, #16
   87a40:	f853 6c10 	ldr.w	r6, [r3, #-16]
   87a44:	3d10      	subs	r5, #16
   87a46:	f844 6c10 	str.w	r6, [r4, #-16]
   87a4a:	f853 6c0c 	ldr.w	r6, [r3, #-12]
   87a4e:	2d0f      	cmp	r5, #15
   87a50:	f844 6c0c 	str.w	r6, [r4, #-12]
   87a54:	f853 6c08 	ldr.w	r6, [r3, #-8]
   87a58:	f104 0410 	add.w	r4, r4, #16
   87a5c:	f844 6c18 	str.w	r6, [r4, #-24]
   87a60:	f853 6c04 	ldr.w	r6, [r3, #-4]
   87a64:	f103 0310 	add.w	r3, r3, #16
   87a68:	f844 6c14 	str.w	r6, [r4, #-20]
   87a6c:	d8e8      	bhi.n	87a40 <memmove+0x38>
   87a6e:	f1a2 0310 	sub.w	r3, r2, #16
   87a72:	f023 030f 	bic.w	r3, r3, #15
   87a76:	f002 0e0f 	and.w	lr, r2, #15
   87a7a:	3310      	adds	r3, #16
   87a7c:	f1be 0f03 	cmp.w	lr, #3
   87a80:	4419      	add	r1, r3
   87a82:	4403      	add	r3, r0
   87a84:	d921      	bls.n	87aca <memmove+0xc2>
   87a86:	460e      	mov	r6, r1
   87a88:	4674      	mov	r4, lr
   87a8a:	1f1d      	subs	r5, r3, #4
   87a8c:	f856 7b04 	ldr.w	r7, [r6], #4
   87a90:	3c04      	subs	r4, #4
   87a92:	2c03      	cmp	r4, #3
   87a94:	f845 7f04 	str.w	r7, [r5, #4]!
   87a98:	d8f8      	bhi.n	87a8c <memmove+0x84>
   87a9a:	f1ae 0404 	sub.w	r4, lr, #4
   87a9e:	f024 0403 	bic.w	r4, r4, #3
   87aa2:	3404      	adds	r4, #4
   87aa4:	4421      	add	r1, r4
   87aa6:	4423      	add	r3, r4
   87aa8:	f002 0203 	and.w	r2, r2, #3
   87aac:	b162      	cbz	r2, 87ac8 <memmove+0xc0>
   87aae:	3b01      	subs	r3, #1
   87ab0:	440a      	add	r2, r1
   87ab2:	f811 4b01 	ldrb.w	r4, [r1], #1
   87ab6:	428a      	cmp	r2, r1
   87ab8:	f803 4f01 	strb.w	r4, [r3, #1]!
   87abc:	d1f9      	bne.n	87ab2 <memmove+0xaa>
   87abe:	bdf0      	pop	{r4, r5, r6, r7, pc}
   87ac0:	4603      	mov	r3, r0
   87ac2:	e7f3      	b.n	87aac <memmove+0xa4>
   87ac4:	4603      	mov	r3, r0
   87ac6:	e7f2      	b.n	87aae <memmove+0xa6>
   87ac8:	bdf0      	pop	{r4, r5, r6, r7, pc}
   87aca:	4672      	mov	r2, lr
   87acc:	e7ee      	b.n	87aac <memmove+0xa4>
   87ace:	bf00      	nop

00087ad0 <__malloc_lock>:
   87ad0:	4801      	ldr	r0, [pc, #4]	; (87ad8 <__malloc_lock+0x8>)
   87ad2:	f7ff bc17 	b.w	87304 <__retarget_lock_acquire_recursive>
   87ad6:	bf00      	nop
   87ad8:	2007b0a0 	.word	0x2007b0a0

00087adc <__malloc_unlock>:
   87adc:	4801      	ldr	r0, [pc, #4]	; (87ae4 <__malloc_unlock+0x8>)
   87ade:	f7ff bc13 	b.w	87308 <__retarget_lock_release_recursive>
   87ae2:	bf00      	nop
   87ae4:	2007b0a0 	.word	0x2007b0a0

00087ae8 <_realloc_r>:
   87ae8:	2900      	cmp	r1, #0
   87aea:	f000 8094 	beq.w	87c16 <_realloc_r+0x12e>
   87aee:	e92d 4ff0 	stmdb	sp!, {r4, r5, r6, r7, r8, r9, sl, fp, lr}
   87af2:	460c      	mov	r4, r1
   87af4:	4615      	mov	r5, r2
   87af6:	b083      	sub	sp, #12
   87af8:	4680      	mov	r8, r0
   87afa:	f105 060b 	add.w	r6, r5, #11
   87afe:	f7ff ffe7 	bl	87ad0 <__malloc_lock>
   87b02:	f854 ec04 	ldr.w	lr, [r4, #-4]
   87b06:	2e16      	cmp	r6, #22
   87b08:	f02e 0703 	bic.w	r7, lr, #3
   87b0c:	f1a4 0908 	sub.w	r9, r4, #8
   87b10:	d83c      	bhi.n	87b8c <_realloc_r+0xa4>
   87b12:	2210      	movs	r2, #16
   87b14:	4616      	mov	r6, r2
   87b16:	42b5      	cmp	r5, r6
   87b18:	d83d      	bhi.n	87b96 <_realloc_r+0xae>
   87b1a:	4297      	cmp	r7, r2
   87b1c:	da43      	bge.n	87ba6 <_realloc_r+0xbe>
   87b1e:	4bc6      	ldr	r3, [pc, #792]	; (87e38 <_realloc_r+0x350>)
   87b20:	eb09 0007 	add.w	r0, r9, r7
   87b24:	6899      	ldr	r1, [r3, #8]
   87b26:	4288      	cmp	r0, r1
   87b28:	f000 80c3 	beq.w	87cb2 <_realloc_r+0x1ca>
   87b2c:	6843      	ldr	r3, [r0, #4]
   87b2e:	f023 0101 	bic.w	r1, r3, #1
   87b32:	4401      	add	r1, r0
   87b34:	6849      	ldr	r1, [r1, #4]
   87b36:	07c9      	lsls	r1, r1, #31
   87b38:	d54d      	bpl.n	87bd6 <_realloc_r+0xee>
   87b3a:	f01e 0f01 	tst.w	lr, #1
   87b3e:	f000 809b 	beq.w	87c78 <_realloc_r+0x190>
   87b42:	4629      	mov	r1, r5
   87b44:	4640      	mov	r0, r8
   87b46:	f7ff fc61 	bl	8740c <_malloc_r>
   87b4a:	4605      	mov	r5, r0
   87b4c:	2800      	cmp	r0, #0
   87b4e:	d03b      	beq.n	87bc8 <_realloc_r+0xe0>
   87b50:	f854 3c04 	ldr.w	r3, [r4, #-4]
   87b54:	f1a0 0208 	sub.w	r2, r0, #8
   87b58:	f023 0301 	bic.w	r3, r3, #1
   87b5c:	444b      	add	r3, r9
   87b5e:	429a      	cmp	r2, r3
   87b60:	f000 812b 	beq.w	87dba <_realloc_r+0x2d2>
   87b64:	1f3a      	subs	r2, r7, #4
   87b66:	2a24      	cmp	r2, #36	; 0x24
   87b68:	f200 8118 	bhi.w	87d9c <_realloc_r+0x2b4>
   87b6c:	2a13      	cmp	r2, #19
   87b6e:	f200 80eb 	bhi.w	87d48 <_realloc_r+0x260>
   87b72:	4603      	mov	r3, r0
   87b74:	4622      	mov	r2, r4
   87b76:	6811      	ldr	r1, [r2, #0]
   87b78:	6019      	str	r1, [r3, #0]
   87b7a:	6851      	ldr	r1, [r2, #4]
   87b7c:	6059      	str	r1, [r3, #4]
   87b7e:	6892      	ldr	r2, [r2, #8]
   87b80:	609a      	str	r2, [r3, #8]
   87b82:	4621      	mov	r1, r4
   87b84:	4640      	mov	r0, r8
   87b86:	f7ff f923 	bl	86dd0 <_free_r>
   87b8a:	e01d      	b.n	87bc8 <_realloc_r+0xe0>
   87b8c:	f026 0607 	bic.w	r6, r6, #7
   87b90:	2e00      	cmp	r6, #0
   87b92:	4632      	mov	r2, r6
   87b94:	dabf      	bge.n	87b16 <_realloc_r+0x2e>
   87b96:	2500      	movs	r5, #0
   87b98:	230c      	movs	r3, #12
   87b9a:	4628      	mov	r0, r5
   87b9c:	f8c8 3000 	str.w	r3, [r8]
   87ba0:	b003      	add	sp, #12
   87ba2:	e8bd 8ff0 	ldmia.w	sp!, {r4, r5, r6, r7, r8, r9, sl, fp, pc}
   87ba6:	4625      	mov	r5, r4
   87ba8:	1bbb      	subs	r3, r7, r6
   87baa:	2b0f      	cmp	r3, #15
   87bac:	f8d9 2004 	ldr.w	r2, [r9, #4]
   87bb0:	d81d      	bhi.n	87bee <_realloc_r+0x106>
   87bb2:	f002 0201 	and.w	r2, r2, #1
   87bb6:	433a      	orrs	r2, r7
   87bb8:	eb09 0107 	add.w	r1, r9, r7
   87bbc:	f8c9 2004 	str.w	r2, [r9, #4]
   87bc0:	684b      	ldr	r3, [r1, #4]
   87bc2:	f043 0301 	orr.w	r3, r3, #1
   87bc6:	604b      	str	r3, [r1, #4]
   87bc8:	4640      	mov	r0, r8
   87bca:	f7ff ff87 	bl	87adc <__malloc_unlock>
   87bce:	4628      	mov	r0, r5
   87bd0:	b003      	add	sp, #12
   87bd2:	e8bd 8ff0 	ldmia.w	sp!, {r4, r5, r6, r7, r8, r9, sl, fp, pc}
   87bd6:	f023 0303 	bic.w	r3, r3, #3
   87bda:	18f9      	adds	r1, r7, r3
   87bdc:	4291      	cmp	r1, r2
   87bde:	db1d      	blt.n	87c1c <_realloc_r+0x134>
   87be0:	68c3      	ldr	r3, [r0, #12]
   87be2:	6882      	ldr	r2, [r0, #8]
   87be4:	4625      	mov	r5, r4
   87be6:	60d3      	str	r3, [r2, #12]
   87be8:	460f      	mov	r7, r1
   87bea:	609a      	str	r2, [r3, #8]
   87bec:	e7dc      	b.n	87ba8 <_realloc_r+0xc0>
   87bee:	f002 0201 	and.w	r2, r2, #1
   87bf2:	eb09 0106 	add.w	r1, r9, r6
   87bf6:	f043 0301 	orr.w	r3, r3, #1
   87bfa:	4332      	orrs	r2, r6
   87bfc:	f8c9 2004 	str.w	r2, [r9, #4]
   87c00:	444f      	add	r7, r9
   87c02:	604b      	str	r3, [r1, #4]
   87c04:	687b      	ldr	r3, [r7, #4]
   87c06:	3108      	adds	r1, #8
   87c08:	f043 0301 	orr.w	r3, r3, #1
   87c0c:	607b      	str	r3, [r7, #4]
   87c0e:	4640      	mov	r0, r8
   87c10:	f7ff f8de 	bl	86dd0 <_free_r>
   87c14:	e7d8      	b.n	87bc8 <_realloc_r+0xe0>
   87c16:	4611      	mov	r1, r2
   87c18:	f7ff bbf8 	b.w	8740c <_malloc_r>
   87c1c:	f01e 0f01 	tst.w	lr, #1
   87c20:	d18f      	bne.n	87b42 <_realloc_r+0x5a>
   87c22:	f854 1c08 	ldr.w	r1, [r4, #-8]
   87c26:	eba9 0a01 	sub.w	sl, r9, r1
   87c2a:	f8da 1004 	ldr.w	r1, [sl, #4]
   87c2e:	f021 0103 	bic.w	r1, r1, #3
   87c32:	440b      	add	r3, r1
   87c34:	443b      	add	r3, r7
   87c36:	4293      	cmp	r3, r2
   87c38:	db26      	blt.n	87c88 <_realloc_r+0x1a0>
   87c3a:	4655      	mov	r5, sl
   87c3c:	68c1      	ldr	r1, [r0, #12]
   87c3e:	6880      	ldr	r0, [r0, #8]
   87c40:	1f3a      	subs	r2, r7, #4
   87c42:	60c1      	str	r1, [r0, #12]
   87c44:	6088      	str	r0, [r1, #8]
   87c46:	f855 0f08 	ldr.w	r0, [r5, #8]!
   87c4a:	f8da 100c 	ldr.w	r1, [sl, #12]
   87c4e:	2a24      	cmp	r2, #36	; 0x24
   87c50:	60c1      	str	r1, [r0, #12]
   87c52:	6088      	str	r0, [r1, #8]
   87c54:	d826      	bhi.n	87ca4 <_realloc_r+0x1bc>
   87c56:	2a13      	cmp	r2, #19
   87c58:	f240 8081 	bls.w	87d5e <_realloc_r+0x276>
   87c5c:	6821      	ldr	r1, [r4, #0]
   87c5e:	2a1b      	cmp	r2, #27
   87c60:	f8ca 1008 	str.w	r1, [sl, #8]
   87c64:	6861      	ldr	r1, [r4, #4]
   87c66:	f8ca 100c 	str.w	r1, [sl, #12]
   87c6a:	f200 80ad 	bhi.w	87dc8 <_realloc_r+0x2e0>
   87c6e:	f104 0008 	add.w	r0, r4, #8
   87c72:	f10a 0210 	add.w	r2, sl, #16
   87c76:	e074      	b.n	87d62 <_realloc_r+0x27a>
   87c78:	f854 3c08 	ldr.w	r3, [r4, #-8]
   87c7c:	eba9 0a03 	sub.w	sl, r9, r3
   87c80:	f8da 1004 	ldr.w	r1, [sl, #4]
   87c84:	f021 0103 	bic.w	r1, r1, #3
   87c88:	187b      	adds	r3, r7, r1
   87c8a:	4293      	cmp	r3, r2
   87c8c:	f6ff af59 	blt.w	87b42 <_realloc_r+0x5a>
   87c90:	4655      	mov	r5, sl
   87c92:	f8da 100c 	ldr.w	r1, [sl, #12]
   87c96:	f855 0f08 	ldr.w	r0, [r5, #8]!
   87c9a:	1f3a      	subs	r2, r7, #4
   87c9c:	2a24      	cmp	r2, #36	; 0x24
   87c9e:	60c1      	str	r1, [r0, #12]
   87ca0:	6088      	str	r0, [r1, #8]
   87ca2:	d9d8      	bls.n	87c56 <_realloc_r+0x16e>
   87ca4:	4621      	mov	r1, r4
   87ca6:	4628      	mov	r0, r5
   87ca8:	461f      	mov	r7, r3
   87caa:	46d1      	mov	r9, sl
   87cac:	f7ff feac 	bl	87a08 <memmove>
   87cb0:	e77a      	b.n	87ba8 <_realloc_r+0xc0>
   87cb2:	6841      	ldr	r1, [r0, #4]
   87cb4:	f106 0010 	add.w	r0, r6, #16
   87cb8:	f021 0b03 	bic.w	fp, r1, #3
   87cbc:	44bb      	add	fp, r7
   87cbe:	4583      	cmp	fp, r0
   87cc0:	da58      	bge.n	87d74 <_realloc_r+0x28c>
   87cc2:	f01e 0f01 	tst.w	lr, #1
   87cc6:	f47f af3c 	bne.w	87b42 <_realloc_r+0x5a>
   87cca:	f854 1c08 	ldr.w	r1, [r4, #-8]
   87cce:	eba9 0a01 	sub.w	sl, r9, r1
   87cd2:	f8da 1004 	ldr.w	r1, [sl, #4]
   87cd6:	f021 0103 	bic.w	r1, r1, #3
   87cda:	448b      	add	fp, r1
   87cdc:	4558      	cmp	r0, fp
   87cde:	dcd3      	bgt.n	87c88 <_realloc_r+0x1a0>
   87ce0:	4655      	mov	r5, sl
   87ce2:	f8da 100c 	ldr.w	r1, [sl, #12]
   87ce6:	f855 0f08 	ldr.w	r0, [r5, #8]!
   87cea:	1f3a      	subs	r2, r7, #4
   87cec:	2a24      	cmp	r2, #36	; 0x24
   87cee:	60c1      	str	r1, [r0, #12]
   87cf0:	6088      	str	r0, [r1, #8]
   87cf2:	f200 808d 	bhi.w	87e10 <_realloc_r+0x328>
   87cf6:	2a13      	cmp	r2, #19
   87cf8:	f240 8087 	bls.w	87e0a <_realloc_r+0x322>
   87cfc:	6821      	ldr	r1, [r4, #0]
   87cfe:	2a1b      	cmp	r2, #27
   87d00:	f8ca 1008 	str.w	r1, [sl, #8]
   87d04:	6861      	ldr	r1, [r4, #4]
   87d06:	f8ca 100c 	str.w	r1, [sl, #12]
   87d0a:	f200 8088 	bhi.w	87e1e <_realloc_r+0x336>
   87d0e:	f104 0108 	add.w	r1, r4, #8
   87d12:	f10a 0210 	add.w	r2, sl, #16
   87d16:	6808      	ldr	r0, [r1, #0]
   87d18:	6010      	str	r0, [r2, #0]
   87d1a:	6848      	ldr	r0, [r1, #4]
   87d1c:	6050      	str	r0, [r2, #4]
   87d1e:	6889      	ldr	r1, [r1, #8]
   87d20:	6091      	str	r1, [r2, #8]
   87d22:	ebab 0206 	sub.w	r2, fp, r6
   87d26:	eb0a 0106 	add.w	r1, sl, r6
   87d2a:	f042 0201 	orr.w	r2, r2, #1
   87d2e:	6099      	str	r1, [r3, #8]
   87d30:	604a      	str	r2, [r1, #4]
   87d32:	f8da 3004 	ldr.w	r3, [sl, #4]
   87d36:	4640      	mov	r0, r8
   87d38:	f003 0301 	and.w	r3, r3, #1
   87d3c:	431e      	orrs	r6, r3
   87d3e:	f8ca 6004 	str.w	r6, [sl, #4]
   87d42:	f7ff fecb 	bl	87adc <__malloc_unlock>
   87d46:	e742      	b.n	87bce <_realloc_r+0xe6>
   87d48:	6823      	ldr	r3, [r4, #0]
   87d4a:	2a1b      	cmp	r2, #27
   87d4c:	6003      	str	r3, [r0, #0]
   87d4e:	6863      	ldr	r3, [r4, #4]
   87d50:	6043      	str	r3, [r0, #4]
   87d52:	d827      	bhi.n	87da4 <_realloc_r+0x2bc>
   87d54:	f100 0308 	add.w	r3, r0, #8
   87d58:	f104 0208 	add.w	r2, r4, #8
   87d5c:	e70b      	b.n	87b76 <_realloc_r+0x8e>
   87d5e:	4620      	mov	r0, r4
   87d60:	462a      	mov	r2, r5
   87d62:	6801      	ldr	r1, [r0, #0]
   87d64:	461f      	mov	r7, r3
   87d66:	6011      	str	r1, [r2, #0]
   87d68:	6841      	ldr	r1, [r0, #4]
   87d6a:	46d1      	mov	r9, sl
   87d6c:	6051      	str	r1, [r2, #4]
   87d6e:	6883      	ldr	r3, [r0, #8]
   87d70:	6093      	str	r3, [r2, #8]
   87d72:	e719      	b.n	87ba8 <_realloc_r+0xc0>
   87d74:	ebab 0b06 	sub.w	fp, fp, r6
   87d78:	eb09 0106 	add.w	r1, r9, r6
   87d7c:	f04b 0201 	orr.w	r2, fp, #1
   87d80:	6099      	str	r1, [r3, #8]
   87d82:	604a      	str	r2, [r1, #4]
   87d84:	f854 3c04 	ldr.w	r3, [r4, #-4]
   87d88:	4640      	mov	r0, r8
   87d8a:	f003 0301 	and.w	r3, r3, #1
   87d8e:	431e      	orrs	r6, r3
   87d90:	f844 6c04 	str.w	r6, [r4, #-4]
   87d94:	f7ff fea2 	bl	87adc <__malloc_unlock>
   87d98:	4625      	mov	r5, r4
   87d9a:	e718      	b.n	87bce <_realloc_r+0xe6>
   87d9c:	4621      	mov	r1, r4
   87d9e:	f7ff fe33 	bl	87a08 <memmove>
   87da2:	e6ee      	b.n	87b82 <_realloc_r+0x9a>
   87da4:	68a3      	ldr	r3, [r4, #8]
   87da6:	2a24      	cmp	r2, #36	; 0x24
   87da8:	6083      	str	r3, [r0, #8]
   87daa:	68e3      	ldr	r3, [r4, #12]
   87dac:	60c3      	str	r3, [r0, #12]
   87dae:	d018      	beq.n	87de2 <_realloc_r+0x2fa>
   87db0:	f100 0310 	add.w	r3, r0, #16
   87db4:	f104 0210 	add.w	r2, r4, #16
   87db8:	e6dd      	b.n	87b76 <_realloc_r+0x8e>
   87dba:	f850 3c04 	ldr.w	r3, [r0, #-4]
   87dbe:	4625      	mov	r5, r4
   87dc0:	f023 0303 	bic.w	r3, r3, #3
   87dc4:	441f      	add	r7, r3
   87dc6:	e6ef      	b.n	87ba8 <_realloc_r+0xc0>
   87dc8:	68a1      	ldr	r1, [r4, #8]
   87dca:	2a24      	cmp	r2, #36	; 0x24
   87dcc:	f8ca 1010 	str.w	r1, [sl, #16]
   87dd0:	68e1      	ldr	r1, [r4, #12]
   87dd2:	f8ca 1014 	str.w	r1, [sl, #20]
   87dd6:	d00d      	beq.n	87df4 <_realloc_r+0x30c>
   87dd8:	f104 0010 	add.w	r0, r4, #16
   87ddc:	f10a 0218 	add.w	r2, sl, #24
   87de0:	e7bf      	b.n	87d62 <_realloc_r+0x27a>
   87de2:	6922      	ldr	r2, [r4, #16]
   87de4:	f100 0318 	add.w	r3, r0, #24
   87de8:	6102      	str	r2, [r0, #16]
   87dea:	6961      	ldr	r1, [r4, #20]
   87dec:	f104 0218 	add.w	r2, r4, #24
   87df0:	6141      	str	r1, [r0, #20]
   87df2:	e6c0      	b.n	87b76 <_realloc_r+0x8e>
   87df4:	6922      	ldr	r2, [r4, #16]
   87df6:	f104 0018 	add.w	r0, r4, #24
   87dfa:	f8ca 2018 	str.w	r2, [sl, #24]
   87dfe:	6961      	ldr	r1, [r4, #20]
   87e00:	f10a 0220 	add.w	r2, sl, #32
   87e04:	f8ca 101c 	str.w	r1, [sl, #28]
   87e08:	e7ab      	b.n	87d62 <_realloc_r+0x27a>
   87e0a:	4621      	mov	r1, r4
   87e0c:	462a      	mov	r2, r5
   87e0e:	e782      	b.n	87d16 <_realloc_r+0x22e>
   87e10:	4621      	mov	r1, r4
   87e12:	4628      	mov	r0, r5
   87e14:	9301      	str	r3, [sp, #4]
   87e16:	f7ff fdf7 	bl	87a08 <memmove>
   87e1a:	9b01      	ldr	r3, [sp, #4]
   87e1c:	e781      	b.n	87d22 <_realloc_r+0x23a>
   87e1e:	68a1      	ldr	r1, [r4, #8]
   87e20:	2a24      	cmp	r2, #36	; 0x24
   87e22:	f8ca 1010 	str.w	r1, [sl, #16]
   87e26:	68e1      	ldr	r1, [r4, #12]
   87e28:	f8ca 1014 	str.w	r1, [sl, #20]
   87e2c:	d006      	beq.n	87e3c <_realloc_r+0x354>
   87e2e:	f104 0110 	add.w	r1, r4, #16
   87e32:	f10a 0218 	add.w	r2, sl, #24
   87e36:	e76e      	b.n	87d16 <_realloc_r+0x22e>
   87e38:	20070760 	.word	0x20070760
   87e3c:	6922      	ldr	r2, [r4, #16]
   87e3e:	f104 0118 	add.w	r1, r4, #24
   87e42:	f8ca 2018 	str.w	r2, [sl, #24]
   87e46:	6960      	ldr	r0, [r4, #20]
   87e48:	f10a 0220 	add.w	r2, sl, #32
   87e4c:	f8ca 001c 	str.w	r0, [sl, #28]
   87e50:	e761      	b.n	87d16 <_realloc_r+0x22e>
   87e52:	bf00      	nop

00087e54 <_sbrk_r>:
   87e54:	b538      	push	{r3, r4, r5, lr}
   87e56:	2300      	movs	r3, #0
   87e58:	4c06      	ldr	r4, [pc, #24]	; (87e74 <_sbrk_r+0x20>)
   87e5a:	4605      	mov	r5, r0
   87e5c:	4608      	mov	r0, r1
   87e5e:	6023      	str	r3, [r4, #0]
   87e60:	f7fc f954 	bl	8410c <_sbrk>
   87e64:	1c43      	adds	r3, r0, #1
   87e66:	d000      	beq.n	87e6a <_sbrk_r+0x16>
   87e68:	bd38      	pop	{r3, r4, r5, pc}
   87e6a:	6823      	ldr	r3, [r4, #0]
   87e6c:	2b00      	cmp	r3, #0
   87e6e:	d0fb      	beq.n	87e68 <_sbrk_r+0x14>
   87e70:	602b      	str	r3, [r5, #0]
   87e72:	bd38      	pop	{r3, r4, r5, pc}
   87e74:	2007b0b4 	.word	0x2007b0b4

00087e78 <__sread>:
   87e78:	b510      	push	{r4, lr}
   87e7a:	460c      	mov	r4, r1
   87e7c:	f9b1 100e 	ldrsh.w	r1, [r1, #14]
   87e80:	f000 f9f4 	bl	8826c <_read_r>
   87e84:	2800      	cmp	r0, #0
   87e86:	db03      	blt.n	87e90 <__sread+0x18>
   87e88:	6d23      	ldr	r3, [r4, #80]	; 0x50
   87e8a:	4403      	add	r3, r0
   87e8c:	6523      	str	r3, [r4, #80]	; 0x50
   87e8e:	bd10      	pop	{r4, pc}
   87e90:	89a3      	ldrh	r3, [r4, #12]
   87e92:	f423 5380 	bic.w	r3, r3, #4096	; 0x1000
   87e96:	81a3      	strh	r3, [r4, #12]
   87e98:	bd10      	pop	{r4, pc}
   87e9a:	bf00      	nop

00087e9c <__swrite>:
   87e9c:	e92d 41f0 	stmdb	sp!, {r4, r5, r6, r7, r8, lr}
   87ea0:	460c      	mov	r4, r1
   87ea2:	f9b1 100c 	ldrsh.w	r1, [r1, #12]
   87ea6:	461f      	mov	r7, r3
   87ea8:	05cb      	lsls	r3, r1, #23
   87eaa:	4616      	mov	r6, r2
   87eac:	4605      	mov	r5, r0
   87eae:	d507      	bpl.n	87ec0 <__swrite+0x24>
   87eb0:	f9b4 100e 	ldrsh.w	r1, [r4, #14]
   87eb4:	2302      	movs	r3, #2
   87eb6:	2200      	movs	r2, #0
   87eb8:	f000 f9c2 	bl	88240 <_lseek_r>
   87ebc:	f9b4 100c 	ldrsh.w	r1, [r4, #12]
   87ec0:	f421 5180 	bic.w	r1, r1, #4096	; 0x1000
   87ec4:	81a1      	strh	r1, [r4, #12]
   87ec6:	463b      	mov	r3, r7
   87ec8:	4632      	mov	r2, r6
   87eca:	f9b4 100e 	ldrsh.w	r1, [r4, #14]
   87ece:	4628      	mov	r0, r5
   87ed0:	e8bd 41f0 	ldmia.w	sp!, {r4, r5, r6, r7, r8, lr}
   87ed4:	f000 b8a2 	b.w	8801c <_write_r>

00087ed8 <__sseek>:
   87ed8:	b510      	push	{r4, lr}
   87eda:	460c      	mov	r4, r1
   87edc:	f9b1 100e 	ldrsh.w	r1, [r1, #14]
   87ee0:	f000 f9ae 	bl	88240 <_lseek_r>
   87ee4:	89a3      	ldrh	r3, [r4, #12]
   87ee6:	1c42      	adds	r2, r0, #1
   87ee8:	bf0e      	itee	eq
   87eea:	f423 5380 	biceq.w	r3, r3, #4096	; 0x1000
   87eee:	f443 5380 	orrne.w	r3, r3, #4096	; 0x1000
   87ef2:	6520      	strne	r0, [r4, #80]	; 0x50
   87ef4:	81a3      	strh	r3, [r4, #12]
   87ef6:	bd10      	pop	{r4, pc}

00087ef8 <__sclose>:
   87ef8:	f9b1 100e 	ldrsh.w	r1, [r1, #14]
   87efc:	f000 b906 	b.w	8810c <_close_r>

00087f00 <__swbuf_r>:
   87f00:	b5f8      	push	{r3, r4, r5, r6, r7, lr}
   87f02:	460d      	mov	r5, r1
   87f04:	4614      	mov	r4, r2
   87f06:	4606      	mov	r6, r0
   87f08:	b110      	cbz	r0, 87f10 <__swbuf_r+0x10>
   87f0a:	6b83      	ldr	r3, [r0, #56]	; 0x38
   87f0c:	2b00      	cmp	r3, #0
   87f0e:	d04b      	beq.n	87fa8 <__swbuf_r+0xa8>
   87f10:	f9b4 200c 	ldrsh.w	r2, [r4, #12]
   87f14:	69a3      	ldr	r3, [r4, #24]
   87f16:	b291      	uxth	r1, r2
   87f18:	0708      	lsls	r0, r1, #28
   87f1a:	60a3      	str	r3, [r4, #8]
   87f1c:	d539      	bpl.n	87f92 <__swbuf_r+0x92>
   87f1e:	6923      	ldr	r3, [r4, #16]
   87f20:	2b00      	cmp	r3, #0
   87f22:	d036      	beq.n	87f92 <__swbuf_r+0x92>
   87f24:	b2ed      	uxtb	r5, r5
   87f26:	0489      	lsls	r1, r1, #18
   87f28:	462f      	mov	r7, r5
   87f2a:	d515      	bpl.n	87f58 <__swbuf_r+0x58>
   87f2c:	6822      	ldr	r2, [r4, #0]
   87f2e:	6961      	ldr	r1, [r4, #20]
   87f30:	1ad3      	subs	r3, r2, r3
   87f32:	428b      	cmp	r3, r1
   87f34:	da1c      	bge.n	87f70 <__swbuf_r+0x70>
   87f36:	3301      	adds	r3, #1
   87f38:	68a1      	ldr	r1, [r4, #8]
   87f3a:	1c50      	adds	r0, r2, #1
   87f3c:	3901      	subs	r1, #1
   87f3e:	60a1      	str	r1, [r4, #8]
   87f40:	6020      	str	r0, [r4, #0]
   87f42:	7015      	strb	r5, [r2, #0]
   87f44:	6962      	ldr	r2, [r4, #20]
   87f46:	429a      	cmp	r2, r3
   87f48:	d01a      	beq.n	87f80 <__swbuf_r+0x80>
   87f4a:	89a3      	ldrh	r3, [r4, #12]
   87f4c:	07db      	lsls	r3, r3, #31
   87f4e:	d501      	bpl.n	87f54 <__swbuf_r+0x54>
   87f50:	2d0a      	cmp	r5, #10
   87f52:	d015      	beq.n	87f80 <__swbuf_r+0x80>
   87f54:	4638      	mov	r0, r7
   87f56:	bdf8      	pop	{r3, r4, r5, r6, r7, pc}
   87f58:	6e61      	ldr	r1, [r4, #100]	; 0x64
   87f5a:	f442 5200 	orr.w	r2, r2, #8192	; 0x2000
   87f5e:	f421 5100 	bic.w	r1, r1, #8192	; 0x2000
   87f62:	81a2      	strh	r2, [r4, #12]
   87f64:	6822      	ldr	r2, [r4, #0]
   87f66:	6661      	str	r1, [r4, #100]	; 0x64
   87f68:	6961      	ldr	r1, [r4, #20]
   87f6a:	1ad3      	subs	r3, r2, r3
   87f6c:	428b      	cmp	r3, r1
   87f6e:	dbe2      	blt.n	87f36 <__swbuf_r+0x36>
   87f70:	4621      	mov	r1, r4
   87f72:	4630      	mov	r0, r6
   87f74:	f7fe fdae 	bl	86ad4 <_fflush_r>
   87f78:	b940      	cbnz	r0, 87f8c <__swbuf_r+0x8c>
   87f7a:	2301      	movs	r3, #1
   87f7c:	6822      	ldr	r2, [r4, #0]
   87f7e:	e7db      	b.n	87f38 <__swbuf_r+0x38>
   87f80:	4621      	mov	r1, r4
   87f82:	4630      	mov	r0, r6
   87f84:	f7fe fda6 	bl	86ad4 <_fflush_r>
   87f88:	2800      	cmp	r0, #0
   87f8a:	d0e3      	beq.n	87f54 <__swbuf_r+0x54>
   87f8c:	f04f 37ff 	mov.w	r7, #4294967295
   87f90:	e7e0      	b.n	87f54 <__swbuf_r+0x54>
   87f92:	4621      	mov	r1, r4
   87f94:	4630      	mov	r0, r6
   87f96:	f7fe fc8d 	bl	868b4 <__swsetup_r>
   87f9a:	2800      	cmp	r0, #0
   87f9c:	d1f6      	bne.n	87f8c <__swbuf_r+0x8c>
   87f9e:	f9b4 200c 	ldrsh.w	r2, [r4, #12]
   87fa2:	6923      	ldr	r3, [r4, #16]
   87fa4:	b291      	uxth	r1, r2
   87fa6:	e7bd      	b.n	87f24 <__swbuf_r+0x24>
   87fa8:	f7fe fdec 	bl	86b84 <__sinit>
   87fac:	e7b0      	b.n	87f10 <__swbuf_r+0x10>
   87fae:	bf00      	nop

00087fb0 <_wcrtomb_r>:
   87fb0:	b5f0      	push	{r4, r5, r6, r7, lr}
   87fb2:	4606      	mov	r6, r0
   87fb4:	b085      	sub	sp, #20
   87fb6:	461f      	mov	r7, r3
   87fb8:	b189      	cbz	r1, 87fde <_wcrtomb_r+0x2e>
   87fba:	4c10      	ldr	r4, [pc, #64]	; (87ffc <_wcrtomb_r+0x4c>)
   87fbc:	4d10      	ldr	r5, [pc, #64]	; (88000 <_wcrtomb_r+0x50>)
   87fbe:	6824      	ldr	r4, [r4, #0]
   87fc0:	6b64      	ldr	r4, [r4, #52]	; 0x34
   87fc2:	2c00      	cmp	r4, #0
   87fc4:	bf08      	it	eq
   87fc6:	462c      	moveq	r4, r5
   87fc8:	f8d4 40e0 	ldr.w	r4, [r4, #224]	; 0xe0
   87fcc:	47a0      	blx	r4
   87fce:	1c43      	adds	r3, r0, #1
   87fd0:	d103      	bne.n	87fda <_wcrtomb_r+0x2a>
   87fd2:	2200      	movs	r2, #0
   87fd4:	238a      	movs	r3, #138	; 0x8a
   87fd6:	603a      	str	r2, [r7, #0]
   87fd8:	6033      	str	r3, [r6, #0]
   87fda:	b005      	add	sp, #20
   87fdc:	bdf0      	pop	{r4, r5, r6, r7, pc}
   87fde:	460c      	mov	r4, r1
   87fe0:	4a06      	ldr	r2, [pc, #24]	; (87ffc <_wcrtomb_r+0x4c>)
   87fe2:	4d07      	ldr	r5, [pc, #28]	; (88000 <_wcrtomb_r+0x50>)
   87fe4:	6811      	ldr	r1, [r2, #0]
   87fe6:	4622      	mov	r2, r4
   87fe8:	6b4c      	ldr	r4, [r1, #52]	; 0x34
   87fea:	a901      	add	r1, sp, #4
   87fec:	2c00      	cmp	r4, #0
   87fee:	bf08      	it	eq
   87ff0:	462c      	moveq	r4, r5
   87ff2:	f8d4 40e0 	ldr.w	r4, [r4, #224]	; 0xe0
   87ff6:	47a0      	blx	r4
   87ff8:	e7e9      	b.n	87fce <_wcrtomb_r+0x1e>
   87ffa:	bf00      	nop
   87ffc:	200701c0 	.word	0x200701c0
   88000:	200705f4 	.word	0x200705f4

00088004 <__ascii_wctomb>:
   88004:	b119      	cbz	r1, 8800e <__ascii_wctomb+0xa>
   88006:	2aff      	cmp	r2, #255	; 0xff
   88008:	d803      	bhi.n	88012 <__ascii_wctomb+0xe>
   8800a:	700a      	strb	r2, [r1, #0]
   8800c:	2101      	movs	r1, #1
   8800e:	4608      	mov	r0, r1
   88010:	4770      	bx	lr
   88012:	238a      	movs	r3, #138	; 0x8a
   88014:	f04f 31ff 	mov.w	r1, #4294967295
   88018:	6003      	str	r3, [r0, #0]
   8801a:	e7f8      	b.n	8800e <__ascii_wctomb+0xa>

0008801c <_write_r>:
   8801c:	b5f8      	push	{r3, r4, r5, r6, r7, lr}
   8801e:	460e      	mov	r6, r1
   88020:	2500      	movs	r5, #0
   88022:	4c08      	ldr	r4, [pc, #32]	; (88044 <_write_r+0x28>)
   88024:	4611      	mov	r1, r2
   88026:	4607      	mov	r7, r0
   88028:	461a      	mov	r2, r3
   8802a:	4630      	mov	r0, r6
   8802c:	6025      	str	r5, [r4, #0]
   8802e:	f7f9 ff47 	bl	81ec0 <_write>
   88032:	1c43      	adds	r3, r0, #1
   88034:	d000      	beq.n	88038 <_write_r+0x1c>
   88036:	bdf8      	pop	{r3, r4, r5, r6, r7, pc}
   88038:	6823      	ldr	r3, [r4, #0]
   8803a:	2b00      	cmp	r3, #0
   8803c:	d0fb      	beq.n	88036 <_write_r+0x1a>
   8803e:	603b      	str	r3, [r7, #0]
   88040:	bdf8      	pop	{r3, r4, r5, r6, r7, pc}
   88042:	bf00      	nop
   88044:	2007b0b4 	.word	0x2007b0b4

00088048 <__register_exitproc>:
   88048:	e92d 43f8 	stmdb	sp!, {r3, r4, r5, r6, r7, r8, r9, lr}
   8804c:	4d2c      	ldr	r5, [pc, #176]	; (88100 <__register_exitproc+0xb8>)
   8804e:	4606      	mov	r6, r0
   88050:	6828      	ldr	r0, [r5, #0]
   88052:	4698      	mov	r8, r3
   88054:	460f      	mov	r7, r1
   88056:	4691      	mov	r9, r2
   88058:	f7ff f954 	bl	87304 <__retarget_lock_acquire_recursive>
   8805c:	4b29      	ldr	r3, [pc, #164]	; (88104 <__register_exitproc+0xbc>)
   8805e:	681c      	ldr	r4, [r3, #0]
   88060:	f8d4 3148 	ldr.w	r3, [r4, #328]	; 0x148
   88064:	2b00      	cmp	r3, #0
   88066:	d03e      	beq.n	880e6 <__register_exitproc+0x9e>
   88068:	685a      	ldr	r2, [r3, #4]
   8806a:	2a1f      	cmp	r2, #31
   8806c:	dc1c      	bgt.n	880a8 <__register_exitproc+0x60>
   8806e:	f102 0e01 	add.w	lr, r2, #1
   88072:	b176      	cbz	r6, 88092 <__register_exitproc+0x4a>
   88074:	2101      	movs	r1, #1
   88076:	eb03 0482 	add.w	r4, r3, r2, lsl #2
   8807a:	f8c4 9088 	str.w	r9, [r4, #136]	; 0x88
   8807e:	f8d3 0188 	ldr.w	r0, [r3, #392]	; 0x188
   88082:	4091      	lsls	r1, r2
   88084:	4308      	orrs	r0, r1
   88086:	2e02      	cmp	r6, #2
   88088:	f8c3 0188 	str.w	r0, [r3, #392]	; 0x188
   8808c:	f8c4 8108 	str.w	r8, [r4, #264]	; 0x108
   88090:	d023      	beq.n	880da <__register_exitproc+0x92>
   88092:	3202      	adds	r2, #2
   88094:	f8c3 e004 	str.w	lr, [r3, #4]
   88098:	6828      	ldr	r0, [r5, #0]
   8809a:	f843 7022 	str.w	r7, [r3, r2, lsl #2]
   8809e:	f7ff f933 	bl	87308 <__retarget_lock_release_recursive>
   880a2:	2000      	movs	r0, #0
   880a4:	e8bd 83f8 	ldmia.w	sp!, {r3, r4, r5, r6, r7, r8, r9, pc}
   880a8:	4b17      	ldr	r3, [pc, #92]	; (88108 <__register_exitproc+0xc0>)
   880aa:	b30b      	cbz	r3, 880f0 <__register_exitproc+0xa8>
   880ac:	f44f 70c8 	mov.w	r0, #400	; 0x190
   880b0:	f7ff f9a4 	bl	873fc <malloc>
   880b4:	4603      	mov	r3, r0
   880b6:	b1d8      	cbz	r0, 880f0 <__register_exitproc+0xa8>
   880b8:	2000      	movs	r0, #0
   880ba:	f8d4 1148 	ldr.w	r1, [r4, #328]	; 0x148
   880be:	f04f 0e01 	mov.w	lr, #1
   880c2:	6058      	str	r0, [r3, #4]
   880c4:	6019      	str	r1, [r3, #0]
   880c6:	4602      	mov	r2, r0
   880c8:	f8c4 3148 	str.w	r3, [r4, #328]	; 0x148
   880cc:	f8c3 0188 	str.w	r0, [r3, #392]	; 0x188
   880d0:	f8c3 018c 	str.w	r0, [r3, #396]	; 0x18c
   880d4:	2e00      	cmp	r6, #0
   880d6:	d0dc      	beq.n	88092 <__register_exitproc+0x4a>
   880d8:	e7cc      	b.n	88074 <__register_exitproc+0x2c>
   880da:	f8d3 018c 	ldr.w	r0, [r3, #396]	; 0x18c
   880de:	4301      	orrs	r1, r0
   880e0:	f8c3 118c 	str.w	r1, [r3, #396]	; 0x18c
   880e4:	e7d5      	b.n	88092 <__register_exitproc+0x4a>
   880e6:	f504 73a6 	add.w	r3, r4, #332	; 0x14c
   880ea:	f8c4 3148 	str.w	r3, [r4, #328]	; 0x148
   880ee:	e7bb      	b.n	88068 <__register_exitproc+0x20>
   880f0:	6828      	ldr	r0, [r5, #0]
   880f2:	f7ff f909 	bl	87308 <__retarget_lock_release_recursive>
   880f6:	f04f 30ff 	mov.w	r0, #4294967295
   880fa:	e8bd 83f8 	ldmia.w	sp!, {r3, r4, r5, r6, r7, r8, r9, pc}
   880fe:	bf00      	nop
   88100:	200705f0 	.word	0x200705f0
   88104:	00088a58 	.word	0x00088a58
   88108:	000873fd 	.word	0x000873fd

0008810c <_close_r>:
   8810c:	b538      	push	{r3, r4, r5, lr}
   8810e:	2300      	movs	r3, #0
   88110:	4c06      	ldr	r4, [pc, #24]	; (8812c <_close_r+0x20>)
   88112:	4605      	mov	r5, r0
   88114:	4608      	mov	r0, r1
   88116:	6023      	str	r3, [r4, #0]
   88118:	f7fc f814 	bl	84144 <_close>
   8811c:	1c43      	adds	r3, r0, #1
   8811e:	d000      	beq.n	88122 <_close_r+0x16>
   88120:	bd38      	pop	{r3, r4, r5, pc}
   88122:	6823      	ldr	r3, [r4, #0]
   88124:	2b00      	cmp	r3, #0
   88126:	d0fb      	beq.n	88120 <_close_r+0x14>
   88128:	602b      	str	r3, [r5, #0]
   8812a:	bd38      	pop	{r3, r4, r5, pc}
   8812c:	2007b0b4 	.word	0x2007b0b4

00088130 <_fclose_r>:
   88130:	b570      	push	{r4, r5, r6, lr}
   88132:	b159      	cbz	r1, 8814c <_fclose_r+0x1c>
   88134:	4605      	mov	r5, r0
   88136:	460c      	mov	r4, r1
   88138:	b110      	cbz	r0, 88140 <_fclose_r+0x10>
   8813a:	6b83      	ldr	r3, [r0, #56]	; 0x38
   8813c:	2b00      	cmp	r3, #0
   8813e:	d03c      	beq.n	881ba <_fclose_r+0x8a>
   88140:	6e63      	ldr	r3, [r4, #100]	; 0x64
   88142:	07d8      	lsls	r0, r3, #31
   88144:	d505      	bpl.n	88152 <_fclose_r+0x22>
   88146:	f9b4 300c 	ldrsh.w	r3, [r4, #12]
   8814a:	b92b      	cbnz	r3, 88158 <_fclose_r+0x28>
   8814c:	2600      	movs	r6, #0
   8814e:	4630      	mov	r0, r6
   88150:	bd70      	pop	{r4, r5, r6, pc}
   88152:	89a3      	ldrh	r3, [r4, #12]
   88154:	0599      	lsls	r1, r3, #22
   88156:	d53c      	bpl.n	881d2 <_fclose_r+0xa2>
   88158:	4621      	mov	r1, r4
   8815a:	4628      	mov	r0, r5
   8815c:	f7fe fc1e 	bl	8699c <__sflush_r>
   88160:	6ae3      	ldr	r3, [r4, #44]	; 0x2c
   88162:	4606      	mov	r6, r0
   88164:	b133      	cbz	r3, 88174 <_fclose_r+0x44>
   88166:	69e1      	ldr	r1, [r4, #28]
   88168:	4628      	mov	r0, r5
   8816a:	4798      	blx	r3
   8816c:	2800      	cmp	r0, #0
   8816e:	bfb8      	it	lt
   88170:	f04f 36ff 	movlt.w	r6, #4294967295
   88174:	89a3      	ldrh	r3, [r4, #12]
   88176:	061a      	lsls	r2, r3, #24
   88178:	d422      	bmi.n	881c0 <_fclose_r+0x90>
   8817a:	6b21      	ldr	r1, [r4, #48]	; 0x30
   8817c:	b141      	cbz	r1, 88190 <_fclose_r+0x60>
   8817e:	f104 0340 	add.w	r3, r4, #64	; 0x40
   88182:	4299      	cmp	r1, r3
   88184:	d002      	beq.n	8818c <_fclose_r+0x5c>
   88186:	4628      	mov	r0, r5
   88188:	f7fe fe22 	bl	86dd0 <_free_r>
   8818c:	2300      	movs	r3, #0
   8818e:	6323      	str	r3, [r4, #48]	; 0x30
   88190:	6c61      	ldr	r1, [r4, #68]	; 0x44
   88192:	b121      	cbz	r1, 8819e <_fclose_r+0x6e>
   88194:	4628      	mov	r0, r5
   88196:	f7fe fe1b 	bl	86dd0 <_free_r>
   8819a:	2300      	movs	r3, #0
   8819c:	6463      	str	r3, [r4, #68]	; 0x44
   8819e:	f7fe fd21 	bl	86be4 <__sfp_lock_acquire>
   881a2:	2200      	movs	r2, #0
   881a4:	6e63      	ldr	r3, [r4, #100]	; 0x64
   881a6:	81a2      	strh	r2, [r4, #12]
   881a8:	07db      	lsls	r3, r3, #31
   881aa:	d50e      	bpl.n	881ca <_fclose_r+0x9a>
   881ac:	6da0      	ldr	r0, [r4, #88]	; 0x58
   881ae:	f7ff f8a7 	bl	87300 <__retarget_lock_close_recursive>
   881b2:	f7fe fd1d 	bl	86bf0 <__sfp_lock_release>
   881b6:	4630      	mov	r0, r6
   881b8:	bd70      	pop	{r4, r5, r6, pc}
   881ba:	f7fe fce3 	bl	86b84 <__sinit>
   881be:	e7bf      	b.n	88140 <_fclose_r+0x10>
   881c0:	6921      	ldr	r1, [r4, #16]
   881c2:	4628      	mov	r0, r5
   881c4:	f7fe fe04 	bl	86dd0 <_free_r>
   881c8:	e7d7      	b.n	8817a <_fclose_r+0x4a>
   881ca:	6da0      	ldr	r0, [r4, #88]	; 0x58
   881cc:	f7ff f89c 	bl	87308 <__retarget_lock_release_recursive>
   881d0:	e7ec      	b.n	881ac <_fclose_r+0x7c>
   881d2:	6da0      	ldr	r0, [r4, #88]	; 0x58
   881d4:	f7ff f896 	bl	87304 <__retarget_lock_acquire_recursive>
   881d8:	f9b4 300c 	ldrsh.w	r3, [r4, #12]
   881dc:	2b00      	cmp	r3, #0
   881de:	d1bb      	bne.n	88158 <_fclose_r+0x28>
   881e0:	6e66      	ldr	r6, [r4, #100]	; 0x64
   881e2:	f016 0601 	ands.w	r6, r6, #1
   881e6:	d1b1      	bne.n	8814c <_fclose_r+0x1c>
   881e8:	6da0      	ldr	r0, [r4, #88]	; 0x58
   881ea:	f7ff f88d 	bl	87308 <__retarget_lock_release_recursive>
   881ee:	4630      	mov	r0, r6
   881f0:	bd70      	pop	{r4, r5, r6, pc}
   881f2:	bf00      	nop

000881f4 <_fstat_r>:
   881f4:	b570      	push	{r4, r5, r6, lr}
   881f6:	460d      	mov	r5, r1
   881f8:	2300      	movs	r3, #0
   881fa:	4c07      	ldr	r4, [pc, #28]	; (88218 <_fstat_r+0x24>)
   881fc:	4606      	mov	r6, r0
   881fe:	4611      	mov	r1, r2
   88200:	4628      	mov	r0, r5
   88202:	6023      	str	r3, [r4, #0]
   88204:	f7fb ffa1 	bl	8414a <_fstat>
   88208:	1c43      	adds	r3, r0, #1
   8820a:	d000      	beq.n	8820e <_fstat_r+0x1a>
   8820c:	bd70      	pop	{r4, r5, r6, pc}
   8820e:	6823      	ldr	r3, [r4, #0]
   88210:	2b00      	cmp	r3, #0
   88212:	d0fb      	beq.n	8820c <_fstat_r+0x18>
   88214:	6033      	str	r3, [r6, #0]
   88216:	bd70      	pop	{r4, r5, r6, pc}
   88218:	2007b0b4 	.word	0x2007b0b4

0008821c <_isatty_r>:
   8821c:	b538      	push	{r3, r4, r5, lr}
   8821e:	2300      	movs	r3, #0
   88220:	4c06      	ldr	r4, [pc, #24]	; (8823c <_isatty_r+0x20>)
   88222:	4605      	mov	r5, r0
   88224:	4608      	mov	r0, r1
   88226:	6023      	str	r3, [r4, #0]
   88228:	f7fb ff94 	bl	84154 <_isatty>
   8822c:	1c43      	adds	r3, r0, #1
   8822e:	d000      	beq.n	88232 <_isatty_r+0x16>
   88230:	bd38      	pop	{r3, r4, r5, pc}
   88232:	6823      	ldr	r3, [r4, #0]
   88234:	2b00      	cmp	r3, #0
   88236:	d0fb      	beq.n	88230 <_isatty_r+0x14>
   88238:	602b      	str	r3, [r5, #0]
   8823a:	bd38      	pop	{r3, r4, r5, pc}
   8823c:	2007b0b4 	.word	0x2007b0b4

00088240 <_lseek_r>:
   88240:	b5f8      	push	{r3, r4, r5, r6, r7, lr}
   88242:	460e      	mov	r6, r1
   88244:	2500      	movs	r5, #0
   88246:	4c08      	ldr	r4, [pc, #32]	; (88268 <_lseek_r+0x28>)
   88248:	4611      	mov	r1, r2
   8824a:	4607      	mov	r7, r0
   8824c:	461a      	mov	r2, r3
   8824e:	4630      	mov	r0, r6
   88250:	6025      	str	r5, [r4, #0]
   88252:	f7fb ff81 	bl	84158 <_lseek>
   88256:	1c43      	adds	r3, r0, #1
   88258:	d000      	beq.n	8825c <_lseek_r+0x1c>
   8825a:	bdf8      	pop	{r3, r4, r5, r6, r7, pc}
   8825c:	6823      	ldr	r3, [r4, #0]
   8825e:	2b00      	cmp	r3, #0
   88260:	d0fb      	beq.n	8825a <_lseek_r+0x1a>
   88262:	603b      	str	r3, [r7, #0]
   88264:	bdf8      	pop	{r3, r4, r5, r6, r7, pc}
   88266:	bf00      	nop
   88268:	2007b0b4 	.word	0x2007b0b4

0008826c <_read_r>:
   8826c:	b5f8      	push	{r3, r4, r5, r6, r7, lr}
   8826e:	460e      	mov	r6, r1
   88270:	2500      	movs	r5, #0
   88272:	4c08      	ldr	r4, [pc, #32]	; (88294 <_read_r+0x28>)
   88274:	4611      	mov	r1, r2
   88276:	4607      	mov	r7, r0
   88278:	461a      	mov	r2, r3
   8827a:	4630      	mov	r0, r6
   8827c:	6025      	str	r5, [r4, #0]
   8827e:	f7f9 fe01 	bl	81e84 <_read>
   88282:	1c43      	adds	r3, r0, #1
   88284:	d000      	beq.n	88288 <_read_r+0x1c>
   88286:	bdf8      	pop	{r3, r4, r5, r6, r7, pc}
   88288:	6823      	ldr	r3, [r4, #0]
   8828a:	2b00      	cmp	r3, #0
   8828c:	d0fb      	beq.n	88286 <_read_r+0x1a>
   8828e:	603b      	str	r3, [r7, #0]
   88290:	bdf8      	pop	{r3, r4, r5, r6, r7, pc}
   88292:	bf00      	nop
   88294:	2007b0b4 	.word	0x2007b0b4

00088298 <__aeabi_uldivmod>:
   88298:	b953      	cbnz	r3, 882b0 <__aeabi_uldivmod+0x18>
   8829a:	b94a      	cbnz	r2, 882b0 <__aeabi_uldivmod+0x18>
   8829c:	2900      	cmp	r1, #0
   8829e:	bf08      	it	eq
   882a0:	2800      	cmpeq	r0, #0
   882a2:	bf1c      	itt	ne
   882a4:	f04f 31ff 	movne.w	r1, #4294967295
   882a8:	f04f 30ff 	movne.w	r0, #4294967295
   882ac:	f000 b97a 	b.w	885a4 <__aeabi_idiv0>
   882b0:	f1ad 0c08 	sub.w	ip, sp, #8
   882b4:	e96d ce04 	strd	ip, lr, [sp, #-16]!
   882b8:	f000 f806 	bl	882c8 <__udivmoddi4>
   882bc:	f8dd e004 	ldr.w	lr, [sp, #4]
   882c0:	e9dd 2302 	ldrd	r2, r3, [sp, #8]
   882c4:	b004      	add	sp, #16
   882c6:	4770      	bx	lr

000882c8 <__udivmoddi4>:
   882c8:	e92d 47f0 	stmdb	sp!, {r4, r5, r6, r7, r8, r9, sl, lr}
   882cc:	468c      	mov	ip, r1
   882ce:	460e      	mov	r6, r1
   882d0:	4604      	mov	r4, r0
   882d2:	9d08      	ldr	r5, [sp, #32]
   882d4:	2b00      	cmp	r3, #0
   882d6:	d150      	bne.n	8837a <__udivmoddi4+0xb2>
   882d8:	428a      	cmp	r2, r1
   882da:	4617      	mov	r7, r2
   882dc:	d96c      	bls.n	883b8 <__udivmoddi4+0xf0>
   882de:	fab2 fe82 	clz	lr, r2
   882e2:	f1be 0f00 	cmp.w	lr, #0
   882e6:	d00b      	beq.n	88300 <__udivmoddi4+0x38>
   882e8:	f1ce 0c20 	rsb	ip, lr, #32
   882ec:	fa01 f60e 	lsl.w	r6, r1, lr
   882f0:	fa20 fc0c 	lsr.w	ip, r0, ip
   882f4:	fa02 f70e 	lsl.w	r7, r2, lr
   882f8:	ea4c 0c06 	orr.w	ip, ip, r6
   882fc:	fa00 f40e 	lsl.w	r4, r0, lr
   88300:	0c3a      	lsrs	r2, r7, #16
   88302:	fbbc f9f2 	udiv	r9, ip, r2
   88306:	b2bb      	uxth	r3, r7
   88308:	fb02 cc19 	mls	ip, r2, r9, ip
   8830c:	fb09 fa03 	mul.w	sl, r9, r3
   88310:	ea4f 4814 	mov.w	r8, r4, lsr #16
   88314:	ea48 460c 	orr.w	r6, r8, ip, lsl #16
   88318:	45b2      	cmp	sl, r6
   8831a:	d90a      	bls.n	88332 <__udivmoddi4+0x6a>
   8831c:	19f6      	adds	r6, r6, r7
   8831e:	f109 31ff 	add.w	r1, r9, #4294967295
   88322:	f080 8125 	bcs.w	88570 <__udivmoddi4+0x2a8>
   88326:	45b2      	cmp	sl, r6
   88328:	f240 8122 	bls.w	88570 <__udivmoddi4+0x2a8>
   8832c:	f1a9 0902 	sub.w	r9, r9, #2
   88330:	443e      	add	r6, r7
   88332:	eba6 060a 	sub.w	r6, r6, sl
   88336:	fbb6 f0f2 	udiv	r0, r6, r2
   8833a:	fb02 6610 	mls	r6, r2, r0, r6
   8833e:	fb00 f303 	mul.w	r3, r0, r3
   88342:	b2a4      	uxth	r4, r4
   88344:	ea44 4406 	orr.w	r4, r4, r6, lsl #16
   88348:	42a3      	cmp	r3, r4
   8834a:	d909      	bls.n	88360 <__udivmoddi4+0x98>
   8834c:	19e4      	adds	r4, r4, r7
   8834e:	f100 32ff 	add.w	r2, r0, #4294967295
   88352:	f080 810b 	bcs.w	8856c <__udivmoddi4+0x2a4>
   88356:	42a3      	cmp	r3, r4
   88358:	f240 8108 	bls.w	8856c <__udivmoddi4+0x2a4>
   8835c:	3802      	subs	r0, #2
   8835e:	443c      	add	r4, r7
   88360:	2100      	movs	r1, #0
   88362:	1ae4      	subs	r4, r4, r3
   88364:	ea40 4009 	orr.w	r0, r0, r9, lsl #16
   88368:	2d00      	cmp	r5, #0
   8836a:	d062      	beq.n	88432 <__udivmoddi4+0x16a>
   8836c:	2300      	movs	r3, #0
   8836e:	fa24 f40e 	lsr.w	r4, r4, lr
   88372:	602c      	str	r4, [r5, #0]
   88374:	606b      	str	r3, [r5, #4]
   88376:	e8bd 87f0 	ldmia.w	sp!, {r4, r5, r6, r7, r8, r9, sl, pc}
   8837a:	428b      	cmp	r3, r1
   8837c:	d907      	bls.n	8838e <__udivmoddi4+0xc6>
   8837e:	2d00      	cmp	r5, #0
   88380:	d055      	beq.n	8842e <__udivmoddi4+0x166>
   88382:	2100      	movs	r1, #0
   88384:	e885 0041 	stmia.w	r5, {r0, r6}
   88388:	4608      	mov	r0, r1
   8838a:	e8bd 87f0 	ldmia.w	sp!, {r4, r5, r6, r7, r8, r9, sl, pc}
   8838e:	fab3 f183 	clz	r1, r3
   88392:	2900      	cmp	r1, #0
   88394:	f040 808f 	bne.w	884b6 <__udivmoddi4+0x1ee>
   88398:	42b3      	cmp	r3, r6
   8839a:	d302      	bcc.n	883a2 <__udivmoddi4+0xda>
   8839c:	4282      	cmp	r2, r0
   8839e:	f200 80fc 	bhi.w	8859a <__udivmoddi4+0x2d2>
   883a2:	1a84      	subs	r4, r0, r2
   883a4:	eb66 0603 	sbc.w	r6, r6, r3
   883a8:	2001      	movs	r0, #1
   883aa:	46b4      	mov	ip, r6
   883ac:	2d00      	cmp	r5, #0
   883ae:	d040      	beq.n	88432 <__udivmoddi4+0x16a>
   883b0:	e885 1010 	stmia.w	r5, {r4, ip}
   883b4:	e8bd 87f0 	ldmia.w	sp!, {r4, r5, r6, r7, r8, r9, sl, pc}
   883b8:	b912      	cbnz	r2, 883c0 <__udivmoddi4+0xf8>
   883ba:	2701      	movs	r7, #1
   883bc:	fbb7 f7f2 	udiv	r7, r7, r2
   883c0:	fab7 fe87 	clz	lr, r7
   883c4:	f1be 0f00 	cmp.w	lr, #0
   883c8:	d135      	bne.n	88436 <__udivmoddi4+0x16e>
   883ca:	2101      	movs	r1, #1
   883cc:	1bf6      	subs	r6, r6, r7
   883ce:	ea4f 4c17 	mov.w	ip, r7, lsr #16
   883d2:	fa1f f887 	uxth.w	r8, r7
   883d6:	fbb6 f2fc 	udiv	r2, r6, ip
   883da:	fb0c 6612 	mls	r6, ip, r2, r6
   883de:	fb08 f002 	mul.w	r0, r8, r2
   883e2:	0c23      	lsrs	r3, r4, #16
   883e4:	ea43 4606 	orr.w	r6, r3, r6, lsl #16
   883e8:	42b0      	cmp	r0, r6
   883ea:	d907      	bls.n	883fc <__udivmoddi4+0x134>
   883ec:	19f6      	adds	r6, r6, r7
   883ee:	f102 33ff 	add.w	r3, r2, #4294967295
   883f2:	d202      	bcs.n	883fa <__udivmoddi4+0x132>
   883f4:	42b0      	cmp	r0, r6
   883f6:	f200 80d2 	bhi.w	8859e <__udivmoddi4+0x2d6>
   883fa:	461a      	mov	r2, r3
   883fc:	1a36      	subs	r6, r6, r0
   883fe:	fbb6 f0fc 	udiv	r0, r6, ip
   88402:	fb0c 6610 	mls	r6, ip, r0, r6
   88406:	fb08 f800 	mul.w	r8, r8, r0
   8840a:	b2a3      	uxth	r3, r4
   8840c:	ea43 4406 	orr.w	r4, r3, r6, lsl #16
   88410:	45a0      	cmp	r8, r4
   88412:	d907      	bls.n	88424 <__udivmoddi4+0x15c>
   88414:	19e4      	adds	r4, r4, r7
   88416:	f100 33ff 	add.w	r3, r0, #4294967295
   8841a:	d202      	bcs.n	88422 <__udivmoddi4+0x15a>
   8841c:	45a0      	cmp	r8, r4
   8841e:	f200 80b9 	bhi.w	88594 <__udivmoddi4+0x2cc>
   88422:	4618      	mov	r0, r3
   88424:	eba4 0408 	sub.w	r4, r4, r8
   88428:	ea40 4002 	orr.w	r0, r0, r2, lsl #16
   8842c:	e79c      	b.n	88368 <__udivmoddi4+0xa0>
   8842e:	4629      	mov	r1, r5
   88430:	4628      	mov	r0, r5
   88432:	e8bd 87f0 	ldmia.w	sp!, {r4, r5, r6, r7, r8, r9, sl, pc}
   88436:	fa07 f70e 	lsl.w	r7, r7, lr
   8843a:	f1ce 0320 	rsb	r3, lr, #32
   8843e:	fa26 f203 	lsr.w	r2, r6, r3
   88442:	ea4f 4c17 	mov.w	ip, r7, lsr #16
   88446:	fbb2 f1fc 	udiv	r1, r2, ip
   8844a:	fa1f f887 	uxth.w	r8, r7
   8844e:	fb0c 2211 	mls	r2, ip, r1, r2
   88452:	fa06 f60e 	lsl.w	r6, r6, lr
   88456:	fa20 f303 	lsr.w	r3, r0, r3
   8845a:	fb01 f908 	mul.w	r9, r1, r8
   8845e:	4333      	orrs	r3, r6
   88460:	0c1e      	lsrs	r6, r3, #16
   88462:	ea46 4602 	orr.w	r6, r6, r2, lsl #16
   88466:	45b1      	cmp	r9, r6
   88468:	fa00 f40e 	lsl.w	r4, r0, lr
   8846c:	d909      	bls.n	88482 <__udivmoddi4+0x1ba>
   8846e:	19f6      	adds	r6, r6, r7
   88470:	f101 32ff 	add.w	r2, r1, #4294967295
   88474:	f080 808c 	bcs.w	88590 <__udivmoddi4+0x2c8>
   88478:	45b1      	cmp	r9, r6
   8847a:	f240 8089 	bls.w	88590 <__udivmoddi4+0x2c8>
   8847e:	3902      	subs	r1, #2
   88480:	443e      	add	r6, r7
   88482:	eba6 0609 	sub.w	r6, r6, r9
   88486:	fbb6 f0fc 	udiv	r0, r6, ip
   8848a:	fb0c 6210 	mls	r2, ip, r0, r6
   8848e:	fb00 f908 	mul.w	r9, r0, r8
   88492:	b29e      	uxth	r6, r3
   88494:	ea46 4602 	orr.w	r6, r6, r2, lsl #16
   88498:	45b1      	cmp	r9, r6
   8849a:	d907      	bls.n	884ac <__udivmoddi4+0x1e4>
   8849c:	19f6      	adds	r6, r6, r7
   8849e:	f100 33ff 	add.w	r3, r0, #4294967295
   884a2:	d271      	bcs.n	88588 <__udivmoddi4+0x2c0>
   884a4:	45b1      	cmp	r9, r6
   884a6:	d96f      	bls.n	88588 <__udivmoddi4+0x2c0>
   884a8:	3802      	subs	r0, #2
   884aa:	443e      	add	r6, r7
   884ac:	eba6 0609 	sub.w	r6, r6, r9
   884b0:	ea40 4101 	orr.w	r1, r0, r1, lsl #16
   884b4:	e78f      	b.n	883d6 <__udivmoddi4+0x10e>
   884b6:	f1c1 0720 	rsb	r7, r1, #32
   884ba:	fa22 f807 	lsr.w	r8, r2, r7
   884be:	408b      	lsls	r3, r1
   884c0:	ea48 0303 	orr.w	r3, r8, r3
   884c4:	fa26 f407 	lsr.w	r4, r6, r7
   884c8:	ea4f 4e13 	mov.w	lr, r3, lsr #16
   884cc:	fbb4 f9fe 	udiv	r9, r4, lr
   884d0:	fa1f fc83 	uxth.w	ip, r3
   884d4:	fb0e 4419 	mls	r4, lr, r9, r4
   884d8:	408e      	lsls	r6, r1
   884da:	fa20 f807 	lsr.w	r8, r0, r7
   884de:	fb09 fa0c 	mul.w	sl, r9, ip
   884e2:	ea48 0806 	orr.w	r8, r8, r6
   884e6:	ea4f 4618 	mov.w	r6, r8, lsr #16
   884ea:	ea46 4404 	orr.w	r4, r6, r4, lsl #16
   884ee:	45a2      	cmp	sl, r4
   884f0:	fa02 f201 	lsl.w	r2, r2, r1
   884f4:	fa00 f601 	lsl.w	r6, r0, r1
   884f8:	d908      	bls.n	8850c <__udivmoddi4+0x244>
   884fa:	18e4      	adds	r4, r4, r3
   884fc:	f109 30ff 	add.w	r0, r9, #4294967295
   88500:	d244      	bcs.n	8858c <__udivmoddi4+0x2c4>
   88502:	45a2      	cmp	sl, r4
   88504:	d942      	bls.n	8858c <__udivmoddi4+0x2c4>
   88506:	f1a9 0902 	sub.w	r9, r9, #2
   8850a:	441c      	add	r4, r3
   8850c:	eba4 040a 	sub.w	r4, r4, sl
   88510:	fbb4 f0fe 	udiv	r0, r4, lr
   88514:	fb0e 4410 	mls	r4, lr, r0, r4
   88518:	fb00 fc0c 	mul.w	ip, r0, ip
   8851c:	fa1f f888 	uxth.w	r8, r8
   88520:	ea48 4404 	orr.w	r4, r8, r4, lsl #16
   88524:	45a4      	cmp	ip, r4
   88526:	d907      	bls.n	88538 <__udivmoddi4+0x270>
   88528:	18e4      	adds	r4, r4, r3
   8852a:	f100 3eff 	add.w	lr, r0, #4294967295
   8852e:	d229      	bcs.n	88584 <__udivmoddi4+0x2bc>
   88530:	45a4      	cmp	ip, r4
   88532:	d927      	bls.n	88584 <__udivmoddi4+0x2bc>
   88534:	3802      	subs	r0, #2
   88536:	441c      	add	r4, r3
   88538:	ea40 4009 	orr.w	r0, r0, r9, lsl #16
   8853c:	fba0 8902 	umull	r8, r9, r0, r2
   88540:	eba4 0c0c 	sub.w	ip, r4, ip
   88544:	45cc      	cmp	ip, r9
   88546:	46c2      	mov	sl, r8
   88548:	46ce      	mov	lr, r9
   8854a:	d315      	bcc.n	88578 <__udivmoddi4+0x2b0>
   8854c:	d012      	beq.n	88574 <__udivmoddi4+0x2ac>
   8854e:	b155      	cbz	r5, 88566 <__udivmoddi4+0x29e>
   88550:	ebb6 030a 	subs.w	r3, r6, sl
   88554:	eb6c 060e 	sbc.w	r6, ip, lr
   88558:	fa06 f707 	lsl.w	r7, r6, r7
   8855c:	40cb      	lsrs	r3, r1
   8855e:	431f      	orrs	r7, r3
   88560:	40ce      	lsrs	r6, r1
   88562:	602f      	str	r7, [r5, #0]
   88564:	606e      	str	r6, [r5, #4]
   88566:	2100      	movs	r1, #0
   88568:	e8bd 87f0 	ldmia.w	sp!, {r4, r5, r6, r7, r8, r9, sl, pc}
   8856c:	4610      	mov	r0, r2
   8856e:	e6f7      	b.n	88360 <__udivmoddi4+0x98>
   88570:	4689      	mov	r9, r1
   88572:	e6de      	b.n	88332 <__udivmoddi4+0x6a>
   88574:	4546      	cmp	r6, r8
   88576:	d2ea      	bcs.n	8854e <__udivmoddi4+0x286>
   88578:	ebb8 0a02 	subs.w	sl, r8, r2
   8857c:	eb69 0e03 	sbc.w	lr, r9, r3
   88580:	3801      	subs	r0, #1
   88582:	e7e4      	b.n	8854e <__udivmoddi4+0x286>
   88584:	4670      	mov	r0, lr
   88586:	e7d7      	b.n	88538 <__udivmoddi4+0x270>
   88588:	4618      	mov	r0, r3
   8858a:	e78f      	b.n	884ac <__udivmoddi4+0x1e4>
   8858c:	4681      	mov	r9, r0
   8858e:	e7bd      	b.n	8850c <__udivmoddi4+0x244>
   88590:	4611      	mov	r1, r2
   88592:	e776      	b.n	88482 <__udivmoddi4+0x1ba>
   88594:	3802      	subs	r0, #2
   88596:	443c      	add	r4, r7
   88598:	e744      	b.n	88424 <__udivmoddi4+0x15c>
   8859a:	4608      	mov	r0, r1
   8859c:	e706      	b.n	883ac <__udivmoddi4+0xe4>
   8859e:	3a02      	subs	r2, #2
   885a0:	443e      	add	r6, r7
   885a2:	e72b      	b.n	883fc <__udivmoddi4+0x134>

000885a4 <__aeabi_idiv0>:
   885a4:	4770      	bx	lr
   885a6:	bf00      	nop
   885a8:	74736554 	.word	0x74736554
   885ac:	6972705f 	.word	0x6972705f
   885b0:	203a746e 	.word	0x203a746e
   885b4:	65736143 	.word	0x65736143
   885b8:	65205820 	.word	0x65205820
   885bc:	7265746e 	.word	0x7265746e
   885c0:	00006465 	.word	0x00006465
   885c4:	6f666562 	.word	0x6f666562
   885c8:	64206572 	.word	0x64206572
   885cc:	65766972 	.word	0x65766972
   885d0:	00000000 	.word	0x00000000
   885d4:	65746661 	.word	0x65746661
   885d8:	72642072 	.word	0x72642072
   885dc:	00657669 	.word	0x00657669
   885e0:	75746361 	.word	0x75746361
   885e4:	6f506c61 	.word	0x6f506c61
   885e8:	69746973 	.word	0x69746973
   885ec:	20586e6f 	.word	0x20586e6f
   885f0:	31204641 	.word	0x31204641
   885f4:	206d6330 	.word	0x206d6330
   885f8:	000a6925 	.word	0x000a6925
   885fc:	75746361 	.word	0x75746361
   88600:	6f506c61 	.word	0x6f506c61
   88604:	69746973 	.word	0x69746973
   88608:	20596e6f 	.word	0x20596e6f
   8860c:	31204641 	.word	0x31204641
   88610:	206d6330 	.word	0x206d6330
   88614:	000a6925 	.word	0x000a6925
   88618:	72617473 	.word	0x72617473
   8861c:	676e4174 	.word	0x676e4174
   88620:	2520656c 	.word	0x2520656c
   88624:	00000a69 	.word	0x00000a69
   88628:	74736554 	.word	0x74736554
   8862c:	6972705f 	.word	0x6972705f
   88630:	203a746e 	.word	0x203a746e
   88634:	65736143 	.word	0x65736143
   88638:	65203020 	.word	0x65203020
   8863c:	7265746e 	.word	0x7265746e
   88640:	000a6465 	.word	0x000a6465
   88644:	2d204343 	.word	0x2d204343
   88648:	6f726420 	.word	0x6f726420
   8864c:	66664f70 	.word	0x66664f70
   88650:	69736f50 	.word	0x69736f50
   88654:	6e6f6974 	.word	0x6e6f6974
   88658:	69252058 	.word	0x69252058
   8865c:	0000000a 	.word	0x0000000a
   88660:	2d204343 	.word	0x2d204343
   88664:	6f726420 	.word	0x6f726420
   88668:	66664f70 	.word	0x66664f70
   8866c:	69736f50 	.word	0x69736f50
   88670:	6e6f6974 	.word	0x6e6f6974
   88674:	69252059 	.word	0x69252059
   88678:	0000000a 	.word	0x0000000a
   8867c:	43435553 	.word	0x43435553
   88680:	3a535345 	.word	0x3a535345
   88684:	63657220 	.word	0x63657220
   88688:	65766965 	.word	0x65766965
   8868c:	6f632064 	.word	0x6f632064
   88690:	6964726f 	.word	0x6964726f
   88694:	6574616e 	.word	0x6574616e
   88698:	000a2173 	.word	0x000a2173
   8869c:	656a626f 	.word	0x656a626f
   886a0:	6f507463 	.word	0x6f507463
   886a4:	69746973 	.word	0x69746973
   886a8:	20586e6f 	.word	0x20586e6f
   886ac:	25204641 	.word	0x25204641
   886b0:	00000a69 	.word	0x00000a69
   886b4:	656a626f 	.word	0x656a626f
   886b8:	6f507463 	.word	0x6f507463
   886bc:	69746973 	.word	0x69746973
   886c0:	20596e6f 	.word	0x20596e6f
   886c4:	25204641 	.word	0x25204641
   886c8:	00000a69 	.word	0x00000a69
   886cc:	706f7264 	.word	0x706f7264
   886d0:	5066664f 	.word	0x5066664f
   886d4:	7469736f 	.word	0x7469736f
   886d8:	586e6f69 	.word	0x586e6f69
   886dc:	20464120 	.word	0x20464120
   886e0:	000a6925 	.word	0x000a6925
   886e4:	706f7264 	.word	0x706f7264
   886e8:	5066664f 	.word	0x5066664f
   886ec:	7469736f 	.word	0x7469736f
   886f0:	596e6f69 	.word	0x596e6f69
   886f4:	20464120 	.word	0x20464120
   886f8:	000a6925 	.word	0x000a6925
   886fc:	4f525245 	.word	0x4f525245
   88700:	4e203a52 	.word	0x4e203a52
   88704:	6f63206f 	.word	0x6f63206f
   88708:	6964726f 	.word	0x6964726f
   8870c:	6574616e 	.word	0x6574616e
   88710:	65722073 	.word	0x65722073
   88714:	76696563 	.word	0x76696563
   88718:	66206465 	.word	0x66206465
   8871c:	206d6f72 	.word	0x206d6f72
   88720:	4147454d 	.word	0x4147454d
   88724:	00000a21 	.word	0x00000a21
   88728:	74736554 	.word	0x74736554
   8872c:	6972705f 	.word	0x6972705f
   88730:	203a746e 	.word	0x203a746e
   88734:	65736143 	.word	0x65736143
   88738:	65203120 	.word	0x65203120
   8873c:	7265746e 	.word	0x7265746e
   88740:	000a6465 	.word	0x000a6465
   88744:	00006925 	.word	0x00006925
   88748:	00444e45 	.word	0x00444e45
   8874c:	74736554 	.word	0x74736554
   88750:	6972705f 	.word	0x6972705f
   88754:	203a746e 	.word	0x203a746e
   88758:	65736143 	.word	0x65736143
   8875c:	65203220 	.word	0x65203220
   88760:	7265746e 	.word	0x7265746e
   88764:	00006465 	.word	0x00006465
   88768:	74736554 	.word	0x74736554
   8876c:	6972705f 	.word	0x6972705f
   88770:	203a746e 	.word	0x203a746e
   88774:	65736143 	.word	0x65736143
   88778:	65203320 	.word	0x65203320
   8877c:	7265746e 	.word	0x7265746e
   88780:	000a6465 	.word	0x000a6465
   88784:	74736554 	.word	0x74736554
   88788:	6972705f 	.word	0x6972705f
   8878c:	203a746e 	.word	0x203a746e
   88790:	65736143 	.word	0x65736143
   88794:	65203420 	.word	0x65203420
   88798:	7265746e 	.word	0x7265746e
   8879c:	000a6465 	.word	0x000a6465
   887a0:	65736163 	.word	0x65736163
   887a4:	203a3320 	.word	0x203a3320
   887a8:	646e6573 	.word	0x646e6573
   887ac:	6361705f 	.word	0x6361705f
   887b0:	6567616b 	.word	0x6567616b
   887b4:	43555320 	.word	0x43555320
   887b8:	46534543 	.word	0x46534543
   887bc:	2e2e4c55 	.word	0x2e2e4c55
   887c0:	000a202e 	.word	0x000a202e
   887c4:	74736554 	.word	0x74736554
   887c8:	6972705f 	.word	0x6972705f
   887cc:	203a746e 	.word	0x203a746e
   887d0:	65736143 	.word	0x65736143
   887d4:	65203520 	.word	0x65203520
   887d8:	7265746e 	.word	0x7265746e
   887dc:	000a6465 	.word	0x000a6465
   887e0:	74736554 	.word	0x74736554
   887e4:	6972705f 	.word	0x6972705f
   887e8:	203a746e 	.word	0x203a746e
   887ec:	65736143 	.word	0x65736143
   887f0:	65203620 	.word	0x65203620
   887f4:	7265746e 	.word	0x7265746e
   887f8:	000a6465 	.word	0x000a6465
   887fc:	74736554 	.word	0x74736554
   88800:	6972705f 	.word	0x6972705f
   88804:	203a746e 	.word	0x203a746e
   88808:	65736143 	.word	0x65736143
   8880c:	65203720 	.word	0x65203720
   88810:	7265746e 	.word	0x7265746e
   88814:	000a6465 	.word	0x000a6465
   88818:	74736554 	.word	0x74736554
   8881c:	6972705f 	.word	0x6972705f
   88820:	203a746e 	.word	0x203a746e
   88824:	65736143 	.word	0x65736143
   88828:	65203820 	.word	0x65203820
   8882c:	7265746e 	.word	0x7265746e
   88830:	000a6465 	.word	0x000a6465
   88834:	69736e69 	.word	0x69736e69
   88838:	70206564 	.word	0x70206564
   8883c:	7469736f 	.word	0x7469736f
   88840:	206e6f69 	.word	0x206e6f69
   88844:	6b736174 	.word	0x6b736174
   88848:	00000000 	.word	0x00000000
   8884c:	4f525245 	.word	0x4f525245
   88850:	66203a52 	.word	0x66203a52
   88854:	656c6961 	.word	0x656c6961
   88858:	6f742064 	.word	0x6f742064
   8885c:	74656620 	.word	0x74656620
   88860:	70206863 	.word	0x70206863
   88864:	7469736f 	.word	0x7469736f
   88868:	206e6f69 	.word	0x206e6f69
   8886c:	61746164 	.word	0x61746164
   88870:	6f726620 	.word	0x6f726620
   88874:	454d206d 	.word	0x454d206d
   88878:	000a4147 	.word	0x000a4147
   8887c:	5245564f 	.word	0x5245564f
   88880:	52485420 	.word	0x52485420
   88884:	48204545 	.word	0x48204545
   88888:	52444e55 	.word	0x52444e55
   8888c:	000a4445 	.word	0x000a4445
   88890:	756c6176 	.word	0x756c6176
   88894:	203a7365 	.word	0x203a7365
   88898:	0a206925 	.word	0x0a206925
   8889c:	00000000 	.word	0x00000000
   888a0:	00000001 	.word	0x00000001
   888a4:	00000002 	.word	0x00000002
   888a8:	00000004 	.word	0x00000004
   888ac:	00000008 	.word	0x00000008
   888b0:	00000010 	.word	0x00000010
   888b4:	00000020 	.word	0x00000020
   888b8:	00000040 	.word	0x00000040
   888bc:	00000080 	.word	0x00000080
   888c0:	00000100 	.word	0x00000100
   888c4:	00000200 	.word	0x00000200
   888c8:	00000400 	.word	0x00000400
   888cc:	4f525245 	.word	0x4f525245
   888d0:	6d202152 	.word	0x6d202152
   888d4:	6c755063 	.word	0x6c755063
   888d8:	654c6573 	.word	0x654c6573
   888dc:	70207466 	.word	0x70207466
   888e0:	6d617261 	.word	0x6d617261
   888e4:	20736920 	.word	0x20736920
   888e8:	7265766f 	.word	0x7265766f
   888ec:	66656420 	.word	0x66656420
   888f0:	64656e69 	.word	0x64656e69
   888f4:	67656e20 	.word	0x67656e20
   888f8:	76697461 	.word	0x76697461
   888fc:	696c2065 	.word	0x696c2065
   88900:	0a74696d 	.word	0x0a74696d
   88904:	00000000 	.word	0x00000000
   88908:	4f525245 	.word	0x4f525245
   8890c:	6d202152 	.word	0x6d202152
   88910:	6c755063 	.word	0x6c755063
   88914:	654c6573 	.word	0x654c6573
   88918:	70207466 	.word	0x70207466
   8891c:	6d617261 	.word	0x6d617261
   88920:	20736920 	.word	0x20736920
   88924:	7265766f 	.word	0x7265766f
   88928:	66656420 	.word	0x66656420
   8892c:	64656e69 	.word	0x64656e69
   88930:	736f7020 	.word	0x736f7020
   88934:	76697469 	.word	0x76697469
   88938:	696c2065 	.word	0x696c2065
   8893c:	0a74696d 	.word	0x0a74696d
   88940:	00000000 	.word	0x00000000
   88944:	4f525245 	.word	0x4f525245
   88948:	6d202152 	.word	0x6d202152
   8894c:	6c755063 	.word	0x6c755063
   88950:	69526573 	.word	0x69526573
   88954:	20746867 	.word	0x20746867
   88958:	61726170 	.word	0x61726170
   8895c:	7369206d 	.word	0x7369206d
   88960:	65766f20 	.word	0x65766f20
   88964:	65642072 	.word	0x65642072
   88968:	656e6966 	.word	0x656e6966
   8896c:	656e2064 	.word	0x656e2064
   88970:	69746167 	.word	0x69746167
   88974:	6c206576 	.word	0x6c206576
   88978:	74696d69 	.word	0x74696d69
   8897c:	0000000a 	.word	0x0000000a
   88980:	4f525245 	.word	0x4f525245
   88984:	6d202152 	.word	0x6d202152
   88988:	6c755063 	.word	0x6c755063
   8898c:	69526573 	.word	0x69526573
   88990:	20746867 	.word	0x20746867
   88994:	61726170 	.word	0x61726170
   88998:	7369206d 	.word	0x7369206d
   8899c:	65766f20 	.word	0x65766f20
   889a0:	65642072 	.word	0x65642072
   889a4:	656e6966 	.word	0x656e6966
   889a8:	6f702064 	.word	0x6f702064
   889ac:	69746973 	.word	0x69746973
   889b0:	6c206576 	.word	0x6c206576
   889b4:	74696d69 	.word	0x74696d69
   889b8:	0000000a 	.word	0x0000000a
   889bc:	736e6f43 	.word	0x736e6f43
   889c0:	20656c6f 	.word	0x20656c6f
   889c4:	64616572 	.word	0x64616572
   889c8:	00000a79 	.word	0x00000a79
   889cc:	3d3d3d3d 	.word	0x3d3d3d3d
   889d0:	3d3d3d3d 	.word	0x3d3d3d3d
   889d4:	3d3d3d3d 	.word	0x3d3d3d3d
   889d8:	00000a3d 	.word	0x00000a3d
   889dc:	75676572 	.word	0x75676572
   889e0:	6f74616c 	.word	0x6f74616c
   889e4:	00000072 	.word	0x00000072
   889e8:	69736f70 	.word	0x69736f70
   889ec:	6e6f6974 	.word	0x6e6f6974
   889f0:	00000000 	.word	0x00000000
   889f4:	746e6f63 	.word	0x746e6f63
   889f8:	436c6f72 	.word	0x436c6f72
   889fc:	65746e65 	.word	0x65746e65
   88a00:	00000072 	.word	0x00000072
   88a04:	454c4449 	.word	0x454c4449
   88a08:	00000000 	.word	0x00000000
   88a0c:	20726d54 	.word	0x20726d54
   88a10:	00637653 	.word	0x00637653
   88a14:	00000000 	.word	0x00000000

00088a18 <atanhi>:
   88a18:	0561bb4f 3fddac67 54442d18 3fe921fb     O.a.g..?.-DT.!.?
   88a28:	d281f69b 3fef730b 54442d18 3ff921fb     .....s.?.-DT.!.?

00088a38 <atanlo>:
   88a38:	222f65e2 3c7a2b7f 33145c07 3c81a626     .e/".+z<.\.3&..<
   88a48:	7af0cbbd 3c700788 33145c07 3c91a626     ...z..p<.\.3&..<

00088a58 <_global_impure_ptr>:
   88a58:	200701c8 33323130 37363534 42413938     ... 0123456789AB
   88a68:	46454443 00000000 33323130 37363534     CDEF....01234567
   88a78:	62613938 66656463 00000000 6c756e28     89abcdef....(nul
   88a88:	0000296c                                l)..

00088a8c <blanks.7217>:
   88a8c:	20202020 20202020 20202020 20202020                     

00088a9c <zeroes.7218>:
   88a9c:	30303030 30303030 30303030 30303030     0000000000000000
   88aac:	00000043 49534f50 00000058 0000002e     C...POSIX.......

00088abc <_ctype_>:
   88abc:	20202000 20202020 28282020 20282828     .         ((((( 
   88acc:	20202020 20202020 20202020 20202020                     
   88adc:	10108820 10101010 10101010 10101010      ...............
   88aec:	04040410 04040404 10040404 10101010     ................
   88afc:	41411010 41414141 01010101 01010101     ..AAAAAA........
   88b0c:	01010101 01010101 01010101 10101010     ................
   88b1c:	42421010 42424242 02020202 02020202     ..BBBBBB........
   88b2c:	02020202 02020202 02020202 10101010     ................
   88b3c:	00000020 00000000 00000000 00000000      ...............
	...

00088bc0 <_init>:
   88bc0:	b5f8      	push	{r3, r4, r5, r6, r7, lr}
   88bc2:	bf00      	nop
   88bc4:	bcf8      	pop	{r3, r4, r5, r6, r7}
   88bc6:	bc08      	pop	{r3}
   88bc8:	469e      	mov	lr, r3
   88bca:	4770      	bx	lr

00088bcc <__init_array_start>:
   88bcc:	0008697d 	.word	0x0008697d

00088bd0 <__frame_dummy_init_array_entry>:
   88bd0:	00080119                                ....

00088bd4 <_fini>:
   88bd4:	b5f8      	push	{r3, r4, r5, r6, r7, lr}
   88bd6:	bf00      	nop
   88bd8:	bcf8      	pop	{r3, r4, r5, r6, r7}
   88bda:	bc08      	pop	{r3}
   88bdc:	469e      	mov	lr, r3
   88bde:	4770      	bx	lr

00088be0 <__fini_array_start>:
   88be0:	000800f5 	.word	0x000800f5

Disassembly of section .relocate:

20070000 <portable_delay_cycles>:
20070000:	f3bf 8f5f 	dmb	sy
20070004:	3801      	subs	r0, #1
20070006:	d1fb      	bne.n	20070000 <portable_delay_cycles>
20070008:	4770      	bx	lr
	...

2007000c <SystemInit>:
2007000c:	f44f 6380 	mov.w	r3, #1024	; 0x400
20070010:	4a20      	ldr	r2, [pc, #128]	; (20070094 <SystemInit+0x88>)
20070012:	6013      	str	r3, [r2, #0]
20070014:	f502 7200 	add.w	r2, r2, #512	; 0x200
20070018:	6013      	str	r3, [r2, #0]
2007001a:	4b1f      	ldr	r3, [pc, #124]	; (20070098 <SystemInit+0x8c>)
2007001c:	6a1b      	ldr	r3, [r3, #32]
2007001e:	f013 7f80 	tst.w	r3, #16777216	; 0x1000000
20070022:	d107      	bne.n	20070034 <SystemInit+0x28>
20070024:	4a1d      	ldr	r2, [pc, #116]	; (2007009c <SystemInit+0x90>)
20070026:	4b1c      	ldr	r3, [pc, #112]	; (20070098 <SystemInit+0x8c>)
20070028:	621a      	str	r2, [r3, #32]
2007002a:	461a      	mov	r2, r3
2007002c:	6e93      	ldr	r3, [r2, #104]	; 0x68
2007002e:	f013 0f01 	tst.w	r3, #1
20070032:	d0fb      	beq.n	2007002c <SystemInit+0x20>
20070034:	4a1a      	ldr	r2, [pc, #104]	; (200700a0 <SystemInit+0x94>)
20070036:	4b18      	ldr	r3, [pc, #96]	; (20070098 <SystemInit+0x8c>)
20070038:	621a      	str	r2, [r3, #32]
2007003a:	461a      	mov	r2, r3
2007003c:	6e93      	ldr	r3, [r2, #104]	; 0x68
2007003e:	f413 3f80 	tst.w	r3, #65536	; 0x10000
20070042:	d0fb      	beq.n	2007003c <SystemInit+0x30>
20070044:	4a14      	ldr	r2, [pc, #80]	; (20070098 <SystemInit+0x8c>)
20070046:	6b13      	ldr	r3, [r2, #48]	; 0x30
20070048:	f023 0303 	bic.w	r3, r3, #3
2007004c:	f043 0301 	orr.w	r3, r3, #1
20070050:	6313      	str	r3, [r2, #48]	; 0x30
20070052:	6e93      	ldr	r3, [r2, #104]	; 0x68
20070054:	f013 0f08 	tst.w	r3, #8
20070058:	d0fb      	beq.n	20070052 <SystemInit+0x46>
2007005a:	4a12      	ldr	r2, [pc, #72]	; (200700a4 <SystemInit+0x98>)
2007005c:	4b0e      	ldr	r3, [pc, #56]	; (20070098 <SystemInit+0x8c>)
2007005e:	629a      	str	r2, [r3, #40]	; 0x28
20070060:	461a      	mov	r2, r3
20070062:	6e93      	ldr	r3, [r2, #104]	; 0x68
20070064:	f013 0f02 	tst.w	r3, #2
20070068:	d0fb      	beq.n	20070062 <SystemInit+0x56>
2007006a:	2211      	movs	r2, #17
2007006c:	4b0a      	ldr	r3, [pc, #40]	; (20070098 <SystemInit+0x8c>)
2007006e:	631a      	str	r2, [r3, #48]	; 0x30
20070070:	461a      	mov	r2, r3
20070072:	6e93      	ldr	r3, [r2, #104]	; 0x68
20070074:	f013 0f08 	tst.w	r3, #8
20070078:	d0fb      	beq.n	20070072 <SystemInit+0x66>
2007007a:	2212      	movs	r2, #18
2007007c:	4b06      	ldr	r3, [pc, #24]	; (20070098 <SystemInit+0x8c>)
2007007e:	631a      	str	r2, [r3, #48]	; 0x30
20070080:	461a      	mov	r2, r3
20070082:	6e93      	ldr	r3, [r2, #104]	; 0x68
20070084:	f013 0f08 	tst.w	r3, #8
20070088:	d0fb      	beq.n	20070082 <SystemInit+0x76>
2007008a:	4a07      	ldr	r2, [pc, #28]	; (200700a8 <SystemInit+0x9c>)
2007008c:	4b07      	ldr	r3, [pc, #28]	; (200700ac <SystemInit+0xa0>)
2007008e:	601a      	str	r2, [r3, #0]
20070090:	4770      	bx	lr
20070092:	bf00      	nop
20070094:	400e0a00 	.word	0x400e0a00
20070098:	400e0600 	.word	0x400e0600
2007009c:	00370809 	.word	0x00370809
200700a0:	01370809 	.word	0x01370809
200700a4:	200d3f01 	.word	0x200d3f01
200700a8:	0501bd00 	.word	0x0501bd00
200700ac:	200701bc 	.word	0x200701bc

200700b0 <system_init_flash>:
200700b0:	4b1b      	ldr	r3, [pc, #108]	; (20070120 <system_init_flash+0x70>)
200700b2:	4298      	cmp	r0, r3
200700b4:	d915      	bls.n	200700e2 <system_init_flash+0x32>
200700b6:	4b1b      	ldr	r3, [pc, #108]	; (20070124 <system_init_flash+0x74>)
200700b8:	4298      	cmp	r0, r3
200700ba:	d919      	bls.n	200700f0 <system_init_flash+0x40>
200700bc:	4b1a      	ldr	r3, [pc, #104]	; (20070128 <system_init_flash+0x78>)
200700be:	4298      	cmp	r0, r3
200700c0:	d91e      	bls.n	20070100 <system_init_flash+0x50>
200700c2:	4b1a      	ldr	r3, [pc, #104]	; (2007012c <system_init_flash+0x7c>)
200700c4:	4298      	cmp	r0, r3
200700c6:	d923      	bls.n	20070110 <system_init_flash+0x60>
200700c8:	4b19      	ldr	r3, [pc, #100]	; (20070130 <system_init_flash+0x80>)
200700ca:	4298      	cmp	r0, r3
200700cc:	bf94      	ite	ls
200700ce:	f44f 6380 	movls.w	r3, #1024	; 0x400
200700d2:	f44f 63a0 	movhi.w	r3, #1280	; 0x500
200700d6:	4a17      	ldr	r2, [pc, #92]	; (20070134 <system_init_flash+0x84>)
200700d8:	6013      	str	r3, [r2, #0]
200700da:	f502 7200 	add.w	r2, r2, #512	; 0x200
200700de:	6013      	str	r3, [r2, #0]
200700e0:	4770      	bx	lr
200700e2:	2300      	movs	r3, #0
200700e4:	4a13      	ldr	r2, [pc, #76]	; (20070134 <system_init_flash+0x84>)
200700e6:	6013      	str	r3, [r2, #0]
200700e8:	f502 7200 	add.w	r2, r2, #512	; 0x200
200700ec:	6013      	str	r3, [r2, #0]
200700ee:	4770      	bx	lr
200700f0:	f44f 7380 	mov.w	r3, #256	; 0x100
200700f4:	4a0f      	ldr	r2, [pc, #60]	; (20070134 <system_init_flash+0x84>)
200700f6:	6013      	str	r3, [r2, #0]
200700f8:	f502 7200 	add.w	r2, r2, #512	; 0x200
200700fc:	6013      	str	r3, [r2, #0]
200700fe:	4770      	bx	lr
20070100:	f44f 7300 	mov.w	r3, #512	; 0x200
20070104:	4a0b      	ldr	r2, [pc, #44]	; (20070134 <system_init_flash+0x84>)
20070106:	6013      	str	r3, [r2, #0]
20070108:	f502 7200 	add.w	r2, r2, #512	; 0x200
2007010c:	6013      	str	r3, [r2, #0]
2007010e:	4770      	bx	lr
20070110:	f44f 7340 	mov.w	r3, #768	; 0x300
20070114:	4a07      	ldr	r2, [pc, #28]	; (20070134 <system_init_flash+0x84>)
20070116:	6013      	str	r3, [r2, #0]
20070118:	f502 7200 	add.w	r2, r2, #512	; 0x200
2007011c:	6013      	str	r3, [r2, #0]
2007011e:	4770      	bx	lr
20070120:	0121eabf 	.word	0x0121eabf
20070124:	02faf07f 	.word	0x02faf07f
20070128:	03d08fff 	.word	0x03d08fff
2007012c:	04c4b3ff 	.word	0x04c4b3ff
20070130:	055d4a7f 	.word	0x055d4a7f
20070134:	400e0a00 	.word	0x400e0a00

20070138 <Kd>:
20070138:	38d1b717                                ...8

2007013c <Ki>:
2007013c:	3ca3d70a                                ...<

20070140 <Kp>:
20070140:	3f9d70a4                                .p.?

20070144 <Ts>:
20070144:	3e99999a                                ...>

20070148 <WheelCircum>:
20070148:	42468c75                                u.FB

2007014c <dPP>:
2007014c:	3eb07c85                                .|.>

20070150 <doubleToIntFactor>:
20070150:	000186a0                                ....

20070154 <linearSpeedMargin>:
20070154:	40a00000                                ...@

20070158 <resolution>:
20070158:	00000090                                ....

2007015c <msPerTick>:
2007015c:	00000001                                ....

20070160 <packet_pab>:
	...
20070168:	20070c6c 00000001 00000008              l.. ........

20070174 <packet_pos>:
	...
2007017c:	20070c70 00000001 00000010              p.. ........

20070188 <packet_rec_pab>:
	...
20070190:	20070c5c 00000001 00000008              \.. ........

2007019c <packet_rec_pos>:
	...
200701a4:	20070c60 0000000a 00000010              `.. ........

200701b0 <uxCriticalNesting>:
200701b0:	aaaaaaaa                                ....

200701b4 <xFreeBytesRemaining>:
200701b4:	0000a000                                ....

200701b8 <xNextTaskUnblockTime>:
200701b8:	ffffffff                                ....

200701bc <SystemCoreClock>:
200701bc:	003d0900                                ..=.

200701c0 <_impure_ptr>:
200701c0:	200701c8 00000000                       ... ....

200701c8 <impure_data>:
200701c8:	00000000 200704b4 2007051c 20070584     ....... ... ... 
	...
20070270:	00000001 00000000 abcd330e e66d1234     .........3..4.m.
20070280:	0005deec 0000000b 00000000 00000000     ................
	...

200705f0 <__atexit_recursive_mutex>:
200705f0:	2007b090                                ... 

200705f4 <__global_locale>:
200705f4:	00000043 00000000 00000000 00000000     C...............
	...
20070614:	00000043 00000000 00000000 00000000     C...............
	...
20070634:	00000043 00000000 00000000 00000000     C...............
	...
20070654:	00000043 00000000 00000000 00000000     C...............
	...
20070674:	00000043 00000000 00000000 00000000     C...............
	...
20070694:	00000043 00000000 00000000 00000000     C...............
	...
200706b4:	00000043 00000000 00000000 00000000     C...............
	...
200706d4:	00088005 00087951 00000000 00088abc     ....Qy..........
200706e4:	00088ab8 0008889c 0008889c 0008889c     ................
200706f4:	0008889c 0008889c 0008889c 0008889c     ................
20070704:	0008889c 0008889c ffffffff ffffffff     ................
20070714:	ffffffff 0000ffff 53410001 00494943     ..........ASCII.
	...
2007073c:	53410000 00494943 00000000 00000000     ..ASCII.........
	...

20070760 <__malloc_av_>:
	...
20070768:	20070760 20070760 20070768 20070768     `.. `.. h.. h.. 
20070778:	20070770 20070770 20070778 20070778     p.. p.. x.. x.. 
20070788:	20070780 20070780 20070788 20070788     ... ... ... ... 
20070798:	20070790 20070790 20070798 20070798     ... ... ... ... 
200707a8:	200707a0 200707a0 200707a8 200707a8     ... ... ... ... 
200707b8:	200707b0 200707b0 200707b8 200707b8     ... ... ... ... 
200707c8:	200707c0 200707c0 200707c8 200707c8     ... ... ... ... 
200707d8:	200707d0 200707d0 200707d8 200707d8     ... ... ... ... 
200707e8:	200707e0 200707e0 200707e8 200707e8     ... ... ... ... 
200707f8:	200707f0 200707f0 200707f8 200707f8     ... ... ... ... 
20070808:	20070800 20070800 20070808 20070808     ... ... ... ... 
20070818:	20070810 20070810 20070818 20070818     ... ... ... ... 
20070828:	20070820 20070820 20070828 20070828      ..  .. (.. (.. 
20070838:	20070830 20070830 20070838 20070838     0.. 0.. 8.. 8.. 
20070848:	20070840 20070840 20070848 20070848     @.. @.. H.. H.. 
20070858:	20070850 20070850 20070858 20070858     P.. P.. X.. X.. 
20070868:	20070860 20070860 20070868 20070868     `.. `.. h.. h.. 
20070878:	20070870 20070870 20070878 20070878     p.. p.. x.. x.. 
20070888:	20070880 20070880 20070888 20070888     ... ... ... ... 
20070898:	20070890 20070890 20070898 20070898     ... ... ... ... 
200708a8:	200708a0 200708a0 200708a8 200708a8     ... ... ... ... 
200708b8:	200708b0 200708b0 200708b8 200708b8     ... ... ... ... 
200708c8:	200708c0 200708c0 200708c8 200708c8     ... ... ... ... 
200708d8:	200708d0 200708d0 200708d8 200708d8     ... ... ... ... 
200708e8:	200708e0 200708e0 200708e8 200708e8     ... ... ... ... 
200708f8:	200708f0 200708f0 200708f8 200708f8     ... ... ... ... 
20070908:	20070900 20070900 20070908 20070908     ... ... ... ... 
20070918:	20070910 20070910 20070918 20070918     ... ... ... ... 
20070928:	20070920 20070920 20070928 20070928      ..  .. (.. (.. 
20070938:	20070930 20070930 20070938 20070938     0.. 0.. 8.. 8.. 
20070948:	20070940 20070940 20070948 20070948     @.. @.. H.. H.. 
20070958:	20070950 20070950 20070958 20070958     P.. P.. X.. X.. 
20070968:	20070960 20070960 20070968 20070968     `.. `.. h.. h.. 
20070978:	20070970 20070970 20070978 20070978     p.. p.. x.. x.. 
20070988:	20070980 20070980 20070988 20070988     ... ... ... ... 
20070998:	20070990 20070990 20070998 20070998     ... ... ... ... 
200709a8:	200709a0 200709a0 200709a8 200709a8     ... ... ... ... 
200709b8:	200709b0 200709b0 200709b8 200709b8     ... ... ... ... 
200709c8:	200709c0 200709c0 200709c8 200709c8     ... ... ... ... 
200709d8:	200709d0 200709d0 200709d8 200709d8     ... ... ... ... 
200709e8:	200709e0 200709e0 200709e8 200709e8     ... ... ... ... 
200709f8:	200709f0 200709f0 200709f8 200709f8     ... ... ... ... 
20070a08:	20070a00 20070a00 20070a08 20070a08     ... ... ... ... 
20070a18:	20070a10 20070a10 20070a18 20070a18     ... ... ... ... 
20070a28:	20070a20 20070a20 20070a28 20070a28      ..  .. (.. (.. 
20070a38:	20070a30 20070a30 20070a38 20070a38     0.. 0.. 8.. 8.. 
20070a48:	20070a40 20070a40 20070a48 20070a48     @.. @.. H.. H.. 
20070a58:	20070a50 20070a50 20070a58 20070a58     P.. P.. X.. X.. 
20070a68:	20070a60 20070a60 20070a68 20070a68     `.. `.. h.. h.. 
20070a78:	20070a70 20070a70 20070a78 20070a78     p.. p.. x.. x.. 
20070a88:	20070a80 20070a80 20070a88 20070a88     ... ... ... ... 
20070a98:	20070a90 20070a90 20070a98 20070a98     ... ... ... ... 
20070aa8:	20070aa0 20070aa0 20070aa8 20070aa8     ... ... ... ... 
20070ab8:	20070ab0 20070ab0 20070ab8 20070ab8     ... ... ... ... 
20070ac8:	20070ac0 20070ac0 20070ac8 20070ac8     ... ... ... ... 
20070ad8:	20070ad0 20070ad0 20070ad8 20070ad8     ... ... ... ... 
20070ae8:	20070ae0 20070ae0 20070ae8 20070ae8     ... ... ... ... 
20070af8:	20070af0 20070af0 20070af8 20070af8     ... ... ... ... 
20070b08:	20070b00 20070b00 20070b08 20070b08     ... ... ... ... 
20070b18:	20070b10 20070b10 20070b18 20070b18     ... ... ... ... 
20070b28:	20070b20 20070b20 20070b28 20070b28      ..  .. (.. (.. 
20070b38:	20070b30 20070b30 20070b38 20070b38     0.. 0.. 8.. 8.. 
20070b48:	20070b40 20070b40 20070b48 20070b48     @.. @.. H.. H.. 
20070b58:	20070b50 20070b50 20070b58 20070b58     P.. P.. X.. X.. 

20070b68 <__malloc_sbrk_base>:
20070b68:	ffffffff                                ....

20070b6c <__malloc_trim_threshold>:
20070b6c:	00020000                                ....
