
FreeRTOS.elf:     file format elf32-littlearm

Sections:
Idx Name          Size      VMA       LMA       File off  Algn
  0 .text         000050d8  00080000  00080000  00010000  2**2
                  CONTENTS, ALLOC, LOAD, READONLY, CODE
  1 .ARM.exidx    00000008  000850d8  000850d8  000150d8  2**2
                  CONTENTS, ALLOC, LOAD, READONLY, DATA
  2 .relocate     00000aa0  20070000  000850e0  00020000  2**3
                  CONTENTS, ALLOC, LOAD, CODE
  3 .bss          000001e4  20070aa0  00085b80  00020aa0  2**2
                  ALLOC
  4 .stack        00002004  20070c84  00085d64  00020aa0  2**0
                  ALLOC
  5 .ARM.attributes 00000029  00000000  00000000  00020aa0  2**0
                  CONTENTS, READONLY
  6 .comment      00000059  00000000  00000000  00020ac9  2**0
                  CONTENTS, READONLY
  7 .debug_frame  00001054  00000000  00000000  00020b24  2**2
                  CONTENTS, READONLY, DEBUGGING

Disassembly of section .text:

00080000 <exception_table>:
   80000:	88 2c 07 20 61 12 08 00 5d 12 08 00 5d 12 08 00     .,. a...]...]...
   80010:	5d 12 08 00 5d 12 08 00 5d 12 08 00 00 00 00 00     ]...]...].......
	...
   8002c:	41 0b 08 00 5d 12 08 00 00 00 00 00 79 0b 08 00     A...].......y...
   8003c:	b5 0b 08 00 5d 12 08 00 5d 12 08 00 5d 12 08 00     ....]...]...]...
   8004c:	5d 12 08 00 5d 12 08 00 5d 12 08 00 5d 12 08 00     ]...]...]...]...
   8005c:	5d 12 08 00 5d 12 08 00 5d 12 08 00 00 00 00 00     ]...]...].......
   8006c:	21 11 08 00 31 11 08 00 41 11 08 00 51 11 08 00     !...1...A...Q...
	...
   80084:	5d 12 08 00 5d 12 08 00 5d 12 08 00 5d 12 08 00     ]...]...]...]...
   80094:	5d 12 08 00 5d 12 08 00 5d 12 08 00 5d 12 08 00     ]...]...]...]...
   800a4:	00 00 00 00 5d 12 08 00 5d 12 08 00 5d 12 08 00     ....]...]...]...
   800b4:	5d 12 08 00 5d 12 08 00 5d 12 08 00 5d 12 08 00     ]...]...]...]...
   800c4:	5d 12 08 00 5d 12 08 00 5d 12 08 00 5d 12 08 00     ]...]...]...]...
   800d4:	5d 12 08 00 5d 12 08 00 5d 12 08 00 5d 12 08 00     ]...]...]...]...
   800e4:	5d 12 08 00 5d 12 08 00 5d 12 08 00 5d 12 08 00     ]...]...]...]...

000800f4 <__do_global_dtors_aux>:
   800f4:	b510      	push	{r4, lr}
   800f6:	4c05      	ldr	r4, [pc, #20]	; (8010c <__do_global_dtors_aux+0x18>)
   800f8:	7823      	ldrb	r3, [r4, #0]
   800fa:	b933      	cbnz	r3, 8010a <__do_global_dtors_aux+0x16>
   800fc:	4b04      	ldr	r3, [pc, #16]	; (80110 <__do_global_dtors_aux+0x1c>)
   800fe:	b113      	cbz	r3, 80106 <__do_global_dtors_aux+0x12>
   80100:	4804      	ldr	r0, [pc, #16]	; (80114 <__do_global_dtors_aux+0x20>)
   80102:	f3af 8000 	nop.w
   80106:	2301      	movs	r3, #1
   80108:	7023      	strb	r3, [r4, #0]
   8010a:	bd10      	pop	{r4, pc}
   8010c:	20070aa0 	.word	0x20070aa0
   80110:	00000000 	.word	0x00000000
   80114:	000850e0 	.word	0x000850e0

00080118 <frame_dummy>:
   80118:	4b0c      	ldr	r3, [pc, #48]	; (8014c <frame_dummy+0x34>)
   8011a:	b143      	cbz	r3, 8012e <frame_dummy+0x16>
   8011c:	480c      	ldr	r0, [pc, #48]	; (80150 <frame_dummy+0x38>)
   8011e:	b510      	push	{r4, lr}
   80120:	490c      	ldr	r1, [pc, #48]	; (80154 <frame_dummy+0x3c>)
   80122:	f3af 8000 	nop.w
   80126:	480c      	ldr	r0, [pc, #48]	; (80158 <frame_dummy+0x40>)
   80128:	6803      	ldr	r3, [r0, #0]
   8012a:	b923      	cbnz	r3, 80136 <frame_dummy+0x1e>
   8012c:	bd10      	pop	{r4, pc}
   8012e:	480a      	ldr	r0, [pc, #40]	; (80158 <frame_dummy+0x40>)
   80130:	6803      	ldr	r3, [r0, #0]
   80132:	b933      	cbnz	r3, 80142 <frame_dummy+0x2a>
   80134:	4770      	bx	lr
   80136:	4b09      	ldr	r3, [pc, #36]	; (8015c <frame_dummy+0x44>)
   80138:	2b00      	cmp	r3, #0
   8013a:	d0f7      	beq.n	8012c <frame_dummy+0x14>
   8013c:	e8bd 4010 	ldmia.w	sp!, {r4, lr}
   80140:	4718      	bx	r3
   80142:	4b06      	ldr	r3, [pc, #24]	; (8015c <frame_dummy+0x44>)
   80144:	2b00      	cmp	r3, #0
   80146:	d0f5      	beq.n	80134 <frame_dummy+0x1c>
   80148:	4718      	bx	r3
   8014a:	bf00      	nop
   8014c:	00000000 	.word	0x00000000
   80150:	000850e0 	.word	0x000850e0
   80154:	20070aa4 	.word	0x20070aa4
   80158:	000850e0 	.word	0x000850e0
   8015c:	00000000 	.word	0x00000000

00080160 <twi_set_speed>:
   80160:	4b21      	ldr	r3, [pc, #132]	; (801e8 <twi_set_speed+0x88>)
   80162:	b510      	push	{r4, lr}
   80164:	4299      	cmp	r1, r3
   80166:	d83c      	bhi.n	801e2 <twi_set_speed+0x82>
   80168:	f5a3 537a 	sub.w	r3, r3, #16000	; 0x3e80
   8016c:	4299      	cmp	r1, r3
   8016e:	d923      	bls.n	801b8 <twi_set_speed+0x58>
   80170:	4b1e      	ldr	r3, [pc, #120]	; (801ec <twi_set_speed+0x8c>)
   80172:	4c1f      	ldr	r4, [pc, #124]	; (801f0 <twi_set_speed+0x90>)
   80174:	440b      	add	r3, r1
   80176:	009b      	lsls	r3, r3, #2
   80178:	fbb2 f4f4 	udiv	r4, r2, r4
   8017c:	fbb2 f2f3 	udiv	r2, r2, r3
   80180:	2300      	movs	r3, #0
   80182:	3c04      	subs	r4, #4
   80184:	3a04      	subs	r2, #4
   80186:	2cff      	cmp	r4, #255	; 0xff
   80188:	d901      	bls.n	8018e <twi_set_speed+0x2e>
   8018a:	2b07      	cmp	r3, #7
   8018c:	d10c      	bne.n	801a8 <twi_set_speed+0x48>
   8018e:	2aff      	cmp	r2, #255	; 0xff
   80190:	d80d      	bhi.n	801ae <twi_set_speed+0x4e>
   80192:	0212      	lsls	r2, r2, #8
   80194:	041b      	lsls	r3, r3, #16
   80196:	b292      	uxth	r2, r2
   80198:	f403 23e0 	and.w	r3, r3, #458752	; 0x70000
   8019c:	431a      	orrs	r2, r3
   8019e:	b2e4      	uxtb	r4, r4
   801a0:	4322      	orrs	r2, r4
   801a2:	6102      	str	r2, [r0, #16]
   801a4:	2000      	movs	r0, #0
   801a6:	bd10      	pop	{r4, pc}
   801a8:	3301      	adds	r3, #1
   801aa:	0864      	lsrs	r4, r4, #1
   801ac:	e7eb      	b.n	80186 <twi_set_speed+0x26>
   801ae:	2b06      	cmp	r3, #6
   801b0:	d8ef      	bhi.n	80192 <twi_set_speed+0x32>
   801b2:	3301      	adds	r3, #1
   801b4:	0852      	lsrs	r2, r2, #1
   801b6:	e7ea      	b.n	8018e <twi_set_speed+0x2e>
   801b8:	0049      	lsls	r1, r1, #1
   801ba:	fbb2 f2f1 	udiv	r2, r2, r1
   801be:	2300      	movs	r3, #0
   801c0:	3a04      	subs	r2, #4
   801c2:	2aff      	cmp	r2, #255	; 0xff
   801c4:	d901      	bls.n	801ca <twi_set_speed+0x6a>
   801c6:	2b07      	cmp	r3, #7
   801c8:	d108      	bne.n	801dc <twi_set_speed+0x7c>
   801ca:	0211      	lsls	r1, r2, #8
   801cc:	041b      	lsls	r3, r3, #16
   801ce:	b289      	uxth	r1, r1
   801d0:	f403 23e0 	and.w	r3, r3, #458752	; 0x70000
   801d4:	430b      	orrs	r3, r1
   801d6:	b2d2      	uxtb	r2, r2
   801d8:	431a      	orrs	r2, r3
   801da:	e7e2      	b.n	801a2 <twi_set_speed+0x42>
   801dc:	3301      	adds	r3, #1
   801de:	0852      	lsrs	r2, r2, #1
   801e0:	e7ef      	b.n	801c2 <twi_set_speed+0x62>
   801e2:	2001      	movs	r0, #1
   801e4:	bd10      	pop	{r4, pc}
   801e6:	bf00      	nop
   801e8:	00061a80 	.word	0x00061a80
   801ec:	3ffd1200 	.word	0x3ffd1200
   801f0:	000bb800 	.word	0x000bb800

000801f4 <twi_master_init>:
   801f4:	b538      	push	{r3, r4, r5, lr}
   801f6:	f04f 33ff 	mov.w	r3, #4294967295
   801fa:	6283      	str	r3, [r0, #40]	; 0x28
   801fc:	6a03      	ldr	r3, [r0, #32]
   801fe:	2380      	movs	r3, #128	; 0x80
   80200:	6003      	str	r3, [r0, #0]
   80202:	6b03      	ldr	r3, [r0, #48]	; 0x30
   80204:	2308      	movs	r3, #8
   80206:	6003      	str	r3, [r0, #0]
   80208:	2320      	movs	r3, #32
   8020a:	6003      	str	r3, [r0, #0]
   8020c:	2304      	movs	r3, #4
   8020e:	6003      	str	r3, [r0, #0]
   80210:	460d      	mov	r5, r1
   80212:	680a      	ldr	r2, [r1, #0]
   80214:	4b06      	ldr	r3, [pc, #24]	; (80230 <twi_master_init+0x3c>)
   80216:	6849      	ldr	r1, [r1, #4]
   80218:	4604      	mov	r4, r0
   8021a:	4798      	blx	r3
   8021c:	1e43      	subs	r3, r0, #1
   8021e:	4258      	negs	r0, r3
   80220:	4158      	adcs	r0, r3
   80222:	7a6b      	ldrb	r3, [r5, #9]
   80224:	2b01      	cmp	r3, #1
   80226:	bf04      	itt	eq
   80228:	2340      	moveq	r3, #64	; 0x40
   8022a:	6023      	streq	r3, [r4, #0]
   8022c:	bd38      	pop	{r3, r4, r5, pc}
   8022e:	bf00      	nop
   80230:	00080161 	.word	0x00080161

00080234 <rightEncoderAISR>:
   80234:	b538      	push	{r3, r4, r5, lr}
   80236:	4c12      	ldr	r4, [pc, #72]	; (80280 <rightEncoderAISR+0x4c>)
   80238:	47a0      	blx	r4
   8023a:	2800      	cmp	r0, #0
   8023c:	dd12      	ble.n	80264 <rightEncoderAISR+0x30>
   8023e:	4a11      	ldr	r2, [pc, #68]	; (80284 <rightEncoderAISR+0x50>)
   80240:	6813      	ldr	r3, [r2, #0]
   80242:	3301      	adds	r3, #1
   80244:	6013      	str	r3, [r2, #0]
   80246:	4d10      	ldr	r5, [pc, #64]	; (80288 <rightEncoderAISR+0x54>)
   80248:	4c10      	ldr	r4, [pc, #64]	; (8028c <rightEncoderAISR+0x58>)
   8024a:	682b      	ldr	r3, [r5, #0]
   8024c:	6023      	str	r3, [r4, #0]
   8024e:	4b10      	ldr	r3, [pc, #64]	; (80290 <rightEncoderAISR+0x5c>)
   80250:	4798      	blx	r3
   80252:	4b10      	ldr	r3, [pc, #64]	; (80294 <rightEncoderAISR+0x60>)
   80254:	6028      	str	r0, [r5, #0]
   80256:	781a      	ldrb	r2, [r3, #0]
   80258:	6823      	ldr	r3, [r4, #0]
   8025a:	fb02 0013 	mls	r0, r2, r3, r0
   8025e:	4b0e      	ldr	r3, [pc, #56]	; (80298 <rightEncoderAISR+0x64>)
   80260:	8018      	strh	r0, [r3, #0]
   80262:	bd38      	pop	{r3, r4, r5, pc}
   80264:	47a0      	blx	r4
   80266:	2800      	cmp	r0, #0
   80268:	da03      	bge.n	80272 <rightEncoderAISR+0x3e>
   8026a:	4a06      	ldr	r2, [pc, #24]	; (80284 <rightEncoderAISR+0x50>)
   8026c:	6813      	ldr	r3, [r2, #0]
   8026e:	3b01      	subs	r3, #1
   80270:	e7e8      	b.n	80244 <rightEncoderAISR+0x10>
   80272:	47a0      	blx	r4
   80274:	2800      	cmp	r0, #0
   80276:	d1e6      	bne.n	80246 <rightEncoderAISR+0x12>
   80278:	4b08      	ldr	r3, [pc, #32]	; (8029c <rightEncoderAISR+0x68>)
   8027a:	4809      	ldr	r0, [pc, #36]	; (802a0 <rightEncoderAISR+0x6c>)
   8027c:	4798      	blx	r3
   8027e:	e7e2      	b.n	80246 <rightEncoderAISR+0x12>
   80280:	000805dd 	.word	0x000805dd
   80284:	20070bf4 	.word	0x20070bf4
   80288:	20070c10 	.word	0x20070c10
   8028c:	20070c20 	.word	0x20070c20
   80290:	00080be1 	.word	0x00080be1
   80294:	20070c18 	.word	0x20070c18
   80298:	20070c0c 	.word	0x20070c0c
   8029c:	00081ff5 	.word	0x00081ff5
   802a0:	00084ea4 	.word	0x00084ea4

000802a4 <rightEncoderBISR>:
   802a4:	b538      	push	{r3, r4, r5, lr}
   802a6:	4c12      	ldr	r4, [pc, #72]	; (802f0 <rightEncoderBISR+0x4c>)
   802a8:	47a0      	blx	r4
   802aa:	2800      	cmp	r0, #0
   802ac:	dd12      	ble.n	802d4 <rightEncoderBISR+0x30>
   802ae:	4a11      	ldr	r2, [pc, #68]	; (802f4 <rightEncoderBISR+0x50>)
   802b0:	6813      	ldr	r3, [r2, #0]
   802b2:	3301      	adds	r3, #1
   802b4:	6013      	str	r3, [r2, #0]
   802b6:	4d10      	ldr	r5, [pc, #64]	; (802f8 <rightEncoderBISR+0x54>)
   802b8:	4c10      	ldr	r4, [pc, #64]	; (802fc <rightEncoderBISR+0x58>)
   802ba:	682b      	ldr	r3, [r5, #0]
   802bc:	6023      	str	r3, [r4, #0]
   802be:	4b10      	ldr	r3, [pc, #64]	; (80300 <rightEncoderBISR+0x5c>)
   802c0:	4798      	blx	r3
   802c2:	4b10      	ldr	r3, [pc, #64]	; (80304 <rightEncoderBISR+0x60>)
   802c4:	6028      	str	r0, [r5, #0]
   802c6:	781a      	ldrb	r2, [r3, #0]
   802c8:	6823      	ldr	r3, [r4, #0]
   802ca:	fb02 0013 	mls	r0, r2, r3, r0
   802ce:	4b0e      	ldr	r3, [pc, #56]	; (80308 <rightEncoderBISR+0x64>)
   802d0:	8018      	strh	r0, [r3, #0]
   802d2:	bd38      	pop	{r3, r4, r5, pc}
   802d4:	47a0      	blx	r4
   802d6:	2800      	cmp	r0, #0
   802d8:	da03      	bge.n	802e2 <rightEncoderBISR+0x3e>
   802da:	4a06      	ldr	r2, [pc, #24]	; (802f4 <rightEncoderBISR+0x50>)
   802dc:	6813      	ldr	r3, [r2, #0]
   802de:	3b01      	subs	r3, #1
   802e0:	e7e8      	b.n	802b4 <rightEncoderBISR+0x10>
   802e2:	47a0      	blx	r4
   802e4:	2800      	cmp	r0, #0
   802e6:	d1e6      	bne.n	802b6 <rightEncoderBISR+0x12>
   802e8:	4b08      	ldr	r3, [pc, #32]	; (8030c <rightEncoderBISR+0x68>)
   802ea:	4809      	ldr	r0, [pc, #36]	; (80310 <rightEncoderBISR+0x6c>)
   802ec:	4798      	blx	r3
   802ee:	e7e2      	b.n	802b6 <rightEncoderBISR+0x12>
   802f0:	000805dd 	.word	0x000805dd
   802f4:	20070c00 	.word	0x20070c00
   802f8:	20070c28 	.word	0x20070c28
   802fc:	20070c08 	.word	0x20070c08
   80300:	00080be1 	.word	0x00080be1
   80304:	20070c18 	.word	0x20070c18
   80308:	20070bfc 	.word	0x20070bfc
   8030c:	00081ff5 	.word	0x00081ff5
   80310:	00084ea4 	.word	0x00084ea4

00080314 <leftEncoderAISR>:
   80314:	b538      	push	{r3, r4, r5, lr}
   80316:	4c12      	ldr	r4, [pc, #72]	; (80360 <leftEncoderAISR+0x4c>)
   80318:	47a0      	blx	r4
   8031a:	2800      	cmp	r0, #0
   8031c:	dd12      	ble.n	80344 <leftEncoderAISR+0x30>
   8031e:	4a11      	ldr	r2, [pc, #68]	; (80364 <leftEncoderAISR+0x50>)
   80320:	6813      	ldr	r3, [r2, #0]
   80322:	3301      	adds	r3, #1
   80324:	6013      	str	r3, [r2, #0]
   80326:	4d10      	ldr	r5, [pc, #64]	; (80368 <leftEncoderAISR+0x54>)
   80328:	4c10      	ldr	r4, [pc, #64]	; (8036c <leftEncoderAISR+0x58>)
   8032a:	682b      	ldr	r3, [r5, #0]
   8032c:	6023      	str	r3, [r4, #0]
   8032e:	4b10      	ldr	r3, [pc, #64]	; (80370 <leftEncoderAISR+0x5c>)
   80330:	4798      	blx	r3
   80332:	6823      	ldr	r3, [r4, #0]
   80334:	6028      	str	r0, [r5, #0]
   80336:	1ac0      	subs	r0, r0, r3
   80338:	4b0e      	ldr	r3, [pc, #56]	; (80374 <leftEncoderAISR+0x60>)
   8033a:	781b      	ldrb	r3, [r3, #0]
   8033c:	4358      	muls	r0, r3
   8033e:	4b0e      	ldr	r3, [pc, #56]	; (80378 <leftEncoderAISR+0x64>)
   80340:	8018      	strh	r0, [r3, #0]
   80342:	bd38      	pop	{r3, r4, r5, pc}
   80344:	47a0      	blx	r4
   80346:	2800      	cmp	r0, #0
   80348:	da03      	bge.n	80352 <leftEncoderAISR+0x3e>
   8034a:	4a06      	ldr	r2, [pc, #24]	; (80364 <leftEncoderAISR+0x50>)
   8034c:	6813      	ldr	r3, [r2, #0]
   8034e:	3b01      	subs	r3, #1
   80350:	e7e8      	b.n	80324 <leftEncoderAISR+0x10>
   80352:	47a0      	blx	r4
   80354:	2800      	cmp	r0, #0
   80356:	d1e6      	bne.n	80326 <leftEncoderAISR+0x12>
   80358:	4b08      	ldr	r3, [pc, #32]	; (8037c <leftEncoderAISR+0x68>)
   8035a:	4809      	ldr	r0, [pc, #36]	; (80380 <leftEncoderAISR+0x6c>)
   8035c:	4798      	blx	r3
   8035e:	e7e2      	b.n	80326 <leftEncoderAISR+0x12>
   80360:	000805d1 	.word	0x000805d1
   80364:	20070c14 	.word	0x20070c14
   80368:	20070c30 	.word	0x20070c30
   8036c:	20070c04 	.word	0x20070c04
   80370:	00080be1 	.word	0x00080be1
   80374:	20070c18 	.word	0x20070c18
   80378:	20070c34 	.word	0x20070c34
   8037c:	00081ff5 	.word	0x00081ff5
   80380:	00084e24 	.word	0x00084e24

00080384 <leftEncoderBISR>:
   80384:	b538      	push	{r3, r4, r5, lr}
   80386:	4c12      	ldr	r4, [pc, #72]	; (803d0 <leftEncoderBISR+0x4c>)
   80388:	47a0      	blx	r4
   8038a:	2800      	cmp	r0, #0
   8038c:	dd12      	ble.n	803b4 <leftEncoderBISR+0x30>
   8038e:	4a11      	ldr	r2, [pc, #68]	; (803d4 <leftEncoderBISR+0x50>)
   80390:	6813      	ldr	r3, [r2, #0]
   80392:	3301      	adds	r3, #1
   80394:	6013      	str	r3, [r2, #0]
   80396:	4d10      	ldr	r5, [pc, #64]	; (803d8 <leftEncoderBISR+0x54>)
   80398:	4c10      	ldr	r4, [pc, #64]	; (803dc <leftEncoderBISR+0x58>)
   8039a:	682b      	ldr	r3, [r5, #0]
   8039c:	6023      	str	r3, [r4, #0]
   8039e:	4b10      	ldr	r3, [pc, #64]	; (803e0 <leftEncoderBISR+0x5c>)
   803a0:	4798      	blx	r3
   803a2:	6823      	ldr	r3, [r4, #0]
   803a4:	6028      	str	r0, [r5, #0]
   803a6:	1ac0      	subs	r0, r0, r3
   803a8:	4b0e      	ldr	r3, [pc, #56]	; (803e4 <leftEncoderBISR+0x60>)
   803aa:	781b      	ldrb	r3, [r3, #0]
   803ac:	4358      	muls	r0, r3
   803ae:	4b0e      	ldr	r3, [pc, #56]	; (803e8 <leftEncoderBISR+0x64>)
   803b0:	8018      	strh	r0, [r3, #0]
   803b2:	bd38      	pop	{r3, r4, r5, pc}
   803b4:	47a0      	blx	r4
   803b6:	2800      	cmp	r0, #0
   803b8:	da03      	bge.n	803c2 <leftEncoderBISR+0x3e>
   803ba:	4a06      	ldr	r2, [pc, #24]	; (803d4 <leftEncoderBISR+0x50>)
   803bc:	6813      	ldr	r3, [r2, #0]
   803be:	3b01      	subs	r3, #1
   803c0:	e7e8      	b.n	80394 <leftEncoderBISR+0x10>
   803c2:	47a0      	blx	r4
   803c4:	2800      	cmp	r0, #0
   803c6:	d1e6      	bne.n	80396 <leftEncoderBISR+0x12>
   803c8:	4b08      	ldr	r3, [pc, #32]	; (803ec <leftEncoderBISR+0x68>)
   803ca:	4809      	ldr	r0, [pc, #36]	; (803f0 <leftEncoderBISR+0x6c>)
   803cc:	4798      	blx	r3
   803ce:	e7e2      	b.n	80396 <leftEncoderBISR+0x12>
   803d0:	000805d1 	.word	0x000805d1
   803d4:	20070c24 	.word	0x20070c24
   803d8:	20070c1c 	.word	0x20070c1c
   803dc:	20070bf8 	.word	0x20070bf8
   803e0:	00080be1 	.word	0x00080be1
   803e4:	20070c18 	.word	0x20070c18
   803e8:	20070c2c 	.word	0x20070c2c
   803ec:	00081ff5 	.word	0x00081ff5
   803f0:	00084e24 	.word	0x00084e24

000803f4 <encoder_init>:
   803f4:	e92d 41f3 	stmdb	sp!, {r0, r1, r4, r5, r6, r7, r8, lr}
   803f8:	2400      	movs	r4, #0
   803fa:	4b39      	ldr	r3, [pc, #228]	; (804e0 <encoder_init+0xec>)
   803fc:	2201      	movs	r2, #1
   803fe:	601c      	str	r4, [r3, #0]
   80400:	4b38      	ldr	r3, [pc, #224]	; (804e4 <encoder_init+0xf0>)
   80402:	4d39      	ldr	r5, [pc, #228]	; (804e8 <encoder_init+0xf4>)
   80404:	601c      	str	r4, [r3, #0]
   80406:	4b39      	ldr	r3, [pc, #228]	; (804ec <encoder_init+0xf8>)
   80408:	200d      	movs	r0, #13
   8040a:	601c      	str	r4, [r3, #0]
   8040c:	4b38      	ldr	r3, [pc, #224]	; (804f0 <encoder_init+0xfc>)
   8040e:	f8df 8138 	ldr.w	r8, [pc, #312]	; 80548 <encoder_init+0x154>
   80412:	601c      	str	r4, [r3, #0]
   80414:	4b37      	ldr	r3, [pc, #220]	; (804f4 <encoder_init+0x100>)
   80416:	4f38      	ldr	r7, [pc, #224]	; (804f8 <encoder_init+0x104>)
   80418:	601c      	str	r4, [r3, #0]
   8041a:	4b38      	ldr	r3, [pc, #224]	; (804fc <encoder_init+0x108>)
   8041c:	4e38      	ldr	r6, [pc, #224]	; (80500 <encoder_init+0x10c>)
   8041e:	601c      	str	r4, [r3, #0]
   80420:	4b38      	ldr	r3, [pc, #224]	; (80504 <encoder_init+0x110>)
   80422:	601c      	str	r4, [r3, #0]
   80424:	4b38      	ldr	r3, [pc, #224]	; (80508 <encoder_init+0x114>)
   80426:	601c      	str	r4, [r3, #0]
   80428:	4b38      	ldr	r3, [pc, #224]	; (8050c <encoder_init+0x118>)
   8042a:	601c      	str	r4, [r3, #0]
   8042c:	4b38      	ldr	r3, [pc, #224]	; (80510 <encoder_init+0x11c>)
   8042e:	801c      	strh	r4, [r3, #0]
   80430:	4b38      	ldr	r3, [pc, #224]	; (80514 <encoder_init+0x120>)
   80432:	601c      	str	r4, [r3, #0]
   80434:	4b38      	ldr	r3, [pc, #224]	; (80518 <encoder_init+0x124>)
   80436:	801c      	strh	r4, [r3, #0]
   80438:	4b38      	ldr	r3, [pc, #224]	; (8051c <encoder_init+0x128>)
   8043a:	601c      	str	r4, [r3, #0]
   8043c:	4b38      	ldr	r3, [pc, #224]	; (80520 <encoder_init+0x12c>)
   8043e:	801c      	strh	r4, [r3, #0]
   80440:	4b38      	ldr	r3, [pc, #224]	; (80524 <encoder_init+0x130>)
   80442:	601c      	str	r4, [r3, #0]
   80444:	4b38      	ldr	r3, [pc, #224]	; (80528 <encoder_init+0x134>)
   80446:	801c      	strh	r4, [r3, #0]
   80448:	4b38      	ldr	r3, [pc, #224]	; (8052c <encoder_init+0x138>)
   8044a:	701a      	strb	r2, [r3, #0]
   8044c:	4b38      	ldr	r3, [pc, #224]	; (80530 <encoder_init+0x13c>)
   8044e:	4798      	blx	r3
   80450:	4622      	mov	r2, r4
   80452:	4628      	mov	r0, r5
   80454:	f44f 0100 	mov.w	r1, #8388608	; 0x800000
   80458:	47c0      	blx	r8
   8045a:	4b36      	ldr	r3, [pc, #216]	; (80534 <encoder_init+0x140>)
   8045c:	f44f 0200 	mov.w	r2, #8388608	; 0x800000
   80460:	9300      	str	r3, [sp, #0]
   80462:	210d      	movs	r1, #13
   80464:	2320      	movs	r3, #32
   80466:	4628      	mov	r0, r5
   80468:	47b8      	blx	r7
   8046a:	4628      	mov	r0, r5
   8046c:	f44f 0100 	mov.w	r1, #8388608	; 0x800000
   80470:	47b0      	blx	r6
   80472:	4622      	mov	r2, r4
   80474:	4628      	mov	r0, r5
   80476:	f04f 7100 	mov.w	r1, #33554432	; 0x2000000
   8047a:	47c0      	blx	r8
   8047c:	4b2e      	ldr	r3, [pc, #184]	; (80538 <encoder_init+0x144>)
   8047e:	f04f 7200 	mov.w	r2, #33554432	; 0x2000000
   80482:	9300      	str	r3, [sp, #0]
   80484:	210d      	movs	r1, #13
   80486:	2320      	movs	r3, #32
   80488:	4628      	mov	r0, r5
   8048a:	47b8      	blx	r7
   8048c:	4628      	mov	r0, r5
   8048e:	f04f 7100 	mov.w	r1, #33554432	; 0x2000000
   80492:	47b0      	blx	r6
   80494:	4622      	mov	r2, r4
   80496:	4628      	mov	r0, r5
   80498:	2102      	movs	r1, #2
   8049a:	47c0      	blx	r8
   8049c:	4b27      	ldr	r3, [pc, #156]	; (8053c <encoder_init+0x148>)
   8049e:	2202      	movs	r2, #2
   804a0:	9300      	str	r3, [sp, #0]
   804a2:	210d      	movs	r1, #13
   804a4:	2320      	movs	r3, #32
   804a6:	4628      	mov	r0, r5
   804a8:	47b8      	blx	r7
   804aa:	4628      	mov	r0, r5
   804ac:	2102      	movs	r1, #2
   804ae:	47b0      	blx	r6
   804b0:	4622      	mov	r2, r4
   804b2:	4628      	mov	r0, r5
   804b4:	f04f 5100 	mov.w	r1, #536870912	; 0x20000000
   804b8:	47c0      	blx	r8
   804ba:	4b21      	ldr	r3, [pc, #132]	; (80540 <encoder_init+0x14c>)
   804bc:	f04f 5200 	mov.w	r2, #536870912	; 0x20000000
   804c0:	9300      	str	r3, [sp, #0]
   804c2:	210d      	movs	r1, #13
   804c4:	2320      	movs	r3, #32
   804c6:	4628      	mov	r0, r5
   804c8:	47b8      	blx	r7
   804ca:	f04f 5100 	mov.w	r1, #536870912	; 0x20000000
   804ce:	4628      	mov	r0, r5
   804d0:	47b0      	blx	r6
   804d2:	f44f 5200 	mov.w	r2, #8192	; 0x2000
   804d6:	4b1b      	ldr	r3, [pc, #108]	; (80544 <encoder_init+0x150>)
   804d8:	601a      	str	r2, [r3, #0]
   804da:	b002      	add	sp, #8
   804dc:	e8bd 81f0 	ldmia.w	sp!, {r4, r5, r6, r7, r8, pc}
   804e0:	20070c04 	.word	0x20070c04
   804e4:	20070c20 	.word	0x20070c20
   804e8:	400e1200 	.word	0x400e1200
   804ec:	20070c30 	.word	0x20070c30
   804f0:	20070c10 	.word	0x20070c10
   804f4:	20070bf8 	.word	0x20070bf8
   804f8:	000810b5 	.word	0x000810b5
   804fc:	20070c08 	.word	0x20070c08
   80500:	00080ee3 	.word	0x00080ee3
   80504:	20070c1c 	.word	0x20070c1c
   80508:	20070c28 	.word	0x20070c28
   8050c:	20070c14 	.word	0x20070c14
   80510:	20070c34 	.word	0x20070c34
   80514:	20070bf4 	.word	0x20070bf4
   80518:	20070c0c 	.word	0x20070c0c
   8051c:	20070c24 	.word	0x20070c24
   80520:	20070c2c 	.word	0x20070c2c
   80524:	20070c00 	.word	0x20070c00
   80528:	20070bfc 	.word	0x20070bfc
   8052c:	20070c18 	.word	0x20070c18
   80530:	0008121d 	.word	0x0008121d
   80534:	00080235 	.word	0x00080235
   80538:	00080315 	.word	0x00080315
   8053c:	000802a5 	.word	0x000802a5
   80540:	00080385 	.word	0x00080385
   80544:	e000e100 	.word	0xe000e100
   80548:	00080e93 	.word	0x00080e93

0008054c <init_twi>:
   8054c:	b51f      	push	{r0, r1, r2, r3, r4, lr}
   8054e:	4b0a      	ldr	r3, [pc, #40]	; (80578 <init_twi+0x2c>)
   80550:	2017      	movs	r0, #23
   80552:	9302      	str	r3, [sp, #8]
   80554:	4b09      	ldr	r3, [pc, #36]	; (8057c <init_twi+0x30>)
   80556:	9301      	str	r3, [sp, #4]
   80558:	2300      	movs	r3, #0
   8055a:	f88d 300d 	strb.w	r3, [sp, #13]
   8055e:	4b08      	ldr	r3, [pc, #32]	; (80580 <init_twi+0x34>)
   80560:	4798      	blx	r3
   80562:	a901      	add	r1, sp, #4
   80564:	4b07      	ldr	r3, [pc, #28]	; (80584 <init_twi+0x38>)
   80566:	4808      	ldr	r0, [pc, #32]	; (80588 <init_twi+0x3c>)
   80568:	4798      	blx	r3
   8056a:	fab0 f080 	clz	r0, r0
   8056e:	0940      	lsrs	r0, r0, #5
   80570:	b005      	add	sp, #20
   80572:	f85d fb04 	ldr.w	pc, [sp], #4
   80576:	bf00      	nop
   80578:	000186a0 	.word	0x000186a0
   8057c:	0501bd00 	.word	0x0501bd00
   80580:	0008121d 	.word	0x0008121d
   80584:	000801f5 	.word	0x000801f5
   80588:	40090000 	.word	0x40090000

0008058c <ISR1>:
   8058c:	4b05      	ldr	r3, [pc, #20]	; (805a4 <ISR1+0x18>)
   8058e:	4906      	ldr	r1, [pc, #24]	; (805a8 <ISR1+0x1c>)
   80590:	f993 2000 	ldrsb.w	r2, [r3]
   80594:	2080      	movs	r0, #128	; 0x80
   80596:	b11a      	cbz	r2, 805a0 <ISR1+0x14>
   80598:	6308      	str	r0, [r1, #48]	; 0x30
   8059a:	43d2      	mvns	r2, r2
   8059c:	701a      	strb	r2, [r3, #0]
   8059e:	4770      	bx	lr
   805a0:	6348      	str	r0, [r1, #52]	; 0x34
   805a2:	e7fa      	b.n	8059a <ISR1+0xe>
   805a4:	200700e4 	.word	0x200700e4
   805a8:	400e1400 	.word	0x400e1400

000805ac <ISR2>:
   805ac:	4b06      	ldr	r3, [pc, #24]	; (805c8 <ISR2+0x1c>)
   805ae:	4907      	ldr	r1, [pc, #28]	; (805cc <ISR2+0x20>)
   805b0:	f993 2000 	ldrsb.w	r2, [r3]
   805b4:	f04f 5080 	mov.w	r0, #268435456	; 0x10000000
   805b8:	b11a      	cbz	r2, 805c2 <ISR2+0x16>
   805ba:	6308      	str	r0, [r1, #48]	; 0x30
   805bc:	43d2      	mvns	r2, r2
   805be:	701a      	strb	r2, [r3, #0]
   805c0:	4770      	bx	lr
   805c2:	6348      	str	r0, [r1, #52]	; 0x34
   805c4:	e7fa      	b.n	805bc <ISR2+0x10>
   805c6:	bf00      	nop
   805c8:	200700e5 	.word	0x200700e5
   805cc:	400e0e00 	.word	0x400e0e00

000805d0 <getSetLDirection>:
   805d0:	4b01      	ldr	r3, [pc, #4]	; (805d8 <getSetLDirection+0x8>)
   805d2:	f993 0000 	ldrsb.w	r0, [r3]
   805d6:	4770      	bx	lr
   805d8:	20070abc 	.word	0x20070abc

000805dc <getSetRDirection>:
   805dc:	4b01      	ldr	r3, [pc, #4]	; (805e4 <getSetRDirection+0x8>)
   805de:	f993 0000 	ldrsb.w	r0, [r3]
   805e2:	4770      	bx	lr
   805e4:	20070abd 	.word	0x20070abd

000805e8 <getPickupX>:
   805e8:	4b01      	ldr	r3, [pc, #4]	; (805f0 <getPickupX+0x8>)
   805ea:	6818      	ldr	r0, [r3, #0]
   805ec:	4770      	bx	lr
   805ee:	bf00      	nop
   805f0:	20070c4c 	.word	0x20070c4c

000805f4 <getPickupY>:
   805f4:	4b01      	ldr	r3, [pc, #4]	; (805fc <getPickupY+0x8>)
   805f6:	6818      	ldr	r0, [r3, #0]
   805f8:	4770      	bx	lr
   805fa:	bf00      	nop
   805fc:	20070c48 	.word	0x20070c48

00080600 <getPositionX>:
   80600:	4b01      	ldr	r3, [pc, #4]	; (80608 <getPositionX+0x8>)
   80602:	6818      	ldr	r0, [r3, #0]
   80604:	4770      	bx	lr
   80606:	bf00      	nop
   80608:	20070c44 	.word	0x20070c44

0008060c <getPositionY>:
   8060c:	4b01      	ldr	r3, [pc, #4]	; (80614 <getPositionY+0x8>)
   8060e:	6818      	ldr	r0, [r3, #0]
   80610:	4770      	bx	lr
   80612:	bf00      	nop
   80614:	20070c38 	.word	0x20070c38

00080618 <getDisposalX>:
   80618:	4b01      	ldr	r3, [pc, #4]	; (80620 <getDisposalX+0x8>)
   8061a:	6818      	ldr	r0, [r3, #0]
   8061c:	4770      	bx	lr
   8061e:	bf00      	nop
   80620:	20070c3c 	.word	0x20070c3c

00080624 <getDisposalY>:
   80624:	4b01      	ldr	r3, [pc, #4]	; (8062c <getDisposalY+0x8>)
   80626:	6818      	ldr	r0, [r3, #0]
   80628:	4770      	bx	lr
   8062a:	bf00      	nop
   8062c:	20070c40 	.word	0x20070c40

00080630 <getDistanceToObject>:
   80630:	e92d 43d0 	stmdb	sp!, {r4, r6, r7, r8, r9, lr}
   80634:	4b17      	ldr	r3, [pc, #92]	; (80694 <getDistanceToObject+0x64>)
   80636:	4c18      	ldr	r4, [pc, #96]	; (80698 <getDistanceToObject+0x68>)
   80638:	6818      	ldr	r0, [r3, #0]
   8063a:	4b18      	ldr	r3, [pc, #96]	; (8069c <getDistanceToObject+0x6c>)
   8063c:	681b      	ldr	r3, [r3, #0]
   8063e:	1ac0      	subs	r0, r0, r3
   80640:	2800      	cmp	r0, #0
   80642:	bfb8      	it	lt
   80644:	4240      	neglt	r0, r0
   80646:	47a0      	blx	r4
   80648:	4b15      	ldr	r3, [pc, #84]	; (806a0 <getDistanceToObject+0x70>)
   8064a:	4606      	mov	r6, r0
   8064c:	6818      	ldr	r0, [r3, #0]
   8064e:	4b15      	ldr	r3, [pc, #84]	; (806a4 <getDistanceToObject+0x74>)
   80650:	460f      	mov	r7, r1
   80652:	681b      	ldr	r3, [r3, #0]
   80654:	1ac0      	subs	r0, r0, r3
   80656:	2800      	cmp	r0, #0
   80658:	bfb8      	it	lt
   8065a:	4240      	neglt	r0, r0
   8065c:	47a0      	blx	r4
   8065e:	4c12      	ldr	r4, [pc, #72]	; (806a8 <getDistanceToObject+0x78>)
   80660:	4680      	mov	r8, r0
   80662:	4689      	mov	r9, r1
   80664:	4632      	mov	r2, r6
   80666:	463b      	mov	r3, r7
   80668:	4630      	mov	r0, r6
   8066a:	4639      	mov	r1, r7
   8066c:	47a0      	blx	r4
   8066e:	4642      	mov	r2, r8
   80670:	4606      	mov	r6, r0
   80672:	460f      	mov	r7, r1
   80674:	464b      	mov	r3, r9
   80676:	4640      	mov	r0, r8
   80678:	4649      	mov	r1, r9
   8067a:	47a0      	blx	r4
   8067c:	4c0b      	ldr	r4, [pc, #44]	; (806ac <getDistanceToObject+0x7c>)
   8067e:	4602      	mov	r2, r0
   80680:	460b      	mov	r3, r1
   80682:	4630      	mov	r0, r6
   80684:	4639      	mov	r1, r7
   80686:	47a0      	blx	r4
   80688:	4b09      	ldr	r3, [pc, #36]	; (806b0 <getDistanceToObject+0x80>)
   8068a:	4798      	blx	r3
   8068c:	4b09      	ldr	r3, [pc, #36]	; (806b4 <getDistanceToObject+0x84>)
   8068e:	4798      	blx	r3
   80690:	e8bd 83d0 	ldmia.w	sp!, {r4, r6, r7, r8, r9, pc}
   80694:	20070c44 	.word	0x20070c44
   80698:	0008191d 	.word	0x0008191d
   8069c:	20070c4c 	.word	0x20070c4c
   806a0:	20070c38 	.word	0x20070c38
   806a4:	20070c48 	.word	0x20070c48
   806a8:	000819e9 	.word	0x000819e9
   806ac:	00081685 	.word	0x00081685
   806b0:	00081441 	.word	0x00081441
   806b4:	00081f49 	.word	0x00081f49

000806b8 <getDistanceToDropOff>:
   806b8:	e92d 43d0 	stmdb	sp!, {r4, r6, r7, r8, r9, lr}
   806bc:	4b17      	ldr	r3, [pc, #92]	; (8071c <getDistanceToDropOff+0x64>)
   806be:	4c18      	ldr	r4, [pc, #96]	; (80720 <getDistanceToDropOff+0x68>)
   806c0:	6818      	ldr	r0, [r3, #0]
   806c2:	4b18      	ldr	r3, [pc, #96]	; (80724 <getDistanceToDropOff+0x6c>)
   806c4:	681b      	ldr	r3, [r3, #0]
   806c6:	1ac0      	subs	r0, r0, r3
   806c8:	2800      	cmp	r0, #0
   806ca:	bfb8      	it	lt
   806cc:	4240      	neglt	r0, r0
   806ce:	47a0      	blx	r4
   806d0:	4b15      	ldr	r3, [pc, #84]	; (80728 <getDistanceToDropOff+0x70>)
   806d2:	4606      	mov	r6, r0
   806d4:	6818      	ldr	r0, [r3, #0]
   806d6:	4b15      	ldr	r3, [pc, #84]	; (8072c <getDistanceToDropOff+0x74>)
   806d8:	460f      	mov	r7, r1
   806da:	681b      	ldr	r3, [r3, #0]
   806dc:	1ac0      	subs	r0, r0, r3
   806de:	2800      	cmp	r0, #0
   806e0:	bfb8      	it	lt
   806e2:	4240      	neglt	r0, r0
   806e4:	47a0      	blx	r4
   806e6:	4c12      	ldr	r4, [pc, #72]	; (80730 <getDistanceToDropOff+0x78>)
   806e8:	4680      	mov	r8, r0
   806ea:	4689      	mov	r9, r1
   806ec:	4632      	mov	r2, r6
   806ee:	463b      	mov	r3, r7
   806f0:	4630      	mov	r0, r6
   806f2:	4639      	mov	r1, r7
   806f4:	47a0      	blx	r4
   806f6:	4642      	mov	r2, r8
   806f8:	4606      	mov	r6, r0
   806fa:	460f      	mov	r7, r1
   806fc:	464b      	mov	r3, r9
   806fe:	4640      	mov	r0, r8
   80700:	4649      	mov	r1, r9
   80702:	47a0      	blx	r4
   80704:	4c0b      	ldr	r4, [pc, #44]	; (80734 <getDistanceToDropOff+0x7c>)
   80706:	4602      	mov	r2, r0
   80708:	460b      	mov	r3, r1
   8070a:	4630      	mov	r0, r6
   8070c:	4639      	mov	r1, r7
   8070e:	47a0      	blx	r4
   80710:	4b09      	ldr	r3, [pc, #36]	; (80738 <getDistanceToDropOff+0x80>)
   80712:	4798      	blx	r3
   80714:	4b09      	ldr	r3, [pc, #36]	; (8073c <getDistanceToDropOff+0x84>)
   80716:	4798      	blx	r3
   80718:	e8bd 83d0 	ldmia.w	sp!, {r4, r6, r7, r8, r9, pc}
   8071c:	20070c44 	.word	0x20070c44
   80720:	0008191d 	.word	0x0008191d
   80724:	20070c3c 	.word	0x20070c3c
   80728:	20070c38 	.word	0x20070c38
   8072c:	20070c40 	.word	0x20070c40
   80730:	000819e9 	.word	0x000819e9
   80734:	00081685 	.word	0x00081685
   80738:	00081441 	.word	0x00081441
   8073c:	00081f49 	.word	0x00081f49

00080740 <_read>:
   80740:	e92d 41f0 	stmdb	sp!, {r4, r5, r6, r7, r8, lr}
   80744:	460e      	mov	r6, r1
   80746:	4614      	mov	r4, r2
   80748:	b988      	cbnz	r0, 8076e <_read+0x2e>
   8074a:	4615      	mov	r5, r2
   8074c:	4f0a      	ldr	r7, [pc, #40]	; (80778 <_read+0x38>)
   8074e:	f8df 802c 	ldr.w	r8, [pc, #44]	; 8077c <_read+0x3c>
   80752:	1b61      	subs	r1, r4, r5
   80754:	2d00      	cmp	r5, #0
   80756:	4431      	add	r1, r6
   80758:	dc03      	bgt.n	80762 <_read+0x22>
   8075a:	ea24 70e4 	bic.w	r0, r4, r4, asr #31
   8075e:	e8bd 81f0 	ldmia.w	sp!, {r4, r5, r6, r7, r8, pc}
   80762:	6838      	ldr	r0, [r7, #0]
   80764:	f8d8 3000 	ldr.w	r3, [r8]
   80768:	4798      	blx	r3
   8076a:	3d01      	subs	r5, #1
   8076c:	e7f1      	b.n	80752 <_read+0x12>
   8076e:	f04f 30ff 	mov.w	r0, #4294967295
   80772:	e8bd 81f0 	ldmia.w	sp!, {r4, r5, r6, r7, r8, pc}
   80776:	bf00      	nop
   80778:	20070c58 	.word	0x20070c58
   8077c:	20070c50 	.word	0x20070c50

00080780 <_write>:
   80780:	3801      	subs	r0, #1
   80782:	2802      	cmp	r0, #2
   80784:	e92d 41f0 	stmdb	sp!, {r4, r5, r6, r7, r8, lr}
   80788:	460e      	mov	r6, r1
   8078a:	d812      	bhi.n	807b2 <_write+0x32>
   8078c:	460c      	mov	r4, r1
   8078e:	4f0b      	ldr	r7, [pc, #44]	; (807bc <_write+0x3c>)
   80790:	f8df 802c 	ldr.w	r8, [pc, #44]	; 807c0 <_write+0x40>
   80794:	188d      	adds	r5, r1, r2
   80796:	42ac      	cmp	r4, r5
   80798:	eba4 0006 	sub.w	r0, r4, r6
   8079c:	d101      	bne.n	807a2 <_write+0x22>
   8079e:	e8bd 81f0 	ldmia.w	sp!, {r4, r5, r6, r7, r8, pc}
   807a2:	6838      	ldr	r0, [r7, #0]
   807a4:	f814 1b01 	ldrb.w	r1, [r4], #1
   807a8:	f8d8 3000 	ldr.w	r3, [r8]
   807ac:	4798      	blx	r3
   807ae:	2800      	cmp	r0, #0
   807b0:	daf1      	bge.n	80796 <_write+0x16>
   807b2:	f04f 30ff 	mov.w	r0, #4294967295
   807b6:	e8bd 81f0 	ldmia.w	sp!, {r4, r5, r6, r7, r8, pc}
   807ba:	bf00      	nop
   807bc:	20070c58 	.word	0x20070c58
   807c0:	20070c54 	.word	0x20070c54

000807c4 <uart_init>:
   807c4:	23ac      	movs	r3, #172	; 0xac
   807c6:	b510      	push	{r4, lr}
   807c8:	6003      	str	r3, [r0, #0]
   807ca:	684a      	ldr	r2, [r1, #4]
   807cc:	680b      	ldr	r3, [r1, #0]
   807ce:	fbb3 f3f2 	udiv	r3, r3, r2
   807d2:	f64f 72fe 	movw	r2, #65534	; 0xfffe
   807d6:	091b      	lsrs	r3, r3, #4
   807d8:	1e5c      	subs	r4, r3, #1
   807da:	4294      	cmp	r4, r2
   807dc:	d80a      	bhi.n	807f4 <uart_init+0x30>
   807de:	6203      	str	r3, [r0, #32]
   807e0:	688b      	ldr	r3, [r1, #8]
   807e2:	6043      	str	r3, [r0, #4]
   807e4:	f240 2302 	movw	r3, #514	; 0x202
   807e8:	f8c0 3120 	str.w	r3, [r0, #288]	; 0x120
   807ec:	2350      	movs	r3, #80	; 0x50
   807ee:	6003      	str	r3, [r0, #0]
   807f0:	2000      	movs	r0, #0
   807f2:	bd10      	pop	{r4, pc}
   807f4:	2001      	movs	r0, #1
   807f6:	bd10      	pop	{r4, pc}

000807f8 <uart_write>:
   807f8:	6943      	ldr	r3, [r0, #20]
   807fa:	079b      	lsls	r3, r3, #30
   807fc:	bf46      	itte	mi
   807fe:	61c1      	strmi	r1, [r0, #28]
   80800:	2000      	movmi	r0, #0
   80802:	2001      	movpl	r0, #1
   80804:	4770      	bx	lr

00080806 <uart_read>:
   80806:	6943      	ldr	r3, [r0, #20]
   80808:	07db      	lsls	r3, r3, #31
   8080a:	bf43      	ittte	mi
   8080c:	6983      	ldrmi	r3, [r0, #24]
   8080e:	2000      	movmi	r0, #0
   80810:	700b      	strbmi	r3, [r1, #0]
   80812:	2001      	movpl	r0, #1
   80814:	4770      	bx	lr

00080816 <usart_write>:
   80816:	6943      	ldr	r3, [r0, #20]
   80818:	079b      	lsls	r3, r3, #30
   8081a:	bf43      	ittte	mi
   8081c:	f3c1 0108 	ubfxmi	r1, r1, #0, #9
   80820:	61c1      	strmi	r1, [r0, #28]
   80822:	2000      	movmi	r0, #0
   80824:	2001      	movpl	r0, #1
   80826:	4770      	bx	lr

00080828 <usart_read>:
   80828:	6943      	ldr	r3, [r0, #20]
   8082a:	07db      	lsls	r3, r3, #31
   8082c:	bf41      	itttt	mi
   8082e:	6983      	ldrmi	r3, [r0, #24]
   80830:	2000      	movmi	r0, #0
   80832:	f3c3 0308 	ubfxmi	r3, r3, #0, #9
   80836:	600b      	strmi	r3, [r1, #0]
   80838:	bf58      	it	pl
   8083a:	2001      	movpl	r0, #1
   8083c:	4770      	bx	lr
	...

00080840 <usart_serial_getchar>:
   80840:	2300      	movs	r3, #0
   80842:	b573      	push	{r0, r1, r4, r5, r6, lr}
   80844:	9301      	str	r3, [sp, #4]
   80846:	4b1b      	ldr	r3, [pc, #108]	; (808b4 <usart_serial_getchar+0x74>)
   80848:	4604      	mov	r4, r0
   8084a:	4298      	cmp	r0, r3
   8084c:	460d      	mov	r5, r1
   8084e:	d107      	bne.n	80860 <usart_serial_getchar+0x20>
   80850:	4e19      	ldr	r6, [pc, #100]	; (808b8 <usart_serial_getchar+0x78>)
   80852:	4629      	mov	r1, r5
   80854:	4620      	mov	r0, r4
   80856:	47b0      	blx	r6
   80858:	2800      	cmp	r0, #0
   8085a:	d1fa      	bne.n	80852 <usart_serial_getchar+0x12>
   8085c:	b002      	add	sp, #8
   8085e:	bd70      	pop	{r4, r5, r6, pc}
   80860:	4b16      	ldr	r3, [pc, #88]	; (808bc <usart_serial_getchar+0x7c>)
   80862:	4298      	cmp	r0, r3
   80864:	d108      	bne.n	80878 <usart_serial_getchar+0x38>
   80866:	4e16      	ldr	r6, [pc, #88]	; (808c0 <usart_serial_getchar+0x80>)
   80868:	a901      	add	r1, sp, #4
   8086a:	4620      	mov	r0, r4
   8086c:	47b0      	blx	r6
   8086e:	2800      	cmp	r0, #0
   80870:	d1fa      	bne.n	80868 <usart_serial_getchar+0x28>
   80872:	9b01      	ldr	r3, [sp, #4]
   80874:	702b      	strb	r3, [r5, #0]
   80876:	e7f1      	b.n	8085c <usart_serial_getchar+0x1c>
   80878:	4b12      	ldr	r3, [pc, #72]	; (808c4 <usart_serial_getchar+0x84>)
   8087a:	4298      	cmp	r0, r3
   8087c:	d106      	bne.n	8088c <usart_serial_getchar+0x4c>
   8087e:	4e10      	ldr	r6, [pc, #64]	; (808c0 <usart_serial_getchar+0x80>)
   80880:	a901      	add	r1, sp, #4
   80882:	4620      	mov	r0, r4
   80884:	47b0      	blx	r6
   80886:	2800      	cmp	r0, #0
   80888:	d1fa      	bne.n	80880 <usart_serial_getchar+0x40>
   8088a:	e7f2      	b.n	80872 <usart_serial_getchar+0x32>
   8088c:	4b0e      	ldr	r3, [pc, #56]	; (808c8 <usart_serial_getchar+0x88>)
   8088e:	4298      	cmp	r0, r3
   80890:	d106      	bne.n	808a0 <usart_serial_getchar+0x60>
   80892:	4e0b      	ldr	r6, [pc, #44]	; (808c0 <usart_serial_getchar+0x80>)
   80894:	a901      	add	r1, sp, #4
   80896:	4620      	mov	r0, r4
   80898:	47b0      	blx	r6
   8089a:	2800      	cmp	r0, #0
   8089c:	d1fa      	bne.n	80894 <usart_serial_getchar+0x54>
   8089e:	e7e8      	b.n	80872 <usart_serial_getchar+0x32>
   808a0:	4b0a      	ldr	r3, [pc, #40]	; (808cc <usart_serial_getchar+0x8c>)
   808a2:	4298      	cmp	r0, r3
   808a4:	d1da      	bne.n	8085c <usart_serial_getchar+0x1c>
   808a6:	4e06      	ldr	r6, [pc, #24]	; (808c0 <usart_serial_getchar+0x80>)
   808a8:	a901      	add	r1, sp, #4
   808aa:	4620      	mov	r0, r4
   808ac:	47b0      	blx	r6
   808ae:	2800      	cmp	r0, #0
   808b0:	d1fa      	bne.n	808a8 <usart_serial_getchar+0x68>
   808b2:	e7de      	b.n	80872 <usart_serial_getchar+0x32>
   808b4:	400e0800 	.word	0x400e0800
   808b8:	00080807 	.word	0x00080807
   808bc:	40098000 	.word	0x40098000
   808c0:	00080829 	.word	0x00080829
   808c4:	4009c000 	.word	0x4009c000
   808c8:	400a0000 	.word	0x400a0000
   808cc:	400a4000 	.word	0x400a4000

000808d0 <usart_serial_putchar>:
   808d0:	4b1b      	ldr	r3, [pc, #108]	; (80940 <usart_serial_putchar+0x70>)
   808d2:	b570      	push	{r4, r5, r6, lr}
   808d4:	4298      	cmp	r0, r3
   808d6:	4604      	mov	r4, r0
   808d8:	460d      	mov	r5, r1
   808da:	d107      	bne.n	808ec <usart_serial_putchar+0x1c>
   808dc:	4e19      	ldr	r6, [pc, #100]	; (80944 <usart_serial_putchar+0x74>)
   808de:	4629      	mov	r1, r5
   808e0:	4620      	mov	r0, r4
   808e2:	47b0      	blx	r6
   808e4:	2800      	cmp	r0, #0
   808e6:	d1fa      	bne.n	808de <usart_serial_putchar+0xe>
   808e8:	2001      	movs	r0, #1
   808ea:	bd70      	pop	{r4, r5, r6, pc}
   808ec:	4b16      	ldr	r3, [pc, #88]	; (80948 <usart_serial_putchar+0x78>)
   808ee:	4298      	cmp	r0, r3
   808f0:	d106      	bne.n	80900 <usart_serial_putchar+0x30>
   808f2:	4e16      	ldr	r6, [pc, #88]	; (8094c <usart_serial_putchar+0x7c>)
   808f4:	4629      	mov	r1, r5
   808f6:	4620      	mov	r0, r4
   808f8:	47b0      	blx	r6
   808fa:	2800      	cmp	r0, #0
   808fc:	d1fa      	bne.n	808f4 <usart_serial_putchar+0x24>
   808fe:	e7f3      	b.n	808e8 <usart_serial_putchar+0x18>
   80900:	4b13      	ldr	r3, [pc, #76]	; (80950 <usart_serial_putchar+0x80>)
   80902:	4298      	cmp	r0, r3
   80904:	d106      	bne.n	80914 <usart_serial_putchar+0x44>
   80906:	4e11      	ldr	r6, [pc, #68]	; (8094c <usart_serial_putchar+0x7c>)
   80908:	4629      	mov	r1, r5
   8090a:	4620      	mov	r0, r4
   8090c:	47b0      	blx	r6
   8090e:	2800      	cmp	r0, #0
   80910:	d1fa      	bne.n	80908 <usart_serial_putchar+0x38>
   80912:	e7e9      	b.n	808e8 <usart_serial_putchar+0x18>
   80914:	4b0f      	ldr	r3, [pc, #60]	; (80954 <usart_serial_putchar+0x84>)
   80916:	4298      	cmp	r0, r3
   80918:	d106      	bne.n	80928 <usart_serial_putchar+0x58>
   8091a:	4e0c      	ldr	r6, [pc, #48]	; (8094c <usart_serial_putchar+0x7c>)
   8091c:	4629      	mov	r1, r5
   8091e:	4620      	mov	r0, r4
   80920:	47b0      	blx	r6
   80922:	2800      	cmp	r0, #0
   80924:	d1fa      	bne.n	8091c <usart_serial_putchar+0x4c>
   80926:	e7df      	b.n	808e8 <usart_serial_putchar+0x18>
   80928:	4b0b      	ldr	r3, [pc, #44]	; (80958 <usart_serial_putchar+0x88>)
   8092a:	4298      	cmp	r0, r3
   8092c:	d106      	bne.n	8093c <usart_serial_putchar+0x6c>
   8092e:	4e07      	ldr	r6, [pc, #28]	; (8094c <usart_serial_putchar+0x7c>)
   80930:	4629      	mov	r1, r5
   80932:	4620      	mov	r0, r4
   80934:	47b0      	blx	r6
   80936:	2800      	cmp	r0, #0
   80938:	d1fa      	bne.n	80930 <usart_serial_putchar+0x60>
   8093a:	e7d5      	b.n	808e8 <usart_serial_putchar+0x18>
   8093c:	2000      	movs	r0, #0
   8093e:	bd70      	pop	{r4, r5, r6, pc}
   80940:	400e0800 	.word	0x400e0800
   80944:	000807f9 	.word	0x000807f9
   80948:	40098000 	.word	0x40098000
   8094c:	00080817 	.word	0x00080817
   80950:	4009c000 	.word	0x4009c000
   80954:	400a0000 	.word	0x400a0000
   80958:	400a4000 	.word	0x400a4000

0008095c <console_init>:
   8095c:	b530      	push	{r4, r5, lr}
   8095e:	2008      	movs	r0, #8
   80960:	b085      	sub	sp, #20
   80962:	4d15      	ldr	r5, [pc, #84]	; (809b8 <console_init+0x5c>)
   80964:	47a8      	blx	r5
   80966:	4c15      	ldr	r4, [pc, #84]	; (809bc <console_init+0x60>)
   80968:	4b15      	ldr	r3, [pc, #84]	; (809c0 <console_init+0x64>)
   8096a:	4a16      	ldr	r2, [pc, #88]	; (809c4 <console_init+0x68>)
   8096c:	601c      	str	r4, [r3, #0]
   8096e:	4b16      	ldr	r3, [pc, #88]	; (809c8 <console_init+0x6c>)
   80970:	2008      	movs	r0, #8
   80972:	601a      	str	r2, [r3, #0]
   80974:	4a15      	ldr	r2, [pc, #84]	; (809cc <console_init+0x70>)
   80976:	4b16      	ldr	r3, [pc, #88]	; (809d0 <console_init+0x74>)
   80978:	601a      	str	r2, [r3, #0]
   8097a:	4b16      	ldr	r3, [pc, #88]	; (809d4 <console_init+0x78>)
   8097c:	9301      	str	r3, [sp, #4]
   8097e:	f44f 33e1 	mov.w	r3, #115200	; 0x1c200
   80982:	9302      	str	r3, [sp, #8]
   80984:	f44f 6300 	mov.w	r3, #2048	; 0x800
   80988:	9303      	str	r3, [sp, #12]
   8098a:	47a8      	blx	r5
   8098c:	4d12      	ldr	r5, [pc, #72]	; (809d8 <console_init+0x7c>)
   8098e:	a901      	add	r1, sp, #4
   80990:	4620      	mov	r0, r4
   80992:	4b12      	ldr	r3, [pc, #72]	; (809dc <console_init+0x80>)
   80994:	4798      	blx	r3
   80996:	682b      	ldr	r3, [r5, #0]
   80998:	4c11      	ldr	r4, [pc, #68]	; (809e0 <console_init+0x84>)
   8099a:	6898      	ldr	r0, [r3, #8]
   8099c:	2100      	movs	r1, #0
   8099e:	47a0      	blx	r4
   809a0:	682b      	ldr	r3, [r5, #0]
   809a2:	2100      	movs	r1, #0
   809a4:	6858      	ldr	r0, [r3, #4]
   809a6:	47a0      	blx	r4
   809a8:	4c0e      	ldr	r4, [pc, #56]	; (809e4 <console_init+0x88>)
   809aa:	480f      	ldr	r0, [pc, #60]	; (809e8 <console_init+0x8c>)
   809ac:	47a0      	blx	r4
   809ae:	480f      	ldr	r0, [pc, #60]	; (809ec <console_init+0x90>)
   809b0:	47a0      	blx	r4
   809b2:	2000      	movs	r0, #0
   809b4:	b005      	add	sp, #20
   809b6:	bd30      	pop	{r4, r5, pc}
   809b8:	0008121d 	.word	0x0008121d
   809bc:	400e0800 	.word	0x400e0800
   809c0:	20070c58 	.word	0x20070c58
   809c4:	000808d1 	.word	0x000808d1
   809c8:	20070c54 	.word	0x20070c54
   809cc:	00080841 	.word	0x00080841
   809d0:	20070c50 	.word	0x20070c50
   809d4:	0501bd00 	.word	0x0501bd00
   809d8:	200700f4 	.word	0x200700f4
   809dc:	000807c5 	.word	0x000807c5
   809e0:	000821a5 	.word	0x000821a5
   809e4:	00081ff5 	.word	0x00081ff5
   809e8:	00084f25 	.word	0x00084f25
   809ec:	00084f34 	.word	0x00084f34

000809f0 <interrupt_init>:
   809f0:	b5f7      	push	{r0, r1, r2, r4, r5, r6, r7, lr}
   809f2:	4c15      	ldr	r4, [pc, #84]	; (80a48 <interrupt_init+0x58>)
   809f4:	4b15      	ldr	r3, [pc, #84]	; (80a4c <interrupt_init+0x5c>)
   809f6:	200d      	movs	r0, #13
   809f8:	4798      	blx	r3
   809fa:	4f15      	ldr	r7, [pc, #84]	; (80a50 <interrupt_init+0x60>)
   809fc:	4620      	mov	r0, r4
   809fe:	2200      	movs	r2, #0
   80a00:	2156      	movs	r1, #86	; 0x56
   80a02:	47b8      	blx	r7
   80a04:	4b13      	ldr	r3, [pc, #76]	; (80a54 <interrupt_init+0x64>)
   80a06:	2256      	movs	r2, #86	; 0x56
   80a08:	9300      	str	r3, [sp, #0]
   80a0a:	4e13      	ldr	r6, [pc, #76]	; (80a58 <interrupt_init+0x68>)
   80a0c:	2340      	movs	r3, #64	; 0x40
   80a0e:	210d      	movs	r1, #13
   80a10:	4620      	mov	r0, r4
   80a12:	47b0      	blx	r6
   80a14:	4d11      	ldr	r5, [pc, #68]	; (80a5c <interrupt_init+0x6c>)
   80a16:	4620      	mov	r0, r4
   80a18:	2156      	movs	r1, #86	; 0x56
   80a1a:	47a8      	blx	r5
   80a1c:	4620      	mov	r0, r4
   80a1e:	2200      	movs	r2, #0
   80a20:	2157      	movs	r1, #87	; 0x57
   80a22:	47b8      	blx	r7
   80a24:	4b0e      	ldr	r3, [pc, #56]	; (80a60 <interrupt_init+0x70>)
   80a26:	2257      	movs	r2, #87	; 0x57
   80a28:	9300      	str	r3, [sp, #0]
   80a2a:	210d      	movs	r1, #13
   80a2c:	2340      	movs	r3, #64	; 0x40
   80a2e:	4620      	mov	r0, r4
   80a30:	47b0      	blx	r6
   80a32:	4620      	mov	r0, r4
   80a34:	2157      	movs	r1, #87	; 0x57
   80a36:	47a8      	blx	r5
   80a38:	f44f 5200 	mov.w	r2, #8192	; 0x2000
   80a3c:	2000      	movs	r0, #0
   80a3e:	4b09      	ldr	r3, [pc, #36]	; (80a64 <interrupt_init+0x74>)
   80a40:	601a      	str	r2, [r3, #0]
   80a42:	b003      	add	sp, #12
   80a44:	bdf0      	pop	{r4, r5, r6, r7, pc}
   80a46:	bf00      	nop
   80a48:	400e1200 	.word	0x400e1200
   80a4c:	0008121d 	.word	0x0008121d
   80a50:	00080e93 	.word	0x00080e93
   80a54:	0008058d 	.word	0x0008058d
   80a58:	000810b5 	.word	0x000810b5
   80a5c:	00080ee3 	.word	0x00080ee3
   80a60:	000805ad 	.word	0x000805ad
   80a64:	e000e100 	.word	0xe000e100

00080a68 <misc_init>:
   80a68:	b510      	push	{r4, lr}
   80a6a:	4b1c      	ldr	r3, [pc, #112]	; (80adc <misc_init+0x74>)
   80a6c:	4798      	blx	r3
   80a6e:	4b1c      	ldr	r3, [pc, #112]	; (80ae0 <misc_init+0x78>)
   80a70:	4798      	blx	r3
   80a72:	4b1c      	ldr	r3, [pc, #112]	; (80ae4 <misc_init+0x7c>)
   80a74:	4798      	blx	r3
   80a76:	4b1c      	ldr	r3, [pc, #112]	; (80ae8 <misc_init+0x80>)
   80a78:	4798      	blx	r3
   80a7a:	4b1c      	ldr	r3, [pc, #112]	; (80aec <misc_init+0x84>)
   80a7c:	4798      	blx	r3
   80a7e:	4b1c      	ldr	r3, [pc, #112]	; (80af0 <misc_init+0x88>)
   80a80:	4798      	blx	r3
   80a82:	4c1c      	ldr	r4, [pc, #112]	; (80af4 <misc_init+0x8c>)
   80a84:	200b      	movs	r0, #11
   80a86:	47a0      	blx	r4
   80a88:	200c      	movs	r0, #12
   80a8a:	47a0      	blx	r4
   80a8c:	200d      	movs	r0, #13
   80a8e:	47a0      	blx	r4
   80a90:	200e      	movs	r0, #14
   80a92:	47a0      	blx	r4
   80a94:	f04f 7200 	mov.w	r2, #33554432	; 0x2000000
   80a98:	4b17      	ldr	r3, [pc, #92]	; (80af8 <misc_init+0x90>)
   80a9a:	2000      	movs	r0, #0
   80a9c:	611a      	str	r2, [r3, #16]
   80a9e:	f8c3 20a0 	str.w	r2, [r3, #160]	; 0xa0
   80aa2:	f8c3 2214 	str.w	r2, [r3, #532]	; 0x214
   80aa6:	f8c3 22a0 	str.w	r2, [r3, #672]	; 0x2a0
   80aaa:	f44f 0200 	mov.w	r2, #8388608	; 0x800000
   80aae:	f8c3 2214 	str.w	r2, [r3, #532]	; 0x214
   80ab2:	f8c3 22a0 	str.w	r2, [r3, #672]	; 0x2a0
   80ab6:	f44f 0280 	mov.w	r2, #4194304	; 0x400000
   80aba:	f8c3 2214 	str.w	r2, [r3, #532]	; 0x214
   80abe:	f8c3 22a0 	str.w	r2, [r3, #672]	; 0x2a0
   80ac2:	f04f 5280 	mov.w	r2, #268435456	; 0x10000000
   80ac6:	f5a3 7300 	sub.w	r3, r3, #512	; 0x200
   80aca:	615a      	str	r2, [r3, #20]
   80acc:	f8c3 20a0 	str.w	r2, [r3, #160]	; 0xa0
   80ad0:	2204      	movs	r2, #4
   80ad2:	615a      	str	r2, [r3, #20]
   80ad4:	f8c3 20a0 	str.w	r2, [r3, #160]	; 0xa0
   80ad8:	bd10      	pop	{r4, pc}
   80ada:	bf00      	nop
   80adc:	00080d69 	.word	0x00080d69
   80ae0:	00080dd1 	.word	0x00080dd1
   80ae4:	0008095d 	.word	0x0008095d
   80ae8:	000809f1 	.word	0x000809f1
   80aec:	000803f5 	.word	0x000803f5
   80af0:	0008054d 	.word	0x0008054d
   80af4:	0008121d 	.word	0x0008121d
   80af8:	400e1000 	.word	0x400e1000

00080afc <vListInsertEnd>:
   80afc:	6843      	ldr	r3, [r0, #4]
   80afe:	685a      	ldr	r2, [r3, #4]
   80b00:	604a      	str	r2, [r1, #4]
   80b02:	6842      	ldr	r2, [r0, #4]
   80b04:	608a      	str	r2, [r1, #8]
   80b06:	685a      	ldr	r2, [r3, #4]
   80b08:	6091      	str	r1, [r2, #8]
   80b0a:	6059      	str	r1, [r3, #4]
   80b0c:	6041      	str	r1, [r0, #4]
   80b0e:	6108      	str	r0, [r1, #16]
   80b10:	6803      	ldr	r3, [r0, #0]
   80b12:	3301      	adds	r3, #1
   80b14:	6003      	str	r3, [r0, #0]
   80b16:	4770      	bx	lr

00080b18 <uxListRemove>:
   80b18:	6843      	ldr	r3, [r0, #4]
   80b1a:	6882      	ldr	r2, [r0, #8]
   80b1c:	609a      	str	r2, [r3, #8]
   80b1e:	6883      	ldr	r3, [r0, #8]
   80b20:	6842      	ldr	r2, [r0, #4]
   80b22:	605a      	str	r2, [r3, #4]
   80b24:	6903      	ldr	r3, [r0, #16]
   80b26:	685a      	ldr	r2, [r3, #4]
   80b28:	4290      	cmp	r0, r2
   80b2a:	bf04      	itt	eq
   80b2c:	6882      	ldreq	r2, [r0, #8]
   80b2e:	605a      	streq	r2, [r3, #4]
   80b30:	2200      	movs	r2, #0
   80b32:	6102      	str	r2, [r0, #16]
   80b34:	681a      	ldr	r2, [r3, #0]
   80b36:	3a01      	subs	r2, #1
   80b38:	601a      	str	r2, [r3, #0]
   80b3a:	6818      	ldr	r0, [r3, #0]
   80b3c:	4770      	bx	lr
	...

00080b40 <SVC_Handler>:
   80b40:	4b06      	ldr	r3, [pc, #24]	; (80b5c <pxCurrentTCBConst2>)
   80b42:	6819      	ldr	r1, [r3, #0]
   80b44:	6808      	ldr	r0, [r1, #0]
   80b46:	e8b0 0ff0 	ldmia.w	r0!, {r4, r5, r6, r7, r8, r9, sl, fp}
   80b4a:	f380 8809 	msr	PSP, r0
   80b4e:	f04f 0000 	mov.w	r0, #0
   80b52:	f380 8811 	msr	BASEPRI, r0
   80b56:	f04e 0e0d 	orr.w	lr, lr, #13
   80b5a:	4770      	bx	lr

00080b5c <pxCurrentTCBConst2>:
   80b5c:	20070ac0 	.word	0x20070ac0

00080b60 <ulPortSetInterruptMask>:
   80b60:	f3ef 8011 	mrs	r0, BASEPRI
   80b64:	f04f 01a0 	mov.w	r1, #160	; 0xa0
   80b68:	f381 8811 	msr	BASEPRI, r1
   80b6c:	4770      	bx	lr
   80b6e:	2000      	movs	r0, #0

00080b70 <vPortClearInterruptMask>:
   80b70:	f380 8811 	msr	BASEPRI, r0
   80b74:	4770      	bx	lr
	...

00080b78 <PendSV_Handler>:
   80b78:	f3ef 8009 	mrs	r0, PSP
   80b7c:	4b0c      	ldr	r3, [pc, #48]	; (80bb0 <pxCurrentTCBConst>)
   80b7e:	681a      	ldr	r2, [r3, #0]
   80b80:	e920 0ff0 	stmdb	r0!, {r4, r5, r6, r7, r8, r9, sl, fp}
   80b84:	6010      	str	r0, [r2, #0]
   80b86:	e92d 4008 	stmdb	sp!, {r3, lr}
   80b8a:	f04f 00a0 	mov.w	r0, #160	; 0xa0
   80b8e:	f380 8811 	msr	BASEPRI, r0
   80b92:	f000 f8af 	bl	80cf4 <vTaskSwitchContext>
   80b96:	f04f 0000 	mov.w	r0, #0
   80b9a:	f380 8811 	msr	BASEPRI, r0
   80b9e:	e8bd 4008 	ldmia.w	sp!, {r3, lr}
   80ba2:	6819      	ldr	r1, [r3, #0]
   80ba4:	6808      	ldr	r0, [r1, #0]
   80ba6:	e8b0 0ff0 	ldmia.w	r0!, {r4, r5, r6, r7, r8, r9, sl, fp}
   80baa:	f380 8809 	msr	PSP, r0
   80bae:	4770      	bx	lr

00080bb0 <pxCurrentTCBConst>:
   80bb0:	20070ac0 	.word	0x20070ac0

00080bb4 <SysTick_Handler>:
   80bb4:	f04f 5280 	mov.w	r2, #268435456	; 0x10000000
   80bb8:	b510      	push	{r4, lr}
   80bba:	4b05      	ldr	r3, [pc, #20]	; (80bd0 <SysTick_Handler+0x1c>)
   80bbc:	601a      	str	r2, [r3, #0]
   80bbe:	4b05      	ldr	r3, [pc, #20]	; (80bd4 <SysTick_Handler+0x20>)
   80bc0:	4798      	blx	r3
   80bc2:	4b05      	ldr	r3, [pc, #20]	; (80bd8 <SysTick_Handler+0x24>)
   80bc4:	4798      	blx	r3
   80bc6:	e8bd 4010 	ldmia.w	sp!, {r4, lr}
   80bca:	2000      	movs	r0, #0
   80bcc:	4b03      	ldr	r3, [pc, #12]	; (80bdc <SysTick_Handler+0x28>)
   80bce:	4718      	bx	r3
   80bd0:	e000ed04 	.word	0xe000ed04
   80bd4:	00080b61 	.word	0x00080b61
   80bd8:	00080c01 	.word	0x00080c01
   80bdc:	00080b71 	.word	0x00080b71

00080be0 <xTaskGetTickCountFromISR>:
   80be0:	b510      	push	{r4, lr}
   80be2:	4b04      	ldr	r3, [pc, #16]	; (80bf4 <xTaskGetTickCountFromISR+0x14>)
   80be4:	4798      	blx	r3
   80be6:	4b04      	ldr	r3, [pc, #16]	; (80bf8 <xTaskGetTickCountFromISR+0x18>)
   80be8:	681c      	ldr	r4, [r3, #0]
   80bea:	4b04      	ldr	r3, [pc, #16]	; (80bfc <xTaskGetTickCountFromISR+0x1c>)
   80bec:	4798      	blx	r3
   80bee:	4620      	mov	r0, r4
   80bf0:	bd10      	pop	{r4, pc}
   80bf2:	bf00      	nop
   80bf4:	00080b61 	.word	0x00080b61
   80bf8:	20070b44 	.word	0x20070b44
   80bfc:	00080b71 	.word	0x00080b71

00080c00 <vTaskIncrementTick>:
   80c00:	e92d 47f0 	stmdb	sp!, {r4, r5, r6, r7, r8, r9, sl, lr}
   80c04:	4b2f      	ldr	r3, [pc, #188]	; (80cc4 <vTaskIncrementTick+0xc4>)
   80c06:	681b      	ldr	r3, [r3, #0]
   80c08:	2b00      	cmp	r3, #0
   80c0a:	d155      	bne.n	80cb8 <vTaskIncrementTick+0xb8>
   80c0c:	4e2e      	ldr	r6, [pc, #184]	; (80cc8 <vTaskIncrementTick+0xc8>)
   80c0e:	6832      	ldr	r2, [r6, #0]
   80c10:	3201      	adds	r2, #1
   80c12:	6032      	str	r2, [r6, #0]
   80c14:	6832      	ldr	r2, [r6, #0]
   80c16:	b9ba      	cbnz	r2, 80c48 <vTaskIncrementTick+0x48>
   80c18:	4b2c      	ldr	r3, [pc, #176]	; (80ccc <vTaskIncrementTick+0xcc>)
   80c1a:	681a      	ldr	r2, [r3, #0]
   80c1c:	6812      	ldr	r2, [r2, #0]
   80c1e:	b11a      	cbz	r2, 80c28 <vTaskIncrementTick+0x28>
   80c20:	4b2b      	ldr	r3, [pc, #172]	; (80cd0 <vTaskIncrementTick+0xd0>)
   80c22:	4798      	blx	r3
   80c24:	bf00      	nop
   80c26:	e7fd      	b.n	80c24 <vTaskIncrementTick+0x24>
   80c28:	4a2a      	ldr	r2, [pc, #168]	; (80cd4 <vTaskIncrementTick+0xd4>)
   80c2a:	6819      	ldr	r1, [r3, #0]
   80c2c:	6810      	ldr	r0, [r2, #0]
   80c2e:	6018      	str	r0, [r3, #0]
   80c30:	6011      	str	r1, [r2, #0]
   80c32:	4929      	ldr	r1, [pc, #164]	; (80cd8 <vTaskIncrementTick+0xd8>)
   80c34:	680a      	ldr	r2, [r1, #0]
   80c36:	3201      	adds	r2, #1
   80c38:	600a      	str	r2, [r1, #0]
   80c3a:	681a      	ldr	r2, [r3, #0]
   80c3c:	6811      	ldr	r1, [r2, #0]
   80c3e:	4a27      	ldr	r2, [pc, #156]	; (80cdc <vTaskIncrementTick+0xdc>)
   80c40:	b9b1      	cbnz	r1, 80c70 <vTaskIncrementTick+0x70>
   80c42:	f04f 33ff 	mov.w	r3, #4294967295
   80c46:	6013      	str	r3, [r2, #0]
   80c48:	4c24      	ldr	r4, [pc, #144]	; (80cdc <vTaskIncrementTick+0xdc>)
   80c4a:	6832      	ldr	r2, [r6, #0]
   80c4c:	6823      	ldr	r3, [r4, #0]
   80c4e:	429a      	cmp	r2, r3
   80c50:	d336      	bcc.n	80cc0 <vTaskIncrementTick+0xc0>
   80c52:	f8df 8078 	ldr.w	r8, [pc, #120]	; 80ccc <vTaskIncrementTick+0xcc>
   80c56:	f8df 9094 	ldr.w	r9, [pc, #148]	; 80cec <vTaskIncrementTick+0xec>
   80c5a:	f8df a094 	ldr.w	sl, [pc, #148]	; 80cf0 <vTaskIncrementTick+0xf0>
   80c5e:	f8d8 3000 	ldr.w	r3, [r8]
   80c62:	681b      	ldr	r3, [r3, #0]
   80c64:	b94b      	cbnz	r3, 80c7a <vTaskIncrementTick+0x7a>
   80c66:	f04f 33ff 	mov.w	r3, #4294967295
   80c6a:	6023      	str	r3, [r4, #0]
   80c6c:	e8bd 87f0 	ldmia.w	sp!, {r4, r5, r6, r7, r8, r9, sl, pc}
   80c70:	681b      	ldr	r3, [r3, #0]
   80c72:	68db      	ldr	r3, [r3, #12]
   80c74:	68db      	ldr	r3, [r3, #12]
   80c76:	685b      	ldr	r3, [r3, #4]
   80c78:	e7e5      	b.n	80c46 <vTaskIncrementTick+0x46>
   80c7a:	f8d8 3000 	ldr.w	r3, [r8]
   80c7e:	68db      	ldr	r3, [r3, #12]
   80c80:	68dd      	ldr	r5, [r3, #12]
   80c82:	6832      	ldr	r2, [r6, #0]
   80c84:	686b      	ldr	r3, [r5, #4]
   80c86:	4293      	cmp	r3, r2
   80c88:	d8ef      	bhi.n	80c6a <vTaskIncrementTick+0x6a>
   80c8a:	1d2f      	adds	r7, r5, #4
   80c8c:	4638      	mov	r0, r7
   80c8e:	47c8      	blx	r9
   80c90:	6aab      	ldr	r3, [r5, #40]	; 0x28
   80c92:	b113      	cbz	r3, 80c9a <vTaskIncrementTick+0x9a>
   80c94:	f105 0018 	add.w	r0, r5, #24
   80c98:	47c8      	blx	r9
   80c9a:	2014      	movs	r0, #20
   80c9c:	6aeb      	ldr	r3, [r5, #44]	; 0x2c
   80c9e:	f8da 2000 	ldr.w	r2, [sl]
   80ca2:	4639      	mov	r1, r7
   80ca4:	4293      	cmp	r3, r2
   80ca6:	4a0e      	ldr	r2, [pc, #56]	; (80ce0 <vTaskIncrementTick+0xe0>)
   80ca8:	bf88      	it	hi
   80caa:	f8ca 3000 	strhi.w	r3, [sl]
   80cae:	fb00 2003 	mla	r0, r0, r3, r2
   80cb2:	4b0c      	ldr	r3, [pc, #48]	; (80ce4 <vTaskIncrementTick+0xe4>)
   80cb4:	4798      	blx	r3
   80cb6:	e7d2      	b.n	80c5e <vTaskIncrementTick+0x5e>
   80cb8:	4a0b      	ldr	r2, [pc, #44]	; (80ce8 <vTaskIncrementTick+0xe8>)
   80cba:	6813      	ldr	r3, [r2, #0]
   80cbc:	3301      	adds	r3, #1
   80cbe:	6013      	str	r3, [r2, #0]
   80cc0:	e8bd 87f0 	ldmia.w	sp!, {r4, r5, r6, r7, r8, r9, sl, pc}
   80cc4:	20070b34 	.word	0x20070b34
   80cc8:	20070b44 	.word	0x20070b44
   80ccc:	20070ac4 	.word	0x20070ac4
   80cd0:	00080b61 	.word	0x00080b61
   80cd4:	20070ac8 	.word	0x20070ac8
   80cd8:	20070b40 	.word	0x20070b40
   80cdc:	200700e8 	.word	0x200700e8
   80ce0:	20070acc 	.word	0x20070acc
   80ce4:	00080afd 	.word	0x00080afd
   80ce8:	20070b30 	.word	0x20070b30
   80cec:	00080b19 	.word	0x00080b19
   80cf0:	20070b38 	.word	0x20070b38

00080cf4 <vTaskSwitchContext>:
   80cf4:	b538      	push	{r3, r4, r5, lr}
   80cf6:	4b16      	ldr	r3, [pc, #88]	; (80d50 <vTaskSwitchContext+0x5c>)
   80cf8:	681b      	ldr	r3, [r3, #0]
   80cfa:	b9d3      	cbnz	r3, 80d32 <vTaskSwitchContext+0x3e>
   80cfc:	4a15      	ldr	r2, [pc, #84]	; (80d54 <vTaskSwitchContext+0x60>)
   80cfe:	2314      	movs	r3, #20
   80d00:	4615      	mov	r5, r2
   80d02:	4915      	ldr	r1, [pc, #84]	; (80d58 <vTaskSwitchContext+0x64>)
   80d04:	6808      	ldr	r0, [r1, #0]
   80d06:	4358      	muls	r0, r3
   80d08:	5810      	ldr	r0, [r2, r0]
   80d0a:	b1b0      	cbz	r0, 80d3a <vTaskSwitchContext+0x46>
   80d0c:	6809      	ldr	r1, [r1, #0]
   80d0e:	434b      	muls	r3, r1
   80d10:	18d0      	adds	r0, r2, r3
   80d12:	6844      	ldr	r4, [r0, #4]
   80d14:	3308      	adds	r3, #8
   80d16:	6864      	ldr	r4, [r4, #4]
   80d18:	4413      	add	r3, r2
   80d1a:	6044      	str	r4, [r0, #4]
   80d1c:	429c      	cmp	r4, r3
   80d1e:	bf04      	itt	eq
   80d20:	6863      	ldreq	r3, [r4, #4]
   80d22:	6043      	streq	r3, [r0, #4]
   80d24:	2314      	movs	r3, #20
   80d26:	fb03 5101 	mla	r1, r3, r1, r5
   80d2a:	684b      	ldr	r3, [r1, #4]
   80d2c:	68da      	ldr	r2, [r3, #12]
   80d2e:	4b0b      	ldr	r3, [pc, #44]	; (80d5c <vTaskSwitchContext+0x68>)
   80d30:	e001      	b.n	80d36 <vTaskSwitchContext+0x42>
   80d32:	2201      	movs	r2, #1
   80d34:	4b0a      	ldr	r3, [pc, #40]	; (80d60 <vTaskSwitchContext+0x6c>)
   80d36:	601a      	str	r2, [r3, #0]
   80d38:	bd38      	pop	{r3, r4, r5, pc}
   80d3a:	6808      	ldr	r0, [r1, #0]
   80d3c:	b918      	cbnz	r0, 80d46 <vTaskSwitchContext+0x52>
   80d3e:	4b09      	ldr	r3, [pc, #36]	; (80d64 <vTaskSwitchContext+0x70>)
   80d40:	4798      	blx	r3
   80d42:	bf00      	nop
   80d44:	e7fd      	b.n	80d42 <vTaskSwitchContext+0x4e>
   80d46:	6808      	ldr	r0, [r1, #0]
   80d48:	3801      	subs	r0, #1
   80d4a:	6008      	str	r0, [r1, #0]
   80d4c:	e7da      	b.n	80d04 <vTaskSwitchContext+0x10>
   80d4e:	bf00      	nop
   80d50:	20070b34 	.word	0x20070b34
   80d54:	20070acc 	.word	0x20070acc
   80d58:	20070b38 	.word	0x20070b38
   80d5c:	20070ac0 	.word	0x20070ac0
   80d60:	20070b3c 	.word	0x20070b3c
   80d64:	00080b61 	.word	0x00080b61

00080d68 <sysclk_init>:
   80d68:	b570      	push	{r4, r5, r6, lr}
   80d6a:	480f      	ldr	r0, [pc, #60]	; (80da8 <sysclk_init+0x40>)
   80d6c:	4c0f      	ldr	r4, [pc, #60]	; (80dac <sysclk_init+0x44>)
   80d6e:	47a0      	blx	r4
   80d70:	213e      	movs	r1, #62	; 0x3e
   80d72:	2000      	movs	r0, #0
   80d74:	4b0e      	ldr	r3, [pc, #56]	; (80db0 <sysclk_init+0x48>)
   80d76:	4798      	blx	r3
   80d78:	4d0e      	ldr	r5, [pc, #56]	; (80db4 <sysclk_init+0x4c>)
   80d7a:	47a8      	blx	r5
   80d7c:	2800      	cmp	r0, #0
   80d7e:	d0fc      	beq.n	80d7a <sysclk_init+0x12>
   80d80:	4b0d      	ldr	r3, [pc, #52]	; (80db8 <sysclk_init+0x50>)
   80d82:	4798      	blx	r3
   80d84:	4a0d      	ldr	r2, [pc, #52]	; (80dbc <sysclk_init+0x54>)
   80d86:	4b0e      	ldr	r3, [pc, #56]	; (80dc0 <sysclk_init+0x58>)
   80d88:	4d0e      	ldr	r5, [pc, #56]	; (80dc4 <sysclk_init+0x5c>)
   80d8a:	629a      	str	r2, [r3, #40]	; 0x28
   80d8c:	47a8      	blx	r5
   80d8e:	2800      	cmp	r0, #0
   80d90:	d0fc      	beq.n	80d8c <sysclk_init+0x24>
   80d92:	4b0d      	ldr	r3, [pc, #52]	; (80dc8 <sysclk_init+0x60>)
   80d94:	2010      	movs	r0, #16
   80d96:	4798      	blx	r3
   80d98:	4b0c      	ldr	r3, [pc, #48]	; (80dcc <sysclk_init+0x64>)
   80d9a:	4798      	blx	r3
   80d9c:	4623      	mov	r3, r4
   80d9e:	e8bd 4070 	ldmia.w	sp!, {r4, r5, r6, lr}
   80da2:	4801      	ldr	r0, [pc, #4]	; (80da8 <sysclk_init+0x40>)
   80da4:	4718      	bx	r3
   80da6:	bf00      	nop
   80da8:	0501bd00 	.word	0x0501bd00
   80dac:	20070081 	.word	0x20070081
   80db0:	000811a5 	.word	0x000811a5
   80db4:	000811ed 	.word	0x000811ed
   80db8:	000811fd 	.word	0x000811fd
   80dbc:	200d3f01 	.word	0x200d3f01
   80dc0:	400e0600 	.word	0x400e0600
   80dc4:	0008120d 	.word	0x0008120d
   80dc8:	00081161 	.word	0x00081161
   80dcc:	000812dd 	.word	0x000812dd

00080dd0 <board_init>:
   80dd0:	f44f 4200 	mov.w	r2, #32768	; 0x8000
   80dd4:	4b17      	ldr	r3, [pc, #92]	; (80e34 <board_init+0x64>)
   80dd6:	b510      	push	{r4, lr}
   80dd8:	200b      	movs	r0, #11
   80dda:	605a      	str	r2, [r3, #4]
   80ddc:	4c16      	ldr	r4, [pc, #88]	; (80e38 <board_init+0x68>)
   80dde:	47a0      	blx	r4
   80de0:	200c      	movs	r0, #12
   80de2:	47a0      	blx	r4
   80de4:	200d      	movs	r0, #13
   80de6:	47a0      	blx	r4
   80de8:	200e      	movs	r0, #14
   80dea:	47a0      	blx	r4
   80dec:	4c13      	ldr	r4, [pc, #76]	; (80e3c <board_init+0x6c>)
   80dee:	f04f 5160 	mov.w	r1, #939524096	; 0x38000000
   80df2:	203b      	movs	r0, #59	; 0x3b
   80df4:	47a0      	blx	r4
   80df6:	f04f 5160 	mov.w	r1, #939524096	; 0x38000000
   80dfa:	2055      	movs	r0, #85	; 0x55
   80dfc:	47a0      	blx	r4
   80dfe:	f04f 5160 	mov.w	r1, #939524096	; 0x38000000
   80e02:	2056      	movs	r0, #86	; 0x56
   80e04:	47a0      	blx	r4
   80e06:	490e      	ldr	r1, [pc, #56]	; (80e40 <board_init+0x70>)
   80e08:	2068      	movs	r0, #104	; 0x68
   80e0a:	47a0      	blx	r4
   80e0c:	490d      	ldr	r1, [pc, #52]	; (80e44 <board_init+0x74>)
   80e0e:	205c      	movs	r0, #92	; 0x5c
   80e10:	47a0      	blx	r4
   80e12:	4b0d      	ldr	r3, [pc, #52]	; (80e48 <board_init+0x78>)
   80e14:	4a0d      	ldr	r2, [pc, #52]	; (80e4c <board_init+0x7c>)
   80e16:	f44f 7140 	mov.w	r1, #768	; 0x300
   80e1a:	480d      	ldr	r0, [pc, #52]	; (80e50 <board_init+0x80>)
   80e1c:	4798      	blx	r3
   80e1e:	f04f 6100 	mov.w	r1, #134217728	; 0x8000000
   80e22:	202b      	movs	r0, #43	; 0x2b
   80e24:	47a0      	blx	r4
   80e26:	4623      	mov	r3, r4
   80e28:	e8bd 4010 	ldmia.w	sp!, {r4, lr}
   80e2c:	f04f 6100 	mov.w	r1, #134217728	; 0x8000000
   80e30:	202a      	movs	r0, #42	; 0x2a
   80e32:	4718      	bx	r3
   80e34:	400e1a50 	.word	0x400e1a50
   80e38:	0008121d 	.word	0x0008121d
   80e3c:	00080f21 	.word	0x00080f21
   80e40:	28000079 	.word	0x28000079
   80e44:	28000001 	.word	0x28000001
   80e48:	00080fe5 	.word	0x00080fe5
   80e4c:	08000001 	.word	0x08000001
   80e50:	400e0e00 	.word	0x400e0e00

00080e54 <pio_set_peripheral>:
   80e54:	f1b1 5f80 	cmp.w	r1, #268435456	; 0x10000000
   80e58:	6442      	str	r2, [r0, #68]	; 0x44
   80e5a:	d017      	beq.n	80e8c <pio_set_peripheral+0x38>
   80e5c:	d805      	bhi.n	80e6a <pio_set_peripheral+0x16>
   80e5e:	b119      	cbz	r1, 80e68 <pio_set_peripheral+0x14>
   80e60:	f1b1 6f00 	cmp.w	r1, #134217728	; 0x8000000
   80e64:	d00b      	beq.n	80e7e <pio_set_peripheral+0x2a>
   80e66:	6042      	str	r2, [r0, #4]
   80e68:	4770      	bx	lr
   80e6a:	f1b1 5f40 	cmp.w	r1, #805306368	; 0x30000000
   80e6e:	d0fb      	beq.n	80e68 <pio_set_peripheral+0x14>
   80e70:	f1b1 5f60 	cmp.w	r1, #939524096	; 0x38000000
   80e74:	d0f8      	beq.n	80e68 <pio_set_peripheral+0x14>
   80e76:	f1b1 5f20 	cmp.w	r1, #671088640	; 0x28000000
   80e7a:	d1f4      	bne.n	80e66 <pio_set_peripheral+0x12>
   80e7c:	4770      	bx	lr
   80e7e:	6f03      	ldr	r3, [r0, #112]	; 0x70
   80e80:	6f01      	ldr	r1, [r0, #112]	; 0x70
   80e82:	400b      	ands	r3, r1
   80e84:	ea23 0302 	bic.w	r3, r3, r2
   80e88:	6703      	str	r3, [r0, #112]	; 0x70
   80e8a:	e7ec      	b.n	80e66 <pio_set_peripheral+0x12>
   80e8c:	6f03      	ldr	r3, [r0, #112]	; 0x70
   80e8e:	4313      	orrs	r3, r2
   80e90:	e7fa      	b.n	80e88 <pio_set_peripheral+0x34>

00080e92 <pio_set_input>:
   80e92:	07d3      	lsls	r3, r2, #31
   80e94:	6441      	str	r1, [r0, #68]	; 0x44
   80e96:	bf4c      	ite	mi
   80e98:	6641      	strmi	r1, [r0, #100]	; 0x64
   80e9a:	6601      	strpl	r1, [r0, #96]	; 0x60
   80e9c:	f012 0f0a 	tst.w	r2, #10
   80ea0:	bf14      	ite	ne
   80ea2:	6201      	strne	r1, [r0, #32]
   80ea4:	6241      	streq	r1, [r0, #36]	; 0x24
   80ea6:	0793      	lsls	r3, r2, #30
   80ea8:	d504      	bpl.n	80eb4 <pio_set_input+0x22>
   80eaa:	f8c0 1080 	str.w	r1, [r0, #128]	; 0x80
   80eae:	6141      	str	r1, [r0, #20]
   80eb0:	6001      	str	r1, [r0, #0]
   80eb2:	4770      	bx	lr
   80eb4:	0713      	lsls	r3, r2, #28
   80eb6:	bf48      	it	mi
   80eb8:	f8c0 1084 	strmi.w	r1, [r0, #132]	; 0x84
   80ebc:	e7f7      	b.n	80eae <pio_set_input+0x1c>

00080ebe <pio_set_output>:
   80ebe:	b510      	push	{r4, lr}
   80ec0:	9c02      	ldr	r4, [sp, #8]
   80ec2:	6441      	str	r1, [r0, #68]	; 0x44
   80ec4:	b13c      	cbz	r4, 80ed6 <pio_set_output+0x18>
   80ec6:	6641      	str	r1, [r0, #100]	; 0x64
   80ec8:	b13b      	cbz	r3, 80eda <pio_set_output+0x1c>
   80eca:	6501      	str	r1, [r0, #80]	; 0x50
   80ecc:	b13a      	cbz	r2, 80ede <pio_set_output+0x20>
   80ece:	6301      	str	r1, [r0, #48]	; 0x30
   80ed0:	6101      	str	r1, [r0, #16]
   80ed2:	6001      	str	r1, [r0, #0]
   80ed4:	bd10      	pop	{r4, pc}
   80ed6:	6601      	str	r1, [r0, #96]	; 0x60
   80ed8:	e7f6      	b.n	80ec8 <pio_set_output+0xa>
   80eda:	6541      	str	r1, [r0, #84]	; 0x54
   80edc:	e7f6      	b.n	80ecc <pio_set_output+0xe>
   80ede:	6341      	str	r1, [r0, #52]	; 0x34
   80ee0:	e7f6      	b.n	80ed0 <pio_set_output+0x12>

00080ee2 <pio_enable_interrupt>:
   80ee2:	6401      	str	r1, [r0, #64]	; 0x40
   80ee4:	4770      	bx	lr

00080ee6 <pio_get_interrupt_status>:
   80ee6:	6cc0      	ldr	r0, [r0, #76]	; 0x4c
   80ee8:	4770      	bx	lr

00080eea <pio_get_interrupt_mask>:
   80eea:	6c80      	ldr	r0, [r0, #72]	; 0x48
   80eec:	4770      	bx	lr

00080eee <pio_set_additional_interrupt_mode>:
   80eee:	06d3      	lsls	r3, r2, #27
   80ef0:	d50e      	bpl.n	80f10 <pio_set_additional_interrupt_mode+0x22>
   80ef2:	0693      	lsls	r3, r2, #26
   80ef4:	f8c0 10b0 	str.w	r1, [r0, #176]	; 0xb0
   80ef8:	bf4c      	ite	mi
   80efa:	f8c0 10d4 	strmi.w	r1, [r0, #212]	; 0xd4
   80efe:	f8c0 10d0 	strpl.w	r1, [r0, #208]	; 0xd0
   80f02:	0653      	lsls	r3, r2, #25
   80f04:	bf4c      	ite	mi
   80f06:	f8c0 10c0 	strmi.w	r1, [r0, #192]	; 0xc0
   80f0a:	f8c0 10c4 	strpl.w	r1, [r0, #196]	; 0xc4
   80f0e:	4770      	bx	lr
   80f10:	f8c0 10b4 	str.w	r1, [r0, #180]	; 0xb4
   80f14:	4770      	bx	lr
	...

00080f18 <pio_configure_interrupt>:
   80f18:	4b00      	ldr	r3, [pc, #0]	; (80f1c <pio_configure_interrupt+0x4>)
   80f1a:	4718      	bx	r3
   80f1c:	00080eef 	.word	0x00080eef

00080f20 <pio_configure_pin>:
   80f20:	b5f7      	push	{r0, r1, r2, r4, r5, r6, r7, lr}
   80f22:	0945      	lsrs	r5, r0, #5
   80f24:	460e      	mov	r6, r1
   80f26:	f505 1500 	add.w	r5, r5, #2097152	; 0x200000
   80f2a:	f001 41f0 	and.w	r1, r1, #2013265920	; 0x78000000
   80f2e:	f205 7507 	addw	r5, r5, #1799	; 0x707
   80f32:	f1b1 5f20 	cmp.w	r1, #671088640	; 0x28000000
   80f36:	ea4f 2545 	mov.w	r5, r5, lsl #9
   80f3a:	d042      	beq.n	80fc2 <pio_configure_pin+0xa2>
   80f3c:	d807      	bhi.n	80f4e <pio_configure_pin+0x2e>
   80f3e:	f1b1 6f00 	cmp.w	r1, #134217728	; 0x8000000
   80f42:	d01e      	beq.n	80f82 <pio_configure_pin+0x62>
   80f44:	f1b1 5f80 	cmp.w	r1, #268435456	; 0x10000000
   80f48:	d02b      	beq.n	80fa2 <pio_configure_pin+0x82>
   80f4a:	2000      	movs	r0, #0
   80f4c:	e027      	b.n	80f9e <pio_configure_pin+0x7e>
   80f4e:	f1b1 5f40 	cmp.w	r1, #805306368	; 0x30000000
   80f52:	d002      	beq.n	80f5a <pio_configure_pin+0x3a>
   80f54:	f1b1 5f60 	cmp.w	r1, #939524096	; 0x38000000
   80f58:	d1f7      	bne.n	80f4a <pio_configure_pin+0x2a>
   80f5a:	2401      	movs	r4, #1
   80f5c:	f006 5260 	and.w	r2, r6, #939524096	; 0x38000000
   80f60:	f000 011f 	and.w	r1, r0, #31
   80f64:	f102 4048 	add.w	r0, r2, #3355443200	; 0xc8000000
   80f68:	ea06 0304 	and.w	r3, r6, r4
   80f6c:	4242      	negs	r2, r0
   80f6e:	9300      	str	r3, [sp, #0]
   80f70:	4142      	adcs	r2, r0
   80f72:	f3c6 0380 	ubfx	r3, r6, #2, #1
   80f76:	4628      	mov	r0, r5
   80f78:	fa04 f101 	lsl.w	r1, r4, r1
   80f7c:	4d16      	ldr	r5, [pc, #88]	; (80fd8 <pio_configure_pin+0xb8>)
   80f7e:	47a8      	blx	r5
   80f80:	e028      	b.n	80fd4 <pio_configure_pin+0xb4>
   80f82:	2701      	movs	r7, #1
   80f84:	f000 041f 	and.w	r4, r0, #31
   80f88:	fa07 f404 	lsl.w	r4, r7, r4
   80f8c:	4628      	mov	r0, r5
   80f8e:	4622      	mov	r2, r4
   80f90:	4b12      	ldr	r3, [pc, #72]	; (80fdc <pio_configure_pin+0xbc>)
   80f92:	4798      	blx	r3
   80f94:	4638      	mov	r0, r7
   80f96:	07f6      	lsls	r6, r6, #31
   80f98:	bf4c      	ite	mi
   80f9a:	666c      	strmi	r4, [r5, #100]	; 0x64
   80f9c:	662c      	strpl	r4, [r5, #96]	; 0x60
   80f9e:	b003      	add	sp, #12
   80fa0:	bdf0      	pop	{r4, r5, r6, r7, pc}
   80fa2:	f000 011f 	and.w	r1, r0, #31
   80fa6:	2001      	movs	r0, #1
   80fa8:	fa00 f101 	lsl.w	r1, r0, r1
   80fac:	6469      	str	r1, [r5, #68]	; 0x44
   80fae:	6f2b      	ldr	r3, [r5, #112]	; 0x70
   80fb0:	07f4      	lsls	r4, r6, #31
   80fb2:	ea43 0301 	orr.w	r3, r3, r1
   80fb6:	672b      	str	r3, [r5, #112]	; 0x70
   80fb8:	6069      	str	r1, [r5, #4]
   80fba:	bf4c      	ite	mi
   80fbc:	6669      	strmi	r1, [r5, #100]	; 0x64
   80fbe:	6629      	strpl	r1, [r5, #96]	; 0x60
   80fc0:	e7ed      	b.n	80f9e <pio_configure_pin+0x7e>
   80fc2:	2401      	movs	r4, #1
   80fc4:	f000 011f 	and.w	r1, r0, #31
   80fc8:	4632      	mov	r2, r6
   80fca:	fa04 f101 	lsl.w	r1, r4, r1
   80fce:	4628      	mov	r0, r5
   80fd0:	4b03      	ldr	r3, [pc, #12]	; (80fe0 <pio_configure_pin+0xc0>)
   80fd2:	4798      	blx	r3
   80fd4:	4620      	mov	r0, r4
   80fd6:	e7e2      	b.n	80f9e <pio_configure_pin+0x7e>
   80fd8:	00080ebf 	.word	0x00080ebf
   80fdc:	00080e55 	.word	0x00080e55
   80fe0:	00080e93 	.word	0x00080e93

00080fe4 <pio_configure_pin_group>:
   80fe4:	f002 43f0 	and.w	r3, r2, #2013265920	; 0x78000000
   80fe8:	f1b3 5f20 	cmp.w	r3, #671088640	; 0x28000000
   80fec:	b573      	push	{r0, r1, r4, r5, r6, lr}
   80fee:	4604      	mov	r4, r0
   80ff0:	460d      	mov	r5, r1
   80ff2:	4616      	mov	r6, r2
   80ff4:	d02f      	beq.n	81056 <pio_configure_pin_group+0x72>
   80ff6:	d807      	bhi.n	81008 <pio_configure_pin_group+0x24>
   80ff8:	f1b3 6f00 	cmp.w	r3, #134217728	; 0x8000000
   80ffc:	d01a      	beq.n	81034 <pio_configure_pin_group+0x50>
   80ffe:	f1b3 5f80 	cmp.w	r3, #268435456	; 0x10000000
   81002:	d022      	beq.n	8104a <pio_configure_pin_group+0x66>
   81004:	2000      	movs	r0, #0
   81006:	e01e      	b.n	81046 <pio_configure_pin_group+0x62>
   81008:	f1b3 5f40 	cmp.w	r3, #805306368	; 0x30000000
   8100c:	d002      	beq.n	81014 <pio_configure_pin_group+0x30>
   8100e:	f1b3 5f60 	cmp.w	r3, #939524096	; 0x38000000
   81012:	d1f7      	bne.n	81004 <pio_configure_pin_group+0x20>
   81014:	f006 5260 	and.w	r2, r6, #939524096	; 0x38000000
   81018:	f102 4148 	add.w	r1, r2, #3355443200	; 0xc8000000
   8101c:	f006 0301 	and.w	r3, r6, #1
   81020:	424a      	negs	r2, r1
   81022:	9300      	str	r3, [sp, #0]
   81024:	414a      	adcs	r2, r1
   81026:	4620      	mov	r0, r4
   81028:	f3c6 0380 	ubfx	r3, r6, #2, #1
   8102c:	4629      	mov	r1, r5
   8102e:	4c0b      	ldr	r4, [pc, #44]	; (8105c <pio_configure_pin_group+0x78>)
   81030:	47a0      	blx	r4
   81032:	e007      	b.n	81044 <pio_configure_pin_group+0x60>
   81034:	460a      	mov	r2, r1
   81036:	4619      	mov	r1, r3
   81038:	4b09      	ldr	r3, [pc, #36]	; (81060 <pio_configure_pin_group+0x7c>)
   8103a:	4798      	blx	r3
   8103c:	07f0      	lsls	r0, r6, #31
   8103e:	bf4c      	ite	mi
   81040:	6665      	strmi	r5, [r4, #100]	; 0x64
   81042:	6625      	strpl	r5, [r4, #96]	; 0x60
   81044:	2001      	movs	r0, #1
   81046:	b002      	add	sp, #8
   81048:	bd70      	pop	{r4, r5, r6, pc}
   8104a:	6461      	str	r1, [r4, #68]	; 0x44
   8104c:	6f03      	ldr	r3, [r0, #112]	; 0x70
   8104e:	430b      	orrs	r3, r1
   81050:	6703      	str	r3, [r0, #112]	; 0x70
   81052:	6061      	str	r1, [r4, #4]
   81054:	e7f2      	b.n	8103c <pio_configure_pin_group+0x58>
   81056:	4b03      	ldr	r3, [pc, #12]	; (81064 <pio_configure_pin_group+0x80>)
   81058:	4798      	blx	r3
   8105a:	e7f3      	b.n	81044 <pio_configure_pin_group+0x60>
   8105c:	00080ebf 	.word	0x00080ebf
   81060:	00080e55 	.word	0x00080e55
   81064:	00080e93 	.word	0x00080e93

00081068 <pio_handler_process>:
   81068:	b5f8      	push	{r3, r4, r5, r6, r7, lr}
   8106a:	4b0f      	ldr	r3, [pc, #60]	; (810a8 <pio_handler_process+0x40>)
   8106c:	4604      	mov	r4, r0
   8106e:	460e      	mov	r6, r1
   81070:	4798      	blx	r3
   81072:	4b0e      	ldr	r3, [pc, #56]	; (810ac <pio_handler_process+0x44>)
   81074:	4605      	mov	r5, r0
   81076:	4620      	mov	r0, r4
   81078:	4798      	blx	r3
   8107a:	4005      	ands	r5, r0
   8107c:	d013      	beq.n	810a6 <pio_handler_process+0x3e>
   8107e:	4c0c      	ldr	r4, [pc, #48]	; (810b0 <pio_handler_process+0x48>)
   81080:	f104 0760 	add.w	r7, r4, #96	; 0x60
   81084:	6823      	ldr	r3, [r4, #0]
   81086:	42b3      	cmp	r3, r6
   81088:	d108      	bne.n	8109c <pio_handler_process+0x34>
   8108a:	6861      	ldr	r1, [r4, #4]
   8108c:	4229      	tst	r1, r5
   8108e:	d005      	beq.n	8109c <pio_handler_process+0x34>
   81090:	68e3      	ldr	r3, [r4, #12]
   81092:	4630      	mov	r0, r6
   81094:	4798      	blx	r3
   81096:	6863      	ldr	r3, [r4, #4]
   81098:	ea25 0503 	bic.w	r5, r5, r3
   8109c:	42bc      	cmp	r4, r7
   8109e:	d002      	beq.n	810a6 <pio_handler_process+0x3e>
   810a0:	3410      	adds	r4, #16
   810a2:	2d00      	cmp	r5, #0
   810a4:	d1ee      	bne.n	81084 <pio_handler_process+0x1c>
   810a6:	bdf8      	pop	{r3, r4, r5, r6, r7, pc}
   810a8:	00080ee7 	.word	0x00080ee7
   810ac:	00080eeb 	.word	0x00080eeb
   810b0:	20070b48 	.word	0x20070b48

000810b4 <pio_handler_set>:
   810b4:	e92d 43f8 	stmdb	sp!, {r3, r4, r5, r6, r7, r8, r9, lr}
   810b8:	4e16      	ldr	r6, [pc, #88]	; (81114 <pio_handler_set+0x60>)
   810ba:	4689      	mov	r9, r1
   810bc:	6834      	ldr	r4, [r6, #0]
   810be:	4611      	mov	r1, r2
   810c0:	2c06      	cmp	r4, #6
   810c2:	46b4      	mov	ip, r6
   810c4:	d823      	bhi.n	8110e <pio_handler_set+0x5a>
   810c6:	2600      	movs	r6, #0
   810c8:	4f13      	ldr	r7, [pc, #76]	; (81118 <pio_handler_set+0x64>)
   810ca:	fa5f f886 	uxtb.w	r8, r6
   810ce:	4544      	cmp	r4, r8
   810d0:	d210      	bcs.n	810f4 <pio_handler_set+0x40>
   810d2:	9a08      	ldr	r2, [sp, #32]
   810d4:	3401      	adds	r4, #1
   810d6:	60ab      	str	r3, [r5, #8]
   810d8:	60ea      	str	r2, [r5, #12]
   810da:	4544      	cmp	r4, r8
   810dc:	461a      	mov	r2, r3
   810de:	f8c5 9000 	str.w	r9, [r5]
   810e2:	6069      	str	r1, [r5, #4]
   810e4:	4b0d      	ldr	r3, [pc, #52]	; (8111c <pio_handler_set+0x68>)
   810e6:	bf08      	it	eq
   810e8:	f8cc 8000 	streq.w	r8, [ip]
   810ec:	4798      	blx	r3
   810ee:	2000      	movs	r0, #0
   810f0:	e8bd 83f8 	ldmia.w	sp!, {r3, r4, r5, r6, r7, r8, r9, pc}
   810f4:	ea4f 1e08 	mov.w	lr, r8, lsl #4
   810f8:	f857 200e 	ldr.w	r2, [r7, lr]
   810fc:	eb07 050e 	add.w	r5, r7, lr
   81100:	454a      	cmp	r2, r9
   81102:	d102      	bne.n	8110a <pio_handler_set+0x56>
   81104:	686a      	ldr	r2, [r5, #4]
   81106:	428a      	cmp	r2, r1
   81108:	d0e3      	beq.n	810d2 <pio_handler_set+0x1e>
   8110a:	3601      	adds	r6, #1
   8110c:	e7dd      	b.n	810ca <pio_handler_set+0x16>
   8110e:	2001      	movs	r0, #1
   81110:	e8bd 83f8 	ldmia.w	sp!, {r3, r4, r5, r6, r7, r8, r9, pc}
   81114:	20070bb8 	.word	0x20070bb8
   81118:	20070b48 	.word	0x20070b48
   8111c:	00080f19 	.word	0x00080f19

00081120 <PIOA_Handler>:
   81120:	210b      	movs	r1, #11
   81122:	4801      	ldr	r0, [pc, #4]	; (81128 <PIOA_Handler+0x8>)
   81124:	4b01      	ldr	r3, [pc, #4]	; (8112c <PIOA_Handler+0xc>)
   81126:	4718      	bx	r3
   81128:	400e0e00 	.word	0x400e0e00
   8112c:	00081069 	.word	0x00081069

00081130 <PIOB_Handler>:
   81130:	210c      	movs	r1, #12
   81132:	4801      	ldr	r0, [pc, #4]	; (81138 <PIOB_Handler+0x8>)
   81134:	4b01      	ldr	r3, [pc, #4]	; (8113c <PIOB_Handler+0xc>)
   81136:	4718      	bx	r3
   81138:	400e1000 	.word	0x400e1000
   8113c:	00081069 	.word	0x00081069

00081140 <PIOC_Handler>:
   81140:	210d      	movs	r1, #13
   81142:	4801      	ldr	r0, [pc, #4]	; (81148 <PIOC_Handler+0x8>)
   81144:	4b01      	ldr	r3, [pc, #4]	; (8114c <PIOC_Handler+0xc>)
   81146:	4718      	bx	r3
   81148:	400e1200 	.word	0x400e1200
   8114c:	00081069 	.word	0x00081069

00081150 <PIOD_Handler>:
   81150:	210e      	movs	r1, #14
   81152:	4801      	ldr	r0, [pc, #4]	; (81158 <PIOD_Handler+0x8>)
   81154:	4b01      	ldr	r3, [pc, #4]	; (8115c <PIOD_Handler+0xc>)
   81156:	4718      	bx	r3
   81158:	400e1400 	.word	0x400e1400
   8115c:	00081069 	.word	0x00081069

00081160 <pmc_switch_mck_to_pllack>:
   81160:	4b0f      	ldr	r3, [pc, #60]	; (811a0 <pmc_switch_mck_to_pllack+0x40>)
   81162:	6b1a      	ldr	r2, [r3, #48]	; 0x30
   81164:	f022 0270 	bic.w	r2, r2, #112	; 0x70
   81168:	4310      	orrs	r0, r2
   8116a:	f640 0201 	movw	r2, #2049	; 0x801
   8116e:	6318      	str	r0, [r3, #48]	; 0x30
   81170:	6e99      	ldr	r1, [r3, #104]	; 0x68
   81172:	0708      	lsls	r0, r1, #28
   81174:	d50c      	bpl.n	81190 <pmc_switch_mck_to_pllack+0x30>
   81176:	6b1a      	ldr	r2, [r3, #48]	; 0x30
   81178:	f022 0203 	bic.w	r2, r2, #3
   8117c:	f042 0202 	orr.w	r2, r2, #2
   81180:	631a      	str	r2, [r3, #48]	; 0x30
   81182:	f640 0201 	movw	r2, #2049	; 0x801
   81186:	6e99      	ldr	r1, [r3, #104]	; 0x68
   81188:	0709      	lsls	r1, r1, #28
   8118a:	d505      	bpl.n	81198 <pmc_switch_mck_to_pllack+0x38>
   8118c:	2000      	movs	r0, #0
   8118e:	4770      	bx	lr
   81190:	3a01      	subs	r2, #1
   81192:	d1ed      	bne.n	81170 <pmc_switch_mck_to_pllack+0x10>
   81194:	2001      	movs	r0, #1
   81196:	4770      	bx	lr
   81198:	3a01      	subs	r2, #1
   8119a:	d1f4      	bne.n	81186 <pmc_switch_mck_to_pllack+0x26>
   8119c:	e7fa      	b.n	81194 <pmc_switch_mck_to_pllack+0x34>
   8119e:	bf00      	nop
   811a0:	400e0600 	.word	0x400e0600

000811a4 <pmc_switch_mainck_to_xtal>:
   811a4:	4a0e      	ldr	r2, [pc, #56]	; (811e0 <pmc_switch_mainck_to_xtal+0x3c>)
   811a6:	6a13      	ldr	r3, [r2, #32]
   811a8:	b128      	cbz	r0, 811b6 <pmc_switch_mainck_to_xtal+0x12>
   811aa:	490e      	ldr	r1, [pc, #56]	; (811e4 <pmc_switch_mainck_to_xtal+0x40>)
   811ac:	4019      	ands	r1, r3
   811ae:	4b0e      	ldr	r3, [pc, #56]	; (811e8 <pmc_switch_mainck_to_xtal+0x44>)
   811b0:	430b      	orrs	r3, r1
   811b2:	6213      	str	r3, [r2, #32]
   811b4:	4770      	bx	lr
   811b6:	f423 135c 	bic.w	r3, r3, #3604480	; 0x370000
   811ba:	f023 0303 	bic.w	r3, r3, #3
   811be:	0209      	lsls	r1, r1, #8
   811c0:	f443 135c 	orr.w	r3, r3, #3604480	; 0x370000
   811c4:	b289      	uxth	r1, r1
   811c6:	f043 0301 	orr.w	r3, r3, #1
   811ca:	430b      	orrs	r3, r1
   811cc:	6213      	str	r3, [r2, #32]
   811ce:	6e93      	ldr	r3, [r2, #104]	; 0x68
   811d0:	07db      	lsls	r3, r3, #31
   811d2:	d5fc      	bpl.n	811ce <pmc_switch_mainck_to_xtal+0x2a>
   811d4:	6a13      	ldr	r3, [r2, #32]
   811d6:	f043 739b 	orr.w	r3, r3, #20316160	; 0x1360000
   811da:	f443 3380 	orr.w	r3, r3, #65536	; 0x10000
   811de:	e7e8      	b.n	811b2 <pmc_switch_mainck_to_xtal+0xe>
   811e0:	400e0600 	.word	0x400e0600
   811e4:	fec8fffc 	.word	0xfec8fffc
   811e8:	01370002 	.word	0x01370002

000811ec <pmc_osc_is_ready_mainck>:
   811ec:	4b02      	ldr	r3, [pc, #8]	; (811f8 <pmc_osc_is_ready_mainck+0xc>)
   811ee:	6e98      	ldr	r0, [r3, #104]	; 0x68
   811f0:	f400 3080 	and.w	r0, r0, #65536	; 0x10000
   811f4:	4770      	bx	lr
   811f6:	bf00      	nop
   811f8:	400e0600 	.word	0x400e0600

000811fc <pmc_disable_pllack>:
   811fc:	f04f 5200 	mov.w	r2, #536870912	; 0x20000000
   81200:	4b01      	ldr	r3, [pc, #4]	; (81208 <pmc_disable_pllack+0xc>)
   81202:	629a      	str	r2, [r3, #40]	; 0x28
   81204:	4770      	bx	lr
   81206:	bf00      	nop
   81208:	400e0600 	.word	0x400e0600

0008120c <pmc_is_locked_pllack>:
   8120c:	4b02      	ldr	r3, [pc, #8]	; (81218 <pmc_is_locked_pllack+0xc>)
   8120e:	6e98      	ldr	r0, [r3, #104]	; 0x68
   81210:	f000 0002 	and.w	r0, r0, #2
   81214:	4770      	bx	lr
   81216:	bf00      	nop
   81218:	400e0600 	.word	0x400e0600

0008121c <pmc_enable_periph_clk>:
   8121c:	282c      	cmp	r0, #44	; 0x2c
   8121e:	d818      	bhi.n	81252 <pmc_enable_periph_clk+0x36>
   81220:	281f      	cmp	r0, #31
   81222:	4a0d      	ldr	r2, [pc, #52]	; (81258 <pmc_enable_periph_clk+0x3c>)
   81224:	f04f 0301 	mov.w	r3, #1
   81228:	d808      	bhi.n	8123c <pmc_enable_periph_clk+0x20>
   8122a:	6991      	ldr	r1, [r2, #24]
   8122c:	fa03 f000 	lsl.w	r0, r3, r0
   81230:	ea30 0301 	bics.w	r3, r0, r1
   81234:	d000      	beq.n	81238 <pmc_enable_periph_clk+0x1c>
   81236:	6110      	str	r0, [r2, #16]
   81238:	2000      	movs	r0, #0
   8123a:	4770      	bx	lr
   8123c:	3820      	subs	r0, #32
   8123e:	f8d2 1108 	ldr.w	r1, [r2, #264]	; 0x108
   81242:	fa03 f000 	lsl.w	r0, r3, r0
   81246:	ea30 0301 	bics.w	r3, r0, r1
   8124a:	d0f5      	beq.n	81238 <pmc_enable_periph_clk+0x1c>
   8124c:	f8c2 0100 	str.w	r0, [r2, #256]	; 0x100
   81250:	e7f2      	b.n	81238 <pmc_enable_periph_clk+0x1c>
   81252:	2001      	movs	r0, #1
   81254:	4770      	bx	lr
   81256:	bf00      	nop
   81258:	400e0600 	.word	0x400e0600

0008125c <Dummy_Handler>:
   8125c:	e7fe      	b.n	8125c <Dummy_Handler>
	...

00081260 <Reset_Handler>:
   81260:	b508      	push	{r3, lr}
   81262:	4a15      	ldr	r2, [pc, #84]	; (812b8 <Reset_Handler+0x58>)
   81264:	4b15      	ldr	r3, [pc, #84]	; (812bc <Reset_Handler+0x5c>)
   81266:	429a      	cmp	r2, r3
   81268:	d119      	bne.n	8129e <Reset_Handler+0x3e>
   8126a:	2100      	movs	r1, #0
   8126c:	4b14      	ldr	r3, [pc, #80]	; (812c0 <Reset_Handler+0x60>)
   8126e:	4a15      	ldr	r2, [pc, #84]	; (812c4 <Reset_Handler+0x64>)
   81270:	4293      	cmp	r3, r2
   81272:	d31d      	bcc.n	812b0 <Reset_Handler+0x50>
   81274:	4b14      	ldr	r3, [pc, #80]	; (812c8 <Reset_Handler+0x68>)
   81276:	4a15      	ldr	r2, [pc, #84]	; (812cc <Reset_Handler+0x6c>)
   81278:	f023 4160 	bic.w	r1, r3, #3758096384	; 0xe0000000
   8127c:	f021 017f 	bic.w	r1, r1, #127	; 0x7f
   81280:	f103 4360 	add.w	r3, r3, #3758096384	; 0xe0000000
   81284:	f5b3 1f80 	cmp.w	r3, #1048576	; 0x100000
   81288:	6091      	str	r1, [r2, #8]
   8128a:	bf3e      	ittt	cc
   8128c:	6893      	ldrcc	r3, [r2, #8]
   8128e:	f043 5300 	orrcc.w	r3, r3, #536870912	; 0x20000000
   81292:	6093      	strcc	r3, [r2, #8]
   81294:	4b0e      	ldr	r3, [pc, #56]	; (812d0 <Reset_Handler+0x70>)
   81296:	4798      	blx	r3
   81298:	4b0e      	ldr	r3, [pc, #56]	; (812d4 <Reset_Handler+0x74>)
   8129a:	4798      	blx	r3
   8129c:	e7fe      	b.n	8129c <Reset_Handler+0x3c>
   8129e:	490e      	ldr	r1, [pc, #56]	; (812d8 <Reset_Handler+0x78>)
   812a0:	3a04      	subs	r2, #4
   812a2:	428b      	cmp	r3, r1
   812a4:	d2e1      	bcs.n	8126a <Reset_Handler+0xa>
   812a6:	f852 0f04 	ldr.w	r0, [r2, #4]!
   812aa:	f843 0b04 	str.w	r0, [r3], #4
   812ae:	e7f8      	b.n	812a2 <Reset_Handler+0x42>
   812b0:	f843 1b04 	str.w	r1, [r3], #4
   812b4:	e7dc      	b.n	81270 <Reset_Handler+0x10>
   812b6:	bf00      	nop
   812b8:	000850e0 	.word	0x000850e0
   812bc:	20070000 	.word	0x20070000
   812c0:	20070aa0 	.word	0x20070aa0
   812c4:	20070c84 	.word	0x20070c84
   812c8:	00080000 	.word	0x00080000
   812cc:	e000ed00 	.word	0xe000ed00
   812d0:	00081fa5 	.word	0x00081fa5
   812d4:	000813ed 	.word	0x000813ed
   812d8:	20070aa0 	.word	0x20070aa0

000812dc <SystemCoreClockUpdate>:
   812dc:	b510      	push	{r4, lr}
   812de:	4a2b      	ldr	r2, [pc, #172]	; (8138c <SystemCoreClockUpdate+0xb0>)
   812e0:	6b13      	ldr	r3, [r2, #48]	; 0x30
   812e2:	f003 0303 	and.w	r3, r3, #3
   812e6:	2b01      	cmp	r3, #1
   812e8:	4b29      	ldr	r3, [pc, #164]	; (81390 <SystemCoreClockUpdate+0xb4>)
   812ea:	d00f      	beq.n	8130c <SystemCoreClockUpdate+0x30>
   812ec:	d304      	bcc.n	812f8 <SystemCoreClockUpdate+0x1c>
   812ee:	6a11      	ldr	r1, [r2, #32]
   812f0:	01cc      	lsls	r4, r1, #7
   812f2:	d52c      	bpl.n	8134e <SystemCoreClockUpdate+0x72>
   812f4:	4927      	ldr	r1, [pc, #156]	; (81394 <SystemCoreClockUpdate+0xb8>)
   812f6:	e046      	b.n	81386 <SystemCoreClockUpdate+0xaa>
   812f8:	4927      	ldr	r1, [pc, #156]	; (81398 <SystemCoreClockUpdate+0xbc>)
   812fa:	6949      	ldr	r1, [r1, #20]
   812fc:	0608      	lsls	r0, r1, #24
   812fe:	bf4c      	ite	mi
   81300:	f44f 4100 	movmi.w	r1, #32768	; 0x8000
   81304:	f44f 41fa 	movpl.w	r1, #32000	; 0x7d00
   81308:	6019      	str	r1, [r3, #0]
   8130a:	e00d      	b.n	81328 <SystemCoreClockUpdate+0x4c>
   8130c:	6a11      	ldr	r1, [r2, #32]
   8130e:	01c9      	lsls	r1, r1, #7
   81310:	d501      	bpl.n	81316 <SystemCoreClockUpdate+0x3a>
   81312:	4920      	ldr	r1, [pc, #128]	; (81394 <SystemCoreClockUpdate+0xb8>)
   81314:	e7f8      	b.n	81308 <SystemCoreClockUpdate+0x2c>
   81316:	4921      	ldr	r1, [pc, #132]	; (8139c <SystemCoreClockUpdate+0xc0>)
   81318:	6019      	str	r1, [r3, #0]
   8131a:	6a11      	ldr	r1, [r2, #32]
   8131c:	f001 0170 	and.w	r1, r1, #112	; 0x70
   81320:	2910      	cmp	r1, #16
   81322:	d012      	beq.n	8134a <SystemCoreClockUpdate+0x6e>
   81324:	2920      	cmp	r1, #32
   81326:	d0f4      	beq.n	81312 <SystemCoreClockUpdate+0x36>
   81328:	6b11      	ldr	r1, [r2, #48]	; 0x30
   8132a:	f001 0170 	and.w	r1, r1, #112	; 0x70
   8132e:	2970      	cmp	r1, #112	; 0x70
   81330:	bf05      	ittet	eq
   81332:	2103      	moveq	r1, #3
   81334:	681a      	ldreq	r2, [r3, #0]
   81336:	6b11      	ldrne	r1, [r2, #48]	; 0x30
   81338:	fbb2 f2f1 	udiveq	r2, r2, r1
   8133c:	bf1e      	ittt	ne
   8133e:	681a      	ldrne	r2, [r3, #0]
   81340:	f3c1 1102 	ubfxne	r1, r1, #4, #3
   81344:	40ca      	lsrne	r2, r1
   81346:	601a      	str	r2, [r3, #0]
   81348:	bd10      	pop	{r4, pc}
   8134a:	4915      	ldr	r1, [pc, #84]	; (813a0 <SystemCoreClockUpdate+0xc4>)
   8134c:	e7dc      	b.n	81308 <SystemCoreClockUpdate+0x2c>
   8134e:	4913      	ldr	r1, [pc, #76]	; (8139c <SystemCoreClockUpdate+0xc0>)
   81350:	6019      	str	r1, [r3, #0]
   81352:	6a11      	ldr	r1, [r2, #32]
   81354:	f001 0170 	and.w	r1, r1, #112	; 0x70
   81358:	2910      	cmp	r1, #16
   8135a:	d013      	beq.n	81384 <SystemCoreClockUpdate+0xa8>
   8135c:	2920      	cmp	r1, #32
   8135e:	d0c9      	beq.n	812f4 <SystemCoreClockUpdate+0x18>
   81360:	6b11      	ldr	r1, [r2, #48]	; 0x30
   81362:	f001 0103 	and.w	r1, r1, #3
   81366:	2902      	cmp	r1, #2
   81368:	bf01      	itttt	eq
   8136a:	6a94      	ldreq	r4, [r2, #40]	; 0x28
   8136c:	6819      	ldreq	r1, [r3, #0]
   8136e:	f3c4 440a 	ubfxeq	r4, r4, #16, #11
   81372:	fb04 1101 	mlaeq	r1, r4, r1, r1
   81376:	bf09      	itett	eq
   81378:	6a90      	ldreq	r0, [r2, #40]	; 0x28
   8137a:	490a      	ldrne	r1, [pc, #40]	; (813a4 <SystemCoreClockUpdate+0xc8>)
   8137c:	b2c0      	uxtbeq	r0, r0
   8137e:	fbb1 f1f0 	udiveq	r1, r1, r0
   81382:	e7c1      	b.n	81308 <SystemCoreClockUpdate+0x2c>
   81384:	4906      	ldr	r1, [pc, #24]	; (813a0 <SystemCoreClockUpdate+0xc4>)
   81386:	6019      	str	r1, [r3, #0]
   81388:	e7ea      	b.n	81360 <SystemCoreClockUpdate+0x84>
   8138a:	bf00      	nop
   8138c:	400e0600 	.word	0x400e0600
   81390:	200700ec 	.word	0x200700ec
   81394:	00b71b00 	.word	0x00b71b00
   81398:	400e1a10 	.word	0x400e1a10
   8139c:	003d0900 	.word	0x003d0900
   813a0:	007a1200 	.word	0x007a1200
   813a4:	0e4e1c00 	.word	0x0e4e1c00

000813a8 <_sbrk>:
   813a8:	4b07      	ldr	r3, [pc, #28]	; (813c8 <_sbrk+0x20>)
   813aa:	681a      	ldr	r2, [r3, #0]
   813ac:	b90a      	cbnz	r2, 813b2 <_sbrk+0xa>
   813ae:	4a07      	ldr	r2, [pc, #28]	; (813cc <_sbrk+0x24>)
   813b0:	601a      	str	r2, [r3, #0]
   813b2:	681a      	ldr	r2, [r3, #0]
   813b4:	4906      	ldr	r1, [pc, #24]	; (813d0 <_sbrk+0x28>)
   813b6:	4410      	add	r0, r2
   813b8:	4281      	cmp	r1, r0
   813ba:	bfa6      	itte	ge
   813bc:	6018      	strge	r0, [r3, #0]
   813be:	4610      	movge	r0, r2
   813c0:	f04f 30ff 	movlt.w	r0, #4294967295
   813c4:	4770      	bx	lr
   813c6:	bf00      	nop
   813c8:	20070bbc 	.word	0x20070bbc
   813cc:	20072c88 	.word	0x20072c88
   813d0:	20087ffc 	.word	0x20087ffc

000813d4 <_close>:
   813d4:	f04f 30ff 	mov.w	r0, #4294967295
   813d8:	4770      	bx	lr

000813da <_fstat>:
   813da:	f44f 5300 	mov.w	r3, #8192	; 0x2000
   813de:	2000      	movs	r0, #0
   813e0:	604b      	str	r3, [r1, #4]
   813e2:	4770      	bx	lr

000813e4 <_isatty>:
   813e4:	2001      	movs	r0, #1
   813e6:	4770      	bx	lr

000813e8 <_lseek>:
   813e8:	2000      	movs	r0, #0
   813ea:	4770      	bx	lr

000813ec <main>:
   813ec:	b570      	push	{r4, r5, r6, lr}
   813ee:	4b0b      	ldr	r3, [pc, #44]	; (8141c <main+0x30>)
   813f0:	4798      	blx	r3
   813f2:	2300      	movs	r3, #0
   813f4:	4e0a      	ldr	r6, [pc, #40]	; (81420 <main+0x34>)
   813f6:	4d0b      	ldr	r5, [pc, #44]	; (81424 <main+0x38>)
   813f8:	4c0b      	ldr	r4, [pc, #44]	; (81428 <main+0x3c>)
   813fa:	2b00      	cmp	r3, #0
   813fc:	d1fd      	bne.n	813fa <main+0xe>
   813fe:	47b0      	blx	r6
   81400:	47a8      	blx	r5
   81402:	47a0      	blx	r4
   81404:	4b09      	ldr	r3, [pc, #36]	; (8142c <main+0x40>)
   81406:	4798      	blx	r3
   81408:	4b09      	ldr	r3, [pc, #36]	; (81430 <main+0x44>)
   8140a:	4798      	blx	r3
   8140c:	4b09      	ldr	r3, [pc, #36]	; (81434 <main+0x48>)
   8140e:	4798      	blx	r3
   81410:	4b09      	ldr	r3, [pc, #36]	; (81438 <main+0x4c>)
   81412:	4798      	blx	r3
   81414:	4b09      	ldr	r3, [pc, #36]	; (8143c <main+0x50>)
   81416:	4798      	blx	r3
   81418:	2301      	movs	r3, #1
   8141a:	e7ee      	b.n	813fa <main+0xe>
   8141c:	00080a69 	.word	0x00080a69
   81420:	00080601 	.word	0x00080601
   81424:	0008060d 	.word	0x0008060d
   81428:	000805e9 	.word	0x000805e9
   8142c:	000805f5 	.word	0x000805f5
   81430:	00080619 	.word	0x00080619
   81434:	00080625 	.word	0x00080625
   81438:	000806b9 	.word	0x000806b9
   8143c:	00080631 	.word	0x00080631

00081440 <sqrt>:
   81440:	e92d 4ff0 	stmdb	sp!, {r4, r5, r6, r7, r8, r9, sl, fp, lr}
   81444:	b08b      	sub	sp, #44	; 0x2c
   81446:	4604      	mov	r4, r0
   81448:	460d      	mov	r5, r1
   8144a:	f000 f857 	bl	814fc <__ieee754_sqrt>
   8144e:	4b29      	ldr	r3, [pc, #164]	; (814f4 <sqrt+0xb4>)
   81450:	4606      	mov	r6, r0
   81452:	f993 a000 	ldrsb.w	sl, [r3]
   81456:	460f      	mov	r7, r1
   81458:	f1ba 3fff 	cmp.w	sl, #4294967295
   8145c:	d012      	beq.n	81484 <sqrt+0x44>
   8145e:	4622      	mov	r2, r4
   81460:	462b      	mov	r3, r5
   81462:	4620      	mov	r0, r4
   81464:	4629      	mov	r1, r5
   81466:	f000 fd59 	bl	81f1c <__aeabi_dcmpun>
   8146a:	4683      	mov	fp, r0
   8146c:	b950      	cbnz	r0, 81484 <sqrt+0x44>
   8146e:	f04f 0800 	mov.w	r8, #0
   81472:	f04f 0900 	mov.w	r9, #0
   81476:	4620      	mov	r0, r4
   81478:	4629      	mov	r1, r5
   8147a:	4642      	mov	r2, r8
   8147c:	464b      	mov	r3, r9
   8147e:	f000 fd25 	bl	81ecc <__aeabi_dcmplt>
   81482:	b920      	cbnz	r0, 8148e <sqrt+0x4e>
   81484:	4630      	mov	r0, r6
   81486:	4639      	mov	r1, r7
   81488:	b00b      	add	sp, #44	; 0x2c
   8148a:	e8bd 8ff0 	ldmia.w	sp!, {r4, r5, r6, r7, r8, r9, sl, fp, pc}
   8148e:	2201      	movs	r2, #1
   81490:	4b19      	ldr	r3, [pc, #100]	; (814f8 <sqrt+0xb8>)
   81492:	f8cd b020 	str.w	fp, [sp, #32]
   81496:	e9cd 4504 	strd	r4, r5, [sp, #16]
   8149a:	e9cd 4502 	strd	r4, r5, [sp, #8]
   8149e:	e88d 000c 	stmia.w	sp, {r2, r3}
   814a2:	f1ba 0f00 	cmp.w	sl, #0
   814a6:	d017      	beq.n	814d8 <sqrt+0x98>
   814a8:	4642      	mov	r2, r8
   814aa:	464b      	mov	r3, r9
   814ac:	4640      	mov	r0, r8
   814ae:	4649      	mov	r1, r9
   814b0:	f000 fbc4 	bl	81c3c <__aeabi_ddiv>
   814b4:	f1ba 0f02 	cmp.w	sl, #2
   814b8:	e9cd 0106 	strd	r0, r1, [sp, #24]
   814bc:	d10e      	bne.n	814dc <sqrt+0x9c>
   814be:	f000 fd6b 	bl	81f98 <__errno>
   814c2:	2321      	movs	r3, #33	; 0x21
   814c4:	6003      	str	r3, [r0, #0]
   814c6:	9b08      	ldr	r3, [sp, #32]
   814c8:	b973      	cbnz	r3, 814e8 <sqrt+0xa8>
   814ca:	e9dd 6706 	ldrd	r6, r7, [sp, #24]
   814ce:	4630      	mov	r0, r6
   814d0:	4639      	mov	r1, r7
   814d2:	b00b      	add	sp, #44	; 0x2c
   814d4:	e8bd 8ff0 	ldmia.w	sp!, {r4, r5, r6, r7, r8, r9, sl, fp, pc}
   814d8:	e9cd 8906 	strd	r8, r9, [sp, #24]
   814dc:	4668      	mov	r0, sp
   814de:	f000 f8c9 	bl	81674 <matherr>
   814e2:	2800      	cmp	r0, #0
   814e4:	d1ef      	bne.n	814c6 <sqrt+0x86>
   814e6:	e7ea      	b.n	814be <sqrt+0x7e>
   814e8:	f000 fd56 	bl	81f98 <__errno>
   814ec:	9b08      	ldr	r3, [sp, #32]
   814ee:	6003      	str	r3, [r0, #0]
   814f0:	e7eb      	b.n	814ca <sqrt+0x8a>
   814f2:	bf00      	nop
   814f4:	200700f0 	.word	0x200700f0
   814f8:	00084f44 	.word	0x00084f44

000814fc <__ieee754_sqrt>:
   814fc:	e92d 43f8 	stmdb	sp!, {r3, r4, r5, r6, r7, r8, r9, lr}
   81500:	4f5b      	ldr	r7, [pc, #364]	; (81670 <__ieee754_sqrt+0x174>)
   81502:	4605      	mov	r5, r0
   81504:	438f      	bics	r7, r1
   81506:	460c      	mov	r4, r1
   81508:	f000 8092 	beq.w	81630 <__ieee754_sqrt+0x134>
   8150c:	2900      	cmp	r1, #0
   8150e:	460b      	mov	r3, r1
   81510:	4602      	mov	r2, r0
   81512:	dd6f      	ble.n	815f4 <__ieee754_sqrt+0xf8>
   81514:	150f      	asrs	r7, r1, #20
   81516:	d07b      	beq.n	81610 <__ieee754_sqrt+0x114>
   81518:	f2a7 37ff 	subw	r7, r7, #1023	; 0x3ff
   8151c:	f3c3 0313 	ubfx	r3, r3, #0, #20
   81520:	07f8      	lsls	r0, r7, #31
   81522:	f443 1380 	orr.w	r3, r3, #1048576	; 0x100000
   81526:	d45c      	bmi.n	815e2 <__ieee754_sqrt+0xe6>
   81528:	2600      	movs	r6, #0
   8152a:	2016      	movs	r0, #22
   8152c:	46b6      	mov	lr, r6
   8152e:	f44f 1100 	mov.w	r1, #2097152	; 0x200000
   81532:	eb03 74d2 	add.w	r4, r3, r2, lsr #31
   81536:	107f      	asrs	r7, r7, #1
   81538:	4423      	add	r3, r4
   8153a:	0052      	lsls	r2, r2, #1
   8153c:	eb0e 0401 	add.w	r4, lr, r1
   81540:	429c      	cmp	r4, r3
   81542:	ea4f 75d2 	mov.w	r5, r2, lsr #31
   81546:	ea4f 0242 	mov.w	r2, r2, lsl #1
   8154a:	dc03      	bgt.n	81554 <__ieee754_sqrt+0x58>
   8154c:	1b1b      	subs	r3, r3, r4
   8154e:	eb04 0e01 	add.w	lr, r4, r1
   81552:	440e      	add	r6, r1
   81554:	3801      	subs	r0, #1
   81556:	eb05 0343 	add.w	r3, r5, r3, lsl #1
   8155a:	ea4f 0151 	mov.w	r1, r1, lsr #1
   8155e:	d1ed      	bne.n	8153c <__ieee754_sqrt+0x40>
   81560:	2420      	movs	r4, #32
   81562:	4684      	mov	ip, r0
   81564:	f04f 4100 	mov.w	r1, #2147483648	; 0x80000000
   81568:	e009      	b.n	8157e <__ieee754_sqrt+0x82>
   8156a:	d020      	beq.n	815ae <__ieee754_sqrt+0xb2>
   8156c:	eb03 75d2 	add.w	r5, r3, r2, lsr #31
   81570:	3c01      	subs	r4, #1
   81572:	ea4f 0151 	mov.w	r1, r1, lsr #1
   81576:	442b      	add	r3, r5
   81578:	ea4f 0242 	mov.w	r2, r2, lsl #1
   8157c:	d020      	beq.n	815c0 <__ieee754_sqrt+0xc4>
   8157e:	4573      	cmp	r3, lr
   81580:	eb01 050c 	add.w	r5, r1, ip
   81584:	ddf1      	ble.n	8156a <__ieee754_sqrt+0x6e>
   81586:	2d00      	cmp	r5, #0
   81588:	eb05 0c01 	add.w	ip, r5, r1
   8158c:	db09      	blt.n	815a2 <__ieee754_sqrt+0xa6>
   8158e:	46f0      	mov	r8, lr
   81590:	4295      	cmp	r5, r2
   81592:	eba3 030e 	sub.w	r3, r3, lr
   81596:	d900      	bls.n	8159a <__ieee754_sqrt+0x9e>
   81598:	3b01      	subs	r3, #1
   8159a:	46c6      	mov	lr, r8
   8159c:	1b52      	subs	r2, r2, r5
   8159e:	4408      	add	r0, r1
   815a0:	e7e4      	b.n	8156c <__ieee754_sqrt+0x70>
   815a2:	f1bc 0f00 	cmp.w	ip, #0
   815a6:	dbf2      	blt.n	8158e <__ieee754_sqrt+0x92>
   815a8:	f10e 0801 	add.w	r8, lr, #1
   815ac:	e7f0      	b.n	81590 <__ieee754_sqrt+0x94>
   815ae:	4295      	cmp	r5, r2
   815b0:	d8dc      	bhi.n	8156c <__ieee754_sqrt+0x70>
   815b2:	2d00      	cmp	r5, #0
   815b4:	eb05 0c01 	add.w	ip, r5, r1
   815b8:	db44      	blt.n	81644 <__ieee754_sqrt+0x148>
   815ba:	4698      	mov	r8, r3
   815bc:	2300      	movs	r3, #0
   815be:	e7ec      	b.n	8159a <__ieee754_sqrt+0x9e>
   815c0:	4313      	orrs	r3, r2
   815c2:	d113      	bne.n	815ec <__ieee754_sqrt+0xf0>
   815c4:	0840      	lsrs	r0, r0, #1
   815c6:	1073      	asrs	r3, r6, #1
   815c8:	f103 537f 	add.w	r3, r3, #1069547520	; 0x3fc00000
   815cc:	f503 1300 	add.w	r3, r3, #2097152	; 0x200000
   815d0:	eb03 5907 	add.w	r9, r3, r7, lsl #20
   815d4:	4649      	mov	r1, r9
   815d6:	07f2      	lsls	r2, r6, #31
   815d8:	bf48      	it	mi
   815da:	f040 4000 	orrmi.w	r0, r0, #2147483648	; 0x80000000
   815de:	e8bd 83f8 	ldmia.w	sp!, {r3, r4, r5, r6, r7, r8, r9, pc}
   815e2:	005b      	lsls	r3, r3, #1
   815e4:	eb03 73d2 	add.w	r3, r3, r2, lsr #31
   815e8:	0052      	lsls	r2, r2, #1
   815ea:	e79d      	b.n	81528 <__ieee754_sqrt+0x2c>
   815ec:	1c41      	adds	r1, r0, #1
   815ee:	d02d      	beq.n	8164c <__ieee754_sqrt+0x150>
   815f0:	3001      	adds	r0, #1
   815f2:	e7e7      	b.n	815c4 <__ieee754_sqrt+0xc8>
   815f4:	4606      	mov	r6, r0
   815f6:	f021 4700 	bic.w	r7, r1, #2147483648	; 0x80000000
   815fa:	433e      	orrs	r6, r7
   815fc:	d0ef      	beq.n	815de <__ieee754_sqrt+0xe2>
   815fe:	bb69      	cbnz	r1, 8165c <__ieee754_sqrt+0x160>
   81600:	460f      	mov	r7, r1
   81602:	0ad3      	lsrs	r3, r2, #11
   81604:	3f15      	subs	r7, #21
   81606:	0552      	lsls	r2, r2, #21
   81608:	2b00      	cmp	r3, #0
   8160a:	d0fa      	beq.n	81602 <__ieee754_sqrt+0x106>
   8160c:	02de      	lsls	r6, r3, #11
   8160e:	d420      	bmi.n	81652 <__ieee754_sqrt+0x156>
   81610:	2400      	movs	r4, #0
   81612:	e000      	b.n	81616 <__ieee754_sqrt+0x11a>
   81614:	4604      	mov	r4, r0
   81616:	005b      	lsls	r3, r3, #1
   81618:	02dd      	lsls	r5, r3, #11
   8161a:	f104 0001 	add.w	r0, r4, #1
   8161e:	d5f9      	bpl.n	81614 <__ieee754_sqrt+0x118>
   81620:	f1c0 0120 	rsb	r1, r0, #32
   81624:	fa22 f101 	lsr.w	r1, r2, r1
   81628:	430b      	orrs	r3, r1
   8162a:	1b3f      	subs	r7, r7, r4
   8162c:	4082      	lsls	r2, r0
   8162e:	e773      	b.n	81518 <__ieee754_sqrt+0x1c>
   81630:	4602      	mov	r2, r0
   81632:	460b      	mov	r3, r1
   81634:	f000 f9d8 	bl	819e8 <__aeabi_dmul>
   81638:	462a      	mov	r2, r5
   8163a:	4623      	mov	r3, r4
   8163c:	f000 f822 	bl	81684 <__adddf3>
   81640:	e8bd 83f8 	ldmia.w	sp!, {r3, r4, r5, r6, r7, r8, r9, pc}
   81644:	f1bc 0f00 	cmp.w	ip, #0
   81648:	daae      	bge.n	815a8 <__ieee754_sqrt+0xac>
   8164a:	e7b6      	b.n	815ba <__ieee754_sqrt+0xbe>
   8164c:	3601      	adds	r6, #1
   8164e:	4620      	mov	r0, r4
   81650:	e7b9      	b.n	815c6 <__ieee754_sqrt+0xca>
   81652:	2000      	movs	r0, #0
   81654:	2120      	movs	r1, #32
   81656:	f04f 34ff 	mov.w	r4, #4294967295
   8165a:	e7e3      	b.n	81624 <__ieee754_sqrt+0x128>
   8165c:	4602      	mov	r2, r0
   8165e:	460b      	mov	r3, r1
   81660:	f000 f80e 	bl	81680 <__aeabi_dsub>
   81664:	4602      	mov	r2, r0
   81666:	460b      	mov	r3, r1
   81668:	f000 fae8 	bl	81c3c <__aeabi_ddiv>
   8166c:	e7b7      	b.n	815de <__ieee754_sqrt+0xe2>
   8166e:	bf00      	nop
   81670:	7ff00000 	.word	0x7ff00000

00081674 <matherr>:
   81674:	2000      	movs	r0, #0
   81676:	4770      	bx	lr

00081678 <__aeabi_drsub>:
   81678:	f081 4100 	eor.w	r1, r1, #2147483648	; 0x80000000
   8167c:	e002      	b.n	81684 <__adddf3>
   8167e:	bf00      	nop

00081680 <__aeabi_dsub>:
   81680:	f083 4300 	eor.w	r3, r3, #2147483648	; 0x80000000

00081684 <__adddf3>:
   81684:	b530      	push	{r4, r5, lr}
   81686:	ea4f 0441 	mov.w	r4, r1, lsl #1
   8168a:	ea4f 0543 	mov.w	r5, r3, lsl #1
   8168e:	ea94 0f05 	teq	r4, r5
   81692:	bf08      	it	eq
   81694:	ea90 0f02 	teqeq	r0, r2
   81698:	bf1f      	itttt	ne
   8169a:	ea54 0c00 	orrsne.w	ip, r4, r0
   8169e:	ea55 0c02 	orrsne.w	ip, r5, r2
   816a2:	ea7f 5c64 	mvnsne.w	ip, r4, asr #21
   816a6:	ea7f 5c65 	mvnsne.w	ip, r5, asr #21
   816aa:	f000 80e2 	beq.w	81872 <__adddf3+0x1ee>
   816ae:	ea4f 5454 	mov.w	r4, r4, lsr #21
   816b2:	ebd4 5555 	rsbs	r5, r4, r5, lsr #21
   816b6:	bfb8      	it	lt
   816b8:	426d      	neglt	r5, r5
   816ba:	dd0c      	ble.n	816d6 <__adddf3+0x52>
   816bc:	442c      	add	r4, r5
   816be:	ea80 0202 	eor.w	r2, r0, r2
   816c2:	ea81 0303 	eor.w	r3, r1, r3
   816c6:	ea82 0000 	eor.w	r0, r2, r0
   816ca:	ea83 0101 	eor.w	r1, r3, r1
   816ce:	ea80 0202 	eor.w	r2, r0, r2
   816d2:	ea81 0303 	eor.w	r3, r1, r3
   816d6:	2d36      	cmp	r5, #54	; 0x36
   816d8:	bf88      	it	hi
   816da:	bd30      	pophi	{r4, r5, pc}
   816dc:	f011 4f00 	tst.w	r1, #2147483648	; 0x80000000
   816e0:	ea4f 3101 	mov.w	r1, r1, lsl #12
   816e4:	f44f 1c80 	mov.w	ip, #1048576	; 0x100000
   816e8:	ea4c 3111 	orr.w	r1, ip, r1, lsr #12
   816ec:	d002      	beq.n	816f4 <__adddf3+0x70>
   816ee:	4240      	negs	r0, r0
   816f0:	eb61 0141 	sbc.w	r1, r1, r1, lsl #1
   816f4:	f013 4f00 	tst.w	r3, #2147483648	; 0x80000000
   816f8:	ea4f 3303 	mov.w	r3, r3, lsl #12
   816fc:	ea4c 3313 	orr.w	r3, ip, r3, lsr #12
   81700:	d002      	beq.n	81708 <__adddf3+0x84>
   81702:	4252      	negs	r2, r2
   81704:	eb63 0343 	sbc.w	r3, r3, r3, lsl #1
   81708:	ea94 0f05 	teq	r4, r5
   8170c:	f000 80a7 	beq.w	8185e <__adddf3+0x1da>
   81710:	f1a4 0401 	sub.w	r4, r4, #1
   81714:	f1d5 0e20 	rsbs	lr, r5, #32
   81718:	db0d      	blt.n	81736 <__adddf3+0xb2>
   8171a:	fa02 fc0e 	lsl.w	ip, r2, lr
   8171e:	fa22 f205 	lsr.w	r2, r2, r5
   81722:	1880      	adds	r0, r0, r2
   81724:	f141 0100 	adc.w	r1, r1, #0
   81728:	fa03 f20e 	lsl.w	r2, r3, lr
   8172c:	1880      	adds	r0, r0, r2
   8172e:	fa43 f305 	asr.w	r3, r3, r5
   81732:	4159      	adcs	r1, r3
   81734:	e00e      	b.n	81754 <__adddf3+0xd0>
   81736:	f1a5 0520 	sub.w	r5, r5, #32
   8173a:	f10e 0e20 	add.w	lr, lr, #32
   8173e:	2a01      	cmp	r2, #1
   81740:	fa03 fc0e 	lsl.w	ip, r3, lr
   81744:	bf28      	it	cs
   81746:	f04c 0c02 	orrcs.w	ip, ip, #2
   8174a:	fa43 f305 	asr.w	r3, r3, r5
   8174e:	18c0      	adds	r0, r0, r3
   81750:	eb51 71e3 	adcs.w	r1, r1, r3, asr #31
   81754:	f001 4500 	and.w	r5, r1, #2147483648	; 0x80000000
   81758:	d507      	bpl.n	8176a <__adddf3+0xe6>
   8175a:	f04f 0e00 	mov.w	lr, #0
   8175e:	f1dc 0c00 	rsbs	ip, ip, #0
   81762:	eb7e 0000 	sbcs.w	r0, lr, r0
   81766:	eb6e 0101 	sbc.w	r1, lr, r1
   8176a:	f5b1 1f80 	cmp.w	r1, #1048576	; 0x100000
   8176e:	d31b      	bcc.n	817a8 <__adddf3+0x124>
   81770:	f5b1 1f00 	cmp.w	r1, #2097152	; 0x200000
   81774:	d30c      	bcc.n	81790 <__adddf3+0x10c>
   81776:	0849      	lsrs	r1, r1, #1
   81778:	ea5f 0030 	movs.w	r0, r0, rrx
   8177c:	ea4f 0c3c 	mov.w	ip, ip, rrx
   81780:	f104 0401 	add.w	r4, r4, #1
   81784:	ea4f 5244 	mov.w	r2, r4, lsl #21
   81788:	f512 0f80 	cmn.w	r2, #4194304	; 0x400000
   8178c:	f080 809a 	bcs.w	818c4 <__adddf3+0x240>
   81790:	f1bc 4f00 	cmp.w	ip, #2147483648	; 0x80000000
   81794:	bf08      	it	eq
   81796:	ea5f 0c50 	movseq.w	ip, r0, lsr #1
   8179a:	f150 0000 	adcs.w	r0, r0, #0
   8179e:	eb41 5104 	adc.w	r1, r1, r4, lsl #20
   817a2:	ea41 0105 	orr.w	r1, r1, r5
   817a6:	bd30      	pop	{r4, r5, pc}
   817a8:	ea5f 0c4c 	movs.w	ip, ip, lsl #1
   817ac:	4140      	adcs	r0, r0
   817ae:	eb41 0101 	adc.w	r1, r1, r1
   817b2:	f411 1f80 	tst.w	r1, #1048576	; 0x100000
   817b6:	f1a4 0401 	sub.w	r4, r4, #1
   817ba:	d1e9      	bne.n	81790 <__adddf3+0x10c>
   817bc:	f091 0f00 	teq	r1, #0
   817c0:	bf04      	itt	eq
   817c2:	4601      	moveq	r1, r0
   817c4:	2000      	moveq	r0, #0
   817c6:	fab1 f381 	clz	r3, r1
   817ca:	bf08      	it	eq
   817cc:	3320      	addeq	r3, #32
   817ce:	f1a3 030b 	sub.w	r3, r3, #11
   817d2:	f1b3 0220 	subs.w	r2, r3, #32
   817d6:	da0c      	bge.n	817f2 <__adddf3+0x16e>
   817d8:	320c      	adds	r2, #12
   817da:	dd08      	ble.n	817ee <__adddf3+0x16a>
   817dc:	f102 0c14 	add.w	ip, r2, #20
   817e0:	f1c2 020c 	rsb	r2, r2, #12
   817e4:	fa01 f00c 	lsl.w	r0, r1, ip
   817e8:	fa21 f102 	lsr.w	r1, r1, r2
   817ec:	e00c      	b.n	81808 <__adddf3+0x184>
   817ee:	f102 0214 	add.w	r2, r2, #20
   817f2:	bfd8      	it	le
   817f4:	f1c2 0c20 	rsble	ip, r2, #32
   817f8:	fa01 f102 	lsl.w	r1, r1, r2
   817fc:	fa20 fc0c 	lsr.w	ip, r0, ip
   81800:	bfdc      	itt	le
   81802:	ea41 010c 	orrle.w	r1, r1, ip
   81806:	4090      	lslle	r0, r2
   81808:	1ae4      	subs	r4, r4, r3
   8180a:	bfa2      	ittt	ge
   8180c:	eb01 5104 	addge.w	r1, r1, r4, lsl #20
   81810:	4329      	orrge	r1, r5
   81812:	bd30      	popge	{r4, r5, pc}
   81814:	ea6f 0404 	mvn.w	r4, r4
   81818:	3c1f      	subs	r4, #31
   8181a:	da1c      	bge.n	81856 <__adddf3+0x1d2>
   8181c:	340c      	adds	r4, #12
   8181e:	dc0e      	bgt.n	8183e <__adddf3+0x1ba>
   81820:	f104 0414 	add.w	r4, r4, #20
   81824:	f1c4 0220 	rsb	r2, r4, #32
   81828:	fa20 f004 	lsr.w	r0, r0, r4
   8182c:	fa01 f302 	lsl.w	r3, r1, r2
   81830:	ea40 0003 	orr.w	r0, r0, r3
   81834:	fa21 f304 	lsr.w	r3, r1, r4
   81838:	ea45 0103 	orr.w	r1, r5, r3
   8183c:	bd30      	pop	{r4, r5, pc}
   8183e:	f1c4 040c 	rsb	r4, r4, #12
   81842:	f1c4 0220 	rsb	r2, r4, #32
   81846:	fa20 f002 	lsr.w	r0, r0, r2
   8184a:	fa01 f304 	lsl.w	r3, r1, r4
   8184e:	ea40 0003 	orr.w	r0, r0, r3
   81852:	4629      	mov	r1, r5
   81854:	bd30      	pop	{r4, r5, pc}
   81856:	fa21 f004 	lsr.w	r0, r1, r4
   8185a:	4629      	mov	r1, r5
   8185c:	bd30      	pop	{r4, r5, pc}
   8185e:	f094 0f00 	teq	r4, #0
   81862:	f483 1380 	eor.w	r3, r3, #1048576	; 0x100000
   81866:	bf06      	itte	eq
   81868:	f481 1180 	eoreq.w	r1, r1, #1048576	; 0x100000
   8186c:	3401      	addeq	r4, #1
   8186e:	3d01      	subne	r5, #1
   81870:	e74e      	b.n	81710 <__adddf3+0x8c>
   81872:	ea7f 5c64 	mvns.w	ip, r4, asr #21
   81876:	bf18      	it	ne
   81878:	ea7f 5c65 	mvnsne.w	ip, r5, asr #21
   8187c:	d029      	beq.n	818d2 <__adddf3+0x24e>
   8187e:	ea94 0f05 	teq	r4, r5
   81882:	bf08      	it	eq
   81884:	ea90 0f02 	teqeq	r0, r2
   81888:	d005      	beq.n	81896 <__adddf3+0x212>
   8188a:	ea54 0c00 	orrs.w	ip, r4, r0
   8188e:	bf04      	itt	eq
   81890:	4619      	moveq	r1, r3
   81892:	4610      	moveq	r0, r2
   81894:	bd30      	pop	{r4, r5, pc}
   81896:	ea91 0f03 	teq	r1, r3
   8189a:	bf1e      	ittt	ne
   8189c:	2100      	movne	r1, #0
   8189e:	2000      	movne	r0, #0
   818a0:	bd30      	popne	{r4, r5, pc}
   818a2:	ea5f 5c54 	movs.w	ip, r4, lsr #21
   818a6:	d105      	bne.n	818b4 <__adddf3+0x230>
   818a8:	0040      	lsls	r0, r0, #1
   818aa:	4149      	adcs	r1, r1
   818ac:	bf28      	it	cs
   818ae:	f041 4100 	orrcs.w	r1, r1, #2147483648	; 0x80000000
   818b2:	bd30      	pop	{r4, r5, pc}
   818b4:	f514 0480 	adds.w	r4, r4, #4194304	; 0x400000
   818b8:	bf3c      	itt	cc
   818ba:	f501 1180 	addcc.w	r1, r1, #1048576	; 0x100000
   818be:	bd30      	popcc	{r4, r5, pc}
   818c0:	f001 4500 	and.w	r5, r1, #2147483648	; 0x80000000
   818c4:	f045 41fe 	orr.w	r1, r5, #2130706432	; 0x7f000000
   818c8:	f441 0170 	orr.w	r1, r1, #15728640	; 0xf00000
   818cc:	f04f 0000 	mov.w	r0, #0
   818d0:	bd30      	pop	{r4, r5, pc}
   818d2:	ea7f 5c64 	mvns.w	ip, r4, asr #21
   818d6:	bf1a      	itte	ne
   818d8:	4619      	movne	r1, r3
   818da:	4610      	movne	r0, r2
   818dc:	ea7f 5c65 	mvnseq.w	ip, r5, asr #21
   818e0:	bf1c      	itt	ne
   818e2:	460b      	movne	r3, r1
   818e4:	4602      	movne	r2, r0
   818e6:	ea50 3401 	orrs.w	r4, r0, r1, lsl #12
   818ea:	bf06      	itte	eq
   818ec:	ea52 3503 	orrseq.w	r5, r2, r3, lsl #12
   818f0:	ea91 0f03 	teqeq	r1, r3
   818f4:	f441 2100 	orrne.w	r1, r1, #524288	; 0x80000
   818f8:	bd30      	pop	{r4, r5, pc}
   818fa:	bf00      	nop

000818fc <__aeabi_ui2d>:
   818fc:	f090 0f00 	teq	r0, #0
   81900:	bf04      	itt	eq
   81902:	2100      	moveq	r1, #0
   81904:	4770      	bxeq	lr
   81906:	b530      	push	{r4, r5, lr}
   81908:	f44f 6480 	mov.w	r4, #1024	; 0x400
   8190c:	f104 0432 	add.w	r4, r4, #50	; 0x32
   81910:	f04f 0500 	mov.w	r5, #0
   81914:	f04f 0100 	mov.w	r1, #0
   81918:	e750      	b.n	817bc <__adddf3+0x138>
   8191a:	bf00      	nop

0008191c <__aeabi_i2d>:
   8191c:	f090 0f00 	teq	r0, #0
   81920:	bf04      	itt	eq
   81922:	2100      	moveq	r1, #0
   81924:	4770      	bxeq	lr
   81926:	b530      	push	{r4, r5, lr}
   81928:	f44f 6480 	mov.w	r4, #1024	; 0x400
   8192c:	f104 0432 	add.w	r4, r4, #50	; 0x32
   81930:	f010 4500 	ands.w	r5, r0, #2147483648	; 0x80000000
   81934:	bf48      	it	mi
   81936:	4240      	negmi	r0, r0
   81938:	f04f 0100 	mov.w	r1, #0
   8193c:	e73e      	b.n	817bc <__adddf3+0x138>
   8193e:	bf00      	nop

00081940 <__aeabi_f2d>:
   81940:	0042      	lsls	r2, r0, #1
   81942:	ea4f 01e2 	mov.w	r1, r2, asr #3
   81946:	ea4f 0131 	mov.w	r1, r1, rrx
   8194a:	ea4f 7002 	mov.w	r0, r2, lsl #28
   8194e:	bf1f      	itttt	ne
   81950:	f012 437f 	andsne.w	r3, r2, #4278190080	; 0xff000000
   81954:	f093 4f7f 	teqne	r3, #4278190080	; 0xff000000
   81958:	f081 5160 	eorne.w	r1, r1, #939524096	; 0x38000000
   8195c:	4770      	bxne	lr
   8195e:	f092 0f00 	teq	r2, #0
   81962:	bf14      	ite	ne
   81964:	f093 4f7f 	teqne	r3, #4278190080	; 0xff000000
   81968:	4770      	bxeq	lr
   8196a:	b530      	push	{r4, r5, lr}
   8196c:	f44f 7460 	mov.w	r4, #896	; 0x380
   81970:	f001 4500 	and.w	r5, r1, #2147483648	; 0x80000000
   81974:	f021 4100 	bic.w	r1, r1, #2147483648	; 0x80000000
   81978:	e720      	b.n	817bc <__adddf3+0x138>
   8197a:	bf00      	nop

0008197c <__aeabi_ul2d>:
   8197c:	ea50 0201 	orrs.w	r2, r0, r1
   81980:	bf08      	it	eq
   81982:	4770      	bxeq	lr
   81984:	b530      	push	{r4, r5, lr}
   81986:	f04f 0500 	mov.w	r5, #0
   8198a:	e00a      	b.n	819a2 <__aeabi_l2d+0x16>

0008198c <__aeabi_l2d>:
   8198c:	ea50 0201 	orrs.w	r2, r0, r1
   81990:	bf08      	it	eq
   81992:	4770      	bxeq	lr
   81994:	b530      	push	{r4, r5, lr}
   81996:	f011 4500 	ands.w	r5, r1, #2147483648	; 0x80000000
   8199a:	d502      	bpl.n	819a2 <__aeabi_l2d+0x16>
   8199c:	4240      	negs	r0, r0
   8199e:	eb61 0141 	sbc.w	r1, r1, r1, lsl #1
   819a2:	f44f 6480 	mov.w	r4, #1024	; 0x400
   819a6:	f104 0432 	add.w	r4, r4, #50	; 0x32
   819aa:	ea5f 5c91 	movs.w	ip, r1, lsr #22
   819ae:	f43f aedc 	beq.w	8176a <__adddf3+0xe6>
   819b2:	f04f 0203 	mov.w	r2, #3
   819b6:	ea5f 0cdc 	movs.w	ip, ip, lsr #3
   819ba:	bf18      	it	ne
   819bc:	3203      	addne	r2, #3
   819be:	ea5f 0cdc 	movs.w	ip, ip, lsr #3
   819c2:	bf18      	it	ne
   819c4:	3203      	addne	r2, #3
   819c6:	eb02 02dc 	add.w	r2, r2, ip, lsr #3
   819ca:	f1c2 0320 	rsb	r3, r2, #32
   819ce:	fa00 fc03 	lsl.w	ip, r0, r3
   819d2:	fa20 f002 	lsr.w	r0, r0, r2
   819d6:	fa01 fe03 	lsl.w	lr, r1, r3
   819da:	ea40 000e 	orr.w	r0, r0, lr
   819de:	fa21 f102 	lsr.w	r1, r1, r2
   819e2:	4414      	add	r4, r2
   819e4:	e6c1      	b.n	8176a <__adddf3+0xe6>
   819e6:	bf00      	nop

000819e8 <__aeabi_dmul>:
   819e8:	b570      	push	{r4, r5, r6, lr}
   819ea:	f04f 0cff 	mov.w	ip, #255	; 0xff
   819ee:	f44c 6ce0 	orr.w	ip, ip, #1792	; 0x700
   819f2:	ea1c 5411 	ands.w	r4, ip, r1, lsr #20
   819f6:	bf1d      	ittte	ne
   819f8:	ea1c 5513 	andsne.w	r5, ip, r3, lsr #20
   819fc:	ea94 0f0c 	teqne	r4, ip
   81a00:	ea95 0f0c 	teqne	r5, ip
   81a04:	f000 f8de 	bleq	81bc4 <__aeabi_dmul+0x1dc>
   81a08:	442c      	add	r4, r5
   81a0a:	ea81 0603 	eor.w	r6, r1, r3
   81a0e:	ea21 514c 	bic.w	r1, r1, ip, lsl #21
   81a12:	ea23 534c 	bic.w	r3, r3, ip, lsl #21
   81a16:	ea50 3501 	orrs.w	r5, r0, r1, lsl #12
   81a1a:	bf18      	it	ne
   81a1c:	ea52 3503 	orrsne.w	r5, r2, r3, lsl #12
   81a20:	f441 1180 	orr.w	r1, r1, #1048576	; 0x100000
   81a24:	f443 1380 	orr.w	r3, r3, #1048576	; 0x100000
   81a28:	d038      	beq.n	81a9c <__aeabi_dmul+0xb4>
   81a2a:	fba0 ce02 	umull	ip, lr, r0, r2
   81a2e:	f04f 0500 	mov.w	r5, #0
   81a32:	fbe1 e502 	umlal	lr, r5, r1, r2
   81a36:	f006 4200 	and.w	r2, r6, #2147483648	; 0x80000000
   81a3a:	fbe0 e503 	umlal	lr, r5, r0, r3
   81a3e:	f04f 0600 	mov.w	r6, #0
   81a42:	fbe1 5603 	umlal	r5, r6, r1, r3
   81a46:	f09c 0f00 	teq	ip, #0
   81a4a:	bf18      	it	ne
   81a4c:	f04e 0e01 	orrne.w	lr, lr, #1
   81a50:	f1a4 04ff 	sub.w	r4, r4, #255	; 0xff
   81a54:	f5b6 7f00 	cmp.w	r6, #512	; 0x200
   81a58:	f564 7440 	sbc.w	r4, r4, #768	; 0x300
   81a5c:	d204      	bcs.n	81a68 <__aeabi_dmul+0x80>
   81a5e:	ea5f 0e4e 	movs.w	lr, lr, lsl #1
   81a62:	416d      	adcs	r5, r5
   81a64:	eb46 0606 	adc.w	r6, r6, r6
   81a68:	ea42 21c6 	orr.w	r1, r2, r6, lsl #11
   81a6c:	ea41 5155 	orr.w	r1, r1, r5, lsr #21
   81a70:	ea4f 20c5 	mov.w	r0, r5, lsl #11
   81a74:	ea40 505e 	orr.w	r0, r0, lr, lsr #21
   81a78:	ea4f 2ece 	mov.w	lr, lr, lsl #11
   81a7c:	f1b4 0cfd 	subs.w	ip, r4, #253	; 0xfd
   81a80:	bf88      	it	hi
   81a82:	f5bc 6fe0 	cmphi.w	ip, #1792	; 0x700
   81a86:	d81e      	bhi.n	81ac6 <__aeabi_dmul+0xde>
   81a88:	f1be 4f00 	cmp.w	lr, #2147483648	; 0x80000000
   81a8c:	bf08      	it	eq
   81a8e:	ea5f 0e50 	movseq.w	lr, r0, lsr #1
   81a92:	f150 0000 	adcs.w	r0, r0, #0
   81a96:	eb41 5104 	adc.w	r1, r1, r4, lsl #20
   81a9a:	bd70      	pop	{r4, r5, r6, pc}
   81a9c:	f006 4600 	and.w	r6, r6, #2147483648	; 0x80000000
   81aa0:	ea46 0101 	orr.w	r1, r6, r1
   81aa4:	ea40 0002 	orr.w	r0, r0, r2
   81aa8:	ea81 0103 	eor.w	r1, r1, r3
   81aac:	ebb4 045c 	subs.w	r4, r4, ip, lsr #1
   81ab0:	bfc2      	ittt	gt
   81ab2:	ebd4 050c 	rsbsgt	r5, r4, ip
   81ab6:	ea41 5104 	orrgt.w	r1, r1, r4, lsl #20
   81aba:	bd70      	popgt	{r4, r5, r6, pc}
   81abc:	f441 1180 	orr.w	r1, r1, #1048576	; 0x100000
   81ac0:	f04f 0e00 	mov.w	lr, #0
   81ac4:	3c01      	subs	r4, #1
   81ac6:	f300 80ab 	bgt.w	81c20 <__aeabi_dmul+0x238>
   81aca:	f114 0f36 	cmn.w	r4, #54	; 0x36
   81ace:	bfde      	ittt	le
   81ad0:	2000      	movle	r0, #0
   81ad2:	f001 4100 	andle.w	r1, r1, #2147483648	; 0x80000000
   81ad6:	bd70      	pople	{r4, r5, r6, pc}
   81ad8:	f1c4 0400 	rsb	r4, r4, #0
   81adc:	3c20      	subs	r4, #32
   81ade:	da35      	bge.n	81b4c <__aeabi_dmul+0x164>
   81ae0:	340c      	adds	r4, #12
   81ae2:	dc1b      	bgt.n	81b1c <__aeabi_dmul+0x134>
   81ae4:	f104 0414 	add.w	r4, r4, #20
   81ae8:	f1c4 0520 	rsb	r5, r4, #32
   81aec:	fa00 f305 	lsl.w	r3, r0, r5
   81af0:	fa20 f004 	lsr.w	r0, r0, r4
   81af4:	fa01 f205 	lsl.w	r2, r1, r5
   81af8:	ea40 0002 	orr.w	r0, r0, r2
   81afc:	f001 4200 	and.w	r2, r1, #2147483648	; 0x80000000
   81b00:	f021 4100 	bic.w	r1, r1, #2147483648	; 0x80000000
   81b04:	eb10 70d3 	adds.w	r0, r0, r3, lsr #31
   81b08:	fa21 f604 	lsr.w	r6, r1, r4
   81b0c:	eb42 0106 	adc.w	r1, r2, r6
   81b10:	ea5e 0e43 	orrs.w	lr, lr, r3, lsl #1
   81b14:	bf08      	it	eq
   81b16:	ea20 70d3 	biceq.w	r0, r0, r3, lsr #31
   81b1a:	bd70      	pop	{r4, r5, r6, pc}
   81b1c:	f1c4 040c 	rsb	r4, r4, #12
   81b20:	f1c4 0520 	rsb	r5, r4, #32
   81b24:	fa00 f304 	lsl.w	r3, r0, r4
   81b28:	fa20 f005 	lsr.w	r0, r0, r5
   81b2c:	fa01 f204 	lsl.w	r2, r1, r4
   81b30:	ea40 0002 	orr.w	r0, r0, r2
   81b34:	f001 4100 	and.w	r1, r1, #2147483648	; 0x80000000
   81b38:	eb10 70d3 	adds.w	r0, r0, r3, lsr #31
   81b3c:	f141 0100 	adc.w	r1, r1, #0
   81b40:	ea5e 0e43 	orrs.w	lr, lr, r3, lsl #1
   81b44:	bf08      	it	eq
   81b46:	ea20 70d3 	biceq.w	r0, r0, r3, lsr #31
   81b4a:	bd70      	pop	{r4, r5, r6, pc}
   81b4c:	f1c4 0520 	rsb	r5, r4, #32
   81b50:	fa00 f205 	lsl.w	r2, r0, r5
   81b54:	ea4e 0e02 	orr.w	lr, lr, r2
   81b58:	fa20 f304 	lsr.w	r3, r0, r4
   81b5c:	fa01 f205 	lsl.w	r2, r1, r5
   81b60:	ea43 0302 	orr.w	r3, r3, r2
   81b64:	fa21 f004 	lsr.w	r0, r1, r4
   81b68:	f001 4100 	and.w	r1, r1, #2147483648	; 0x80000000
   81b6c:	fa21 f204 	lsr.w	r2, r1, r4
   81b70:	ea20 0002 	bic.w	r0, r0, r2
   81b74:	eb00 70d3 	add.w	r0, r0, r3, lsr #31
   81b78:	ea5e 0e43 	orrs.w	lr, lr, r3, lsl #1
   81b7c:	bf08      	it	eq
   81b7e:	ea20 70d3 	biceq.w	r0, r0, r3, lsr #31
   81b82:	bd70      	pop	{r4, r5, r6, pc}
   81b84:	f094 0f00 	teq	r4, #0
   81b88:	d10f      	bne.n	81baa <__aeabi_dmul+0x1c2>
   81b8a:	f001 4600 	and.w	r6, r1, #2147483648	; 0x80000000
   81b8e:	0040      	lsls	r0, r0, #1
   81b90:	eb41 0101 	adc.w	r1, r1, r1
   81b94:	f411 1f80 	tst.w	r1, #1048576	; 0x100000
   81b98:	bf08      	it	eq
   81b9a:	3c01      	subeq	r4, #1
   81b9c:	d0f7      	beq.n	81b8e <__aeabi_dmul+0x1a6>
   81b9e:	ea41 0106 	orr.w	r1, r1, r6
   81ba2:	f095 0f00 	teq	r5, #0
   81ba6:	bf18      	it	ne
   81ba8:	4770      	bxne	lr
   81baa:	f003 4600 	and.w	r6, r3, #2147483648	; 0x80000000
   81bae:	0052      	lsls	r2, r2, #1
   81bb0:	eb43 0303 	adc.w	r3, r3, r3
   81bb4:	f413 1f80 	tst.w	r3, #1048576	; 0x100000
   81bb8:	bf08      	it	eq
   81bba:	3d01      	subeq	r5, #1
   81bbc:	d0f7      	beq.n	81bae <__aeabi_dmul+0x1c6>
   81bbe:	ea43 0306 	orr.w	r3, r3, r6
   81bc2:	4770      	bx	lr
   81bc4:	ea94 0f0c 	teq	r4, ip
   81bc8:	ea0c 5513 	and.w	r5, ip, r3, lsr #20
   81bcc:	bf18      	it	ne
   81bce:	ea95 0f0c 	teqne	r5, ip
   81bd2:	d00c      	beq.n	81bee <__aeabi_dmul+0x206>
   81bd4:	ea50 0641 	orrs.w	r6, r0, r1, lsl #1
   81bd8:	bf18      	it	ne
   81bda:	ea52 0643 	orrsne.w	r6, r2, r3, lsl #1
   81bde:	d1d1      	bne.n	81b84 <__aeabi_dmul+0x19c>
   81be0:	ea81 0103 	eor.w	r1, r1, r3
   81be4:	f001 4100 	and.w	r1, r1, #2147483648	; 0x80000000
   81be8:	f04f 0000 	mov.w	r0, #0
   81bec:	bd70      	pop	{r4, r5, r6, pc}
   81bee:	ea50 0641 	orrs.w	r6, r0, r1, lsl #1
   81bf2:	bf06      	itte	eq
   81bf4:	4610      	moveq	r0, r2
   81bf6:	4619      	moveq	r1, r3
   81bf8:	ea52 0643 	orrsne.w	r6, r2, r3, lsl #1
   81bfc:	d019      	beq.n	81c32 <__aeabi_dmul+0x24a>
   81bfe:	ea94 0f0c 	teq	r4, ip
   81c02:	d102      	bne.n	81c0a <__aeabi_dmul+0x222>
   81c04:	ea50 3601 	orrs.w	r6, r0, r1, lsl #12
   81c08:	d113      	bne.n	81c32 <__aeabi_dmul+0x24a>
   81c0a:	ea95 0f0c 	teq	r5, ip
   81c0e:	d105      	bne.n	81c1c <__aeabi_dmul+0x234>
   81c10:	ea52 3603 	orrs.w	r6, r2, r3, lsl #12
   81c14:	bf1c      	itt	ne
   81c16:	4610      	movne	r0, r2
   81c18:	4619      	movne	r1, r3
   81c1a:	d10a      	bne.n	81c32 <__aeabi_dmul+0x24a>
   81c1c:	ea81 0103 	eor.w	r1, r1, r3
   81c20:	f001 4100 	and.w	r1, r1, #2147483648	; 0x80000000
   81c24:	f041 41fe 	orr.w	r1, r1, #2130706432	; 0x7f000000
   81c28:	f441 0170 	orr.w	r1, r1, #15728640	; 0xf00000
   81c2c:	f04f 0000 	mov.w	r0, #0
   81c30:	bd70      	pop	{r4, r5, r6, pc}
   81c32:	f041 41fe 	orr.w	r1, r1, #2130706432	; 0x7f000000
   81c36:	f441 0178 	orr.w	r1, r1, #16252928	; 0xf80000
   81c3a:	bd70      	pop	{r4, r5, r6, pc}

00081c3c <__aeabi_ddiv>:
   81c3c:	b570      	push	{r4, r5, r6, lr}
   81c3e:	f04f 0cff 	mov.w	ip, #255	; 0xff
   81c42:	f44c 6ce0 	orr.w	ip, ip, #1792	; 0x700
   81c46:	ea1c 5411 	ands.w	r4, ip, r1, lsr #20
   81c4a:	bf1d      	ittte	ne
   81c4c:	ea1c 5513 	andsne.w	r5, ip, r3, lsr #20
   81c50:	ea94 0f0c 	teqne	r4, ip
   81c54:	ea95 0f0c 	teqne	r5, ip
   81c58:	f000 f8a7 	bleq	81daa <__aeabi_ddiv+0x16e>
   81c5c:	eba4 0405 	sub.w	r4, r4, r5
   81c60:	ea81 0e03 	eor.w	lr, r1, r3
   81c64:	ea52 3503 	orrs.w	r5, r2, r3, lsl #12
   81c68:	ea4f 3101 	mov.w	r1, r1, lsl #12
   81c6c:	f000 8088 	beq.w	81d80 <__aeabi_ddiv+0x144>
   81c70:	ea4f 3303 	mov.w	r3, r3, lsl #12
   81c74:	f04f 5580 	mov.w	r5, #268435456	; 0x10000000
   81c78:	ea45 1313 	orr.w	r3, r5, r3, lsr #4
   81c7c:	ea43 6312 	orr.w	r3, r3, r2, lsr #24
   81c80:	ea4f 2202 	mov.w	r2, r2, lsl #8
   81c84:	ea45 1511 	orr.w	r5, r5, r1, lsr #4
   81c88:	ea45 6510 	orr.w	r5, r5, r0, lsr #24
   81c8c:	ea4f 2600 	mov.w	r6, r0, lsl #8
   81c90:	f00e 4100 	and.w	r1, lr, #2147483648	; 0x80000000
   81c94:	429d      	cmp	r5, r3
   81c96:	bf08      	it	eq
   81c98:	4296      	cmpeq	r6, r2
   81c9a:	f144 04fd 	adc.w	r4, r4, #253	; 0xfd
   81c9e:	f504 7440 	add.w	r4, r4, #768	; 0x300
   81ca2:	d202      	bcs.n	81caa <__aeabi_ddiv+0x6e>
   81ca4:	085b      	lsrs	r3, r3, #1
   81ca6:	ea4f 0232 	mov.w	r2, r2, rrx
   81caa:	1ab6      	subs	r6, r6, r2
   81cac:	eb65 0503 	sbc.w	r5, r5, r3
   81cb0:	085b      	lsrs	r3, r3, #1
   81cb2:	ea4f 0232 	mov.w	r2, r2, rrx
   81cb6:	f44f 1080 	mov.w	r0, #1048576	; 0x100000
   81cba:	f44f 2c00 	mov.w	ip, #524288	; 0x80000
   81cbe:	ebb6 0e02 	subs.w	lr, r6, r2
   81cc2:	eb75 0e03 	sbcs.w	lr, r5, r3
   81cc6:	bf22      	ittt	cs
   81cc8:	1ab6      	subcs	r6, r6, r2
   81cca:	4675      	movcs	r5, lr
   81ccc:	ea40 000c 	orrcs.w	r0, r0, ip
   81cd0:	085b      	lsrs	r3, r3, #1
   81cd2:	ea4f 0232 	mov.w	r2, r2, rrx
   81cd6:	ebb6 0e02 	subs.w	lr, r6, r2
   81cda:	eb75 0e03 	sbcs.w	lr, r5, r3
   81cde:	bf22      	ittt	cs
   81ce0:	1ab6      	subcs	r6, r6, r2
   81ce2:	4675      	movcs	r5, lr
   81ce4:	ea40 005c 	orrcs.w	r0, r0, ip, lsr #1
   81ce8:	085b      	lsrs	r3, r3, #1
   81cea:	ea4f 0232 	mov.w	r2, r2, rrx
   81cee:	ebb6 0e02 	subs.w	lr, r6, r2
   81cf2:	eb75 0e03 	sbcs.w	lr, r5, r3
   81cf6:	bf22      	ittt	cs
   81cf8:	1ab6      	subcs	r6, r6, r2
   81cfa:	4675      	movcs	r5, lr
   81cfc:	ea40 009c 	orrcs.w	r0, r0, ip, lsr #2
   81d00:	085b      	lsrs	r3, r3, #1
   81d02:	ea4f 0232 	mov.w	r2, r2, rrx
   81d06:	ebb6 0e02 	subs.w	lr, r6, r2
   81d0a:	eb75 0e03 	sbcs.w	lr, r5, r3
   81d0e:	bf22      	ittt	cs
   81d10:	1ab6      	subcs	r6, r6, r2
   81d12:	4675      	movcs	r5, lr
   81d14:	ea40 00dc 	orrcs.w	r0, r0, ip, lsr #3
   81d18:	ea55 0e06 	orrs.w	lr, r5, r6
   81d1c:	d018      	beq.n	81d50 <__aeabi_ddiv+0x114>
   81d1e:	ea4f 1505 	mov.w	r5, r5, lsl #4
   81d22:	ea45 7516 	orr.w	r5, r5, r6, lsr #28
   81d26:	ea4f 1606 	mov.w	r6, r6, lsl #4
   81d2a:	ea4f 03c3 	mov.w	r3, r3, lsl #3
   81d2e:	ea43 7352 	orr.w	r3, r3, r2, lsr #29
   81d32:	ea4f 02c2 	mov.w	r2, r2, lsl #3
   81d36:	ea5f 1c1c 	movs.w	ip, ip, lsr #4
   81d3a:	d1c0      	bne.n	81cbe <__aeabi_ddiv+0x82>
   81d3c:	f411 1f80 	tst.w	r1, #1048576	; 0x100000
   81d40:	d10b      	bne.n	81d5a <__aeabi_ddiv+0x11e>
   81d42:	ea41 0100 	orr.w	r1, r1, r0
   81d46:	f04f 0000 	mov.w	r0, #0
   81d4a:	f04f 4c00 	mov.w	ip, #2147483648	; 0x80000000
   81d4e:	e7b6      	b.n	81cbe <__aeabi_ddiv+0x82>
   81d50:	f411 1f80 	tst.w	r1, #1048576	; 0x100000
   81d54:	bf04      	itt	eq
   81d56:	4301      	orreq	r1, r0
   81d58:	2000      	moveq	r0, #0
   81d5a:	f1b4 0cfd 	subs.w	ip, r4, #253	; 0xfd
   81d5e:	bf88      	it	hi
   81d60:	f5bc 6fe0 	cmphi.w	ip, #1792	; 0x700
   81d64:	f63f aeaf 	bhi.w	81ac6 <__aeabi_dmul+0xde>
   81d68:	ebb5 0c03 	subs.w	ip, r5, r3
   81d6c:	bf04      	itt	eq
   81d6e:	ebb6 0c02 	subseq.w	ip, r6, r2
   81d72:	ea5f 0c50 	movseq.w	ip, r0, lsr #1
   81d76:	f150 0000 	adcs.w	r0, r0, #0
   81d7a:	eb41 5104 	adc.w	r1, r1, r4, lsl #20
   81d7e:	bd70      	pop	{r4, r5, r6, pc}
   81d80:	f00e 4e00 	and.w	lr, lr, #2147483648	; 0x80000000
   81d84:	ea4e 3111 	orr.w	r1, lr, r1, lsr #12
   81d88:	eb14 045c 	adds.w	r4, r4, ip, lsr #1
   81d8c:	bfc2      	ittt	gt
   81d8e:	ebd4 050c 	rsbsgt	r5, r4, ip
   81d92:	ea41 5104 	orrgt.w	r1, r1, r4, lsl #20
   81d96:	bd70      	popgt	{r4, r5, r6, pc}
   81d98:	f441 1180 	orr.w	r1, r1, #1048576	; 0x100000
   81d9c:	f04f 0e00 	mov.w	lr, #0
   81da0:	3c01      	subs	r4, #1
   81da2:	e690      	b.n	81ac6 <__aeabi_dmul+0xde>
   81da4:	ea45 0e06 	orr.w	lr, r5, r6
   81da8:	e68d      	b.n	81ac6 <__aeabi_dmul+0xde>
   81daa:	ea0c 5513 	and.w	r5, ip, r3, lsr #20
   81dae:	ea94 0f0c 	teq	r4, ip
   81db2:	bf08      	it	eq
   81db4:	ea95 0f0c 	teqeq	r5, ip
   81db8:	f43f af3b 	beq.w	81c32 <__aeabi_dmul+0x24a>
   81dbc:	ea94 0f0c 	teq	r4, ip
   81dc0:	d10a      	bne.n	81dd8 <__aeabi_ddiv+0x19c>
   81dc2:	ea50 3401 	orrs.w	r4, r0, r1, lsl #12
   81dc6:	f47f af34 	bne.w	81c32 <__aeabi_dmul+0x24a>
   81dca:	ea95 0f0c 	teq	r5, ip
   81dce:	f47f af25 	bne.w	81c1c <__aeabi_dmul+0x234>
   81dd2:	4610      	mov	r0, r2
   81dd4:	4619      	mov	r1, r3
   81dd6:	e72c      	b.n	81c32 <__aeabi_dmul+0x24a>
   81dd8:	ea95 0f0c 	teq	r5, ip
   81ddc:	d106      	bne.n	81dec <__aeabi_ddiv+0x1b0>
   81dde:	ea52 3503 	orrs.w	r5, r2, r3, lsl #12
   81de2:	f43f aefd 	beq.w	81be0 <__aeabi_dmul+0x1f8>
   81de6:	4610      	mov	r0, r2
   81de8:	4619      	mov	r1, r3
   81dea:	e722      	b.n	81c32 <__aeabi_dmul+0x24a>
   81dec:	ea50 0641 	orrs.w	r6, r0, r1, lsl #1
   81df0:	bf18      	it	ne
   81df2:	ea52 0643 	orrsne.w	r6, r2, r3, lsl #1
   81df6:	f47f aec5 	bne.w	81b84 <__aeabi_dmul+0x19c>
   81dfa:	ea50 0441 	orrs.w	r4, r0, r1, lsl #1
   81dfe:	f47f af0d 	bne.w	81c1c <__aeabi_dmul+0x234>
   81e02:	ea52 0543 	orrs.w	r5, r2, r3, lsl #1
   81e06:	f47f aeeb 	bne.w	81be0 <__aeabi_dmul+0x1f8>
   81e0a:	e712      	b.n	81c32 <__aeabi_dmul+0x24a>

00081e0c <__gedf2>:
   81e0c:	f04f 3cff 	mov.w	ip, #4294967295
   81e10:	e006      	b.n	81e20 <__cmpdf2+0x4>
   81e12:	bf00      	nop

00081e14 <__ledf2>:
   81e14:	f04f 0c01 	mov.w	ip, #1
   81e18:	e002      	b.n	81e20 <__cmpdf2+0x4>
   81e1a:	bf00      	nop

00081e1c <__cmpdf2>:
   81e1c:	f04f 0c01 	mov.w	ip, #1
   81e20:	f84d cd04 	str.w	ip, [sp, #-4]!
   81e24:	ea4f 0c41 	mov.w	ip, r1, lsl #1
   81e28:	ea7f 5c6c 	mvns.w	ip, ip, asr #21
   81e2c:	ea4f 0c43 	mov.w	ip, r3, lsl #1
   81e30:	bf18      	it	ne
   81e32:	ea7f 5c6c 	mvnsne.w	ip, ip, asr #21
   81e36:	d01b      	beq.n	81e70 <__cmpdf2+0x54>
   81e38:	b001      	add	sp, #4
   81e3a:	ea50 0c41 	orrs.w	ip, r0, r1, lsl #1
   81e3e:	bf0c      	ite	eq
   81e40:	ea52 0c43 	orrseq.w	ip, r2, r3, lsl #1
   81e44:	ea91 0f03 	teqne	r1, r3
   81e48:	bf02      	ittt	eq
   81e4a:	ea90 0f02 	teqeq	r0, r2
   81e4e:	2000      	moveq	r0, #0
   81e50:	4770      	bxeq	lr
   81e52:	f110 0f00 	cmn.w	r0, #0
   81e56:	ea91 0f03 	teq	r1, r3
   81e5a:	bf58      	it	pl
   81e5c:	4299      	cmppl	r1, r3
   81e5e:	bf08      	it	eq
   81e60:	4290      	cmpeq	r0, r2
   81e62:	bf2c      	ite	cs
   81e64:	17d8      	asrcs	r0, r3, #31
   81e66:	ea6f 70e3 	mvncc.w	r0, r3, asr #31
   81e6a:	f040 0001 	orr.w	r0, r0, #1
   81e6e:	4770      	bx	lr
   81e70:	ea4f 0c41 	mov.w	ip, r1, lsl #1
   81e74:	ea7f 5c6c 	mvns.w	ip, ip, asr #21
   81e78:	d102      	bne.n	81e80 <__cmpdf2+0x64>
   81e7a:	ea50 3c01 	orrs.w	ip, r0, r1, lsl #12
   81e7e:	d107      	bne.n	81e90 <__cmpdf2+0x74>
   81e80:	ea4f 0c43 	mov.w	ip, r3, lsl #1
   81e84:	ea7f 5c6c 	mvns.w	ip, ip, asr #21
   81e88:	d1d6      	bne.n	81e38 <__cmpdf2+0x1c>
   81e8a:	ea52 3c03 	orrs.w	ip, r2, r3, lsl #12
   81e8e:	d0d3      	beq.n	81e38 <__cmpdf2+0x1c>
   81e90:	f85d 0b04 	ldr.w	r0, [sp], #4
   81e94:	4770      	bx	lr
   81e96:	bf00      	nop

00081e98 <__aeabi_cdrcmple>:
   81e98:	4684      	mov	ip, r0
   81e9a:	4610      	mov	r0, r2
   81e9c:	4662      	mov	r2, ip
   81e9e:	468c      	mov	ip, r1
   81ea0:	4619      	mov	r1, r3
   81ea2:	4663      	mov	r3, ip
   81ea4:	e000      	b.n	81ea8 <__aeabi_cdcmpeq>
   81ea6:	bf00      	nop

00081ea8 <__aeabi_cdcmpeq>:
   81ea8:	b501      	push	{r0, lr}
   81eaa:	f7ff ffb7 	bl	81e1c <__cmpdf2>
   81eae:	2800      	cmp	r0, #0
   81eb0:	bf48      	it	mi
   81eb2:	f110 0f00 	cmnmi.w	r0, #0
   81eb6:	bd01      	pop	{r0, pc}

00081eb8 <__aeabi_dcmpeq>:
   81eb8:	f84d ed08 	str.w	lr, [sp, #-8]!
   81ebc:	f7ff fff4 	bl	81ea8 <__aeabi_cdcmpeq>
   81ec0:	bf0c      	ite	eq
   81ec2:	2001      	moveq	r0, #1
   81ec4:	2000      	movne	r0, #0
   81ec6:	f85d fb08 	ldr.w	pc, [sp], #8
   81eca:	bf00      	nop

00081ecc <__aeabi_dcmplt>:
   81ecc:	f84d ed08 	str.w	lr, [sp, #-8]!
   81ed0:	f7ff ffea 	bl	81ea8 <__aeabi_cdcmpeq>
   81ed4:	bf34      	ite	cc
   81ed6:	2001      	movcc	r0, #1
   81ed8:	2000      	movcs	r0, #0
   81eda:	f85d fb08 	ldr.w	pc, [sp], #8
   81ede:	bf00      	nop

00081ee0 <__aeabi_dcmple>:
   81ee0:	f84d ed08 	str.w	lr, [sp, #-8]!
   81ee4:	f7ff ffe0 	bl	81ea8 <__aeabi_cdcmpeq>
   81ee8:	bf94      	ite	ls
   81eea:	2001      	movls	r0, #1
   81eec:	2000      	movhi	r0, #0
   81eee:	f85d fb08 	ldr.w	pc, [sp], #8
   81ef2:	bf00      	nop

00081ef4 <__aeabi_dcmpge>:
   81ef4:	f84d ed08 	str.w	lr, [sp, #-8]!
   81ef8:	f7ff ffce 	bl	81e98 <__aeabi_cdrcmple>
   81efc:	bf94      	ite	ls
   81efe:	2001      	movls	r0, #1
   81f00:	2000      	movhi	r0, #0
   81f02:	f85d fb08 	ldr.w	pc, [sp], #8
   81f06:	bf00      	nop

00081f08 <__aeabi_dcmpgt>:
   81f08:	f84d ed08 	str.w	lr, [sp, #-8]!
   81f0c:	f7ff ffc4 	bl	81e98 <__aeabi_cdrcmple>
   81f10:	bf34      	ite	cc
   81f12:	2001      	movcc	r0, #1
   81f14:	2000      	movcs	r0, #0
   81f16:	f85d fb08 	ldr.w	pc, [sp], #8
   81f1a:	bf00      	nop

00081f1c <__aeabi_dcmpun>:
   81f1c:	ea4f 0c41 	mov.w	ip, r1, lsl #1
   81f20:	ea7f 5c6c 	mvns.w	ip, ip, asr #21
   81f24:	d102      	bne.n	81f2c <__aeabi_dcmpun+0x10>
   81f26:	ea50 3c01 	orrs.w	ip, r0, r1, lsl #12
   81f2a:	d10a      	bne.n	81f42 <__aeabi_dcmpun+0x26>
   81f2c:	ea4f 0c43 	mov.w	ip, r3, lsl #1
   81f30:	ea7f 5c6c 	mvns.w	ip, ip, asr #21
   81f34:	d102      	bne.n	81f3c <__aeabi_dcmpun+0x20>
   81f36:	ea52 3c03 	orrs.w	ip, r2, r3, lsl #12
   81f3a:	d102      	bne.n	81f42 <__aeabi_dcmpun+0x26>
   81f3c:	f04f 0000 	mov.w	r0, #0
   81f40:	4770      	bx	lr
   81f42:	f04f 0001 	mov.w	r0, #1
   81f46:	4770      	bx	lr

00081f48 <__aeabi_d2iz>:
   81f48:	ea4f 0241 	mov.w	r2, r1, lsl #1
   81f4c:	f512 1200 	adds.w	r2, r2, #2097152	; 0x200000
   81f50:	d215      	bcs.n	81f7e <__aeabi_d2iz+0x36>
   81f52:	d511      	bpl.n	81f78 <__aeabi_d2iz+0x30>
   81f54:	f46f 7378 	mvn.w	r3, #992	; 0x3e0
   81f58:	ebb3 5262 	subs.w	r2, r3, r2, asr #21
   81f5c:	d912      	bls.n	81f84 <__aeabi_d2iz+0x3c>
   81f5e:	ea4f 23c1 	mov.w	r3, r1, lsl #11
   81f62:	f043 4300 	orr.w	r3, r3, #2147483648	; 0x80000000
   81f66:	ea43 5350 	orr.w	r3, r3, r0, lsr #21
   81f6a:	f011 4f00 	tst.w	r1, #2147483648	; 0x80000000
   81f6e:	fa23 f002 	lsr.w	r0, r3, r2
   81f72:	bf18      	it	ne
   81f74:	4240      	negne	r0, r0
   81f76:	4770      	bx	lr
   81f78:	f04f 0000 	mov.w	r0, #0
   81f7c:	4770      	bx	lr
   81f7e:	ea50 3001 	orrs.w	r0, r0, r1, lsl #12
   81f82:	d105      	bne.n	81f90 <__aeabi_d2iz+0x48>
   81f84:	f011 4000 	ands.w	r0, r1, #2147483648	; 0x80000000
   81f88:	bf08      	it	eq
   81f8a:	f06f 4000 	mvneq.w	r0, #2147483648	; 0x80000000
   81f8e:	4770      	bx	lr
   81f90:	f04f 0000 	mov.w	r0, #0
   81f94:	4770      	bx	lr
   81f96:	bf00      	nop

00081f98 <__errno>:
   81f98:	4b01      	ldr	r3, [pc, #4]	; (81fa0 <__errno+0x8>)
   81f9a:	6818      	ldr	r0, [r3, #0]
   81f9c:	4770      	bx	lr
   81f9e:	bf00      	nop
   81fa0:	200700f4 	.word	0x200700f4

00081fa4 <__libc_init_array>:
   81fa4:	b570      	push	{r4, r5, r6, lr}
   81fa6:	4e0f      	ldr	r6, [pc, #60]	; (81fe4 <__libc_init_array+0x40>)
   81fa8:	4d0f      	ldr	r5, [pc, #60]	; (81fe8 <__libc_init_array+0x44>)
   81faa:	1b76      	subs	r6, r6, r5
   81fac:	10b6      	asrs	r6, r6, #2
   81fae:	bf18      	it	ne
   81fb0:	2400      	movne	r4, #0
   81fb2:	d005      	beq.n	81fc0 <__libc_init_array+0x1c>
   81fb4:	3401      	adds	r4, #1
   81fb6:	f855 3b04 	ldr.w	r3, [r5], #4
   81fba:	4798      	blx	r3
   81fbc:	42a6      	cmp	r6, r4
   81fbe:	d1f9      	bne.n	81fb4 <__libc_init_array+0x10>
   81fc0:	4e0a      	ldr	r6, [pc, #40]	; (81fec <__libc_init_array+0x48>)
   81fc2:	4d0b      	ldr	r5, [pc, #44]	; (81ff0 <__libc_init_array+0x4c>)
   81fc4:	f003 f876 	bl	850b4 <_init>
   81fc8:	1b76      	subs	r6, r6, r5
   81fca:	10b6      	asrs	r6, r6, #2
   81fcc:	bf18      	it	ne
   81fce:	2400      	movne	r4, #0
   81fd0:	d006      	beq.n	81fe0 <__libc_init_array+0x3c>
   81fd2:	3401      	adds	r4, #1
   81fd4:	f855 3b04 	ldr.w	r3, [r5], #4
   81fd8:	4798      	blx	r3
   81fda:	42a6      	cmp	r6, r4
   81fdc:	d1f9      	bne.n	81fd2 <__libc_init_array+0x2e>
   81fde:	bd70      	pop	{r4, r5, r6, pc}
   81fe0:	bd70      	pop	{r4, r5, r6, pc}
   81fe2:	bf00      	nop
   81fe4:	000850c0 	.word	0x000850c0
   81fe8:	000850c0 	.word	0x000850c0
   81fec:	000850c8 	.word	0x000850c8
   81ff0:	000850c0 	.word	0x000850c0

00081ff4 <iprintf>:
   81ff4:	b40f      	push	{r0, r1, r2, r3}
   81ff6:	b510      	push	{r4, lr}
   81ff8:	4b07      	ldr	r3, [pc, #28]	; (82018 <iprintf+0x24>)
   81ffa:	b082      	sub	sp, #8
   81ffc:	ac04      	add	r4, sp, #16
   81ffe:	f854 2b04 	ldr.w	r2, [r4], #4
   82002:	6818      	ldr	r0, [r3, #0]
   82004:	4623      	mov	r3, r4
   82006:	6881      	ldr	r1, [r0, #8]
   82008:	9401      	str	r4, [sp, #4]
   8200a:	f000 fa09 	bl	82420 <_vfiprintf_r>
   8200e:	b002      	add	sp, #8
   82010:	e8bd 4010 	ldmia.w	sp!, {r4, lr}
   82014:	b004      	add	sp, #16
   82016:	4770      	bx	lr
   82018:	200700f4 	.word	0x200700f4

0008201c <memcpy>:
   8201c:	4684      	mov	ip, r0
   8201e:	ea41 0300 	orr.w	r3, r1, r0
   82022:	f013 0303 	ands.w	r3, r3, #3
   82026:	d149      	bne.n	820bc <memcpy+0xa0>
   82028:	3a40      	subs	r2, #64	; 0x40
   8202a:	d323      	bcc.n	82074 <memcpy+0x58>
   8202c:	680b      	ldr	r3, [r1, #0]
   8202e:	6003      	str	r3, [r0, #0]
   82030:	684b      	ldr	r3, [r1, #4]
   82032:	6043      	str	r3, [r0, #4]
   82034:	688b      	ldr	r3, [r1, #8]
   82036:	6083      	str	r3, [r0, #8]
   82038:	68cb      	ldr	r3, [r1, #12]
   8203a:	60c3      	str	r3, [r0, #12]
   8203c:	690b      	ldr	r3, [r1, #16]
   8203e:	6103      	str	r3, [r0, #16]
   82040:	694b      	ldr	r3, [r1, #20]
   82042:	6143      	str	r3, [r0, #20]
   82044:	698b      	ldr	r3, [r1, #24]
   82046:	6183      	str	r3, [r0, #24]
   82048:	69cb      	ldr	r3, [r1, #28]
   8204a:	61c3      	str	r3, [r0, #28]
   8204c:	6a0b      	ldr	r3, [r1, #32]
   8204e:	6203      	str	r3, [r0, #32]
   82050:	6a4b      	ldr	r3, [r1, #36]	; 0x24
   82052:	6243      	str	r3, [r0, #36]	; 0x24
   82054:	6a8b      	ldr	r3, [r1, #40]	; 0x28
   82056:	6283      	str	r3, [r0, #40]	; 0x28
   82058:	6acb      	ldr	r3, [r1, #44]	; 0x2c
   8205a:	62c3      	str	r3, [r0, #44]	; 0x2c
   8205c:	6b0b      	ldr	r3, [r1, #48]	; 0x30
   8205e:	6303      	str	r3, [r0, #48]	; 0x30
   82060:	6b4b      	ldr	r3, [r1, #52]	; 0x34
   82062:	6343      	str	r3, [r0, #52]	; 0x34
   82064:	6b8b      	ldr	r3, [r1, #56]	; 0x38
   82066:	6383      	str	r3, [r0, #56]	; 0x38
   82068:	6bcb      	ldr	r3, [r1, #60]	; 0x3c
   8206a:	63c3      	str	r3, [r0, #60]	; 0x3c
   8206c:	3040      	adds	r0, #64	; 0x40
   8206e:	3140      	adds	r1, #64	; 0x40
   82070:	3a40      	subs	r2, #64	; 0x40
   82072:	d2db      	bcs.n	8202c <memcpy+0x10>
   82074:	3230      	adds	r2, #48	; 0x30
   82076:	d30b      	bcc.n	82090 <memcpy+0x74>
   82078:	680b      	ldr	r3, [r1, #0]
   8207a:	6003      	str	r3, [r0, #0]
   8207c:	684b      	ldr	r3, [r1, #4]
   8207e:	6043      	str	r3, [r0, #4]
   82080:	688b      	ldr	r3, [r1, #8]
   82082:	6083      	str	r3, [r0, #8]
   82084:	68cb      	ldr	r3, [r1, #12]
   82086:	60c3      	str	r3, [r0, #12]
   82088:	3010      	adds	r0, #16
   8208a:	3110      	adds	r1, #16
   8208c:	3a10      	subs	r2, #16
   8208e:	d2f3      	bcs.n	82078 <memcpy+0x5c>
   82090:	320c      	adds	r2, #12
   82092:	d305      	bcc.n	820a0 <memcpy+0x84>
   82094:	f851 3b04 	ldr.w	r3, [r1], #4
   82098:	f840 3b04 	str.w	r3, [r0], #4
   8209c:	3a04      	subs	r2, #4
   8209e:	d2f9      	bcs.n	82094 <memcpy+0x78>
   820a0:	3204      	adds	r2, #4
   820a2:	d008      	beq.n	820b6 <memcpy+0x9a>
   820a4:	07d2      	lsls	r2, r2, #31
   820a6:	bf1c      	itt	ne
   820a8:	f811 3b01 	ldrbne.w	r3, [r1], #1
   820ac:	f800 3b01 	strbne.w	r3, [r0], #1
   820b0:	d301      	bcc.n	820b6 <memcpy+0x9a>
   820b2:	880b      	ldrh	r3, [r1, #0]
   820b4:	8003      	strh	r3, [r0, #0]
   820b6:	4660      	mov	r0, ip
   820b8:	4770      	bx	lr
   820ba:	bf00      	nop
   820bc:	2a08      	cmp	r2, #8
   820be:	d313      	bcc.n	820e8 <memcpy+0xcc>
   820c0:	078b      	lsls	r3, r1, #30
   820c2:	d0b1      	beq.n	82028 <memcpy+0xc>
   820c4:	f010 0303 	ands.w	r3, r0, #3
   820c8:	d0ae      	beq.n	82028 <memcpy+0xc>
   820ca:	f1c3 0304 	rsb	r3, r3, #4
   820ce:	1ad2      	subs	r2, r2, r3
   820d0:	07db      	lsls	r3, r3, #31
   820d2:	bf1c      	itt	ne
   820d4:	f811 3b01 	ldrbne.w	r3, [r1], #1
   820d8:	f800 3b01 	strbne.w	r3, [r0], #1
   820dc:	d3a4      	bcc.n	82028 <memcpy+0xc>
   820de:	f831 3b02 	ldrh.w	r3, [r1], #2
   820e2:	f820 3b02 	strh.w	r3, [r0], #2
   820e6:	e79f      	b.n	82028 <memcpy+0xc>
   820e8:	3a04      	subs	r2, #4
   820ea:	d3d9      	bcc.n	820a0 <memcpy+0x84>
   820ec:	3a01      	subs	r2, #1
   820ee:	f811 3b01 	ldrb.w	r3, [r1], #1
   820f2:	f800 3b01 	strb.w	r3, [r0], #1
   820f6:	d2f9      	bcs.n	820ec <memcpy+0xd0>
   820f8:	780b      	ldrb	r3, [r1, #0]
   820fa:	7003      	strb	r3, [r0, #0]
   820fc:	784b      	ldrb	r3, [r1, #1]
   820fe:	7043      	strb	r3, [r0, #1]
   82100:	788b      	ldrb	r3, [r1, #2]
   82102:	7083      	strb	r3, [r0, #2]
   82104:	4660      	mov	r0, ip
   82106:	4770      	bx	lr

00082108 <memset>:
   82108:	b470      	push	{r4, r5, r6}
   8210a:	0786      	lsls	r6, r0, #30
   8210c:	d046      	beq.n	8219c <memset+0x94>
   8210e:	1e54      	subs	r4, r2, #1
   82110:	2a00      	cmp	r2, #0
   82112:	d041      	beq.n	82198 <memset+0x90>
   82114:	b2ca      	uxtb	r2, r1
   82116:	4603      	mov	r3, r0
   82118:	e002      	b.n	82120 <memset+0x18>
   8211a:	f114 34ff 	adds.w	r4, r4, #4294967295
   8211e:	d33b      	bcc.n	82198 <memset+0x90>
   82120:	f803 2b01 	strb.w	r2, [r3], #1
   82124:	079d      	lsls	r5, r3, #30
   82126:	d1f8      	bne.n	8211a <memset+0x12>
   82128:	2c03      	cmp	r4, #3
   8212a:	d92e      	bls.n	8218a <memset+0x82>
   8212c:	b2cd      	uxtb	r5, r1
   8212e:	ea45 2505 	orr.w	r5, r5, r5, lsl #8
   82132:	2c0f      	cmp	r4, #15
   82134:	ea45 4505 	orr.w	r5, r5, r5, lsl #16
   82138:	d919      	bls.n	8216e <memset+0x66>
   8213a:	4626      	mov	r6, r4
   8213c:	f103 0210 	add.w	r2, r3, #16
   82140:	3e10      	subs	r6, #16
   82142:	2e0f      	cmp	r6, #15
   82144:	f842 5c10 	str.w	r5, [r2, #-16]
   82148:	f842 5c0c 	str.w	r5, [r2, #-12]
   8214c:	f842 5c08 	str.w	r5, [r2, #-8]
   82150:	f842 5c04 	str.w	r5, [r2, #-4]
   82154:	f102 0210 	add.w	r2, r2, #16
   82158:	d8f2      	bhi.n	82140 <memset+0x38>
   8215a:	f1a4 0210 	sub.w	r2, r4, #16
   8215e:	f022 020f 	bic.w	r2, r2, #15
   82162:	f004 040f 	and.w	r4, r4, #15
   82166:	3210      	adds	r2, #16
   82168:	2c03      	cmp	r4, #3
   8216a:	4413      	add	r3, r2
   8216c:	d90d      	bls.n	8218a <memset+0x82>
   8216e:	461e      	mov	r6, r3
   82170:	4622      	mov	r2, r4
   82172:	3a04      	subs	r2, #4
   82174:	2a03      	cmp	r2, #3
   82176:	f846 5b04 	str.w	r5, [r6], #4
   8217a:	d8fa      	bhi.n	82172 <memset+0x6a>
   8217c:	1f22      	subs	r2, r4, #4
   8217e:	f022 0203 	bic.w	r2, r2, #3
   82182:	3204      	adds	r2, #4
   82184:	4413      	add	r3, r2
   82186:	f004 0403 	and.w	r4, r4, #3
   8218a:	b12c      	cbz	r4, 82198 <memset+0x90>
   8218c:	b2c9      	uxtb	r1, r1
   8218e:	441c      	add	r4, r3
   82190:	f803 1b01 	strb.w	r1, [r3], #1
   82194:	429c      	cmp	r4, r3
   82196:	d1fb      	bne.n	82190 <memset+0x88>
   82198:	bc70      	pop	{r4, r5, r6}
   8219a:	4770      	bx	lr
   8219c:	4614      	mov	r4, r2
   8219e:	4603      	mov	r3, r0
   821a0:	e7c2      	b.n	82128 <memset+0x20>
   821a2:	bf00      	nop

000821a4 <setbuf>:
   821a4:	2900      	cmp	r1, #0
   821a6:	bf0c      	ite	eq
   821a8:	2202      	moveq	r2, #2
   821aa:	2200      	movne	r2, #0
   821ac:	f44f 6380 	mov.w	r3, #1024	; 0x400
   821b0:	f000 b800 	b.w	821b4 <setvbuf>

000821b4 <setvbuf>:
   821b4:	e92d 43f0 	stmdb	sp!, {r4, r5, r6, r7, r8, r9, lr}
   821b8:	4d61      	ldr	r5, [pc, #388]	; (82340 <setvbuf+0x18c>)
   821ba:	b083      	sub	sp, #12
   821bc:	682d      	ldr	r5, [r5, #0]
   821be:	4604      	mov	r4, r0
   821c0:	460f      	mov	r7, r1
   821c2:	4690      	mov	r8, r2
   821c4:	461e      	mov	r6, r3
   821c6:	b115      	cbz	r5, 821ce <setvbuf+0x1a>
   821c8:	6bab      	ldr	r3, [r5, #56]	; 0x38
   821ca:	2b00      	cmp	r3, #0
   821cc:	d064      	beq.n	82298 <setvbuf+0xe4>
   821ce:	f1b8 0f02 	cmp.w	r8, #2
   821d2:	d006      	beq.n	821e2 <setvbuf+0x2e>
   821d4:	f1b8 0f01 	cmp.w	r8, #1
   821d8:	f200 809f 	bhi.w	8231a <setvbuf+0x166>
   821dc:	2e00      	cmp	r6, #0
   821de:	f2c0 809c 	blt.w	8231a <setvbuf+0x166>
   821e2:	6e63      	ldr	r3, [r4, #100]	; 0x64
   821e4:	07d8      	lsls	r0, r3, #31
   821e6:	d534      	bpl.n	82252 <setvbuf+0x9e>
   821e8:	4621      	mov	r1, r4
   821ea:	4628      	mov	r0, r5
   821ec:	f001 f8b0 	bl	83350 <_fflush_r>
   821f0:	6b21      	ldr	r1, [r4, #48]	; 0x30
   821f2:	b141      	cbz	r1, 82206 <setvbuf+0x52>
   821f4:	f104 0340 	add.w	r3, r4, #64	; 0x40
   821f8:	4299      	cmp	r1, r3
   821fa:	d002      	beq.n	82202 <setvbuf+0x4e>
   821fc:	4628      	mov	r0, r5
   821fe:	f001 fa25 	bl	8364c <_free_r>
   82202:	2300      	movs	r3, #0
   82204:	6323      	str	r3, [r4, #48]	; 0x30
   82206:	2200      	movs	r2, #0
   82208:	f9b4 300c 	ldrsh.w	r3, [r4, #12]
   8220c:	61a2      	str	r2, [r4, #24]
   8220e:	6062      	str	r2, [r4, #4]
   82210:	061a      	lsls	r2, r3, #24
   82212:	d43a      	bmi.n	8228a <setvbuf+0xd6>
   82214:	f423 634a 	bic.w	r3, r3, #3232	; 0xca0
   82218:	f023 0303 	bic.w	r3, r3, #3
   8221c:	f1b8 0f02 	cmp.w	r8, #2
   82220:	81a3      	strh	r3, [r4, #12]
   82222:	d01d      	beq.n	82260 <setvbuf+0xac>
   82224:	ab01      	add	r3, sp, #4
   82226:	466a      	mov	r2, sp
   82228:	4621      	mov	r1, r4
   8222a:	4628      	mov	r0, r5
   8222c:	f001 fcac 	bl	83b88 <__swhatbuf_r>
   82230:	89a3      	ldrh	r3, [r4, #12]
   82232:	4318      	orrs	r0, r3
   82234:	81a0      	strh	r0, [r4, #12]
   82236:	2e00      	cmp	r6, #0
   82238:	d132      	bne.n	822a0 <setvbuf+0xec>
   8223a:	9e00      	ldr	r6, [sp, #0]
   8223c:	4630      	mov	r0, r6
   8223e:	f001 fd1b 	bl	83c78 <malloc>
   82242:	4607      	mov	r7, r0
   82244:	2800      	cmp	r0, #0
   82246:	d06b      	beq.n	82320 <setvbuf+0x16c>
   82248:	89a3      	ldrh	r3, [r4, #12]
   8224a:	f043 0380 	orr.w	r3, r3, #128	; 0x80
   8224e:	81a3      	strh	r3, [r4, #12]
   82250:	e028      	b.n	822a4 <setvbuf+0xf0>
   82252:	89a3      	ldrh	r3, [r4, #12]
   82254:	0599      	lsls	r1, r3, #22
   82256:	d4c7      	bmi.n	821e8 <setvbuf+0x34>
   82258:	6da0      	ldr	r0, [r4, #88]	; 0x58
   8225a:	f001 fc91 	bl	83b80 <__retarget_lock_acquire_recursive>
   8225e:	e7c3      	b.n	821e8 <setvbuf+0x34>
   82260:	2500      	movs	r5, #0
   82262:	2600      	movs	r6, #0
   82264:	2001      	movs	r0, #1
   82266:	6e61      	ldr	r1, [r4, #100]	; 0x64
   82268:	f104 0243 	add.w	r2, r4, #67	; 0x43
   8226c:	f043 0302 	orr.w	r3, r3, #2
   82270:	60a6      	str	r6, [r4, #8]
   82272:	07ce      	lsls	r6, r1, #31
   82274:	81a3      	strh	r3, [r4, #12]
   82276:	6160      	str	r0, [r4, #20]
   82278:	6022      	str	r2, [r4, #0]
   8227a:	6122      	str	r2, [r4, #16]
   8227c:	d401      	bmi.n	82282 <setvbuf+0xce>
   8227e:	0598      	lsls	r0, r3, #22
   82280:	d53e      	bpl.n	82300 <setvbuf+0x14c>
   82282:	4628      	mov	r0, r5
   82284:	b003      	add	sp, #12
   82286:	e8bd 83f0 	ldmia.w	sp!, {r4, r5, r6, r7, r8, r9, pc}
   8228a:	6921      	ldr	r1, [r4, #16]
   8228c:	4628      	mov	r0, r5
   8228e:	f001 f9dd 	bl	8364c <_free_r>
   82292:	f9b4 300c 	ldrsh.w	r3, [r4, #12]
   82296:	e7bd      	b.n	82214 <setvbuf+0x60>
   82298:	4628      	mov	r0, r5
   8229a:	f001 f8b1 	bl	83400 <__sinit>
   8229e:	e796      	b.n	821ce <setvbuf+0x1a>
   822a0:	2f00      	cmp	r7, #0
   822a2:	d0cb      	beq.n	8223c <setvbuf+0x88>
   822a4:	6bab      	ldr	r3, [r5, #56]	; 0x38
   822a6:	2b00      	cmp	r3, #0
   822a8:	d033      	beq.n	82312 <setvbuf+0x15e>
   822aa:	9b00      	ldr	r3, [sp, #0]
   822ac:	f9b4 200c 	ldrsh.w	r2, [r4, #12]
   822b0:	429e      	cmp	r6, r3
   822b2:	bf1c      	itt	ne
   822b4:	f442 6200 	orrne.w	r2, r2, #2048	; 0x800
   822b8:	81a2      	strhne	r2, [r4, #12]
   822ba:	f1b8 0f01 	cmp.w	r8, #1
   822be:	bf04      	itt	eq
   822c0:	f042 0201 	orreq.w	r2, r2, #1
   822c4:	81a2      	strheq	r2, [r4, #12]
   822c6:	b292      	uxth	r2, r2
   822c8:	f012 0308 	ands.w	r3, r2, #8
   822cc:	6027      	str	r7, [r4, #0]
   822ce:	6127      	str	r7, [r4, #16]
   822d0:	6166      	str	r6, [r4, #20]
   822d2:	d00e      	beq.n	822f2 <setvbuf+0x13e>
   822d4:	07d1      	lsls	r1, r2, #31
   822d6:	d51a      	bpl.n	8230e <setvbuf+0x15a>
   822d8:	2300      	movs	r3, #0
   822da:	6e65      	ldr	r5, [r4, #100]	; 0x64
   822dc:	4276      	negs	r6, r6
   822de:	f015 0501 	ands.w	r5, r5, #1
   822e2:	61a6      	str	r6, [r4, #24]
   822e4:	60a3      	str	r3, [r4, #8]
   822e6:	d009      	beq.n	822fc <setvbuf+0x148>
   822e8:	2500      	movs	r5, #0
   822ea:	4628      	mov	r0, r5
   822ec:	b003      	add	sp, #12
   822ee:	e8bd 83f0 	ldmia.w	sp!, {r4, r5, r6, r7, r8, r9, pc}
   822f2:	60a3      	str	r3, [r4, #8]
   822f4:	6e65      	ldr	r5, [r4, #100]	; 0x64
   822f6:	f015 0501 	ands.w	r5, r5, #1
   822fa:	d1f5      	bne.n	822e8 <setvbuf+0x134>
   822fc:	0593      	lsls	r3, r2, #22
   822fe:	d4c0      	bmi.n	82282 <setvbuf+0xce>
   82300:	6da0      	ldr	r0, [r4, #88]	; 0x58
   82302:	f001 fc3f 	bl	83b84 <__retarget_lock_release_recursive>
   82306:	4628      	mov	r0, r5
   82308:	b003      	add	sp, #12
   8230a:	e8bd 83f0 	ldmia.w	sp!, {r4, r5, r6, r7, r8, r9, pc}
   8230e:	60a6      	str	r6, [r4, #8]
   82310:	e7f0      	b.n	822f4 <setvbuf+0x140>
   82312:	4628      	mov	r0, r5
   82314:	f001 f874 	bl	83400 <__sinit>
   82318:	e7c7      	b.n	822aa <setvbuf+0xf6>
   8231a:	f04f 35ff 	mov.w	r5, #4294967295
   8231e:	e7b0      	b.n	82282 <setvbuf+0xce>
   82320:	f8dd 9000 	ldr.w	r9, [sp]
   82324:	45b1      	cmp	r9, r6
   82326:	d004      	beq.n	82332 <setvbuf+0x17e>
   82328:	4648      	mov	r0, r9
   8232a:	f001 fca5 	bl	83c78 <malloc>
   8232e:	4607      	mov	r7, r0
   82330:	b920      	cbnz	r0, 8233c <setvbuf+0x188>
   82332:	f9b4 300c 	ldrsh.w	r3, [r4, #12]
   82336:	f04f 35ff 	mov.w	r5, #4294967295
   8233a:	e792      	b.n	82262 <setvbuf+0xae>
   8233c:	464e      	mov	r6, r9
   8233e:	e783      	b.n	82248 <setvbuf+0x94>
   82340:	200700f4 	.word	0x200700f4

00082344 <strlen>:
   82344:	f020 0103 	bic.w	r1, r0, #3
   82348:	f010 0003 	ands.w	r0, r0, #3
   8234c:	f1c0 0000 	rsb	r0, r0, #0
   82350:	f851 3b04 	ldr.w	r3, [r1], #4
   82354:	f100 0c04 	add.w	ip, r0, #4
   82358:	ea4f 0ccc 	mov.w	ip, ip, lsl #3
   8235c:	f06f 0200 	mvn.w	r2, #0
   82360:	bf1c      	itt	ne
   82362:	fa22 f20c 	lsrne.w	r2, r2, ip
   82366:	4313      	orrne	r3, r2
   82368:	f04f 0c01 	mov.w	ip, #1
   8236c:	ea4c 2c0c 	orr.w	ip, ip, ip, lsl #8
   82370:	ea4c 4c0c 	orr.w	ip, ip, ip, lsl #16
   82374:	eba3 020c 	sub.w	r2, r3, ip
   82378:	ea22 0203 	bic.w	r2, r2, r3
   8237c:	ea12 12cc 	ands.w	r2, r2, ip, lsl #7
   82380:	bf04      	itt	eq
   82382:	f851 3b04 	ldreq.w	r3, [r1], #4
   82386:	3004      	addeq	r0, #4
   82388:	d0f4      	beq.n	82374 <strlen+0x30>
   8238a:	f1c2 0100 	rsb	r1, r2, #0
   8238e:	ea02 0201 	and.w	r2, r2, r1
   82392:	fab2 f282 	clz	r2, r2
   82396:	f1c2 021f 	rsb	r2, r2, #31
   8239a:	eb00 00d2 	add.w	r0, r0, r2, lsr #3
   8239e:	4770      	bx	lr

000823a0 <__sprint_r.part.0>:
   823a0:	e92d 4ff8 	stmdb	sp!, {r3, r4, r5, r6, r7, r8, r9, sl, fp, lr}
   823a4:	6e4b      	ldr	r3, [r1, #100]	; 0x64
   823a6:	4693      	mov	fp, r2
   823a8:	049c      	lsls	r4, r3, #18
   823aa:	d52f      	bpl.n	8240c <__sprint_r.part.0+0x6c>
   823ac:	6893      	ldr	r3, [r2, #8]
   823ae:	6812      	ldr	r2, [r2, #0]
   823b0:	b353      	cbz	r3, 82408 <__sprint_r.part.0+0x68>
   823b2:	460e      	mov	r6, r1
   823b4:	4607      	mov	r7, r0
   823b6:	f102 0908 	add.w	r9, r2, #8
   823ba:	e919 0420 	ldmdb	r9, {r5, sl}
   823be:	ea5f 089a 	movs.w	r8, sl, lsr #2
   823c2:	d017      	beq.n	823f4 <__sprint_r.part.0+0x54>
   823c4:	2400      	movs	r4, #0
   823c6:	3d04      	subs	r5, #4
   823c8:	e001      	b.n	823ce <__sprint_r.part.0+0x2e>
   823ca:	45a0      	cmp	r8, r4
   823cc:	d010      	beq.n	823f0 <__sprint_r.part.0+0x50>
   823ce:	4632      	mov	r2, r6
   823d0:	f855 1f04 	ldr.w	r1, [r5, #4]!
   823d4:	4638      	mov	r0, r7
   823d6:	f001 f8b5 	bl	83544 <_fputwc_r>
   823da:	1c43      	adds	r3, r0, #1
   823dc:	f104 0401 	add.w	r4, r4, #1
   823e0:	d1f3      	bne.n	823ca <__sprint_r.part.0+0x2a>
   823e2:	2300      	movs	r3, #0
   823e4:	f8cb 3008 	str.w	r3, [fp, #8]
   823e8:	f8cb 3004 	str.w	r3, [fp, #4]
   823ec:	e8bd 8ff8 	ldmia.w	sp!, {r3, r4, r5, r6, r7, r8, r9, sl, fp, pc}
   823f0:	f8db 3008 	ldr.w	r3, [fp, #8]
   823f4:	f02a 0a03 	bic.w	sl, sl, #3
   823f8:	eba3 030a 	sub.w	r3, r3, sl
   823fc:	f8cb 3008 	str.w	r3, [fp, #8]
   82400:	f109 0908 	add.w	r9, r9, #8
   82404:	2b00      	cmp	r3, #0
   82406:	d1d8      	bne.n	823ba <__sprint_r.part.0+0x1a>
   82408:	2000      	movs	r0, #0
   8240a:	e7ea      	b.n	823e2 <__sprint_r.part.0+0x42>
   8240c:	f001 fa04 	bl	83818 <__sfvwrite_r>
   82410:	2300      	movs	r3, #0
   82412:	f8cb 3008 	str.w	r3, [fp, #8]
   82416:	f8cb 3004 	str.w	r3, [fp, #4]
   8241a:	e8bd 8ff8 	ldmia.w	sp!, {r3, r4, r5, r6, r7, r8, r9, sl, fp, pc}
   8241e:	bf00      	nop

00082420 <_vfiprintf_r>:
   82420:	e92d 4ff0 	stmdb	sp!, {r4, r5, r6, r7, r8, r9, sl, fp, lr}
   82424:	b0ad      	sub	sp, #180	; 0xb4
   82426:	461d      	mov	r5, r3
   82428:	468b      	mov	fp, r1
   8242a:	4690      	mov	r8, r2
   8242c:	9307      	str	r3, [sp, #28]
   8242e:	9006      	str	r0, [sp, #24]
   82430:	b118      	cbz	r0, 8243a <_vfiprintf_r+0x1a>
   82432:	6b83      	ldr	r3, [r0, #56]	; 0x38
   82434:	2b00      	cmp	r3, #0
   82436:	f000 80f3 	beq.w	82620 <_vfiprintf_r+0x200>
   8243a:	f8db 3064 	ldr.w	r3, [fp, #100]	; 0x64
   8243e:	f9bb 000c 	ldrsh.w	r0, [fp, #12]
   82442:	07df      	lsls	r7, r3, #31
   82444:	b281      	uxth	r1, r0
   82446:	d402      	bmi.n	8244e <_vfiprintf_r+0x2e>
   82448:	058e      	lsls	r6, r1, #22
   8244a:	f140 80fc 	bpl.w	82646 <_vfiprintf_r+0x226>
   8244e:	048c      	lsls	r4, r1, #18
   82450:	d40a      	bmi.n	82468 <_vfiprintf_r+0x48>
   82452:	f8db 3064 	ldr.w	r3, [fp, #100]	; 0x64
   82456:	f440 5100 	orr.w	r1, r0, #8192	; 0x2000
   8245a:	f423 5300 	bic.w	r3, r3, #8192	; 0x2000
   8245e:	f8ab 100c 	strh.w	r1, [fp, #12]
   82462:	f8cb 3064 	str.w	r3, [fp, #100]	; 0x64
   82466:	b289      	uxth	r1, r1
   82468:	0708      	lsls	r0, r1, #28
   8246a:	f140 80b3 	bpl.w	825d4 <_vfiprintf_r+0x1b4>
   8246e:	f8db 3010 	ldr.w	r3, [fp, #16]
   82472:	2b00      	cmp	r3, #0
   82474:	f000 80ae 	beq.w	825d4 <_vfiprintf_r+0x1b4>
   82478:	f001 031a 	and.w	r3, r1, #26
   8247c:	2b0a      	cmp	r3, #10
   8247e:	f000 80b5 	beq.w	825ec <_vfiprintf_r+0x1cc>
   82482:	2300      	movs	r3, #0
   82484:	f10d 0a70 	add.w	sl, sp, #112	; 0x70
   82488:	46d1      	mov	r9, sl
   8248a:	930b      	str	r3, [sp, #44]	; 0x2c
   8248c:	9303      	str	r3, [sp, #12]
   8248e:	9311      	str	r3, [sp, #68]	; 0x44
   82490:	9310      	str	r3, [sp, #64]	; 0x40
   82492:	f8cd a03c 	str.w	sl, [sp, #60]	; 0x3c
   82496:	f8cd b010 	str.w	fp, [sp, #16]
   8249a:	f898 3000 	ldrb.w	r3, [r8]
   8249e:	4644      	mov	r4, r8
   824a0:	b1fb      	cbz	r3, 824e2 <_vfiprintf_r+0xc2>
   824a2:	2b25      	cmp	r3, #37	; 0x25
   824a4:	d102      	bne.n	824ac <_vfiprintf_r+0x8c>
   824a6:	e01c      	b.n	824e2 <_vfiprintf_r+0xc2>
   824a8:	2b25      	cmp	r3, #37	; 0x25
   824aa:	d003      	beq.n	824b4 <_vfiprintf_r+0x94>
   824ac:	f814 3f01 	ldrb.w	r3, [r4, #1]!
   824b0:	2b00      	cmp	r3, #0
   824b2:	d1f9      	bne.n	824a8 <_vfiprintf_r+0x88>
   824b4:	eba4 0508 	sub.w	r5, r4, r8
   824b8:	b19d      	cbz	r5, 824e2 <_vfiprintf_r+0xc2>
   824ba:	9b10      	ldr	r3, [sp, #64]	; 0x40
   824bc:	9a11      	ldr	r2, [sp, #68]	; 0x44
   824be:	3301      	adds	r3, #1
   824c0:	442a      	add	r2, r5
   824c2:	2b07      	cmp	r3, #7
   824c4:	f8c9 8000 	str.w	r8, [r9]
   824c8:	f8c9 5004 	str.w	r5, [r9, #4]
   824cc:	9211      	str	r2, [sp, #68]	; 0x44
   824ce:	9310      	str	r3, [sp, #64]	; 0x40
   824d0:	dd7a      	ble.n	825c8 <_vfiprintf_r+0x1a8>
   824d2:	2a00      	cmp	r2, #0
   824d4:	f040 84b5 	bne.w	82e42 <_vfiprintf_r+0xa22>
   824d8:	46d1      	mov	r9, sl
   824da:	9b03      	ldr	r3, [sp, #12]
   824dc:	9210      	str	r2, [sp, #64]	; 0x40
   824de:	442b      	add	r3, r5
   824e0:	9303      	str	r3, [sp, #12]
   824e2:	7823      	ldrb	r3, [r4, #0]
   824e4:	2b00      	cmp	r3, #0
   824e6:	f000 83e5 	beq.w	82cb4 <_vfiprintf_r+0x894>
   824ea:	2000      	movs	r0, #0
   824ec:	f04f 0300 	mov.w	r3, #0
   824f0:	f104 0801 	add.w	r8, r4, #1
   824f4:	f88d 3037 	strb.w	r3, [sp, #55]	; 0x37
   824f8:	7862      	ldrb	r2, [r4, #1]
   824fa:	4606      	mov	r6, r0
   824fc:	4605      	mov	r5, r0
   824fe:	4603      	mov	r3, r0
   82500:	f04f 34ff 	mov.w	r4, #4294967295
   82504:	f108 0801 	add.w	r8, r8, #1
   82508:	f1a2 0120 	sub.w	r1, r2, #32
   8250c:	2958      	cmp	r1, #88	; 0x58
   8250e:	f200 82d9 	bhi.w	82ac4 <_vfiprintf_r+0x6a4>
   82512:	e8df f011 	tbh	[pc, r1, lsl #1]
   82516:	0228      	.short	0x0228
   82518:	02d702d7 	.word	0x02d702d7
   8251c:	02d70230 	.word	0x02d70230
   82520:	02d702d7 	.word	0x02d702d7
   82524:	02d702d7 	.word	0x02d702d7
   82528:	00a002d7 	.word	0x00a002d7
   8252c:	02d70288 	.word	0x02d70288
   82530:	02b800a8 	.word	0x02b800a8
   82534:	01a602d7 	.word	0x01a602d7
   82538:	01ab01ab 	.word	0x01ab01ab
   8253c:	01ab01ab 	.word	0x01ab01ab
   82540:	01ab01ab 	.word	0x01ab01ab
   82544:	01ab01ab 	.word	0x01ab01ab
   82548:	02d701ab 	.word	0x02d701ab
   8254c:	02d702d7 	.word	0x02d702d7
   82550:	02d702d7 	.word	0x02d702d7
   82554:	02d702d7 	.word	0x02d702d7
   82558:	02d702d7 	.word	0x02d702d7
   8255c:	01b902d7 	.word	0x01b902d7
   82560:	02d702d7 	.word	0x02d702d7
   82564:	02d702d7 	.word	0x02d702d7
   82568:	02d702d7 	.word	0x02d702d7
   8256c:	02d702d7 	.word	0x02d702d7
   82570:	02d702d7 	.word	0x02d702d7
   82574:	02d7019e 	.word	0x02d7019e
   82578:	02d702d7 	.word	0x02d702d7
   8257c:	02d702d7 	.word	0x02d702d7
   82580:	02d701a2 	.word	0x02d701a2
   82584:	025a02d7 	.word	0x025a02d7
   82588:	02d702d7 	.word	0x02d702d7
   8258c:	02d702d7 	.word	0x02d702d7
   82590:	02d702d7 	.word	0x02d702d7
   82594:	02d702d7 	.word	0x02d702d7
   82598:	02d702d7 	.word	0x02d702d7
   8259c:	02220261 	.word	0x02220261
   825a0:	02d702d7 	.word	0x02d702d7
   825a4:	027602d7 	.word	0x027602d7
   825a8:	02d70222 	.word	0x02d70222
   825ac:	027b02d7 	.word	0x027b02d7
   825b0:	01fc02d7 	.word	0x01fc02d7
   825b4:	02100189 	.word	0x02100189
   825b8:	02d702d2 	.word	0x02d702d2
   825bc:	02d70295 	.word	0x02d70295
   825c0:	02d700ad 	.word	0x02d700ad
   825c4:	023502d7 	.word	0x023502d7
   825c8:	f109 0908 	add.w	r9, r9, #8
   825cc:	9b03      	ldr	r3, [sp, #12]
   825ce:	442b      	add	r3, r5
   825d0:	9303      	str	r3, [sp, #12]
   825d2:	e786      	b.n	824e2 <_vfiprintf_r+0xc2>
   825d4:	4659      	mov	r1, fp
   825d6:	9806      	ldr	r0, [sp, #24]
   825d8:	f000 fdaa 	bl	83130 <__swsetup_r>
   825dc:	bb18      	cbnz	r0, 82626 <_vfiprintf_r+0x206>
   825de:	f8bb 100c 	ldrh.w	r1, [fp, #12]
   825e2:	f001 031a 	and.w	r3, r1, #26
   825e6:	2b0a      	cmp	r3, #10
   825e8:	f47f af4b 	bne.w	82482 <_vfiprintf_r+0x62>
   825ec:	f9bb 300e 	ldrsh.w	r3, [fp, #14]
   825f0:	2b00      	cmp	r3, #0
   825f2:	f6ff af46 	blt.w	82482 <_vfiprintf_r+0x62>
   825f6:	f8db 3064 	ldr.w	r3, [fp, #100]	; 0x64
   825fa:	07db      	lsls	r3, r3, #31
   825fc:	d405      	bmi.n	8260a <_vfiprintf_r+0x1ea>
   825fe:	058f      	lsls	r7, r1, #22
   82600:	d403      	bmi.n	8260a <_vfiprintf_r+0x1ea>
   82602:	f8db 0058 	ldr.w	r0, [fp, #88]	; 0x58
   82606:	f001 fabd 	bl	83b84 <__retarget_lock_release_recursive>
   8260a:	462b      	mov	r3, r5
   8260c:	4642      	mov	r2, r8
   8260e:	4659      	mov	r1, fp
   82610:	9806      	ldr	r0, [sp, #24]
   82612:	f000 fd49 	bl	830a8 <__sbprintf>
   82616:	9003      	str	r0, [sp, #12]
   82618:	9803      	ldr	r0, [sp, #12]
   8261a:	b02d      	add	sp, #180	; 0xb4
   8261c:	e8bd 8ff0 	ldmia.w	sp!, {r4, r5, r6, r7, r8, r9, sl, fp, pc}
   82620:	f000 feee 	bl	83400 <__sinit>
   82624:	e709      	b.n	8243a <_vfiprintf_r+0x1a>
   82626:	f8db 3064 	ldr.w	r3, [fp, #100]	; 0x64
   8262a:	07d9      	lsls	r1, r3, #31
   8262c:	d404      	bmi.n	82638 <_vfiprintf_r+0x218>
   8262e:	f8bb 300c 	ldrh.w	r3, [fp, #12]
   82632:	059a      	lsls	r2, r3, #22
   82634:	f140 84ae 	bpl.w	82f94 <_vfiprintf_r+0xb74>
   82638:	f04f 33ff 	mov.w	r3, #4294967295
   8263c:	9303      	str	r3, [sp, #12]
   8263e:	9803      	ldr	r0, [sp, #12]
   82640:	b02d      	add	sp, #180	; 0xb4
   82642:	e8bd 8ff0 	ldmia.w	sp!, {r4, r5, r6, r7, r8, r9, sl, fp, pc}
   82646:	f8db 0058 	ldr.w	r0, [fp, #88]	; 0x58
   8264a:	f001 fa99 	bl	83b80 <__retarget_lock_acquire_recursive>
   8264e:	f9bb 000c 	ldrsh.w	r0, [fp, #12]
   82652:	b281      	uxth	r1, r0
   82654:	e6fb      	b.n	8244e <_vfiprintf_r+0x2e>
   82656:	9907      	ldr	r1, [sp, #28]
   82658:	460a      	mov	r2, r1
   8265a:	680d      	ldr	r5, [r1, #0]
   8265c:	3204      	adds	r2, #4
   8265e:	2d00      	cmp	r5, #0
   82660:	9207      	str	r2, [sp, #28]
   82662:	da02      	bge.n	8266a <_vfiprintf_r+0x24a>
   82664:	426d      	negs	r5, r5
   82666:	f043 0304 	orr.w	r3, r3, #4
   8266a:	f898 2000 	ldrb.w	r2, [r8]
   8266e:	e749      	b.n	82504 <_vfiprintf_r+0xe4>
   82670:	9508      	str	r5, [sp, #32]
   82672:	069e      	lsls	r6, r3, #26
   82674:	f100 845a 	bmi.w	82f2c <_vfiprintf_r+0xb0c>
   82678:	9907      	ldr	r1, [sp, #28]
   8267a:	06dd      	lsls	r5, r3, #27
   8267c:	460a      	mov	r2, r1
   8267e:	f100 83ef 	bmi.w	82e60 <_vfiprintf_r+0xa40>
   82682:	0658      	lsls	r0, r3, #25
   82684:	f140 83ec 	bpl.w	82e60 <_vfiprintf_r+0xa40>
   82688:	2700      	movs	r7, #0
   8268a:	2201      	movs	r2, #1
   8268c:	880e      	ldrh	r6, [r1, #0]
   8268e:	3104      	adds	r1, #4
   82690:	9107      	str	r1, [sp, #28]
   82692:	f04f 0100 	mov.w	r1, #0
   82696:	2500      	movs	r5, #0
   82698:	f88d 1037 	strb.w	r1, [sp, #55]	; 0x37
   8269c:	1c61      	adds	r1, r4, #1
   8269e:	f000 8117 	beq.w	828d0 <_vfiprintf_r+0x4b0>
   826a2:	f023 0180 	bic.w	r1, r3, #128	; 0x80
   826a6:	9102      	str	r1, [sp, #8]
   826a8:	ea56 0107 	orrs.w	r1, r6, r7
   826ac:	f040 8115 	bne.w	828da <_vfiprintf_r+0x4ba>
   826b0:	2c00      	cmp	r4, #0
   826b2:	f040 835b 	bne.w	82d6c <_vfiprintf_r+0x94c>
   826b6:	2a00      	cmp	r2, #0
   826b8:	f040 83b6 	bne.w	82e28 <_vfiprintf_r+0xa08>
   826bc:	f013 0301 	ands.w	r3, r3, #1
   826c0:	9305      	str	r3, [sp, #20]
   826c2:	f000 8455 	beq.w	82f70 <_vfiprintf_r+0xb50>
   826c6:	2330      	movs	r3, #48	; 0x30
   826c8:	f10d 0bb0 	add.w	fp, sp, #176	; 0xb0
   826cc:	f80b 3d41 	strb.w	r3, [fp, #-65]!
   826d0:	9b05      	ldr	r3, [sp, #20]
   826d2:	42a3      	cmp	r3, r4
   826d4:	bfb8      	it	lt
   826d6:	4623      	movlt	r3, r4
   826d8:	9301      	str	r3, [sp, #4]
   826da:	b10d      	cbz	r5, 826e0 <_vfiprintf_r+0x2c0>
   826dc:	3301      	adds	r3, #1
   826de:	9301      	str	r3, [sp, #4]
   826e0:	9b02      	ldr	r3, [sp, #8]
   826e2:	f013 0302 	ands.w	r3, r3, #2
   826e6:	9309      	str	r3, [sp, #36]	; 0x24
   826e8:	d002      	beq.n	826f0 <_vfiprintf_r+0x2d0>
   826ea:	9b01      	ldr	r3, [sp, #4]
   826ec:	3302      	adds	r3, #2
   826ee:	9301      	str	r3, [sp, #4]
   826f0:	9b02      	ldr	r3, [sp, #8]
   826f2:	f013 0384 	ands.w	r3, r3, #132	; 0x84
   826f6:	930a      	str	r3, [sp, #40]	; 0x28
   826f8:	f040 8215 	bne.w	82b26 <_vfiprintf_r+0x706>
   826fc:	9b08      	ldr	r3, [sp, #32]
   826fe:	9a01      	ldr	r2, [sp, #4]
   82700:	1a9d      	subs	r5, r3, r2
   82702:	2d00      	cmp	r5, #0
   82704:	f340 820f 	ble.w	82b26 <_vfiprintf_r+0x706>
   82708:	2d10      	cmp	r5, #16
   8270a:	f340 8484 	ble.w	83016 <_vfiprintf_r+0xbf6>
   8270e:	9b10      	ldr	r3, [sp, #64]	; 0x40
   82710:	46ce      	mov	lr, r9
   82712:	2710      	movs	r7, #16
   82714:	46a1      	mov	r9, r4
   82716:	9a11      	ldr	r2, [sp, #68]	; 0x44
   82718:	4ec5      	ldr	r6, [pc, #788]	; (82a30 <_vfiprintf_r+0x610>)
   8271a:	4619      	mov	r1, r3
   8271c:	9c06      	ldr	r4, [sp, #24]
   8271e:	e007      	b.n	82730 <_vfiprintf_r+0x310>
   82720:	f101 0c02 	add.w	ip, r1, #2
   82724:	4601      	mov	r1, r0
   82726:	f10e 0e08 	add.w	lr, lr, #8
   8272a:	3d10      	subs	r5, #16
   8272c:	2d10      	cmp	r5, #16
   8272e:	dd11      	ble.n	82754 <_vfiprintf_r+0x334>
   82730:	1c48      	adds	r0, r1, #1
   82732:	3210      	adds	r2, #16
   82734:	2807      	cmp	r0, #7
   82736:	9211      	str	r2, [sp, #68]	; 0x44
   82738:	e88e 00c0 	stmia.w	lr, {r6, r7}
   8273c:	9010      	str	r0, [sp, #64]	; 0x40
   8273e:	ddef      	ble.n	82720 <_vfiprintf_r+0x300>
   82740:	2a00      	cmp	r2, #0
   82742:	f040 81d9 	bne.w	82af8 <_vfiprintf_r+0x6d8>
   82746:	3d10      	subs	r5, #16
   82748:	2d10      	cmp	r5, #16
   8274a:	4611      	mov	r1, r2
   8274c:	f04f 0c01 	mov.w	ip, #1
   82750:	46d6      	mov	lr, sl
   82752:	dced      	bgt.n	82730 <_vfiprintf_r+0x310>
   82754:	464c      	mov	r4, r9
   82756:	4661      	mov	r1, ip
   82758:	46f1      	mov	r9, lr
   8275a:	442a      	add	r2, r5
   8275c:	2907      	cmp	r1, #7
   8275e:	9211      	str	r2, [sp, #68]	; 0x44
   82760:	f8c9 6000 	str.w	r6, [r9]
   82764:	f8c9 5004 	str.w	r5, [r9, #4]
   82768:	9110      	str	r1, [sp, #64]	; 0x40
   8276a:	f300 82eb 	bgt.w	82d44 <_vfiprintf_r+0x924>
   8276e:	f89d 5037 	ldrb.w	r5, [sp, #55]	; 0x37
   82772:	f109 0908 	add.w	r9, r9, #8
   82776:	1c48      	adds	r0, r1, #1
   82778:	2d00      	cmp	r5, #0
   8277a:	f040 81dc 	bne.w	82b36 <_vfiprintf_r+0x716>
   8277e:	9b09      	ldr	r3, [sp, #36]	; 0x24
   82780:	2b00      	cmp	r3, #0
   82782:	f000 81f6 	beq.w	82b72 <_vfiprintf_r+0x752>
   82786:	2102      	movs	r1, #2
   82788:	ab0e      	add	r3, sp, #56	; 0x38
   8278a:	440a      	add	r2, r1
   8278c:	2807      	cmp	r0, #7
   8278e:	9211      	str	r2, [sp, #68]	; 0x44
   82790:	9010      	str	r0, [sp, #64]	; 0x40
   82792:	f8c9 1004 	str.w	r1, [r9, #4]
   82796:	f8c9 3000 	str.w	r3, [r9]
   8279a:	f340 81e6 	ble.w	82b6a <_vfiprintf_r+0x74a>
   8279e:	2a00      	cmp	r2, #0
   827a0:	f040 8395 	bne.w	82ece <_vfiprintf_r+0xaae>
   827a4:	9b0a      	ldr	r3, [sp, #40]	; 0x28
   827a6:	2001      	movs	r0, #1
   827a8:	2b80      	cmp	r3, #128	; 0x80
   827aa:	4611      	mov	r1, r2
   827ac:	46d1      	mov	r9, sl
   827ae:	f040 81e4 	bne.w	82b7a <_vfiprintf_r+0x75a>
   827b2:	9b08      	ldr	r3, [sp, #32]
   827b4:	9d01      	ldr	r5, [sp, #4]
   827b6:	1b5e      	subs	r6, r3, r5
   827b8:	2e00      	cmp	r6, #0
   827ba:	f340 81de 	ble.w	82b7a <_vfiprintf_r+0x75a>
   827be:	2e10      	cmp	r6, #16
   827c0:	f340 843c 	ble.w	8303c <_vfiprintf_r+0xc1c>
   827c4:	46cc      	mov	ip, r9
   827c6:	2710      	movs	r7, #16
   827c8:	46a1      	mov	r9, r4
   827ca:	4d9a      	ldr	r5, [pc, #616]	; (82a34 <_vfiprintf_r+0x614>)
   827cc:	9c06      	ldr	r4, [sp, #24]
   827ce:	e007      	b.n	827e0 <_vfiprintf_r+0x3c0>
   827d0:	f101 0e02 	add.w	lr, r1, #2
   827d4:	4601      	mov	r1, r0
   827d6:	f10c 0c08 	add.w	ip, ip, #8
   827da:	3e10      	subs	r6, #16
   827dc:	2e10      	cmp	r6, #16
   827de:	dd11      	ble.n	82804 <_vfiprintf_r+0x3e4>
   827e0:	1c48      	adds	r0, r1, #1
   827e2:	3210      	adds	r2, #16
   827e4:	2807      	cmp	r0, #7
   827e6:	9211      	str	r2, [sp, #68]	; 0x44
   827e8:	e88c 00a0 	stmia.w	ip, {r5, r7}
   827ec:	9010      	str	r0, [sp, #64]	; 0x40
   827ee:	ddef      	ble.n	827d0 <_vfiprintf_r+0x3b0>
   827f0:	2a00      	cmp	r2, #0
   827f2:	f040 829b 	bne.w	82d2c <_vfiprintf_r+0x90c>
   827f6:	3e10      	subs	r6, #16
   827f8:	2e10      	cmp	r6, #16
   827fa:	f04f 0e01 	mov.w	lr, #1
   827fe:	4611      	mov	r1, r2
   82800:	46d4      	mov	ip, sl
   82802:	dced      	bgt.n	827e0 <_vfiprintf_r+0x3c0>
   82804:	464c      	mov	r4, r9
   82806:	46e1      	mov	r9, ip
   82808:	4432      	add	r2, r6
   8280a:	f1be 0f07 	cmp.w	lr, #7
   8280e:	9211      	str	r2, [sp, #68]	; 0x44
   82810:	e889 0060 	stmia.w	r9, {r5, r6}
   82814:	f8cd e040 	str.w	lr, [sp, #64]	; 0x40
   82818:	f300 8366 	bgt.w	82ee8 <_vfiprintf_r+0xac8>
   8281c:	f109 0908 	add.w	r9, r9, #8
   82820:	f10e 0001 	add.w	r0, lr, #1
   82824:	4671      	mov	r1, lr
   82826:	e1a8      	b.n	82b7a <_vfiprintf_r+0x75a>
   82828:	9508      	str	r5, [sp, #32]
   8282a:	f013 0220 	ands.w	r2, r3, #32
   8282e:	f040 8389 	bne.w	82f44 <_vfiprintf_r+0xb24>
   82832:	f013 0110 	ands.w	r1, r3, #16
   82836:	f040 8319 	bne.w	82e6c <_vfiprintf_r+0xa4c>
   8283a:	f013 0240 	ands.w	r2, r3, #64	; 0x40
   8283e:	f000 8315 	beq.w	82e6c <_vfiprintf_r+0xa4c>
   82842:	9807      	ldr	r0, [sp, #28]
   82844:	460a      	mov	r2, r1
   82846:	4601      	mov	r1, r0
   82848:	3104      	adds	r1, #4
   8284a:	8806      	ldrh	r6, [r0, #0]
   8284c:	2700      	movs	r7, #0
   8284e:	9107      	str	r1, [sp, #28]
   82850:	e71f      	b.n	82692 <_vfiprintf_r+0x272>
   82852:	9508      	str	r5, [sp, #32]
   82854:	f043 0310 	orr.w	r3, r3, #16
   82858:	e7e7      	b.n	8282a <_vfiprintf_r+0x40a>
   8285a:	9508      	str	r5, [sp, #32]
   8285c:	f043 0310 	orr.w	r3, r3, #16
   82860:	e707      	b.n	82672 <_vfiprintf_r+0x252>
   82862:	f043 0380 	orr.w	r3, r3, #128	; 0x80
   82866:	f898 2000 	ldrb.w	r2, [r8]
   8286a:	e64b      	b.n	82504 <_vfiprintf_r+0xe4>
   8286c:	2500      	movs	r5, #0
   8286e:	f1a2 0130 	sub.w	r1, r2, #48	; 0x30
   82872:	f818 2b01 	ldrb.w	r2, [r8], #1
   82876:	eb05 0585 	add.w	r5, r5, r5, lsl #2
   8287a:	eb01 0545 	add.w	r5, r1, r5, lsl #1
   8287e:	f1a2 0130 	sub.w	r1, r2, #48	; 0x30
   82882:	2909      	cmp	r1, #9
   82884:	d9f5      	bls.n	82872 <_vfiprintf_r+0x452>
   82886:	e63f      	b.n	82508 <_vfiprintf_r+0xe8>
   82888:	9508      	str	r5, [sp, #32]
   8288a:	2800      	cmp	r0, #0
   8288c:	f040 8402 	bne.w	83094 <_vfiprintf_r+0xc74>
   82890:	f043 0310 	orr.w	r3, r3, #16
   82894:	069e      	lsls	r6, r3, #26
   82896:	f100 833d 	bmi.w	82f14 <_vfiprintf_r+0xaf4>
   8289a:	9907      	ldr	r1, [sp, #28]
   8289c:	06dd      	lsls	r5, r3, #27
   8289e:	460a      	mov	r2, r1
   828a0:	f100 82f0 	bmi.w	82e84 <_vfiprintf_r+0xa64>
   828a4:	0658      	lsls	r0, r3, #25
   828a6:	f140 82ed 	bpl.w	82e84 <_vfiprintf_r+0xa64>
   828aa:	f9b1 6000 	ldrsh.w	r6, [r1]
   828ae:	3204      	adds	r2, #4
   828b0:	17f7      	asrs	r7, r6, #31
   828b2:	4630      	mov	r0, r6
   828b4:	4639      	mov	r1, r7
   828b6:	9207      	str	r2, [sp, #28]
   828b8:	2800      	cmp	r0, #0
   828ba:	f171 0200 	sbcs.w	r2, r1, #0
   828be:	f2c0 835a 	blt.w	82f76 <_vfiprintf_r+0xb56>
   828c2:	1c61      	adds	r1, r4, #1
   828c4:	f89d 5037 	ldrb.w	r5, [sp, #55]	; 0x37
   828c8:	f04f 0201 	mov.w	r2, #1
   828cc:	f47f aee9 	bne.w	826a2 <_vfiprintf_r+0x282>
   828d0:	ea56 0107 	orrs.w	r1, r6, r7
   828d4:	f000 824b 	beq.w	82d6e <_vfiprintf_r+0x94e>
   828d8:	9302      	str	r3, [sp, #8]
   828da:	2a01      	cmp	r2, #1
   828dc:	f000 828a 	beq.w	82df4 <_vfiprintf_r+0x9d4>
   828e0:	2a02      	cmp	r2, #2
   828e2:	f040 825a 	bne.w	82d9a <_vfiprintf_r+0x97a>
   828e6:	46d3      	mov	fp, sl
   828e8:	980b      	ldr	r0, [sp, #44]	; 0x2c
   828ea:	0933      	lsrs	r3, r6, #4
   828ec:	ea43 7307 	orr.w	r3, r3, r7, lsl #28
   828f0:	0939      	lsrs	r1, r7, #4
   828f2:	f006 020f 	and.w	r2, r6, #15
   828f6:	460f      	mov	r7, r1
   828f8:	461e      	mov	r6, r3
   828fa:	5c83      	ldrb	r3, [r0, r2]
   828fc:	f80b 3d01 	strb.w	r3, [fp, #-1]!
   82900:	ea56 0307 	orrs.w	r3, r6, r7
   82904:	d1f1      	bne.n	828ea <_vfiprintf_r+0x4ca>
   82906:	ebaa 030b 	sub.w	r3, sl, fp
   8290a:	9305      	str	r3, [sp, #20]
   8290c:	e6e0      	b.n	826d0 <_vfiprintf_r+0x2b0>
   8290e:	2800      	cmp	r0, #0
   82910:	f040 83bd 	bne.w	8308e <_vfiprintf_r+0xc6e>
   82914:	0699      	lsls	r1, r3, #26
   82916:	f100 8359 	bmi.w	82fcc <_vfiprintf_r+0xbac>
   8291a:	06da      	lsls	r2, r3, #27
   8291c:	f100 80e5 	bmi.w	82aea <_vfiprintf_r+0x6ca>
   82920:	065b      	lsls	r3, r3, #25
   82922:	f140 80e2 	bpl.w	82aea <_vfiprintf_r+0x6ca>
   82926:	9a07      	ldr	r2, [sp, #28]
   82928:	6813      	ldr	r3, [r2, #0]
   8292a:	3204      	adds	r2, #4
   8292c:	9207      	str	r2, [sp, #28]
   8292e:	f8bd 200c 	ldrh.w	r2, [sp, #12]
   82932:	801a      	strh	r2, [r3, #0]
   82934:	e5b1      	b.n	8249a <_vfiprintf_r+0x7a>
   82936:	2278      	movs	r2, #120	; 0x78
   82938:	2130      	movs	r1, #48	; 0x30
   8293a:	9508      	str	r5, [sp, #32]
   8293c:	9d07      	ldr	r5, [sp, #28]
   8293e:	f88d 2039 	strb.w	r2, [sp, #57]	; 0x39
   82942:	1d2a      	adds	r2, r5, #4
   82944:	9207      	str	r2, [sp, #28]
   82946:	4a3c      	ldr	r2, [pc, #240]	; (82a38 <_vfiprintf_r+0x618>)
   82948:	682e      	ldr	r6, [r5, #0]
   8294a:	920b      	str	r2, [sp, #44]	; 0x2c
   8294c:	f043 0302 	orr.w	r3, r3, #2
   82950:	f88d 1038 	strb.w	r1, [sp, #56]	; 0x38
   82954:	2700      	movs	r7, #0
   82956:	2202      	movs	r2, #2
   82958:	e69b      	b.n	82692 <_vfiprintf_r+0x272>
   8295a:	9508      	str	r5, [sp, #32]
   8295c:	2800      	cmp	r0, #0
   8295e:	d099      	beq.n	82894 <_vfiprintf_r+0x474>
   82960:	f88d 6037 	strb.w	r6, [sp, #55]	; 0x37
   82964:	e796      	b.n	82894 <_vfiprintf_r+0x474>
   82966:	f898 2000 	ldrb.w	r2, [r8]
   8296a:	2e00      	cmp	r6, #0
   8296c:	f47f adca 	bne.w	82504 <_vfiprintf_r+0xe4>
   82970:	2001      	movs	r0, #1
   82972:	2620      	movs	r6, #32
   82974:	e5c6      	b.n	82504 <_vfiprintf_r+0xe4>
   82976:	f043 0301 	orr.w	r3, r3, #1
   8297a:	f898 2000 	ldrb.w	r2, [r8]
   8297e:	e5c1      	b.n	82504 <_vfiprintf_r+0xe4>
   82980:	9508      	str	r5, [sp, #32]
   82982:	2800      	cmp	r0, #0
   82984:	f040 8380 	bne.w	83088 <_vfiprintf_r+0xc68>
   82988:	492b      	ldr	r1, [pc, #172]	; (82a38 <_vfiprintf_r+0x618>)
   8298a:	910b      	str	r1, [sp, #44]	; 0x2c
   8298c:	069f      	lsls	r7, r3, #26
   8298e:	f100 82e5 	bmi.w	82f5c <_vfiprintf_r+0xb3c>
   82992:	9807      	ldr	r0, [sp, #28]
   82994:	06de      	lsls	r6, r3, #27
   82996:	4601      	mov	r1, r0
   82998:	f100 826f 	bmi.w	82e7a <_vfiprintf_r+0xa5a>
   8299c:	065d      	lsls	r5, r3, #25
   8299e:	f140 826c 	bpl.w	82e7a <_vfiprintf_r+0xa5a>
   829a2:	2700      	movs	r7, #0
   829a4:	3104      	adds	r1, #4
   829a6:	8806      	ldrh	r6, [r0, #0]
   829a8:	9107      	str	r1, [sp, #28]
   829aa:	07d8      	lsls	r0, r3, #31
   829ac:	f140 8220 	bpl.w	82df0 <_vfiprintf_r+0x9d0>
   829b0:	ea56 0107 	orrs.w	r1, r6, r7
   829b4:	f000 821c 	beq.w	82df0 <_vfiprintf_r+0x9d0>
   829b8:	2130      	movs	r1, #48	; 0x30
   829ba:	f88d 2039 	strb.w	r2, [sp, #57]	; 0x39
   829be:	f043 0302 	orr.w	r3, r3, #2
   829c2:	f88d 1038 	strb.w	r1, [sp, #56]	; 0x38
   829c6:	2202      	movs	r2, #2
   829c8:	e663      	b.n	82692 <_vfiprintf_r+0x272>
   829ca:	9508      	str	r5, [sp, #32]
   829cc:	2800      	cmp	r0, #0
   829ce:	f040 8355 	bne.w	8307c <_vfiprintf_r+0xc5c>
   829d2:	491a      	ldr	r1, [pc, #104]	; (82a3c <_vfiprintf_r+0x61c>)
   829d4:	910b      	str	r1, [sp, #44]	; 0x2c
   829d6:	e7d9      	b.n	8298c <_vfiprintf_r+0x56c>
   829d8:	2201      	movs	r2, #1
   829da:	9807      	ldr	r0, [sp, #28]
   829dc:	4611      	mov	r1, r2
   829de:	9201      	str	r2, [sp, #4]
   829e0:	6802      	ldr	r2, [r0, #0]
   829e2:	f04f 0400 	mov.w	r4, #0
   829e6:	f88d 2048 	strb.w	r2, [sp, #72]	; 0x48
   829ea:	4602      	mov	r2, r0
   829ec:	3204      	adds	r2, #4
   829ee:	9508      	str	r5, [sp, #32]
   829f0:	f88d 4037 	strb.w	r4, [sp, #55]	; 0x37
   829f4:	9105      	str	r1, [sp, #20]
   829f6:	9207      	str	r2, [sp, #28]
   829f8:	f10d 0b48 	add.w	fp, sp, #72	; 0x48
   829fc:	9302      	str	r3, [sp, #8]
   829fe:	2400      	movs	r4, #0
   82a00:	e66e      	b.n	826e0 <_vfiprintf_r+0x2c0>
   82a02:	f043 0340 	orr.w	r3, r3, #64	; 0x40
   82a06:	f898 2000 	ldrb.w	r2, [r8]
   82a0a:	e57b      	b.n	82504 <_vfiprintf_r+0xe4>
   82a0c:	f898 2000 	ldrb.w	r2, [r8]
   82a10:	2a6c      	cmp	r2, #108	; 0x6c
   82a12:	bf03      	ittte	eq
   82a14:	f898 2001 	ldrbeq.w	r2, [r8, #1]
   82a18:	f043 0320 	orreq.w	r3, r3, #32
   82a1c:	f108 0801 	addeq.w	r8, r8, #1
   82a20:	f043 0310 	orrne.w	r3, r3, #16
   82a24:	e56e      	b.n	82504 <_vfiprintf_r+0xe4>
   82a26:	f898 2000 	ldrb.w	r2, [r8]
   82a2a:	2001      	movs	r0, #1
   82a2c:	262b      	movs	r6, #43	; 0x2b
   82a2e:	e569      	b.n	82504 <_vfiprintf_r+0xe4>
   82a30:	00084f80 	.word	0x00084f80
   82a34:	00084f90 	.word	0x00084f90
   82a38:	00084f64 	.word	0x00084f64
   82a3c:	00084f50 	.word	0x00084f50
   82a40:	f04f 0200 	mov.w	r2, #0
   82a44:	9907      	ldr	r1, [sp, #28]
   82a46:	9508      	str	r5, [sp, #32]
   82a48:	f8d1 b000 	ldr.w	fp, [r1]
   82a4c:	f88d 2037 	strb.w	r2, [sp, #55]	; 0x37
   82a50:	1d0d      	adds	r5, r1, #4
   82a52:	f1bb 0f00 	cmp.w	fp, #0
   82a56:	f000 82e4 	beq.w	83022 <_vfiprintf_r+0xc02>
   82a5a:	1c67      	adds	r7, r4, #1
   82a5c:	f000 82c3 	beq.w	82fe6 <_vfiprintf_r+0xbc6>
   82a60:	4622      	mov	r2, r4
   82a62:	2100      	movs	r1, #0
   82a64:	4658      	mov	r0, fp
   82a66:	9301      	str	r3, [sp, #4]
   82a68:	f001 fbc6 	bl	841f8 <memchr>
   82a6c:	9b01      	ldr	r3, [sp, #4]
   82a6e:	2800      	cmp	r0, #0
   82a70:	f000 82e8 	beq.w	83044 <_vfiprintf_r+0xc24>
   82a74:	eba0 020b 	sub.w	r2, r0, fp
   82a78:	9507      	str	r5, [sp, #28]
   82a7a:	9205      	str	r2, [sp, #20]
   82a7c:	9302      	str	r3, [sp, #8]
   82a7e:	f89d 5037 	ldrb.w	r5, [sp, #55]	; 0x37
   82a82:	2400      	movs	r4, #0
   82a84:	e624      	b.n	826d0 <_vfiprintf_r+0x2b0>
   82a86:	f898 2000 	ldrb.w	r2, [r8]
   82a8a:	f108 0701 	add.w	r7, r8, #1
   82a8e:	2a2a      	cmp	r2, #42	; 0x2a
   82a90:	f000 82e9 	beq.w	83066 <_vfiprintf_r+0xc46>
   82a94:	f1a2 0130 	sub.w	r1, r2, #48	; 0x30
   82a98:	2909      	cmp	r1, #9
   82a9a:	46b8      	mov	r8, r7
   82a9c:	f04f 0400 	mov.w	r4, #0
   82aa0:	f63f ad32 	bhi.w	82508 <_vfiprintf_r+0xe8>
   82aa4:	f818 2b01 	ldrb.w	r2, [r8], #1
   82aa8:	eb04 0484 	add.w	r4, r4, r4, lsl #2
   82aac:	eb01 0444 	add.w	r4, r1, r4, lsl #1
   82ab0:	f1a2 0130 	sub.w	r1, r2, #48	; 0x30
   82ab4:	2909      	cmp	r1, #9
   82ab6:	d9f5      	bls.n	82aa4 <_vfiprintf_r+0x684>
   82ab8:	e526      	b.n	82508 <_vfiprintf_r+0xe8>
   82aba:	f043 0320 	orr.w	r3, r3, #32
   82abe:	f898 2000 	ldrb.w	r2, [r8]
   82ac2:	e51f      	b.n	82504 <_vfiprintf_r+0xe4>
   82ac4:	9508      	str	r5, [sp, #32]
   82ac6:	2800      	cmp	r0, #0
   82ac8:	f040 82db 	bne.w	83082 <_vfiprintf_r+0xc62>
   82acc:	2a00      	cmp	r2, #0
   82ace:	f000 80f1 	beq.w	82cb4 <_vfiprintf_r+0x894>
   82ad2:	2101      	movs	r1, #1
   82ad4:	f88d 2048 	strb.w	r2, [sp, #72]	; 0x48
   82ad8:	f04f 0200 	mov.w	r2, #0
   82adc:	9101      	str	r1, [sp, #4]
   82ade:	f88d 2037 	strb.w	r2, [sp, #55]	; 0x37
   82ae2:	9105      	str	r1, [sp, #20]
   82ae4:	f10d 0b48 	add.w	fp, sp, #72	; 0x48
   82ae8:	e788      	b.n	829fc <_vfiprintf_r+0x5dc>
   82aea:	9a07      	ldr	r2, [sp, #28]
   82aec:	6813      	ldr	r3, [r2, #0]
   82aee:	3204      	adds	r2, #4
   82af0:	9207      	str	r2, [sp, #28]
   82af2:	9a03      	ldr	r2, [sp, #12]
   82af4:	601a      	str	r2, [r3, #0]
   82af6:	e4d0      	b.n	8249a <_vfiprintf_r+0x7a>
   82af8:	aa0f      	add	r2, sp, #60	; 0x3c
   82afa:	9904      	ldr	r1, [sp, #16]
   82afc:	4620      	mov	r0, r4
   82afe:	f7ff fc4f 	bl	823a0 <__sprint_r.part.0>
   82b02:	2800      	cmp	r0, #0
   82b04:	f040 8143 	bne.w	82d8e <_vfiprintf_r+0x96e>
   82b08:	9910      	ldr	r1, [sp, #64]	; 0x40
   82b0a:	46d6      	mov	lr, sl
   82b0c:	9a11      	ldr	r2, [sp, #68]	; 0x44
   82b0e:	f101 0c01 	add.w	ip, r1, #1
   82b12:	e60a      	b.n	8272a <_vfiprintf_r+0x30a>
   82b14:	aa0f      	add	r2, sp, #60	; 0x3c
   82b16:	9904      	ldr	r1, [sp, #16]
   82b18:	9806      	ldr	r0, [sp, #24]
   82b1a:	f7ff fc41 	bl	823a0 <__sprint_r.part.0>
   82b1e:	2800      	cmp	r0, #0
   82b20:	f040 8135 	bne.w	82d8e <_vfiprintf_r+0x96e>
   82b24:	46d1      	mov	r9, sl
   82b26:	9910      	ldr	r1, [sp, #64]	; 0x40
   82b28:	f89d 5037 	ldrb.w	r5, [sp, #55]	; 0x37
   82b2c:	9a11      	ldr	r2, [sp, #68]	; 0x44
   82b2e:	1c48      	adds	r0, r1, #1
   82b30:	2d00      	cmp	r5, #0
   82b32:	f43f ae24 	beq.w	8277e <_vfiprintf_r+0x35e>
   82b36:	2101      	movs	r1, #1
   82b38:	f10d 0537 	add.w	r5, sp, #55	; 0x37
   82b3c:	440a      	add	r2, r1
   82b3e:	2807      	cmp	r0, #7
   82b40:	9211      	str	r2, [sp, #68]	; 0x44
   82b42:	9010      	str	r0, [sp, #64]	; 0x40
   82b44:	f8c9 1004 	str.w	r1, [r9, #4]
   82b48:	f8c9 5000 	str.w	r5, [r9]
   82b4c:	f340 8109 	ble.w	82d62 <_vfiprintf_r+0x942>
   82b50:	2a00      	cmp	r2, #0
   82b52:	f040 81af 	bne.w	82eb4 <_vfiprintf_r+0xa94>
   82b56:	9b09      	ldr	r3, [sp, #36]	; 0x24
   82b58:	2b00      	cmp	r3, #0
   82b5a:	f43f ae23 	beq.w	827a4 <_vfiprintf_r+0x384>
   82b5e:	2202      	movs	r2, #2
   82b60:	4608      	mov	r0, r1
   82b62:	46d1      	mov	r9, sl
   82b64:	ab0e      	add	r3, sp, #56	; 0x38
   82b66:	921d      	str	r2, [sp, #116]	; 0x74
   82b68:	931c      	str	r3, [sp, #112]	; 0x70
   82b6a:	4601      	mov	r1, r0
   82b6c:	f109 0908 	add.w	r9, r9, #8
   82b70:	3001      	adds	r0, #1
   82b72:	9b0a      	ldr	r3, [sp, #40]	; 0x28
   82b74:	2b80      	cmp	r3, #128	; 0x80
   82b76:	f43f ae1c 	beq.w	827b2 <_vfiprintf_r+0x392>
   82b7a:	9b05      	ldr	r3, [sp, #20]
   82b7c:	1ae4      	subs	r4, r4, r3
   82b7e:	2c00      	cmp	r4, #0
   82b80:	dd2f      	ble.n	82be2 <_vfiprintf_r+0x7c2>
   82b82:	2c10      	cmp	r4, #16
   82b84:	f340 8220 	ble.w	82fc8 <_vfiprintf_r+0xba8>
   82b88:	46ce      	mov	lr, r9
   82b8a:	2610      	movs	r6, #16
   82b8c:	4db2      	ldr	r5, [pc, #712]	; (82e58 <_vfiprintf_r+0xa38>)
   82b8e:	9f06      	ldr	r7, [sp, #24]
   82b90:	f8dd 9010 	ldr.w	r9, [sp, #16]
   82b94:	e006      	b.n	82ba4 <_vfiprintf_r+0x784>
   82b96:	1c88      	adds	r0, r1, #2
   82b98:	4619      	mov	r1, r3
   82b9a:	f10e 0e08 	add.w	lr, lr, #8
   82b9e:	3c10      	subs	r4, #16
   82ba0:	2c10      	cmp	r4, #16
   82ba2:	dd10      	ble.n	82bc6 <_vfiprintf_r+0x7a6>
   82ba4:	1c4b      	adds	r3, r1, #1
   82ba6:	3210      	adds	r2, #16
   82ba8:	2b07      	cmp	r3, #7
   82baa:	9211      	str	r2, [sp, #68]	; 0x44
   82bac:	e88e 0060 	stmia.w	lr, {r5, r6}
   82bb0:	9310      	str	r3, [sp, #64]	; 0x40
   82bb2:	ddf0      	ble.n	82b96 <_vfiprintf_r+0x776>
   82bb4:	2a00      	cmp	r2, #0
   82bb6:	d165      	bne.n	82c84 <_vfiprintf_r+0x864>
   82bb8:	3c10      	subs	r4, #16
   82bba:	2c10      	cmp	r4, #16
   82bbc:	f04f 0001 	mov.w	r0, #1
   82bc0:	4611      	mov	r1, r2
   82bc2:	46d6      	mov	lr, sl
   82bc4:	dcee      	bgt.n	82ba4 <_vfiprintf_r+0x784>
   82bc6:	46f1      	mov	r9, lr
   82bc8:	4422      	add	r2, r4
   82bca:	2807      	cmp	r0, #7
   82bcc:	9211      	str	r2, [sp, #68]	; 0x44
   82bce:	f8c9 5000 	str.w	r5, [r9]
   82bd2:	f8c9 4004 	str.w	r4, [r9, #4]
   82bd6:	9010      	str	r0, [sp, #64]	; 0x40
   82bd8:	f300 8085 	bgt.w	82ce6 <_vfiprintf_r+0x8c6>
   82bdc:	f109 0908 	add.w	r9, r9, #8
   82be0:	3001      	adds	r0, #1
   82be2:	9905      	ldr	r1, [sp, #20]
   82be4:	2807      	cmp	r0, #7
   82be6:	440a      	add	r2, r1
   82be8:	9211      	str	r2, [sp, #68]	; 0x44
   82bea:	f8c9 b000 	str.w	fp, [r9]
   82bee:	f8c9 1004 	str.w	r1, [r9, #4]
   82bf2:	9010      	str	r0, [sp, #64]	; 0x40
   82bf4:	f340 8082 	ble.w	82cfc <_vfiprintf_r+0x8dc>
   82bf8:	2a00      	cmp	r2, #0
   82bfa:	f040 8118 	bne.w	82e2e <_vfiprintf_r+0xa0e>
   82bfe:	9b02      	ldr	r3, [sp, #8]
   82c00:	9210      	str	r2, [sp, #64]	; 0x40
   82c02:	0758      	lsls	r0, r3, #29
   82c04:	d535      	bpl.n	82c72 <_vfiprintf_r+0x852>
   82c06:	9b08      	ldr	r3, [sp, #32]
   82c08:	9901      	ldr	r1, [sp, #4]
   82c0a:	1a5c      	subs	r4, r3, r1
   82c0c:	2c00      	cmp	r4, #0
   82c0e:	f340 80e7 	ble.w	82de0 <_vfiprintf_r+0x9c0>
   82c12:	46d1      	mov	r9, sl
   82c14:	2c10      	cmp	r4, #16
   82c16:	f340 820d 	ble.w	83034 <_vfiprintf_r+0xc14>
   82c1a:	2510      	movs	r5, #16
   82c1c:	9910      	ldr	r1, [sp, #64]	; 0x40
   82c1e:	4e8f      	ldr	r6, [pc, #572]	; (82e5c <_vfiprintf_r+0xa3c>)
   82c20:	9f06      	ldr	r7, [sp, #24]
   82c22:	f8dd b010 	ldr.w	fp, [sp, #16]
   82c26:	e006      	b.n	82c36 <_vfiprintf_r+0x816>
   82c28:	1c88      	adds	r0, r1, #2
   82c2a:	4619      	mov	r1, r3
   82c2c:	f109 0908 	add.w	r9, r9, #8
   82c30:	3c10      	subs	r4, #16
   82c32:	2c10      	cmp	r4, #16
   82c34:	dd11      	ble.n	82c5a <_vfiprintf_r+0x83a>
   82c36:	1c4b      	adds	r3, r1, #1
   82c38:	3210      	adds	r2, #16
   82c3a:	2b07      	cmp	r3, #7
   82c3c:	9211      	str	r2, [sp, #68]	; 0x44
   82c3e:	f8c9 6000 	str.w	r6, [r9]
   82c42:	f8c9 5004 	str.w	r5, [r9, #4]
   82c46:	9310      	str	r3, [sp, #64]	; 0x40
   82c48:	ddee      	ble.n	82c28 <_vfiprintf_r+0x808>
   82c4a:	bb42      	cbnz	r2, 82c9e <_vfiprintf_r+0x87e>
   82c4c:	3c10      	subs	r4, #16
   82c4e:	2c10      	cmp	r4, #16
   82c50:	f04f 0001 	mov.w	r0, #1
   82c54:	4611      	mov	r1, r2
   82c56:	46d1      	mov	r9, sl
   82c58:	dced      	bgt.n	82c36 <_vfiprintf_r+0x816>
   82c5a:	4422      	add	r2, r4
   82c5c:	2807      	cmp	r0, #7
   82c5e:	9211      	str	r2, [sp, #68]	; 0x44
   82c60:	f8c9 6000 	str.w	r6, [r9]
   82c64:	f8c9 4004 	str.w	r4, [r9, #4]
   82c68:	9010      	str	r0, [sp, #64]	; 0x40
   82c6a:	dd51      	ble.n	82d10 <_vfiprintf_r+0x8f0>
   82c6c:	2a00      	cmp	r2, #0
   82c6e:	f040 819a 	bne.w	82fa6 <_vfiprintf_r+0xb86>
   82c72:	9b03      	ldr	r3, [sp, #12]
   82c74:	9a08      	ldr	r2, [sp, #32]
   82c76:	9901      	ldr	r1, [sp, #4]
   82c78:	428a      	cmp	r2, r1
   82c7a:	bfac      	ite	ge
   82c7c:	189b      	addge	r3, r3, r2
   82c7e:	185b      	addlt	r3, r3, r1
   82c80:	9303      	str	r3, [sp, #12]
   82c82:	e04e      	b.n	82d22 <_vfiprintf_r+0x902>
   82c84:	aa0f      	add	r2, sp, #60	; 0x3c
   82c86:	4649      	mov	r1, r9
   82c88:	4638      	mov	r0, r7
   82c8a:	f7ff fb89 	bl	823a0 <__sprint_r.part.0>
   82c8e:	2800      	cmp	r0, #0
   82c90:	f040 813e 	bne.w	82f10 <_vfiprintf_r+0xaf0>
   82c94:	9910      	ldr	r1, [sp, #64]	; 0x40
   82c96:	46d6      	mov	lr, sl
   82c98:	9a11      	ldr	r2, [sp, #68]	; 0x44
   82c9a:	1c48      	adds	r0, r1, #1
   82c9c:	e77f      	b.n	82b9e <_vfiprintf_r+0x77e>
   82c9e:	aa0f      	add	r2, sp, #60	; 0x3c
   82ca0:	4659      	mov	r1, fp
   82ca2:	4638      	mov	r0, r7
   82ca4:	f7ff fb7c 	bl	823a0 <__sprint_r.part.0>
   82ca8:	b960      	cbnz	r0, 82cc4 <_vfiprintf_r+0x8a4>
   82caa:	9910      	ldr	r1, [sp, #64]	; 0x40
   82cac:	46d1      	mov	r9, sl
   82cae:	9a11      	ldr	r2, [sp, #68]	; 0x44
   82cb0:	1c48      	adds	r0, r1, #1
   82cb2:	e7bd      	b.n	82c30 <_vfiprintf_r+0x810>
   82cb4:	9b11      	ldr	r3, [sp, #68]	; 0x44
   82cb6:	f8dd b010 	ldr.w	fp, [sp, #16]
   82cba:	2b00      	cmp	r3, #0
   82cbc:	f040 81ca 	bne.w	83054 <_vfiprintf_r+0xc34>
   82cc0:	2300      	movs	r3, #0
   82cc2:	9310      	str	r3, [sp, #64]	; 0x40
   82cc4:	f8db 3064 	ldr.w	r3, [fp, #100]	; 0x64
   82cc8:	f013 0f01 	tst.w	r3, #1
   82ccc:	f8bb 300c 	ldrh.w	r3, [fp, #12]
   82cd0:	d102      	bne.n	82cd8 <_vfiprintf_r+0x8b8>
   82cd2:	059a      	lsls	r2, r3, #22
   82cd4:	f140 80dd 	bpl.w	82e92 <_vfiprintf_r+0xa72>
   82cd8:	065b      	lsls	r3, r3, #25
   82cda:	f53f acad 	bmi.w	82638 <_vfiprintf_r+0x218>
   82cde:	9803      	ldr	r0, [sp, #12]
   82ce0:	b02d      	add	sp, #180	; 0xb4
   82ce2:	e8bd 8ff0 	ldmia.w	sp!, {r4, r5, r6, r7, r8, r9, sl, fp, pc}
   82ce6:	2a00      	cmp	r2, #0
   82ce8:	f040 8105 	bne.w	82ef6 <_vfiprintf_r+0xad6>
   82cec:	2301      	movs	r3, #1
   82cee:	46d1      	mov	r9, sl
   82cf0:	9a05      	ldr	r2, [sp, #20]
   82cf2:	f8cd b070 	str.w	fp, [sp, #112]	; 0x70
   82cf6:	921d      	str	r2, [sp, #116]	; 0x74
   82cf8:	9211      	str	r2, [sp, #68]	; 0x44
   82cfa:	9310      	str	r3, [sp, #64]	; 0x40
   82cfc:	f109 0908 	add.w	r9, r9, #8
   82d00:	9b02      	ldr	r3, [sp, #8]
   82d02:	0759      	lsls	r1, r3, #29
   82d04:	d504      	bpl.n	82d10 <_vfiprintf_r+0x8f0>
   82d06:	9b08      	ldr	r3, [sp, #32]
   82d08:	9901      	ldr	r1, [sp, #4]
   82d0a:	1a5c      	subs	r4, r3, r1
   82d0c:	2c00      	cmp	r4, #0
   82d0e:	dc81      	bgt.n	82c14 <_vfiprintf_r+0x7f4>
   82d10:	9b03      	ldr	r3, [sp, #12]
   82d12:	9908      	ldr	r1, [sp, #32]
   82d14:	9801      	ldr	r0, [sp, #4]
   82d16:	4281      	cmp	r1, r0
   82d18:	bfac      	ite	ge
   82d1a:	185b      	addge	r3, r3, r1
   82d1c:	181b      	addlt	r3, r3, r0
   82d1e:	9303      	str	r3, [sp, #12]
   82d20:	bb72      	cbnz	r2, 82d80 <_vfiprintf_r+0x960>
   82d22:	2300      	movs	r3, #0
   82d24:	46d1      	mov	r9, sl
   82d26:	9310      	str	r3, [sp, #64]	; 0x40
   82d28:	f7ff bbb7 	b.w	8249a <_vfiprintf_r+0x7a>
   82d2c:	aa0f      	add	r2, sp, #60	; 0x3c
   82d2e:	9904      	ldr	r1, [sp, #16]
   82d30:	4620      	mov	r0, r4
   82d32:	f7ff fb35 	bl	823a0 <__sprint_r.part.0>
   82d36:	bb50      	cbnz	r0, 82d8e <_vfiprintf_r+0x96e>
   82d38:	9910      	ldr	r1, [sp, #64]	; 0x40
   82d3a:	46d4      	mov	ip, sl
   82d3c:	9a11      	ldr	r2, [sp, #68]	; 0x44
   82d3e:	f101 0e01 	add.w	lr, r1, #1
   82d42:	e54a      	b.n	827da <_vfiprintf_r+0x3ba>
   82d44:	2a00      	cmp	r2, #0
   82d46:	f47f aee5 	bne.w	82b14 <_vfiprintf_r+0x6f4>
   82d4a:	f89d 1037 	ldrb.w	r1, [sp, #55]	; 0x37
   82d4e:	2900      	cmp	r1, #0
   82d50:	f000 811a 	beq.w	82f88 <_vfiprintf_r+0xb68>
   82d54:	2201      	movs	r2, #1
   82d56:	46d1      	mov	r9, sl
   82d58:	4610      	mov	r0, r2
   82d5a:	f10d 0137 	add.w	r1, sp, #55	; 0x37
   82d5e:	921d      	str	r2, [sp, #116]	; 0x74
   82d60:	911c      	str	r1, [sp, #112]	; 0x70
   82d62:	4601      	mov	r1, r0
   82d64:	f109 0908 	add.w	r9, r9, #8
   82d68:	3001      	adds	r0, #1
   82d6a:	e508      	b.n	8277e <_vfiprintf_r+0x35e>
   82d6c:	9b02      	ldr	r3, [sp, #8]
   82d6e:	2a01      	cmp	r2, #1
   82d70:	f000 8097 	beq.w	82ea2 <_vfiprintf_r+0xa82>
   82d74:	2a02      	cmp	r2, #2
   82d76:	d10d      	bne.n	82d94 <_vfiprintf_r+0x974>
   82d78:	9302      	str	r3, [sp, #8]
   82d7a:	2600      	movs	r6, #0
   82d7c:	2700      	movs	r7, #0
   82d7e:	e5b2      	b.n	828e6 <_vfiprintf_r+0x4c6>
   82d80:	aa0f      	add	r2, sp, #60	; 0x3c
   82d82:	9904      	ldr	r1, [sp, #16]
   82d84:	9806      	ldr	r0, [sp, #24]
   82d86:	f7ff fb0b 	bl	823a0 <__sprint_r.part.0>
   82d8a:	2800      	cmp	r0, #0
   82d8c:	d0c9      	beq.n	82d22 <_vfiprintf_r+0x902>
   82d8e:	f8dd b010 	ldr.w	fp, [sp, #16]
   82d92:	e797      	b.n	82cc4 <_vfiprintf_r+0x8a4>
   82d94:	2600      	movs	r6, #0
   82d96:	2700      	movs	r7, #0
   82d98:	9302      	str	r3, [sp, #8]
   82d9a:	4651      	mov	r1, sl
   82d9c:	e000      	b.n	82da0 <_vfiprintf_r+0x980>
   82d9e:	4659      	mov	r1, fp
   82da0:	08f2      	lsrs	r2, r6, #3
   82da2:	ea42 7247 	orr.w	r2, r2, r7, lsl #29
   82da6:	08f8      	lsrs	r0, r7, #3
   82da8:	f006 0307 	and.w	r3, r6, #7
   82dac:	4607      	mov	r7, r0
   82dae:	4616      	mov	r6, r2
   82db0:	3330      	adds	r3, #48	; 0x30
   82db2:	ea56 0207 	orrs.w	r2, r6, r7
   82db6:	f801 3c01 	strb.w	r3, [r1, #-1]
   82dba:	f101 3bff 	add.w	fp, r1, #4294967295
   82dbe:	d1ee      	bne.n	82d9e <_vfiprintf_r+0x97e>
   82dc0:	9a02      	ldr	r2, [sp, #8]
   82dc2:	07d6      	lsls	r6, r2, #31
   82dc4:	f57f ad9f 	bpl.w	82906 <_vfiprintf_r+0x4e6>
   82dc8:	2b30      	cmp	r3, #48	; 0x30
   82dca:	f43f ad9c 	beq.w	82906 <_vfiprintf_r+0x4e6>
   82dce:	2330      	movs	r3, #48	; 0x30
   82dd0:	3902      	subs	r1, #2
   82dd2:	f80b 3c01 	strb.w	r3, [fp, #-1]
   82dd6:	ebaa 0301 	sub.w	r3, sl, r1
   82dda:	9305      	str	r3, [sp, #20]
   82ddc:	468b      	mov	fp, r1
   82dde:	e477      	b.n	826d0 <_vfiprintf_r+0x2b0>
   82de0:	9b03      	ldr	r3, [sp, #12]
   82de2:	9a08      	ldr	r2, [sp, #32]
   82de4:	428a      	cmp	r2, r1
   82de6:	bfac      	ite	ge
   82de8:	189b      	addge	r3, r3, r2
   82dea:	185b      	addlt	r3, r3, r1
   82dec:	9303      	str	r3, [sp, #12]
   82dee:	e798      	b.n	82d22 <_vfiprintf_r+0x902>
   82df0:	2202      	movs	r2, #2
   82df2:	e44e      	b.n	82692 <_vfiprintf_r+0x272>
   82df4:	2f00      	cmp	r7, #0
   82df6:	bf08      	it	eq
   82df8:	2e0a      	cmpeq	r6, #10
   82dfa:	d351      	bcc.n	82ea0 <_vfiprintf_r+0xa80>
   82dfc:	46d3      	mov	fp, sl
   82dfe:	4630      	mov	r0, r6
   82e00:	4639      	mov	r1, r7
   82e02:	220a      	movs	r2, #10
   82e04:	2300      	movs	r3, #0
   82e06:	f001 fe85 	bl	84b14 <__aeabi_uldivmod>
   82e0a:	3230      	adds	r2, #48	; 0x30
   82e0c:	f80b 2d01 	strb.w	r2, [fp, #-1]!
   82e10:	4630      	mov	r0, r6
   82e12:	4639      	mov	r1, r7
   82e14:	2300      	movs	r3, #0
   82e16:	220a      	movs	r2, #10
   82e18:	f001 fe7c 	bl	84b14 <__aeabi_uldivmod>
   82e1c:	4606      	mov	r6, r0
   82e1e:	460f      	mov	r7, r1
   82e20:	ea56 0307 	orrs.w	r3, r6, r7
   82e24:	d1eb      	bne.n	82dfe <_vfiprintf_r+0x9de>
   82e26:	e56e      	b.n	82906 <_vfiprintf_r+0x4e6>
   82e28:	9405      	str	r4, [sp, #20]
   82e2a:	46d3      	mov	fp, sl
   82e2c:	e450      	b.n	826d0 <_vfiprintf_r+0x2b0>
   82e2e:	aa0f      	add	r2, sp, #60	; 0x3c
   82e30:	9904      	ldr	r1, [sp, #16]
   82e32:	9806      	ldr	r0, [sp, #24]
   82e34:	f7ff fab4 	bl	823a0 <__sprint_r.part.0>
   82e38:	2800      	cmp	r0, #0
   82e3a:	d1a8      	bne.n	82d8e <_vfiprintf_r+0x96e>
   82e3c:	46d1      	mov	r9, sl
   82e3e:	9a11      	ldr	r2, [sp, #68]	; 0x44
   82e40:	e75e      	b.n	82d00 <_vfiprintf_r+0x8e0>
   82e42:	aa0f      	add	r2, sp, #60	; 0x3c
   82e44:	9904      	ldr	r1, [sp, #16]
   82e46:	9806      	ldr	r0, [sp, #24]
   82e48:	f7ff faaa 	bl	823a0 <__sprint_r.part.0>
   82e4c:	2800      	cmp	r0, #0
   82e4e:	d19e      	bne.n	82d8e <_vfiprintf_r+0x96e>
   82e50:	46d1      	mov	r9, sl
   82e52:	f7ff bbbb 	b.w	825cc <_vfiprintf_r+0x1ac>
   82e56:	bf00      	nop
   82e58:	00084f90 	.word	0x00084f90
   82e5c:	00084f80 	.word	0x00084f80
   82e60:	3104      	adds	r1, #4
   82e62:	6816      	ldr	r6, [r2, #0]
   82e64:	2700      	movs	r7, #0
   82e66:	2201      	movs	r2, #1
   82e68:	9107      	str	r1, [sp, #28]
   82e6a:	e412      	b.n	82692 <_vfiprintf_r+0x272>
   82e6c:	9807      	ldr	r0, [sp, #28]
   82e6e:	2700      	movs	r7, #0
   82e70:	4601      	mov	r1, r0
   82e72:	3104      	adds	r1, #4
   82e74:	6806      	ldr	r6, [r0, #0]
   82e76:	9107      	str	r1, [sp, #28]
   82e78:	e40b      	b.n	82692 <_vfiprintf_r+0x272>
   82e7a:	680e      	ldr	r6, [r1, #0]
   82e7c:	3104      	adds	r1, #4
   82e7e:	9107      	str	r1, [sp, #28]
   82e80:	2700      	movs	r7, #0
   82e82:	e592      	b.n	829aa <_vfiprintf_r+0x58a>
   82e84:	6816      	ldr	r6, [r2, #0]
   82e86:	3204      	adds	r2, #4
   82e88:	17f7      	asrs	r7, r6, #31
   82e8a:	9207      	str	r2, [sp, #28]
   82e8c:	4630      	mov	r0, r6
   82e8e:	4639      	mov	r1, r7
   82e90:	e512      	b.n	828b8 <_vfiprintf_r+0x498>
   82e92:	f8db 0058 	ldr.w	r0, [fp, #88]	; 0x58
   82e96:	f000 fe75 	bl	83b84 <__retarget_lock_release_recursive>
   82e9a:	f8bb 300c 	ldrh.w	r3, [fp, #12]
   82e9e:	e71b      	b.n	82cd8 <_vfiprintf_r+0x8b8>
   82ea0:	9b02      	ldr	r3, [sp, #8]
   82ea2:	9302      	str	r3, [sp, #8]
   82ea4:	2301      	movs	r3, #1
   82ea6:	f10d 0bb0 	add.w	fp, sp, #176	; 0xb0
   82eaa:	3630      	adds	r6, #48	; 0x30
   82eac:	f80b 6d41 	strb.w	r6, [fp, #-65]!
   82eb0:	9305      	str	r3, [sp, #20]
   82eb2:	e40d      	b.n	826d0 <_vfiprintf_r+0x2b0>
   82eb4:	aa0f      	add	r2, sp, #60	; 0x3c
   82eb6:	9904      	ldr	r1, [sp, #16]
   82eb8:	9806      	ldr	r0, [sp, #24]
   82eba:	f7ff fa71 	bl	823a0 <__sprint_r.part.0>
   82ebe:	2800      	cmp	r0, #0
   82ec0:	f47f af65 	bne.w	82d8e <_vfiprintf_r+0x96e>
   82ec4:	9910      	ldr	r1, [sp, #64]	; 0x40
   82ec6:	46d1      	mov	r9, sl
   82ec8:	9a11      	ldr	r2, [sp, #68]	; 0x44
   82eca:	1c48      	adds	r0, r1, #1
   82ecc:	e457      	b.n	8277e <_vfiprintf_r+0x35e>
   82ece:	aa0f      	add	r2, sp, #60	; 0x3c
   82ed0:	9904      	ldr	r1, [sp, #16]
   82ed2:	9806      	ldr	r0, [sp, #24]
   82ed4:	f7ff fa64 	bl	823a0 <__sprint_r.part.0>
   82ed8:	2800      	cmp	r0, #0
   82eda:	f47f af58 	bne.w	82d8e <_vfiprintf_r+0x96e>
   82ede:	9910      	ldr	r1, [sp, #64]	; 0x40
   82ee0:	46d1      	mov	r9, sl
   82ee2:	9a11      	ldr	r2, [sp, #68]	; 0x44
   82ee4:	1c48      	adds	r0, r1, #1
   82ee6:	e644      	b.n	82b72 <_vfiprintf_r+0x752>
   82ee8:	2a00      	cmp	r2, #0
   82eea:	f040 8087 	bne.w	82ffc <_vfiprintf_r+0xbdc>
   82eee:	2001      	movs	r0, #1
   82ef0:	4611      	mov	r1, r2
   82ef2:	46d1      	mov	r9, sl
   82ef4:	e641      	b.n	82b7a <_vfiprintf_r+0x75a>
   82ef6:	aa0f      	add	r2, sp, #60	; 0x3c
   82ef8:	9904      	ldr	r1, [sp, #16]
   82efa:	9806      	ldr	r0, [sp, #24]
   82efc:	f7ff fa50 	bl	823a0 <__sprint_r.part.0>
   82f00:	2800      	cmp	r0, #0
   82f02:	f47f af44 	bne.w	82d8e <_vfiprintf_r+0x96e>
   82f06:	9810      	ldr	r0, [sp, #64]	; 0x40
   82f08:	46d1      	mov	r9, sl
   82f0a:	9a11      	ldr	r2, [sp, #68]	; 0x44
   82f0c:	3001      	adds	r0, #1
   82f0e:	e668      	b.n	82be2 <_vfiprintf_r+0x7c2>
   82f10:	46cb      	mov	fp, r9
   82f12:	e6d7      	b.n	82cc4 <_vfiprintf_r+0x8a4>
   82f14:	9d07      	ldr	r5, [sp, #28]
   82f16:	3507      	adds	r5, #7
   82f18:	f025 0507 	bic.w	r5, r5, #7
   82f1c:	f105 0208 	add.w	r2, r5, #8
   82f20:	e9d5 0100 	ldrd	r0, r1, [r5]
   82f24:	9207      	str	r2, [sp, #28]
   82f26:	4606      	mov	r6, r0
   82f28:	460f      	mov	r7, r1
   82f2a:	e4c5      	b.n	828b8 <_vfiprintf_r+0x498>
   82f2c:	9d07      	ldr	r5, [sp, #28]
   82f2e:	3507      	adds	r5, #7
   82f30:	f025 0207 	bic.w	r2, r5, #7
   82f34:	f102 0108 	add.w	r1, r2, #8
   82f38:	e9d2 6700 	ldrd	r6, r7, [r2]
   82f3c:	9107      	str	r1, [sp, #28]
   82f3e:	2201      	movs	r2, #1
   82f40:	f7ff bba7 	b.w	82692 <_vfiprintf_r+0x272>
   82f44:	9d07      	ldr	r5, [sp, #28]
   82f46:	3507      	adds	r5, #7
   82f48:	f025 0207 	bic.w	r2, r5, #7
   82f4c:	f102 0108 	add.w	r1, r2, #8
   82f50:	e9d2 6700 	ldrd	r6, r7, [r2]
   82f54:	9107      	str	r1, [sp, #28]
   82f56:	2200      	movs	r2, #0
   82f58:	f7ff bb9b 	b.w	82692 <_vfiprintf_r+0x272>
   82f5c:	9d07      	ldr	r5, [sp, #28]
   82f5e:	3507      	adds	r5, #7
   82f60:	f025 0107 	bic.w	r1, r5, #7
   82f64:	f101 0008 	add.w	r0, r1, #8
   82f68:	9007      	str	r0, [sp, #28]
   82f6a:	e9d1 6700 	ldrd	r6, r7, [r1]
   82f6e:	e51c      	b.n	829aa <_vfiprintf_r+0x58a>
   82f70:	46d3      	mov	fp, sl
   82f72:	f7ff bbad 	b.w	826d0 <_vfiprintf_r+0x2b0>
   82f76:	252d      	movs	r5, #45	; 0x2d
   82f78:	4276      	negs	r6, r6
   82f7a:	eb67 0747 	sbc.w	r7, r7, r7, lsl #1
   82f7e:	f88d 5037 	strb.w	r5, [sp, #55]	; 0x37
   82f82:	2201      	movs	r2, #1
   82f84:	f7ff bb8a 	b.w	8269c <_vfiprintf_r+0x27c>
   82f88:	9b09      	ldr	r3, [sp, #36]	; 0x24
   82f8a:	b9b3      	cbnz	r3, 82fba <_vfiprintf_r+0xb9a>
   82f8c:	4611      	mov	r1, r2
   82f8e:	2001      	movs	r0, #1
   82f90:	46d1      	mov	r9, sl
   82f92:	e5f2      	b.n	82b7a <_vfiprintf_r+0x75a>
   82f94:	f8db 0058 	ldr.w	r0, [fp, #88]	; 0x58
   82f98:	f000 fdf4 	bl	83b84 <__retarget_lock_release_recursive>
   82f9c:	f04f 33ff 	mov.w	r3, #4294967295
   82fa0:	9303      	str	r3, [sp, #12]
   82fa2:	f7ff bb4c 	b.w	8263e <_vfiprintf_r+0x21e>
   82fa6:	aa0f      	add	r2, sp, #60	; 0x3c
   82fa8:	9904      	ldr	r1, [sp, #16]
   82faa:	9806      	ldr	r0, [sp, #24]
   82fac:	f7ff f9f8 	bl	823a0 <__sprint_r.part.0>
   82fb0:	2800      	cmp	r0, #0
   82fb2:	f47f aeec 	bne.w	82d8e <_vfiprintf_r+0x96e>
   82fb6:	9a11      	ldr	r2, [sp, #68]	; 0x44
   82fb8:	e6aa      	b.n	82d10 <_vfiprintf_r+0x8f0>
   82fba:	2202      	movs	r2, #2
   82fbc:	ab0e      	add	r3, sp, #56	; 0x38
   82fbe:	921d      	str	r2, [sp, #116]	; 0x74
   82fc0:	931c      	str	r3, [sp, #112]	; 0x70
   82fc2:	2001      	movs	r0, #1
   82fc4:	46d1      	mov	r9, sl
   82fc6:	e5d0      	b.n	82b6a <_vfiprintf_r+0x74a>
   82fc8:	4d34      	ldr	r5, [pc, #208]	; (8309c <_vfiprintf_r+0xc7c>)
   82fca:	e5fd      	b.n	82bc8 <_vfiprintf_r+0x7a8>
   82fcc:	9a07      	ldr	r2, [sp, #28]
   82fce:	4613      	mov	r3, r2
   82fd0:	3304      	adds	r3, #4
   82fd2:	9307      	str	r3, [sp, #28]
   82fd4:	9b03      	ldr	r3, [sp, #12]
   82fd6:	6811      	ldr	r1, [r2, #0]
   82fd8:	17dd      	asrs	r5, r3, #31
   82fda:	461a      	mov	r2, r3
   82fdc:	462b      	mov	r3, r5
   82fde:	e9c1 2300 	strd	r2, r3, [r1]
   82fe2:	f7ff ba5a 	b.w	8249a <_vfiprintf_r+0x7a>
   82fe6:	4658      	mov	r0, fp
   82fe8:	9507      	str	r5, [sp, #28]
   82fea:	9302      	str	r3, [sp, #8]
   82fec:	f7ff f9aa 	bl	82344 <strlen>
   82ff0:	2400      	movs	r4, #0
   82ff2:	9005      	str	r0, [sp, #20]
   82ff4:	f89d 5037 	ldrb.w	r5, [sp, #55]	; 0x37
   82ff8:	f7ff bb6a 	b.w	826d0 <_vfiprintf_r+0x2b0>
   82ffc:	aa0f      	add	r2, sp, #60	; 0x3c
   82ffe:	9904      	ldr	r1, [sp, #16]
   83000:	9806      	ldr	r0, [sp, #24]
   83002:	f7ff f9cd 	bl	823a0 <__sprint_r.part.0>
   83006:	2800      	cmp	r0, #0
   83008:	f47f aec1 	bne.w	82d8e <_vfiprintf_r+0x96e>
   8300c:	9910      	ldr	r1, [sp, #64]	; 0x40
   8300e:	46d1      	mov	r9, sl
   83010:	9a11      	ldr	r2, [sp, #68]	; 0x44
   83012:	1c48      	adds	r0, r1, #1
   83014:	e5b1      	b.n	82b7a <_vfiprintf_r+0x75a>
   83016:	9910      	ldr	r1, [sp, #64]	; 0x40
   83018:	9a11      	ldr	r2, [sp, #68]	; 0x44
   8301a:	3101      	adds	r1, #1
   8301c:	4e20      	ldr	r6, [pc, #128]	; (830a0 <_vfiprintf_r+0xc80>)
   8301e:	f7ff bb9c 	b.w	8275a <_vfiprintf_r+0x33a>
   83022:	2c06      	cmp	r4, #6
   83024:	bf28      	it	cs
   83026:	2406      	movcs	r4, #6
   83028:	9507      	str	r5, [sp, #28]
   8302a:	9405      	str	r4, [sp, #20]
   8302c:	9401      	str	r4, [sp, #4]
   8302e:	f8df b074 	ldr.w	fp, [pc, #116]	; 830a4 <_vfiprintf_r+0xc84>
   83032:	e4e3      	b.n	829fc <_vfiprintf_r+0x5dc>
   83034:	9810      	ldr	r0, [sp, #64]	; 0x40
   83036:	4e1a      	ldr	r6, [pc, #104]	; (830a0 <_vfiprintf_r+0xc80>)
   83038:	3001      	adds	r0, #1
   8303a:	e60e      	b.n	82c5a <_vfiprintf_r+0x83a>
   8303c:	4686      	mov	lr, r0
   8303e:	4d17      	ldr	r5, [pc, #92]	; (8309c <_vfiprintf_r+0xc7c>)
   83040:	f7ff bbe2 	b.w	82808 <_vfiprintf_r+0x3e8>
   83044:	9405      	str	r4, [sp, #20]
   83046:	9507      	str	r5, [sp, #28]
   83048:	9302      	str	r3, [sp, #8]
   8304a:	4604      	mov	r4, r0
   8304c:	f89d 5037 	ldrb.w	r5, [sp, #55]	; 0x37
   83050:	f7ff bb3e 	b.w	826d0 <_vfiprintf_r+0x2b0>
   83054:	9806      	ldr	r0, [sp, #24]
   83056:	aa0f      	add	r2, sp, #60	; 0x3c
   83058:	4659      	mov	r1, fp
   8305a:	f7ff f9a1 	bl	823a0 <__sprint_r.part.0>
   8305e:	2800      	cmp	r0, #0
   83060:	f43f ae2e 	beq.w	82cc0 <_vfiprintf_r+0x8a0>
   83064:	e62e      	b.n	82cc4 <_vfiprintf_r+0x8a4>
   83066:	9907      	ldr	r1, [sp, #28]
   83068:	f898 2001 	ldrb.w	r2, [r8, #1]
   8306c:	680c      	ldr	r4, [r1, #0]
   8306e:	3104      	adds	r1, #4
   83070:	ea44 74e4 	orr.w	r4, r4, r4, asr #31
   83074:	46b8      	mov	r8, r7
   83076:	9107      	str	r1, [sp, #28]
   83078:	f7ff ba44 	b.w	82504 <_vfiprintf_r+0xe4>
   8307c:	f88d 6037 	strb.w	r6, [sp, #55]	; 0x37
   83080:	e4a7      	b.n	829d2 <_vfiprintf_r+0x5b2>
   83082:	f88d 6037 	strb.w	r6, [sp, #55]	; 0x37
   83086:	e521      	b.n	82acc <_vfiprintf_r+0x6ac>
   83088:	f88d 6037 	strb.w	r6, [sp, #55]	; 0x37
   8308c:	e47c      	b.n	82988 <_vfiprintf_r+0x568>
   8308e:	f88d 6037 	strb.w	r6, [sp, #55]	; 0x37
   83092:	e43f      	b.n	82914 <_vfiprintf_r+0x4f4>
   83094:	f88d 6037 	strb.w	r6, [sp, #55]	; 0x37
   83098:	f7ff bbfa 	b.w	82890 <_vfiprintf_r+0x470>
   8309c:	00084f90 	.word	0x00084f90
   830a0:	00084f80 	.word	0x00084f80
   830a4:	00084f78 	.word	0x00084f78

000830a8 <__sbprintf>:
   830a8:	e92d 41f0 	stmdb	sp!, {r4, r5, r6, r7, r8, lr}
   830ac:	460c      	mov	r4, r1
   830ae:	f04f 0e00 	mov.w	lr, #0
   830b2:	f44f 6580 	mov.w	r5, #1024	; 0x400
   830b6:	4606      	mov	r6, r0
   830b8:	4617      	mov	r7, r2
   830ba:	4698      	mov	r8, r3
   830bc:	6e62      	ldr	r2, [r4, #100]	; 0x64
   830be:	89e3      	ldrh	r3, [r4, #14]
   830c0:	8989      	ldrh	r1, [r1, #12]
   830c2:	f5ad 6d8d 	sub.w	sp, sp, #1128	; 0x468
   830c6:	f021 0102 	bic.w	r1, r1, #2
   830ca:	9219      	str	r2, [sp, #100]	; 0x64
   830cc:	f8ad 300e 	strh.w	r3, [sp, #14]
   830d0:	69e2      	ldr	r2, [r4, #28]
   830d2:	6a63      	ldr	r3, [r4, #36]	; 0x24
   830d4:	f8ad 100c 	strh.w	r1, [sp, #12]
   830d8:	a816      	add	r0, sp, #88	; 0x58
   830da:	a91a      	add	r1, sp, #104	; 0x68
   830dc:	f8cd e018 	str.w	lr, [sp, #24]
   830e0:	9207      	str	r2, [sp, #28]
   830e2:	9309      	str	r3, [sp, #36]	; 0x24
   830e4:	9100      	str	r1, [sp, #0]
   830e6:	9104      	str	r1, [sp, #16]
   830e8:	9502      	str	r5, [sp, #8]
   830ea:	9505      	str	r5, [sp, #20]
   830ec:	f000 fd44 	bl	83b78 <__retarget_lock_init_recursive>
   830f0:	4643      	mov	r3, r8
   830f2:	463a      	mov	r2, r7
   830f4:	4669      	mov	r1, sp
   830f6:	4630      	mov	r0, r6
   830f8:	f7ff f992 	bl	82420 <_vfiprintf_r>
   830fc:	1e05      	subs	r5, r0, #0
   830fe:	db07      	blt.n	83110 <__sbprintf+0x68>
   83100:	4630      	mov	r0, r6
   83102:	4669      	mov	r1, sp
   83104:	f000 f924 	bl	83350 <_fflush_r>
   83108:	2800      	cmp	r0, #0
   8310a:	bf18      	it	ne
   8310c:	f04f 35ff 	movne.w	r5, #4294967295
   83110:	f8bd 300c 	ldrh.w	r3, [sp, #12]
   83114:	065b      	lsls	r3, r3, #25
   83116:	d503      	bpl.n	83120 <__sbprintf+0x78>
   83118:	89a3      	ldrh	r3, [r4, #12]
   8311a:	f043 0340 	orr.w	r3, r3, #64	; 0x40
   8311e:	81a3      	strh	r3, [r4, #12]
   83120:	9816      	ldr	r0, [sp, #88]	; 0x58
   83122:	f000 fd2b 	bl	83b7c <__retarget_lock_close_recursive>
   83126:	4628      	mov	r0, r5
   83128:	f50d 6d8d 	add.w	sp, sp, #1128	; 0x468
   8312c:	e8bd 81f0 	ldmia.w	sp!, {r4, r5, r6, r7, r8, pc}

00083130 <__swsetup_r>:
   83130:	b538      	push	{r3, r4, r5, lr}
   83132:	4b30      	ldr	r3, [pc, #192]	; (831f4 <__swsetup_r+0xc4>)
   83134:	4605      	mov	r5, r0
   83136:	6818      	ldr	r0, [r3, #0]
   83138:	460c      	mov	r4, r1
   8313a:	b110      	cbz	r0, 83142 <__swsetup_r+0x12>
   8313c:	6b83      	ldr	r3, [r0, #56]	; 0x38
   8313e:	2b00      	cmp	r3, #0
   83140:	d038      	beq.n	831b4 <__swsetup_r+0x84>
   83142:	f9b4 200c 	ldrsh.w	r2, [r4, #12]
   83146:	b293      	uxth	r3, r2
   83148:	0718      	lsls	r0, r3, #28
   8314a:	d50c      	bpl.n	83166 <__swsetup_r+0x36>
   8314c:	6920      	ldr	r0, [r4, #16]
   8314e:	b1a8      	cbz	r0, 8317c <__swsetup_r+0x4c>
   83150:	f013 0201 	ands.w	r2, r3, #1
   83154:	d01e      	beq.n	83194 <__swsetup_r+0x64>
   83156:	2200      	movs	r2, #0
   83158:	6963      	ldr	r3, [r4, #20]
   8315a:	60a2      	str	r2, [r4, #8]
   8315c:	425b      	negs	r3, r3
   8315e:	61a3      	str	r3, [r4, #24]
   83160:	b1f0      	cbz	r0, 831a0 <__swsetup_r+0x70>
   83162:	2000      	movs	r0, #0
   83164:	bd38      	pop	{r3, r4, r5, pc}
   83166:	06d9      	lsls	r1, r3, #27
   83168:	d53b      	bpl.n	831e2 <__swsetup_r+0xb2>
   8316a:	0758      	lsls	r0, r3, #29
   8316c:	d425      	bmi.n	831ba <__swsetup_r+0x8a>
   8316e:	6920      	ldr	r0, [r4, #16]
   83170:	f042 0308 	orr.w	r3, r2, #8
   83174:	81a3      	strh	r3, [r4, #12]
   83176:	b29b      	uxth	r3, r3
   83178:	2800      	cmp	r0, #0
   8317a:	d1e9      	bne.n	83150 <__swsetup_r+0x20>
   8317c:	f403 7220 	and.w	r2, r3, #640	; 0x280
   83180:	f5b2 7f00 	cmp.w	r2, #512	; 0x200
   83184:	d0e4      	beq.n	83150 <__swsetup_r+0x20>
   83186:	4628      	mov	r0, r5
   83188:	4621      	mov	r1, r4
   8318a:	f000 fd2b 	bl	83be4 <__smakebuf_r>
   8318e:	89a3      	ldrh	r3, [r4, #12]
   83190:	6920      	ldr	r0, [r4, #16]
   83192:	e7dd      	b.n	83150 <__swsetup_r+0x20>
   83194:	0799      	lsls	r1, r3, #30
   83196:	bf58      	it	pl
   83198:	6962      	ldrpl	r2, [r4, #20]
   8319a:	60a2      	str	r2, [r4, #8]
   8319c:	2800      	cmp	r0, #0
   8319e:	d1e0      	bne.n	83162 <__swsetup_r+0x32>
   831a0:	f9b4 300c 	ldrsh.w	r3, [r4, #12]
   831a4:	061a      	lsls	r2, r3, #24
   831a6:	d5dd      	bpl.n	83164 <__swsetup_r+0x34>
   831a8:	f043 0340 	orr.w	r3, r3, #64	; 0x40
   831ac:	81a3      	strh	r3, [r4, #12]
   831ae:	f04f 30ff 	mov.w	r0, #4294967295
   831b2:	bd38      	pop	{r3, r4, r5, pc}
   831b4:	f000 f924 	bl	83400 <__sinit>
   831b8:	e7c3      	b.n	83142 <__swsetup_r+0x12>
   831ba:	6b21      	ldr	r1, [r4, #48]	; 0x30
   831bc:	b151      	cbz	r1, 831d4 <__swsetup_r+0xa4>
   831be:	f104 0340 	add.w	r3, r4, #64	; 0x40
   831c2:	4299      	cmp	r1, r3
   831c4:	d004      	beq.n	831d0 <__swsetup_r+0xa0>
   831c6:	4628      	mov	r0, r5
   831c8:	f000 fa40 	bl	8364c <_free_r>
   831cc:	f9b4 200c 	ldrsh.w	r2, [r4, #12]
   831d0:	2300      	movs	r3, #0
   831d2:	6323      	str	r3, [r4, #48]	; 0x30
   831d4:	2300      	movs	r3, #0
   831d6:	6920      	ldr	r0, [r4, #16]
   831d8:	f022 0224 	bic.w	r2, r2, #36	; 0x24
   831dc:	e884 0009 	stmia.w	r4, {r0, r3}
   831e0:	e7c6      	b.n	83170 <__swsetup_r+0x40>
   831e2:	2309      	movs	r3, #9
   831e4:	f042 0240 	orr.w	r2, r2, #64	; 0x40
   831e8:	602b      	str	r3, [r5, #0]
   831ea:	f04f 30ff 	mov.w	r0, #4294967295
   831ee:	81a2      	strh	r2, [r4, #12]
   831f0:	bd38      	pop	{r3, r4, r5, pc}
   831f2:	bf00      	nop
   831f4:	200700f4 	.word	0x200700f4

000831f8 <register_fini>:
   831f8:	4b02      	ldr	r3, [pc, #8]	; (83204 <register_fini+0xc>)
   831fa:	b113      	cbz	r3, 83202 <register_fini+0xa>
   831fc:	4802      	ldr	r0, [pc, #8]	; (83208 <register_fini+0x10>)
   831fe:	f000 b805 	b.w	8320c <atexit>
   83202:	4770      	bx	lr
   83204:	00000000 	.word	0x00000000
   83208:	00083479 	.word	0x00083479

0008320c <atexit>:
   8320c:	2300      	movs	r3, #0
   8320e:	4601      	mov	r1, r0
   83210:	461a      	mov	r2, r3
   83212:	4618      	mov	r0, r3
   83214:	f001 bb56 	b.w	848c4 <__register_exitproc>

00083218 <__sflush_r>:
   83218:	f9b1 300c 	ldrsh.w	r3, [r1, #12]
   8321c:	e92d 41f0 	stmdb	sp!, {r4, r5, r6, r7, r8, lr}
   83220:	b29a      	uxth	r2, r3
   83222:	460d      	mov	r5, r1
   83224:	0711      	lsls	r1, r2, #28
   83226:	4680      	mov	r8, r0
   83228:	d43a      	bmi.n	832a0 <__sflush_r+0x88>
   8322a:	686a      	ldr	r2, [r5, #4]
   8322c:	f443 6300 	orr.w	r3, r3, #2048	; 0x800
   83230:	2a00      	cmp	r2, #0
   83232:	81ab      	strh	r3, [r5, #12]
   83234:	dd70      	ble.n	83318 <__sflush_r+0x100>
   83236:	6aac      	ldr	r4, [r5, #40]	; 0x28
   83238:	2c00      	cmp	r4, #0
   8323a:	d04a      	beq.n	832d2 <__sflush_r+0xba>
   8323c:	2200      	movs	r2, #0
   8323e:	b29b      	uxth	r3, r3
   83240:	f8d8 6000 	ldr.w	r6, [r8]
   83244:	f8c8 2000 	str.w	r2, [r8]
   83248:	f413 5280 	ands.w	r2, r3, #4096	; 0x1000
   8324c:	d068      	beq.n	83320 <__sflush_r+0x108>
   8324e:	6d2a      	ldr	r2, [r5, #80]	; 0x50
   83250:	075f      	lsls	r7, r3, #29
   83252:	d505      	bpl.n	83260 <__sflush_r+0x48>
   83254:	6869      	ldr	r1, [r5, #4]
   83256:	6b2b      	ldr	r3, [r5, #48]	; 0x30
   83258:	1a52      	subs	r2, r2, r1
   8325a:	b10b      	cbz	r3, 83260 <__sflush_r+0x48>
   8325c:	6beb      	ldr	r3, [r5, #60]	; 0x3c
   8325e:	1ad2      	subs	r2, r2, r3
   83260:	2300      	movs	r3, #0
   83262:	69e9      	ldr	r1, [r5, #28]
   83264:	4640      	mov	r0, r8
   83266:	47a0      	blx	r4
   83268:	1c44      	adds	r4, r0, #1
   8326a:	d03d      	beq.n	832e8 <__sflush_r+0xd0>
   8326c:	2100      	movs	r1, #0
   8326e:	f9b5 300c 	ldrsh.w	r3, [r5, #12]
   83272:	692a      	ldr	r2, [r5, #16]
   83274:	f423 6300 	bic.w	r3, r3, #2048	; 0x800
   83278:	81ab      	strh	r3, [r5, #12]
   8327a:	04db      	lsls	r3, r3, #19
   8327c:	6069      	str	r1, [r5, #4]
   8327e:	602a      	str	r2, [r5, #0]
   83280:	d448      	bmi.n	83314 <__sflush_r+0xfc>
   83282:	6b29      	ldr	r1, [r5, #48]	; 0x30
   83284:	f8c8 6000 	str.w	r6, [r8]
   83288:	b319      	cbz	r1, 832d2 <__sflush_r+0xba>
   8328a:	f105 0340 	add.w	r3, r5, #64	; 0x40
   8328e:	4299      	cmp	r1, r3
   83290:	d002      	beq.n	83298 <__sflush_r+0x80>
   83292:	4640      	mov	r0, r8
   83294:	f000 f9da 	bl	8364c <_free_r>
   83298:	2000      	movs	r0, #0
   8329a:	6328      	str	r0, [r5, #48]	; 0x30
   8329c:	e8bd 81f0 	ldmia.w	sp!, {r4, r5, r6, r7, r8, pc}
   832a0:	692e      	ldr	r6, [r5, #16]
   832a2:	b1b6      	cbz	r6, 832d2 <__sflush_r+0xba>
   832a4:	0791      	lsls	r1, r2, #30
   832a6:	bf18      	it	ne
   832a8:	2300      	movne	r3, #0
   832aa:	682c      	ldr	r4, [r5, #0]
   832ac:	bf08      	it	eq
   832ae:	696b      	ldreq	r3, [r5, #20]
   832b0:	602e      	str	r6, [r5, #0]
   832b2:	1ba4      	subs	r4, r4, r6
   832b4:	60ab      	str	r3, [r5, #8]
   832b6:	e00a      	b.n	832ce <__sflush_r+0xb6>
   832b8:	4623      	mov	r3, r4
   832ba:	4632      	mov	r2, r6
   832bc:	6a6f      	ldr	r7, [r5, #36]	; 0x24
   832be:	69e9      	ldr	r1, [r5, #28]
   832c0:	4640      	mov	r0, r8
   832c2:	47b8      	blx	r7
   832c4:	2800      	cmp	r0, #0
   832c6:	eba4 0400 	sub.w	r4, r4, r0
   832ca:	4406      	add	r6, r0
   832cc:	dd04      	ble.n	832d8 <__sflush_r+0xc0>
   832ce:	2c00      	cmp	r4, #0
   832d0:	dcf2      	bgt.n	832b8 <__sflush_r+0xa0>
   832d2:	2000      	movs	r0, #0
   832d4:	e8bd 81f0 	ldmia.w	sp!, {r4, r5, r6, r7, r8, pc}
   832d8:	89ab      	ldrh	r3, [r5, #12]
   832da:	f04f 30ff 	mov.w	r0, #4294967295
   832de:	f043 0340 	orr.w	r3, r3, #64	; 0x40
   832e2:	81ab      	strh	r3, [r5, #12]
   832e4:	e8bd 81f0 	ldmia.w	sp!, {r4, r5, r6, r7, r8, pc}
   832e8:	f8d8 4000 	ldr.w	r4, [r8]
   832ec:	2c1d      	cmp	r4, #29
   832ee:	d8f3      	bhi.n	832d8 <__sflush_r+0xc0>
   832f0:	4b16      	ldr	r3, [pc, #88]	; (8334c <__sflush_r+0x134>)
   832f2:	40e3      	lsrs	r3, r4
   832f4:	43db      	mvns	r3, r3
   832f6:	f013 0301 	ands.w	r3, r3, #1
   832fa:	d1ed      	bne.n	832d8 <__sflush_r+0xc0>
   832fc:	f9b5 200c 	ldrsh.w	r2, [r5, #12]
   83300:	6929      	ldr	r1, [r5, #16]
   83302:	f422 6200 	bic.w	r2, r2, #2048	; 0x800
   83306:	81aa      	strh	r2, [r5, #12]
   83308:	04d2      	lsls	r2, r2, #19
   8330a:	606b      	str	r3, [r5, #4]
   8330c:	6029      	str	r1, [r5, #0]
   8330e:	d5b8      	bpl.n	83282 <__sflush_r+0x6a>
   83310:	2c00      	cmp	r4, #0
   83312:	d1b6      	bne.n	83282 <__sflush_r+0x6a>
   83314:	6528      	str	r0, [r5, #80]	; 0x50
   83316:	e7b4      	b.n	83282 <__sflush_r+0x6a>
   83318:	6bea      	ldr	r2, [r5, #60]	; 0x3c
   8331a:	2a00      	cmp	r2, #0
   8331c:	dc8b      	bgt.n	83236 <__sflush_r+0x1e>
   8331e:	e7d8      	b.n	832d2 <__sflush_r+0xba>
   83320:	2301      	movs	r3, #1
   83322:	69e9      	ldr	r1, [r5, #28]
   83324:	4640      	mov	r0, r8
   83326:	47a0      	blx	r4
   83328:	1c43      	adds	r3, r0, #1
   8332a:	4602      	mov	r2, r0
   8332c:	d002      	beq.n	83334 <__sflush_r+0x11c>
   8332e:	89ab      	ldrh	r3, [r5, #12]
   83330:	6aac      	ldr	r4, [r5, #40]	; 0x28
   83332:	e78d      	b.n	83250 <__sflush_r+0x38>
   83334:	f8d8 3000 	ldr.w	r3, [r8]
   83338:	2b00      	cmp	r3, #0
   8333a:	d0f8      	beq.n	8332e <__sflush_r+0x116>
   8333c:	2b1d      	cmp	r3, #29
   8333e:	d001      	beq.n	83344 <__sflush_r+0x12c>
   83340:	2b16      	cmp	r3, #22
   83342:	d1c9      	bne.n	832d8 <__sflush_r+0xc0>
   83344:	f8c8 6000 	str.w	r6, [r8]
   83348:	e7c3      	b.n	832d2 <__sflush_r+0xba>
   8334a:	bf00      	nop
   8334c:	20400001 	.word	0x20400001

00083350 <_fflush_r>:
   83350:	b538      	push	{r3, r4, r5, lr}
   83352:	460d      	mov	r5, r1
   83354:	4604      	mov	r4, r0
   83356:	b108      	cbz	r0, 8335c <_fflush_r+0xc>
   83358:	6b83      	ldr	r3, [r0, #56]	; 0x38
   8335a:	b1bb      	cbz	r3, 8338c <_fflush_r+0x3c>
   8335c:	f9b5 000c 	ldrsh.w	r0, [r5, #12]
   83360:	b188      	cbz	r0, 83386 <_fflush_r+0x36>
   83362:	6e6b      	ldr	r3, [r5, #100]	; 0x64
   83364:	07db      	lsls	r3, r3, #31
   83366:	d401      	bmi.n	8336c <_fflush_r+0x1c>
   83368:	0581      	lsls	r1, r0, #22
   8336a:	d517      	bpl.n	8339c <_fflush_r+0x4c>
   8336c:	4620      	mov	r0, r4
   8336e:	4629      	mov	r1, r5
   83370:	f7ff ff52 	bl	83218 <__sflush_r>
   83374:	6e6b      	ldr	r3, [r5, #100]	; 0x64
   83376:	4604      	mov	r4, r0
   83378:	07da      	lsls	r2, r3, #31
   8337a:	d402      	bmi.n	83382 <_fflush_r+0x32>
   8337c:	89ab      	ldrh	r3, [r5, #12]
   8337e:	059b      	lsls	r3, r3, #22
   83380:	d507      	bpl.n	83392 <_fflush_r+0x42>
   83382:	4620      	mov	r0, r4
   83384:	bd38      	pop	{r3, r4, r5, pc}
   83386:	4604      	mov	r4, r0
   83388:	4620      	mov	r0, r4
   8338a:	bd38      	pop	{r3, r4, r5, pc}
   8338c:	f000 f838 	bl	83400 <__sinit>
   83390:	e7e4      	b.n	8335c <_fflush_r+0xc>
   83392:	6da8      	ldr	r0, [r5, #88]	; 0x58
   83394:	f000 fbf6 	bl	83b84 <__retarget_lock_release_recursive>
   83398:	4620      	mov	r0, r4
   8339a:	bd38      	pop	{r3, r4, r5, pc}
   8339c:	6da8      	ldr	r0, [r5, #88]	; 0x58
   8339e:	f000 fbef 	bl	83b80 <__retarget_lock_acquire_recursive>
   833a2:	e7e3      	b.n	8336c <_fflush_r+0x1c>

000833a4 <_cleanup_r>:
   833a4:	4901      	ldr	r1, [pc, #4]	; (833ac <_cleanup_r+0x8>)
   833a6:	f000 bbb1 	b.w	83b0c <_fwalk_reent>
   833aa:	bf00      	nop
   833ac:	000849ad 	.word	0x000849ad

000833b0 <std.isra.0>:
   833b0:	2300      	movs	r3, #0
   833b2:	b510      	push	{r4, lr}
   833b4:	4604      	mov	r4, r0
   833b6:	8181      	strh	r1, [r0, #12]
   833b8:	81c2      	strh	r2, [r0, #14]
   833ba:	6003      	str	r3, [r0, #0]
   833bc:	6043      	str	r3, [r0, #4]
   833be:	6083      	str	r3, [r0, #8]
   833c0:	6643      	str	r3, [r0, #100]	; 0x64
   833c2:	6103      	str	r3, [r0, #16]
   833c4:	6143      	str	r3, [r0, #20]
   833c6:	6183      	str	r3, [r0, #24]
   833c8:	4619      	mov	r1, r3
   833ca:	2208      	movs	r2, #8
   833cc:	305c      	adds	r0, #92	; 0x5c
   833ce:	f7fe fe9b 	bl	82108 <memset>
   833d2:	4807      	ldr	r0, [pc, #28]	; (833f0 <std.isra.0+0x40>)
   833d4:	4907      	ldr	r1, [pc, #28]	; (833f4 <std.isra.0+0x44>)
   833d6:	4a08      	ldr	r2, [pc, #32]	; (833f8 <std.isra.0+0x48>)
   833d8:	4b08      	ldr	r3, [pc, #32]	; (833fc <std.isra.0+0x4c>)
   833da:	6220      	str	r0, [r4, #32]
   833dc:	61e4      	str	r4, [r4, #28]
   833de:	6261      	str	r1, [r4, #36]	; 0x24
   833e0:	62a2      	str	r2, [r4, #40]	; 0x28
   833e2:	62e3      	str	r3, [r4, #44]	; 0x2c
   833e4:	f104 0058 	add.w	r0, r4, #88	; 0x58
   833e8:	e8bd 4010 	ldmia.w	sp!, {r4, lr}
   833ec:	f000 bbc4 	b.w	83b78 <__retarget_lock_init_recursive>
   833f0:	000846f5 	.word	0x000846f5
   833f4:	00084719 	.word	0x00084719
   833f8:	00084755 	.word	0x00084755
   833fc:	00084775 	.word	0x00084775

00083400 <__sinit>:
   83400:	b510      	push	{r4, lr}
   83402:	4604      	mov	r4, r0
   83404:	4814      	ldr	r0, [pc, #80]	; (83458 <__sinit+0x58>)
   83406:	f000 fbbb 	bl	83b80 <__retarget_lock_acquire_recursive>
   8340a:	6ba2      	ldr	r2, [r4, #56]	; 0x38
   8340c:	b9fa      	cbnz	r2, 8344e <__sinit+0x4e>
   8340e:	2003      	movs	r0, #3
   83410:	4912      	ldr	r1, [pc, #72]	; (8345c <__sinit+0x5c>)
   83412:	f504 733b 	add.w	r3, r4, #748	; 0x2ec
   83416:	f8c4 32e8 	str.w	r3, [r4, #744]	; 0x2e8
   8341a:	f8c4 22e0 	str.w	r2, [r4, #736]	; 0x2e0
   8341e:	f8c4 02e4 	str.w	r0, [r4, #740]	; 0x2e4
   83422:	63e1      	str	r1, [r4, #60]	; 0x3c
   83424:	6860      	ldr	r0, [r4, #4]
   83426:	2104      	movs	r1, #4
   83428:	f7ff ffc2 	bl	833b0 <std.isra.0>
   8342c:	68a0      	ldr	r0, [r4, #8]
   8342e:	2201      	movs	r2, #1
   83430:	2109      	movs	r1, #9
   83432:	f7ff ffbd 	bl	833b0 <std.isra.0>
   83436:	68e0      	ldr	r0, [r4, #12]
   83438:	2202      	movs	r2, #2
   8343a:	2112      	movs	r1, #18
   8343c:	f7ff ffb8 	bl	833b0 <std.isra.0>
   83440:	2301      	movs	r3, #1
   83442:	4805      	ldr	r0, [pc, #20]	; (83458 <__sinit+0x58>)
   83444:	63a3      	str	r3, [r4, #56]	; 0x38
   83446:	e8bd 4010 	ldmia.w	sp!, {r4, lr}
   8344a:	f000 bb9b 	b.w	83b84 <__retarget_lock_release_recursive>
   8344e:	4802      	ldr	r0, [pc, #8]	; (83458 <__sinit+0x58>)
   83450:	e8bd 4010 	ldmia.w	sp!, {r4, lr}
   83454:	f000 bb96 	b.w	83b84 <__retarget_lock_release_recursive>
   83458:	20070c68 	.word	0x20070c68
   8345c:	000833a5 	.word	0x000833a5

00083460 <__sfp_lock_acquire>:
   83460:	4801      	ldr	r0, [pc, #4]	; (83468 <__sfp_lock_acquire+0x8>)
   83462:	f000 bb8d 	b.w	83b80 <__retarget_lock_acquire_recursive>
   83466:	bf00      	nop
   83468:	20070c7c 	.word	0x20070c7c

0008346c <__sfp_lock_release>:
   8346c:	4801      	ldr	r0, [pc, #4]	; (83474 <__sfp_lock_release+0x8>)
   8346e:	f000 bb89 	b.w	83b84 <__retarget_lock_release_recursive>
   83472:	bf00      	nop
   83474:	20070c7c 	.word	0x20070c7c

00083478 <__libc_fini_array>:
   83478:	b538      	push	{r3, r4, r5, lr}
   8347a:	4c0a      	ldr	r4, [pc, #40]	; (834a4 <__libc_fini_array+0x2c>)
   8347c:	4d0a      	ldr	r5, [pc, #40]	; (834a8 <__libc_fini_array+0x30>)
   8347e:	1b64      	subs	r4, r4, r5
   83480:	10a4      	asrs	r4, r4, #2
   83482:	d00a      	beq.n	8349a <__libc_fini_array+0x22>
   83484:	f104 4380 	add.w	r3, r4, #1073741824	; 0x40000000
   83488:	3b01      	subs	r3, #1
   8348a:	eb05 0583 	add.w	r5, r5, r3, lsl #2
   8348e:	3c01      	subs	r4, #1
   83490:	f855 3904 	ldr.w	r3, [r5], #-4
   83494:	4798      	blx	r3
   83496:	2c00      	cmp	r4, #0
   83498:	d1f9      	bne.n	8348e <__libc_fini_array+0x16>
   8349a:	e8bd 4038 	ldmia.w	sp!, {r3, r4, r5, lr}
   8349e:	f001 be13 	b.w	850c8 <_fini>
   834a2:	bf00      	nop
   834a4:	000850d8 	.word	0x000850d8
   834a8:	000850d4 	.word	0x000850d4

000834ac <__fputwc>:
   834ac:	e92d 43f0 	stmdb	sp!, {r4, r5, r6, r7, r8, r9, lr}
   834b0:	b083      	sub	sp, #12
   834b2:	4607      	mov	r7, r0
   834b4:	4688      	mov	r8, r1
   834b6:	4614      	mov	r4, r2
   834b8:	f000 fb50 	bl	83b5c <__locale_mb_cur_max>
   834bc:	2801      	cmp	r0, #1
   834be:	d033      	beq.n	83528 <__fputwc+0x7c>
   834c0:	4642      	mov	r2, r8
   834c2:	f104 035c 	add.w	r3, r4, #92	; 0x5c
   834c6:	a901      	add	r1, sp, #4
   834c8:	4638      	mov	r0, r7
   834ca:	f001 f9af 	bl	8482c <_wcrtomb_r>
   834ce:	1c42      	adds	r2, r0, #1
   834d0:	4606      	mov	r6, r0
   834d2:	d022      	beq.n	8351a <__fputwc+0x6e>
   834d4:	b390      	cbz	r0, 8353c <__fputwc+0x90>
   834d6:	f89d 1004 	ldrb.w	r1, [sp, #4]
   834da:	2500      	movs	r5, #0
   834dc:	f10d 0904 	add.w	r9, sp, #4
   834e0:	e008      	b.n	834f4 <__fputwc+0x48>
   834e2:	6823      	ldr	r3, [r4, #0]
   834e4:	1c5a      	adds	r2, r3, #1
   834e6:	6022      	str	r2, [r4, #0]
   834e8:	7019      	strb	r1, [r3, #0]
   834ea:	3501      	adds	r5, #1
   834ec:	42b5      	cmp	r5, r6
   834ee:	d225      	bcs.n	8353c <__fputwc+0x90>
   834f0:	f815 1009 	ldrb.w	r1, [r5, r9]
   834f4:	68a3      	ldr	r3, [r4, #8]
   834f6:	3b01      	subs	r3, #1
   834f8:	2b00      	cmp	r3, #0
   834fa:	60a3      	str	r3, [r4, #8]
   834fc:	daf1      	bge.n	834e2 <__fputwc+0x36>
   834fe:	69a2      	ldr	r2, [r4, #24]
   83500:	4293      	cmp	r3, r2
   83502:	db01      	blt.n	83508 <__fputwc+0x5c>
   83504:	290a      	cmp	r1, #10
   83506:	d1ec      	bne.n	834e2 <__fputwc+0x36>
   83508:	4622      	mov	r2, r4
   8350a:	4638      	mov	r0, r7
   8350c:	f001 f936 	bl	8477c <__swbuf_r>
   83510:	1c43      	adds	r3, r0, #1
   83512:	d1ea      	bne.n	834ea <__fputwc+0x3e>
   83514:	b003      	add	sp, #12
   83516:	e8bd 83f0 	ldmia.w	sp!, {r4, r5, r6, r7, r8, r9, pc}
   8351a:	89a3      	ldrh	r3, [r4, #12]
   8351c:	f043 0340 	orr.w	r3, r3, #64	; 0x40
   83520:	81a3      	strh	r3, [r4, #12]
   83522:	b003      	add	sp, #12
   83524:	e8bd 83f0 	ldmia.w	sp!, {r4, r5, r6, r7, r8, r9, pc}
   83528:	f108 33ff 	add.w	r3, r8, #4294967295
   8352c:	2bfe      	cmp	r3, #254	; 0xfe
   8352e:	d8c7      	bhi.n	834c0 <__fputwc+0x14>
   83530:	fa5f f188 	uxtb.w	r1, r8
   83534:	4606      	mov	r6, r0
   83536:	f88d 1004 	strb.w	r1, [sp, #4]
   8353a:	e7ce      	b.n	834da <__fputwc+0x2e>
   8353c:	4640      	mov	r0, r8
   8353e:	b003      	add	sp, #12
   83540:	e8bd 83f0 	ldmia.w	sp!, {r4, r5, r6, r7, r8, r9, pc}

00083544 <_fputwc_r>:
   83544:	b530      	push	{r4, r5, lr}
   83546:	6e53      	ldr	r3, [r2, #100]	; 0x64
   83548:	4614      	mov	r4, r2
   8354a:	f013 0f01 	tst.w	r3, #1
   8354e:	f9b2 300c 	ldrsh.w	r3, [r2, #12]
   83552:	b083      	sub	sp, #12
   83554:	4605      	mov	r5, r0
   83556:	b29a      	uxth	r2, r3
   83558:	d101      	bne.n	8355e <_fputwc_r+0x1a>
   8355a:	0590      	lsls	r0, r2, #22
   8355c:	d51c      	bpl.n	83598 <_fputwc_r+0x54>
   8355e:	0490      	lsls	r0, r2, #18
   83560:	d406      	bmi.n	83570 <_fputwc_r+0x2c>
   83562:	6e62      	ldr	r2, [r4, #100]	; 0x64
   83564:	f443 5300 	orr.w	r3, r3, #8192	; 0x2000
   83568:	f442 5200 	orr.w	r2, r2, #8192	; 0x2000
   8356c:	81a3      	strh	r3, [r4, #12]
   8356e:	6662      	str	r2, [r4, #100]	; 0x64
   83570:	4628      	mov	r0, r5
   83572:	4622      	mov	r2, r4
   83574:	f7ff ff9a 	bl	834ac <__fputwc>
   83578:	6e63      	ldr	r3, [r4, #100]	; 0x64
   8357a:	4605      	mov	r5, r0
   8357c:	07da      	lsls	r2, r3, #31
   8357e:	d402      	bmi.n	83586 <_fputwc_r+0x42>
   83580:	89a3      	ldrh	r3, [r4, #12]
   83582:	059b      	lsls	r3, r3, #22
   83584:	d502      	bpl.n	8358c <_fputwc_r+0x48>
   83586:	4628      	mov	r0, r5
   83588:	b003      	add	sp, #12
   8358a:	bd30      	pop	{r4, r5, pc}
   8358c:	6da0      	ldr	r0, [r4, #88]	; 0x58
   8358e:	f000 faf9 	bl	83b84 <__retarget_lock_release_recursive>
   83592:	4628      	mov	r0, r5
   83594:	b003      	add	sp, #12
   83596:	bd30      	pop	{r4, r5, pc}
   83598:	6da0      	ldr	r0, [r4, #88]	; 0x58
   8359a:	9101      	str	r1, [sp, #4]
   8359c:	f000 faf0 	bl	83b80 <__retarget_lock_acquire_recursive>
   835a0:	f9b4 300c 	ldrsh.w	r3, [r4, #12]
   835a4:	9901      	ldr	r1, [sp, #4]
   835a6:	b29a      	uxth	r2, r3
   835a8:	e7d9      	b.n	8355e <_fputwc_r+0x1a>
   835aa:	bf00      	nop

000835ac <_malloc_trim_r>:
   835ac:	b5f8      	push	{r3, r4, r5, r6, r7, lr}
   835ae:	460c      	mov	r4, r1
   835b0:	4f23      	ldr	r7, [pc, #140]	; (83640 <_malloc_trim_r+0x94>)
   835b2:	4606      	mov	r6, r0
   835b4:	f000 feca 	bl	8434c <__malloc_lock>
   835b8:	68bb      	ldr	r3, [r7, #8]
   835ba:	f5c4 617e 	rsb	r1, r4, #4064	; 0xfe0
   835be:	685d      	ldr	r5, [r3, #4]
   835c0:	310f      	adds	r1, #15
   835c2:	f025 0503 	bic.w	r5, r5, #3
   835c6:	4429      	add	r1, r5
   835c8:	f421 617f 	bic.w	r1, r1, #4080	; 0xff0
   835cc:	f021 010f 	bic.w	r1, r1, #15
   835d0:	f5a1 5480 	sub.w	r4, r1, #4096	; 0x1000
   835d4:	f5b4 5f80 	cmp.w	r4, #4096	; 0x1000
   835d8:	db07      	blt.n	835ea <_malloc_trim_r+0x3e>
   835da:	2100      	movs	r1, #0
   835dc:	4630      	mov	r0, r6
   835de:	f001 f877 	bl	846d0 <_sbrk_r>
   835e2:	68bb      	ldr	r3, [r7, #8]
   835e4:	442b      	add	r3, r5
   835e6:	4298      	cmp	r0, r3
   835e8:	d004      	beq.n	835f4 <_malloc_trim_r+0x48>
   835ea:	4630      	mov	r0, r6
   835ec:	f000 feb4 	bl	84358 <__malloc_unlock>
   835f0:	2000      	movs	r0, #0
   835f2:	bdf8      	pop	{r3, r4, r5, r6, r7, pc}
   835f4:	4261      	negs	r1, r4
   835f6:	4630      	mov	r0, r6
   835f8:	f001 f86a 	bl	846d0 <_sbrk_r>
   835fc:	3001      	adds	r0, #1
   835fe:	d00d      	beq.n	8361c <_malloc_trim_r+0x70>
   83600:	4b10      	ldr	r3, [pc, #64]	; (83644 <_malloc_trim_r+0x98>)
   83602:	68ba      	ldr	r2, [r7, #8]
   83604:	6819      	ldr	r1, [r3, #0]
   83606:	1b2d      	subs	r5, r5, r4
   83608:	f045 0501 	orr.w	r5, r5, #1
   8360c:	4630      	mov	r0, r6
   8360e:	1b09      	subs	r1, r1, r4
   83610:	6055      	str	r5, [r2, #4]
   83612:	6019      	str	r1, [r3, #0]
   83614:	f000 fea0 	bl	84358 <__malloc_unlock>
   83618:	2001      	movs	r0, #1
   8361a:	bdf8      	pop	{r3, r4, r5, r6, r7, pc}
   8361c:	2100      	movs	r1, #0
   8361e:	4630      	mov	r0, r6
   83620:	f001 f856 	bl	846d0 <_sbrk_r>
   83624:	68ba      	ldr	r2, [r7, #8]
   83626:	1a83      	subs	r3, r0, r2
   83628:	2b0f      	cmp	r3, #15
   8362a:	ddde      	ble.n	835ea <_malloc_trim_r+0x3e>
   8362c:	4c06      	ldr	r4, [pc, #24]	; (83648 <_malloc_trim_r+0x9c>)
   8362e:	4905      	ldr	r1, [pc, #20]	; (83644 <_malloc_trim_r+0x98>)
   83630:	6824      	ldr	r4, [r4, #0]
   83632:	f043 0301 	orr.w	r3, r3, #1
   83636:	1b00      	subs	r0, r0, r4
   83638:	6053      	str	r3, [r2, #4]
   8363a:	6008      	str	r0, [r1, #0]
   8363c:	e7d5      	b.n	835ea <_malloc_trim_r+0x3e>
   8363e:	bf00      	nop
   83640:	20070690 	.word	0x20070690
   83644:	20070bc0 	.word	0x20070bc0
   83648:	20070a98 	.word	0x20070a98

0008364c <_free_r>:
   8364c:	2900      	cmp	r1, #0
   8364e:	d044      	beq.n	836da <_free_r+0x8e>
   83650:	e92d 41f0 	stmdb	sp!, {r4, r5, r6, r7, r8, lr}
   83654:	460d      	mov	r5, r1
   83656:	4680      	mov	r8, r0
   83658:	f000 fe78 	bl	8434c <__malloc_lock>
   8365c:	f855 7c04 	ldr.w	r7, [r5, #-4]
   83660:	4969      	ldr	r1, [pc, #420]	; (83808 <_free_r+0x1bc>)
   83662:	f1a5 0408 	sub.w	r4, r5, #8
   83666:	f027 0301 	bic.w	r3, r7, #1
   8366a:	18e2      	adds	r2, r4, r3
   8366c:	688e      	ldr	r6, [r1, #8]
   8366e:	6850      	ldr	r0, [r2, #4]
   83670:	42b2      	cmp	r2, r6
   83672:	f020 0003 	bic.w	r0, r0, #3
   83676:	d05e      	beq.n	83736 <_free_r+0xea>
   83678:	07fe      	lsls	r6, r7, #31
   8367a:	6050      	str	r0, [r2, #4]
   8367c:	d40b      	bmi.n	83696 <_free_r+0x4a>
   8367e:	f855 7c08 	ldr.w	r7, [r5, #-8]
   83682:	f101 0e08 	add.w	lr, r1, #8
   83686:	1be4      	subs	r4, r4, r7
   83688:	68a5      	ldr	r5, [r4, #8]
   8368a:	443b      	add	r3, r7
   8368c:	4575      	cmp	r5, lr
   8368e:	d06d      	beq.n	8376c <_free_r+0x120>
   83690:	68e7      	ldr	r7, [r4, #12]
   83692:	60ef      	str	r7, [r5, #12]
   83694:	60bd      	str	r5, [r7, #8]
   83696:	1815      	adds	r5, r2, r0
   83698:	686d      	ldr	r5, [r5, #4]
   8369a:	07ed      	lsls	r5, r5, #31
   8369c:	d53e      	bpl.n	8371c <_free_r+0xd0>
   8369e:	f043 0201 	orr.w	r2, r3, #1
   836a2:	6062      	str	r2, [r4, #4]
   836a4:	50e3      	str	r3, [r4, r3]
   836a6:	f5b3 7f00 	cmp.w	r3, #512	; 0x200
   836aa:	d217      	bcs.n	836dc <_free_r+0x90>
   836ac:	2201      	movs	r2, #1
   836ae:	08db      	lsrs	r3, r3, #3
   836b0:	1098      	asrs	r0, r3, #2
   836b2:	684d      	ldr	r5, [r1, #4]
   836b4:	4413      	add	r3, r2
   836b6:	f851 7033 	ldr.w	r7, [r1, r3, lsl #3]
   836ba:	4082      	lsls	r2, r0
   836bc:	eb01 00c3 	add.w	r0, r1, r3, lsl #3
   836c0:	432a      	orrs	r2, r5
   836c2:	3808      	subs	r0, #8
   836c4:	60e0      	str	r0, [r4, #12]
   836c6:	60a7      	str	r7, [r4, #8]
   836c8:	604a      	str	r2, [r1, #4]
   836ca:	f841 4033 	str.w	r4, [r1, r3, lsl #3]
   836ce:	60fc      	str	r4, [r7, #12]
   836d0:	4640      	mov	r0, r8
   836d2:	e8bd 41f0 	ldmia.w	sp!, {r4, r5, r6, r7, r8, lr}
   836d6:	f000 be3f 	b.w	84358 <__malloc_unlock>
   836da:	4770      	bx	lr
   836dc:	0a5a      	lsrs	r2, r3, #9
   836de:	2a04      	cmp	r2, #4
   836e0:	d852      	bhi.n	83788 <_free_r+0x13c>
   836e2:	099a      	lsrs	r2, r3, #6
   836e4:	f102 0739 	add.w	r7, r2, #57	; 0x39
   836e8:	00ff      	lsls	r7, r7, #3
   836ea:	f102 0538 	add.w	r5, r2, #56	; 0x38
   836ee:	19c8      	adds	r0, r1, r7
   836f0:	59ca      	ldr	r2, [r1, r7]
   836f2:	3808      	subs	r0, #8
   836f4:	4290      	cmp	r0, r2
   836f6:	d04f      	beq.n	83798 <_free_r+0x14c>
   836f8:	6851      	ldr	r1, [r2, #4]
   836fa:	f021 0103 	bic.w	r1, r1, #3
   836fe:	428b      	cmp	r3, r1
   83700:	d232      	bcs.n	83768 <_free_r+0x11c>
   83702:	6892      	ldr	r2, [r2, #8]
   83704:	4290      	cmp	r0, r2
   83706:	d1f7      	bne.n	836f8 <_free_r+0xac>
   83708:	68c3      	ldr	r3, [r0, #12]
   8370a:	60a0      	str	r0, [r4, #8]
   8370c:	60e3      	str	r3, [r4, #12]
   8370e:	609c      	str	r4, [r3, #8]
   83710:	60c4      	str	r4, [r0, #12]
   83712:	4640      	mov	r0, r8
   83714:	e8bd 41f0 	ldmia.w	sp!, {r4, r5, r6, r7, r8, lr}
   83718:	f000 be1e 	b.w	84358 <__malloc_unlock>
   8371c:	6895      	ldr	r5, [r2, #8]
   8371e:	4f3b      	ldr	r7, [pc, #236]	; (8380c <_free_r+0x1c0>)
   83720:	4403      	add	r3, r0
   83722:	42bd      	cmp	r5, r7
   83724:	d040      	beq.n	837a8 <_free_r+0x15c>
   83726:	68d0      	ldr	r0, [r2, #12]
   83728:	f043 0201 	orr.w	r2, r3, #1
   8372c:	60e8      	str	r0, [r5, #12]
   8372e:	6085      	str	r5, [r0, #8]
   83730:	6062      	str	r2, [r4, #4]
   83732:	50e3      	str	r3, [r4, r3]
   83734:	e7b7      	b.n	836a6 <_free_r+0x5a>
   83736:	07ff      	lsls	r7, r7, #31
   83738:	4403      	add	r3, r0
   8373a:	d407      	bmi.n	8374c <_free_r+0x100>
   8373c:	f855 5c08 	ldr.w	r5, [r5, #-8]
   83740:	1b64      	subs	r4, r4, r5
   83742:	68e2      	ldr	r2, [r4, #12]
   83744:	68a0      	ldr	r0, [r4, #8]
   83746:	442b      	add	r3, r5
   83748:	60c2      	str	r2, [r0, #12]
   8374a:	6090      	str	r0, [r2, #8]
   8374c:	4a30      	ldr	r2, [pc, #192]	; (83810 <_free_r+0x1c4>)
   8374e:	f043 0001 	orr.w	r0, r3, #1
   83752:	6812      	ldr	r2, [r2, #0]
   83754:	6060      	str	r0, [r4, #4]
   83756:	4293      	cmp	r3, r2
   83758:	608c      	str	r4, [r1, #8]
   8375a:	d3b9      	bcc.n	836d0 <_free_r+0x84>
   8375c:	4b2d      	ldr	r3, [pc, #180]	; (83814 <_free_r+0x1c8>)
   8375e:	4640      	mov	r0, r8
   83760:	6819      	ldr	r1, [r3, #0]
   83762:	f7ff ff23 	bl	835ac <_malloc_trim_r>
   83766:	e7b3      	b.n	836d0 <_free_r+0x84>
   83768:	4610      	mov	r0, r2
   8376a:	e7cd      	b.n	83708 <_free_r+0xbc>
   8376c:	1811      	adds	r1, r2, r0
   8376e:	6849      	ldr	r1, [r1, #4]
   83770:	07c9      	lsls	r1, r1, #31
   83772:	d444      	bmi.n	837fe <_free_r+0x1b2>
   83774:	6891      	ldr	r1, [r2, #8]
   83776:	4403      	add	r3, r0
   83778:	68d2      	ldr	r2, [r2, #12]
   8377a:	f043 0001 	orr.w	r0, r3, #1
   8377e:	60ca      	str	r2, [r1, #12]
   83780:	6091      	str	r1, [r2, #8]
   83782:	6060      	str	r0, [r4, #4]
   83784:	50e3      	str	r3, [r4, r3]
   83786:	e7a3      	b.n	836d0 <_free_r+0x84>
   83788:	2a14      	cmp	r2, #20
   8378a:	d816      	bhi.n	837ba <_free_r+0x16e>
   8378c:	f102 075c 	add.w	r7, r2, #92	; 0x5c
   83790:	00ff      	lsls	r7, r7, #3
   83792:	f102 055b 	add.w	r5, r2, #91	; 0x5b
   83796:	e7aa      	b.n	836ee <_free_r+0xa2>
   83798:	2301      	movs	r3, #1
   8379a:	10aa      	asrs	r2, r5, #2
   8379c:	684d      	ldr	r5, [r1, #4]
   8379e:	4093      	lsls	r3, r2
   837a0:	432b      	orrs	r3, r5
   837a2:	604b      	str	r3, [r1, #4]
   837a4:	4603      	mov	r3, r0
   837a6:	e7b0      	b.n	8370a <_free_r+0xbe>
   837a8:	f043 0201 	orr.w	r2, r3, #1
   837ac:	614c      	str	r4, [r1, #20]
   837ae:	610c      	str	r4, [r1, #16]
   837b0:	60e5      	str	r5, [r4, #12]
   837b2:	60a5      	str	r5, [r4, #8]
   837b4:	6062      	str	r2, [r4, #4]
   837b6:	50e3      	str	r3, [r4, r3]
   837b8:	e78a      	b.n	836d0 <_free_r+0x84>
   837ba:	2a54      	cmp	r2, #84	; 0x54
   837bc:	d806      	bhi.n	837cc <_free_r+0x180>
   837be:	0b1a      	lsrs	r2, r3, #12
   837c0:	f102 076f 	add.w	r7, r2, #111	; 0x6f
   837c4:	00ff      	lsls	r7, r7, #3
   837c6:	f102 056e 	add.w	r5, r2, #110	; 0x6e
   837ca:	e790      	b.n	836ee <_free_r+0xa2>
   837cc:	f5b2 7faa 	cmp.w	r2, #340	; 0x154
   837d0:	d806      	bhi.n	837e0 <_free_r+0x194>
   837d2:	0bda      	lsrs	r2, r3, #15
   837d4:	f102 0778 	add.w	r7, r2, #120	; 0x78
   837d8:	00ff      	lsls	r7, r7, #3
   837da:	f102 0577 	add.w	r5, r2, #119	; 0x77
   837de:	e786      	b.n	836ee <_free_r+0xa2>
   837e0:	f240 5054 	movw	r0, #1364	; 0x554
   837e4:	4282      	cmp	r2, r0
   837e6:	d806      	bhi.n	837f6 <_free_r+0x1aa>
   837e8:	0c9a      	lsrs	r2, r3, #18
   837ea:	f102 077d 	add.w	r7, r2, #125	; 0x7d
   837ee:	00ff      	lsls	r7, r7, #3
   837f0:	f102 057c 	add.w	r5, r2, #124	; 0x7c
   837f4:	e77b      	b.n	836ee <_free_r+0xa2>
   837f6:	f44f 777e 	mov.w	r7, #1016	; 0x3f8
   837fa:	257e      	movs	r5, #126	; 0x7e
   837fc:	e777      	b.n	836ee <_free_r+0xa2>
   837fe:	f043 0101 	orr.w	r1, r3, #1
   83802:	6061      	str	r1, [r4, #4]
   83804:	6013      	str	r3, [r2, #0]
   83806:	e763      	b.n	836d0 <_free_r+0x84>
   83808:	20070690 	.word	0x20070690
   8380c:	20070698 	.word	0x20070698
   83810:	20070a9c 	.word	0x20070a9c
   83814:	20070bf0 	.word	0x20070bf0

00083818 <__sfvwrite_r>:
   83818:	6893      	ldr	r3, [r2, #8]
   8381a:	2b00      	cmp	r3, #0
   8381c:	d071      	beq.n	83902 <__sfvwrite_r+0xea>
   8381e:	e92d 4ff0 	stmdb	sp!, {r4, r5, r6, r7, r8, r9, sl, fp, lr}
   83822:	898b      	ldrh	r3, [r1, #12]
   83824:	b083      	sub	sp, #12
   83826:	460c      	mov	r4, r1
   83828:	0719      	lsls	r1, r3, #28
   8382a:	9000      	str	r0, [sp, #0]
   8382c:	4616      	mov	r6, r2
   8382e:	d525      	bpl.n	8387c <__sfvwrite_r+0x64>
   83830:	6922      	ldr	r2, [r4, #16]
   83832:	b31a      	cbz	r2, 8387c <__sfvwrite_r+0x64>
   83834:	f013 0002 	ands.w	r0, r3, #2
   83838:	6835      	ldr	r5, [r6, #0]
   8383a:	d02b      	beq.n	83894 <__sfvwrite_r+0x7c>
   8383c:	f04f 0900 	mov.w	r9, #0
   83840:	46b0      	mov	r8, r6
   83842:	464f      	mov	r7, r9
   83844:	f8df a2c0 	ldr.w	sl, [pc, #704]	; 83b08 <__sfvwrite_r+0x2f0>
   83848:	2f00      	cmp	r7, #0
   8384a:	d055      	beq.n	838f8 <__sfvwrite_r+0xe0>
   8384c:	4557      	cmp	r7, sl
   8384e:	463b      	mov	r3, r7
   83850:	464a      	mov	r2, r9
   83852:	bf28      	it	cs
   83854:	4653      	movcs	r3, sl
   83856:	69e1      	ldr	r1, [r4, #28]
   83858:	9800      	ldr	r0, [sp, #0]
   8385a:	6a66      	ldr	r6, [r4, #36]	; 0x24
   8385c:	47b0      	blx	r6
   8385e:	2800      	cmp	r0, #0
   83860:	dd56      	ble.n	83910 <__sfvwrite_r+0xf8>
   83862:	f8d8 3008 	ldr.w	r3, [r8, #8]
   83866:	4481      	add	r9, r0
   83868:	1a1b      	subs	r3, r3, r0
   8386a:	1a3f      	subs	r7, r7, r0
   8386c:	f8c8 3008 	str.w	r3, [r8, #8]
   83870:	2b00      	cmp	r3, #0
   83872:	d1e9      	bne.n	83848 <__sfvwrite_r+0x30>
   83874:	2000      	movs	r0, #0
   83876:	b003      	add	sp, #12
   83878:	e8bd 8ff0 	ldmia.w	sp!, {r4, r5, r6, r7, r8, r9, sl, fp, pc}
   8387c:	4621      	mov	r1, r4
   8387e:	9800      	ldr	r0, [sp, #0]
   83880:	f7ff fc56 	bl	83130 <__swsetup_r>
   83884:	2800      	cmp	r0, #0
   83886:	f040 8135 	bne.w	83af4 <__sfvwrite_r+0x2dc>
   8388a:	89a3      	ldrh	r3, [r4, #12]
   8388c:	6835      	ldr	r5, [r6, #0]
   8388e:	f013 0002 	ands.w	r0, r3, #2
   83892:	d1d3      	bne.n	8383c <__sfvwrite_r+0x24>
   83894:	f013 0901 	ands.w	r9, r3, #1
   83898:	d144      	bne.n	83924 <__sfvwrite_r+0x10c>
   8389a:	464f      	mov	r7, r9
   8389c:	9601      	str	r6, [sp, #4]
   8389e:	b337      	cbz	r7, 838ee <__sfvwrite_r+0xd6>
   838a0:	059a      	lsls	r2, r3, #22
   838a2:	f8d4 8008 	ldr.w	r8, [r4, #8]
   838a6:	f140 8085 	bpl.w	839b4 <__sfvwrite_r+0x19c>
   838aa:	4547      	cmp	r7, r8
   838ac:	46c3      	mov	fp, r8
   838ae:	f0c0 80ad 	bcc.w	83a0c <__sfvwrite_r+0x1f4>
   838b2:	f413 6f90 	tst.w	r3, #1152	; 0x480
   838b6:	f040 80ae 	bne.w	83a16 <__sfvwrite_r+0x1fe>
   838ba:	46ba      	mov	sl, r7
   838bc:	6820      	ldr	r0, [r4, #0]
   838be:	465a      	mov	r2, fp
   838c0:	4649      	mov	r1, r9
   838c2:	f000 fcdf 	bl	84284 <memmove>
   838c6:	68a2      	ldr	r2, [r4, #8]
   838c8:	6823      	ldr	r3, [r4, #0]
   838ca:	eba2 0208 	sub.w	r2, r2, r8
   838ce:	445b      	add	r3, fp
   838d0:	60a2      	str	r2, [r4, #8]
   838d2:	6023      	str	r3, [r4, #0]
   838d4:	9a01      	ldr	r2, [sp, #4]
   838d6:	44d1      	add	r9, sl
   838d8:	6893      	ldr	r3, [r2, #8]
   838da:	eba7 070a 	sub.w	r7, r7, sl
   838de:	eba3 030a 	sub.w	r3, r3, sl
   838e2:	6093      	str	r3, [r2, #8]
   838e4:	2b00      	cmp	r3, #0
   838e6:	d0c5      	beq.n	83874 <__sfvwrite_r+0x5c>
   838e8:	89a3      	ldrh	r3, [r4, #12]
   838ea:	2f00      	cmp	r7, #0
   838ec:	d1d8      	bne.n	838a0 <__sfvwrite_r+0x88>
   838ee:	f8d5 9000 	ldr.w	r9, [r5]
   838f2:	686f      	ldr	r7, [r5, #4]
   838f4:	3508      	adds	r5, #8
   838f6:	e7d2      	b.n	8389e <__sfvwrite_r+0x86>
   838f8:	f8d5 9000 	ldr.w	r9, [r5]
   838fc:	686f      	ldr	r7, [r5, #4]
   838fe:	3508      	adds	r5, #8
   83900:	e7a2      	b.n	83848 <__sfvwrite_r+0x30>
   83902:	2000      	movs	r0, #0
   83904:	4770      	bx	lr
   83906:	4621      	mov	r1, r4
   83908:	9800      	ldr	r0, [sp, #0]
   8390a:	f7ff fd21 	bl	83350 <_fflush_r>
   8390e:	b378      	cbz	r0, 83970 <__sfvwrite_r+0x158>
   83910:	f9b4 300c 	ldrsh.w	r3, [r4, #12]
   83914:	f04f 30ff 	mov.w	r0, #4294967295
   83918:	f043 0340 	orr.w	r3, r3, #64	; 0x40
   8391c:	81a3      	strh	r3, [r4, #12]
   8391e:	b003      	add	sp, #12
   83920:	e8bd 8ff0 	ldmia.w	sp!, {r4, r5, r6, r7, r8, r9, sl, fp, pc}
   83924:	4681      	mov	r9, r0
   83926:	4633      	mov	r3, r6
   83928:	464e      	mov	r6, r9
   8392a:	46a8      	mov	r8, r5
   8392c:	469a      	mov	sl, r3
   8392e:	464d      	mov	r5, r9
   83930:	b356      	cbz	r6, 83988 <__sfvwrite_r+0x170>
   83932:	2800      	cmp	r0, #0
   83934:	d032      	beq.n	8399c <__sfvwrite_r+0x184>
   83936:	45b1      	cmp	r9, r6
   83938:	46cb      	mov	fp, r9
   8393a:	bf28      	it	cs
   8393c:	46b3      	movcs	fp, r6
   8393e:	6820      	ldr	r0, [r4, #0]
   83940:	6923      	ldr	r3, [r4, #16]
   83942:	465f      	mov	r7, fp
   83944:	4298      	cmp	r0, r3
   83946:	6962      	ldr	r2, [r4, #20]
   83948:	d904      	bls.n	83954 <__sfvwrite_r+0x13c>
   8394a:	68a3      	ldr	r3, [r4, #8]
   8394c:	4413      	add	r3, r2
   8394e:	459b      	cmp	fp, r3
   83950:	f300 80a8 	bgt.w	83aa4 <__sfvwrite_r+0x28c>
   83954:	4593      	cmp	fp, r2
   83956:	db4d      	blt.n	839f4 <__sfvwrite_r+0x1dc>
   83958:	4613      	mov	r3, r2
   8395a:	6a67      	ldr	r7, [r4, #36]	; 0x24
   8395c:	462a      	mov	r2, r5
   8395e:	69e1      	ldr	r1, [r4, #28]
   83960:	9800      	ldr	r0, [sp, #0]
   83962:	47b8      	blx	r7
   83964:	1e07      	subs	r7, r0, #0
   83966:	ddd3      	ble.n	83910 <__sfvwrite_r+0xf8>
   83968:	ebb9 0907 	subs.w	r9, r9, r7
   8396c:	d0cb      	beq.n	83906 <__sfvwrite_r+0xee>
   8396e:	2001      	movs	r0, #1
   83970:	f8da 3008 	ldr.w	r3, [sl, #8]
   83974:	443d      	add	r5, r7
   83976:	1bdb      	subs	r3, r3, r7
   83978:	1bf6      	subs	r6, r6, r7
   8397a:	f8ca 3008 	str.w	r3, [sl, #8]
   8397e:	2b00      	cmp	r3, #0
   83980:	f43f af78 	beq.w	83874 <__sfvwrite_r+0x5c>
   83984:	2e00      	cmp	r6, #0
   83986:	d1d4      	bne.n	83932 <__sfvwrite_r+0x11a>
   83988:	f108 0308 	add.w	r3, r8, #8
   8398c:	f853 6c04 	ldr.w	r6, [r3, #-4]
   83990:	4698      	mov	r8, r3
   83992:	f853 5c08 	ldr.w	r5, [r3, #-8]
   83996:	3308      	adds	r3, #8
   83998:	2e00      	cmp	r6, #0
   8399a:	d0f7      	beq.n	8398c <__sfvwrite_r+0x174>
   8399c:	4632      	mov	r2, r6
   8399e:	210a      	movs	r1, #10
   839a0:	4628      	mov	r0, r5
   839a2:	f000 fc29 	bl	841f8 <memchr>
   839a6:	2800      	cmp	r0, #0
   839a8:	f000 80a1 	beq.w	83aee <__sfvwrite_r+0x2d6>
   839ac:	3001      	adds	r0, #1
   839ae:	eba0 0905 	sub.w	r9, r0, r5
   839b2:	e7c0      	b.n	83936 <__sfvwrite_r+0x11e>
   839b4:	6820      	ldr	r0, [r4, #0]
   839b6:	6923      	ldr	r3, [r4, #16]
   839b8:	4298      	cmp	r0, r3
   839ba:	d802      	bhi.n	839c2 <__sfvwrite_r+0x1aa>
   839bc:	6963      	ldr	r3, [r4, #20]
   839be:	429f      	cmp	r7, r3
   839c0:	d25d      	bcs.n	83a7e <__sfvwrite_r+0x266>
   839c2:	45b8      	cmp	r8, r7
   839c4:	bf28      	it	cs
   839c6:	46b8      	movcs	r8, r7
   839c8:	4649      	mov	r1, r9
   839ca:	4642      	mov	r2, r8
   839cc:	f000 fc5a 	bl	84284 <memmove>
   839d0:	68a3      	ldr	r3, [r4, #8]
   839d2:	6822      	ldr	r2, [r4, #0]
   839d4:	eba3 0308 	sub.w	r3, r3, r8
   839d8:	4442      	add	r2, r8
   839da:	60a3      	str	r3, [r4, #8]
   839dc:	6022      	str	r2, [r4, #0]
   839de:	b10b      	cbz	r3, 839e4 <__sfvwrite_r+0x1cc>
   839e0:	46c2      	mov	sl, r8
   839e2:	e777      	b.n	838d4 <__sfvwrite_r+0xbc>
   839e4:	4621      	mov	r1, r4
   839e6:	9800      	ldr	r0, [sp, #0]
   839e8:	f7ff fcb2 	bl	83350 <_fflush_r>
   839ec:	2800      	cmp	r0, #0
   839ee:	d18f      	bne.n	83910 <__sfvwrite_r+0xf8>
   839f0:	46c2      	mov	sl, r8
   839f2:	e76f      	b.n	838d4 <__sfvwrite_r+0xbc>
   839f4:	465a      	mov	r2, fp
   839f6:	4629      	mov	r1, r5
   839f8:	f000 fc44 	bl	84284 <memmove>
   839fc:	68a2      	ldr	r2, [r4, #8]
   839fe:	6823      	ldr	r3, [r4, #0]
   83a00:	eba2 020b 	sub.w	r2, r2, fp
   83a04:	445b      	add	r3, fp
   83a06:	60a2      	str	r2, [r4, #8]
   83a08:	6023      	str	r3, [r4, #0]
   83a0a:	e7ad      	b.n	83968 <__sfvwrite_r+0x150>
   83a0c:	46b8      	mov	r8, r7
   83a0e:	46ba      	mov	sl, r7
   83a10:	46bb      	mov	fp, r7
   83a12:	6820      	ldr	r0, [r4, #0]
   83a14:	e753      	b.n	838be <__sfvwrite_r+0xa6>
   83a16:	6962      	ldr	r2, [r4, #20]
   83a18:	6820      	ldr	r0, [r4, #0]
   83a1a:	6921      	ldr	r1, [r4, #16]
   83a1c:	eb02 0842 	add.w	r8, r2, r2, lsl #1
   83a20:	eba0 0a01 	sub.w	sl, r0, r1
   83a24:	eb08 78d8 	add.w	r8, r8, r8, lsr #31
   83a28:	f10a 0001 	add.w	r0, sl, #1
   83a2c:	ea4f 0868 	mov.w	r8, r8, asr #1
   83a30:	4438      	add	r0, r7
   83a32:	4540      	cmp	r0, r8
   83a34:	4642      	mov	r2, r8
   83a36:	bf84      	itt	hi
   83a38:	4680      	movhi	r8, r0
   83a3a:	4642      	movhi	r2, r8
   83a3c:	055b      	lsls	r3, r3, #21
   83a3e:	d544      	bpl.n	83aca <__sfvwrite_r+0x2b2>
   83a40:	4611      	mov	r1, r2
   83a42:	9800      	ldr	r0, [sp, #0]
   83a44:	f000 f920 	bl	83c88 <_malloc_r>
   83a48:	4683      	mov	fp, r0
   83a4a:	2800      	cmp	r0, #0
   83a4c:	d055      	beq.n	83afa <__sfvwrite_r+0x2e2>
   83a4e:	4652      	mov	r2, sl
   83a50:	6921      	ldr	r1, [r4, #16]
   83a52:	f7fe fae3 	bl	8201c <memcpy>
   83a56:	89a3      	ldrh	r3, [r4, #12]
   83a58:	f423 6390 	bic.w	r3, r3, #1152	; 0x480
   83a5c:	f043 0380 	orr.w	r3, r3, #128	; 0x80
   83a60:	81a3      	strh	r3, [r4, #12]
   83a62:	eb0b 000a 	add.w	r0, fp, sl
   83a66:	eba8 030a 	sub.w	r3, r8, sl
   83a6a:	f8c4 b010 	str.w	fp, [r4, #16]
   83a6e:	f8c4 8014 	str.w	r8, [r4, #20]
   83a72:	6020      	str	r0, [r4, #0]
   83a74:	60a3      	str	r3, [r4, #8]
   83a76:	46b8      	mov	r8, r7
   83a78:	46ba      	mov	sl, r7
   83a7a:	46bb      	mov	fp, r7
   83a7c:	e71f      	b.n	838be <__sfvwrite_r+0xa6>
   83a7e:	f06f 4200 	mvn.w	r2, #2147483648	; 0x80000000
   83a82:	42ba      	cmp	r2, r7
   83a84:	bf28      	it	cs
   83a86:	463a      	movcs	r2, r7
   83a88:	fb92 f2f3 	sdiv	r2, r2, r3
   83a8c:	69e1      	ldr	r1, [r4, #28]
   83a8e:	fb03 f302 	mul.w	r3, r3, r2
   83a92:	9800      	ldr	r0, [sp, #0]
   83a94:	464a      	mov	r2, r9
   83a96:	6a66      	ldr	r6, [r4, #36]	; 0x24
   83a98:	47b0      	blx	r6
   83a9a:	f1b0 0a00 	subs.w	sl, r0, #0
   83a9e:	f73f af19 	bgt.w	838d4 <__sfvwrite_r+0xbc>
   83aa2:	e735      	b.n	83910 <__sfvwrite_r+0xf8>
   83aa4:	461a      	mov	r2, r3
   83aa6:	4629      	mov	r1, r5
   83aa8:	9301      	str	r3, [sp, #4]
   83aaa:	f000 fbeb 	bl	84284 <memmove>
   83aae:	6822      	ldr	r2, [r4, #0]
   83ab0:	9b01      	ldr	r3, [sp, #4]
   83ab2:	4621      	mov	r1, r4
   83ab4:	441a      	add	r2, r3
   83ab6:	6022      	str	r2, [r4, #0]
   83ab8:	9800      	ldr	r0, [sp, #0]
   83aba:	f7ff fc49 	bl	83350 <_fflush_r>
   83abe:	9b01      	ldr	r3, [sp, #4]
   83ac0:	2800      	cmp	r0, #0
   83ac2:	f47f af25 	bne.w	83910 <__sfvwrite_r+0xf8>
   83ac6:	461f      	mov	r7, r3
   83ac8:	e74e      	b.n	83968 <__sfvwrite_r+0x150>
   83aca:	9800      	ldr	r0, [sp, #0]
   83acc:	f000 fc4a 	bl	84364 <_realloc_r>
   83ad0:	4683      	mov	fp, r0
   83ad2:	2800      	cmp	r0, #0
   83ad4:	d1c5      	bne.n	83a62 <__sfvwrite_r+0x24a>
   83ad6:	9d00      	ldr	r5, [sp, #0]
   83ad8:	6921      	ldr	r1, [r4, #16]
   83ada:	4628      	mov	r0, r5
   83adc:	f7ff fdb6 	bl	8364c <_free_r>
   83ae0:	220c      	movs	r2, #12
   83ae2:	f9b4 300c 	ldrsh.w	r3, [r4, #12]
   83ae6:	602a      	str	r2, [r5, #0]
   83ae8:	f023 0380 	bic.w	r3, r3, #128	; 0x80
   83aec:	e712      	b.n	83914 <__sfvwrite_r+0xfc>
   83aee:	f106 0901 	add.w	r9, r6, #1
   83af2:	e720      	b.n	83936 <__sfvwrite_r+0x11e>
   83af4:	f04f 30ff 	mov.w	r0, #4294967295
   83af8:	e6bd      	b.n	83876 <__sfvwrite_r+0x5e>
   83afa:	220c      	movs	r2, #12
   83afc:	9900      	ldr	r1, [sp, #0]
   83afe:	f9b4 300c 	ldrsh.w	r3, [r4, #12]
   83b02:	600a      	str	r2, [r1, #0]
   83b04:	e706      	b.n	83914 <__sfvwrite_r+0xfc>
   83b06:	bf00      	nop
   83b08:	7ffffc00 	.word	0x7ffffc00

00083b0c <_fwalk_reent>:
   83b0c:	e92d 43f8 	stmdb	sp!, {r3, r4, r5, r6, r7, r8, r9, lr}
   83b10:	f510 7638 	adds.w	r6, r0, #736	; 0x2e0
   83b14:	d01e      	beq.n	83b54 <_fwalk_reent+0x48>
   83b16:	4688      	mov	r8, r1
   83b18:	4607      	mov	r7, r0
   83b1a:	f04f 0900 	mov.w	r9, #0
   83b1e:	6875      	ldr	r5, [r6, #4]
   83b20:	68b4      	ldr	r4, [r6, #8]
   83b22:	3d01      	subs	r5, #1
   83b24:	d410      	bmi.n	83b48 <_fwalk_reent+0x3c>
   83b26:	89a3      	ldrh	r3, [r4, #12]
   83b28:	3d01      	subs	r5, #1
   83b2a:	2b01      	cmp	r3, #1
   83b2c:	d908      	bls.n	83b40 <_fwalk_reent+0x34>
   83b2e:	f9b4 300e 	ldrsh.w	r3, [r4, #14]
   83b32:	3301      	adds	r3, #1
   83b34:	d004      	beq.n	83b40 <_fwalk_reent+0x34>
   83b36:	4621      	mov	r1, r4
   83b38:	4638      	mov	r0, r7
   83b3a:	47c0      	blx	r8
   83b3c:	ea49 0900 	orr.w	r9, r9, r0
   83b40:	1c6b      	adds	r3, r5, #1
   83b42:	f104 0468 	add.w	r4, r4, #104	; 0x68
   83b46:	d1ee      	bne.n	83b26 <_fwalk_reent+0x1a>
   83b48:	6836      	ldr	r6, [r6, #0]
   83b4a:	2e00      	cmp	r6, #0
   83b4c:	d1e7      	bne.n	83b1e <_fwalk_reent+0x12>
   83b4e:	4648      	mov	r0, r9
   83b50:	e8bd 83f8 	ldmia.w	sp!, {r3, r4, r5, r6, r7, r8, r9, pc}
   83b54:	46b1      	mov	r9, r6
   83b56:	4648      	mov	r0, r9
   83b58:	e8bd 83f8 	ldmia.w	sp!, {r3, r4, r5, r6, r7, r8, r9, pc}

00083b5c <__locale_mb_cur_max>:
   83b5c:	4b04      	ldr	r3, [pc, #16]	; (83b70 <__locale_mb_cur_max+0x14>)
   83b5e:	4a05      	ldr	r2, [pc, #20]	; (83b74 <__locale_mb_cur_max+0x18>)
   83b60:	681b      	ldr	r3, [r3, #0]
   83b62:	6b5b      	ldr	r3, [r3, #52]	; 0x34
   83b64:	2b00      	cmp	r3, #0
   83b66:	bf08      	it	eq
   83b68:	4613      	moveq	r3, r2
   83b6a:	f893 0128 	ldrb.w	r0, [r3, #296]	; 0x128
   83b6e:	4770      	bx	lr
   83b70:	200700f4 	.word	0x200700f4
   83b74:	20070524 	.word	0x20070524

00083b78 <__retarget_lock_init_recursive>:
   83b78:	4770      	bx	lr
   83b7a:	bf00      	nop

00083b7c <__retarget_lock_close_recursive>:
   83b7c:	4770      	bx	lr
   83b7e:	bf00      	nop

00083b80 <__retarget_lock_acquire_recursive>:
   83b80:	4770      	bx	lr
   83b82:	bf00      	nop

00083b84 <__retarget_lock_release_recursive>:
   83b84:	4770      	bx	lr
   83b86:	bf00      	nop

00083b88 <__swhatbuf_r>:
   83b88:	b570      	push	{r4, r5, r6, lr}
   83b8a:	460c      	mov	r4, r1
   83b8c:	f9b1 100e 	ldrsh.w	r1, [r1, #14]
   83b90:	b090      	sub	sp, #64	; 0x40
   83b92:	2900      	cmp	r1, #0
   83b94:	4615      	mov	r5, r2
   83b96:	461e      	mov	r6, r3
   83b98:	db14      	blt.n	83bc4 <__swhatbuf_r+0x3c>
   83b9a:	aa01      	add	r2, sp, #4
   83b9c:	f000 ff68 	bl	84a70 <_fstat_r>
   83ba0:	2800      	cmp	r0, #0
   83ba2:	db0f      	blt.n	83bc4 <__swhatbuf_r+0x3c>
   83ba4:	9a02      	ldr	r2, [sp, #8]
   83ba6:	f44f 6380 	mov.w	r3, #1024	; 0x400
   83baa:	f402 4270 	and.w	r2, r2, #61440	; 0xf000
   83bae:	f5a2 5200 	sub.w	r2, r2, #8192	; 0x2000
   83bb2:	fab2 f282 	clz	r2, r2
   83bb6:	f44f 6000 	mov.w	r0, #2048	; 0x800
   83bba:	0952      	lsrs	r2, r2, #5
   83bbc:	6032      	str	r2, [r6, #0]
   83bbe:	602b      	str	r3, [r5, #0]
   83bc0:	b010      	add	sp, #64	; 0x40
   83bc2:	bd70      	pop	{r4, r5, r6, pc}
   83bc4:	2300      	movs	r3, #0
   83bc6:	89a2      	ldrh	r2, [r4, #12]
   83bc8:	6033      	str	r3, [r6, #0]
   83bca:	f012 0080 	ands.w	r0, r2, #128	; 0x80
   83bce:	d004      	beq.n	83bda <__swhatbuf_r+0x52>
   83bd0:	2240      	movs	r2, #64	; 0x40
   83bd2:	4618      	mov	r0, r3
   83bd4:	602a      	str	r2, [r5, #0]
   83bd6:	b010      	add	sp, #64	; 0x40
   83bd8:	bd70      	pop	{r4, r5, r6, pc}
   83bda:	f44f 6380 	mov.w	r3, #1024	; 0x400
   83bde:	602b      	str	r3, [r5, #0]
   83be0:	b010      	add	sp, #64	; 0x40
   83be2:	bd70      	pop	{r4, r5, r6, pc}

00083be4 <__smakebuf_r>:
   83be4:	898a      	ldrh	r2, [r1, #12]
   83be6:	460b      	mov	r3, r1
   83be8:	0792      	lsls	r2, r2, #30
   83bea:	d506      	bpl.n	83bfa <__smakebuf_r+0x16>
   83bec:	2101      	movs	r1, #1
   83bee:	f103 0243 	add.w	r2, r3, #67	; 0x43
   83bf2:	6159      	str	r1, [r3, #20]
   83bf4:	601a      	str	r2, [r3, #0]
   83bf6:	611a      	str	r2, [r3, #16]
   83bf8:	4770      	bx	lr
   83bfa:	b5f0      	push	{r4, r5, r6, r7, lr}
   83bfc:	b083      	sub	sp, #12
   83bfe:	ab01      	add	r3, sp, #4
   83c00:	466a      	mov	r2, sp
   83c02:	460c      	mov	r4, r1
   83c04:	4606      	mov	r6, r0
   83c06:	f7ff ffbf 	bl	83b88 <__swhatbuf_r>
   83c0a:	9900      	ldr	r1, [sp, #0]
   83c0c:	4605      	mov	r5, r0
   83c0e:	4630      	mov	r0, r6
   83c10:	f000 f83a 	bl	83c88 <_malloc_r>
   83c14:	f9b4 300c 	ldrsh.w	r3, [r4, #12]
   83c18:	b1d8      	cbz	r0, 83c52 <__smakebuf_r+0x6e>
   83c1a:	e89d 0006 	ldmia.w	sp, {r1, r2}
   83c1e:	4f15      	ldr	r7, [pc, #84]	; (83c74 <__smakebuf_r+0x90>)
   83c20:	f043 0380 	orr.w	r3, r3, #128	; 0x80
   83c24:	63f7      	str	r7, [r6, #60]	; 0x3c
   83c26:	81a3      	strh	r3, [r4, #12]
   83c28:	6020      	str	r0, [r4, #0]
   83c2a:	6120      	str	r0, [r4, #16]
   83c2c:	6161      	str	r1, [r4, #20]
   83c2e:	b91a      	cbnz	r2, 83c38 <__smakebuf_r+0x54>
   83c30:	432b      	orrs	r3, r5
   83c32:	81a3      	strh	r3, [r4, #12]
   83c34:	b003      	add	sp, #12
   83c36:	bdf0      	pop	{r4, r5, r6, r7, pc}
   83c38:	4630      	mov	r0, r6
   83c3a:	f9b4 100e 	ldrsh.w	r1, [r4, #14]
   83c3e:	f000 ff2b 	bl	84a98 <_isatty_r>
   83c42:	b1a0      	cbz	r0, 83c6e <__smakebuf_r+0x8a>
   83c44:	89a3      	ldrh	r3, [r4, #12]
   83c46:	f023 0303 	bic.w	r3, r3, #3
   83c4a:	f043 0301 	orr.w	r3, r3, #1
   83c4e:	b21b      	sxth	r3, r3
   83c50:	e7ee      	b.n	83c30 <__smakebuf_r+0x4c>
   83c52:	059a      	lsls	r2, r3, #22
   83c54:	d4ee      	bmi.n	83c34 <__smakebuf_r+0x50>
   83c56:	2101      	movs	r1, #1
   83c58:	f023 0303 	bic.w	r3, r3, #3
   83c5c:	f104 0243 	add.w	r2, r4, #67	; 0x43
   83c60:	f043 0302 	orr.w	r3, r3, #2
   83c64:	81a3      	strh	r3, [r4, #12]
   83c66:	6161      	str	r1, [r4, #20]
   83c68:	6022      	str	r2, [r4, #0]
   83c6a:	6122      	str	r2, [r4, #16]
   83c6c:	e7e2      	b.n	83c34 <__smakebuf_r+0x50>
   83c6e:	f9b4 300c 	ldrsh.w	r3, [r4, #12]
   83c72:	e7dd      	b.n	83c30 <__smakebuf_r+0x4c>
   83c74:	000833a5 	.word	0x000833a5

00083c78 <malloc>:
   83c78:	4b02      	ldr	r3, [pc, #8]	; (83c84 <malloc+0xc>)
   83c7a:	4601      	mov	r1, r0
   83c7c:	6818      	ldr	r0, [r3, #0]
   83c7e:	f000 b803 	b.w	83c88 <_malloc_r>
   83c82:	bf00      	nop
   83c84:	200700f4 	.word	0x200700f4

00083c88 <_malloc_r>:
   83c88:	e92d 4ff0 	stmdb	sp!, {r4, r5, r6, r7, r8, r9, sl, fp, lr}
   83c8c:	f101 060b 	add.w	r6, r1, #11
   83c90:	2e16      	cmp	r6, #22
   83c92:	b083      	sub	sp, #12
   83c94:	4605      	mov	r5, r0
   83c96:	f240 809e 	bls.w	83dd6 <_malloc_r+0x14e>
   83c9a:	f036 0607 	bics.w	r6, r6, #7
   83c9e:	f100 80bd 	bmi.w	83e1c <_malloc_r+0x194>
   83ca2:	42b1      	cmp	r1, r6
   83ca4:	f200 80ba 	bhi.w	83e1c <_malloc_r+0x194>
   83ca8:	f000 fb50 	bl	8434c <__malloc_lock>
   83cac:	f5b6 7ffc 	cmp.w	r6, #504	; 0x1f8
   83cb0:	f0c0 8285 	bcc.w	841be <_malloc_r+0x536>
   83cb4:	0a73      	lsrs	r3, r6, #9
   83cb6:	f000 80b8 	beq.w	83e2a <_malloc_r+0x1a2>
   83cba:	2b04      	cmp	r3, #4
   83cbc:	f200 816c 	bhi.w	83f98 <_malloc_r+0x310>
   83cc0:	09b3      	lsrs	r3, r6, #6
   83cc2:	f103 0039 	add.w	r0, r3, #57	; 0x39
   83cc6:	f103 0e38 	add.w	lr, r3, #56	; 0x38
   83cca:	00c1      	lsls	r1, r0, #3
   83ccc:	4fb8      	ldr	r7, [pc, #736]	; (83fb0 <_malloc_r+0x328>)
   83cce:	4439      	add	r1, r7
   83cd0:	684c      	ldr	r4, [r1, #4]
   83cd2:	3908      	subs	r1, #8
   83cd4:	42a1      	cmp	r1, r4
   83cd6:	d106      	bne.n	83ce6 <_malloc_r+0x5e>
   83cd8:	e00c      	b.n	83cf4 <_malloc_r+0x6c>
   83cda:	2a00      	cmp	r2, #0
   83cdc:	f280 80ab 	bge.w	83e36 <_malloc_r+0x1ae>
   83ce0:	68e4      	ldr	r4, [r4, #12]
   83ce2:	42a1      	cmp	r1, r4
   83ce4:	d006      	beq.n	83cf4 <_malloc_r+0x6c>
   83ce6:	6863      	ldr	r3, [r4, #4]
   83ce8:	f023 0303 	bic.w	r3, r3, #3
   83cec:	1b9a      	subs	r2, r3, r6
   83cee:	2a0f      	cmp	r2, #15
   83cf0:	ddf3      	ble.n	83cda <_malloc_r+0x52>
   83cf2:	4670      	mov	r0, lr
   83cf4:	693c      	ldr	r4, [r7, #16]
   83cf6:	f8df e2cc 	ldr.w	lr, [pc, #716]	; 83fc4 <_malloc_r+0x33c>
   83cfa:	4574      	cmp	r4, lr
   83cfc:	f000 819e 	beq.w	8403c <_malloc_r+0x3b4>
   83d00:	6863      	ldr	r3, [r4, #4]
   83d02:	f023 0303 	bic.w	r3, r3, #3
   83d06:	1b9a      	subs	r2, r3, r6
   83d08:	2a0f      	cmp	r2, #15
   83d0a:	f300 8183 	bgt.w	84014 <_malloc_r+0x38c>
   83d0e:	2a00      	cmp	r2, #0
   83d10:	f8c7 e014 	str.w	lr, [r7, #20]
   83d14:	f8c7 e010 	str.w	lr, [r7, #16]
   83d18:	f280 8091 	bge.w	83e3e <_malloc_r+0x1b6>
   83d1c:	f5b3 7f00 	cmp.w	r3, #512	; 0x200
   83d20:	f080 8154 	bcs.w	83fcc <_malloc_r+0x344>
   83d24:	2201      	movs	r2, #1
   83d26:	08db      	lsrs	r3, r3, #3
   83d28:	6879      	ldr	r1, [r7, #4]
   83d2a:	ea4f 0ca3 	mov.w	ip, r3, asr #2
   83d2e:	4413      	add	r3, r2
   83d30:	f857 8033 	ldr.w	r8, [r7, r3, lsl #3]
   83d34:	fa02 f20c 	lsl.w	r2, r2, ip
   83d38:	eb07 0cc3 	add.w	ip, r7, r3, lsl #3
   83d3c:	430a      	orrs	r2, r1
   83d3e:	f1ac 0108 	sub.w	r1, ip, #8
   83d42:	60e1      	str	r1, [r4, #12]
   83d44:	f8c4 8008 	str.w	r8, [r4, #8]
   83d48:	607a      	str	r2, [r7, #4]
   83d4a:	f847 4033 	str.w	r4, [r7, r3, lsl #3]
   83d4e:	f8c8 400c 	str.w	r4, [r8, #12]
   83d52:	2401      	movs	r4, #1
   83d54:	1083      	asrs	r3, r0, #2
   83d56:	409c      	lsls	r4, r3
   83d58:	4294      	cmp	r4, r2
   83d5a:	d87d      	bhi.n	83e58 <_malloc_r+0x1d0>
   83d5c:	4214      	tst	r4, r2
   83d5e:	d106      	bne.n	83d6e <_malloc_r+0xe6>
   83d60:	f020 0003 	bic.w	r0, r0, #3
   83d64:	0064      	lsls	r4, r4, #1
   83d66:	4214      	tst	r4, r2
   83d68:	f100 0004 	add.w	r0, r0, #4
   83d6c:	d0fa      	beq.n	83d64 <_malloc_r+0xdc>
   83d6e:	eb07 09c0 	add.w	r9, r7, r0, lsl #3
   83d72:	46cc      	mov	ip, r9
   83d74:	4680      	mov	r8, r0
   83d76:	f8dc 300c 	ldr.w	r3, [ip, #12]
   83d7a:	459c      	cmp	ip, r3
   83d7c:	d107      	bne.n	83d8e <_malloc_r+0x106>
   83d7e:	e15f      	b.n	84040 <_malloc_r+0x3b8>
   83d80:	2a00      	cmp	r2, #0
   83d82:	f280 816d 	bge.w	84060 <_malloc_r+0x3d8>
   83d86:	68db      	ldr	r3, [r3, #12]
   83d88:	459c      	cmp	ip, r3
   83d8a:	f000 8159 	beq.w	84040 <_malloc_r+0x3b8>
   83d8e:	6859      	ldr	r1, [r3, #4]
   83d90:	f021 0103 	bic.w	r1, r1, #3
   83d94:	1b8a      	subs	r2, r1, r6
   83d96:	2a0f      	cmp	r2, #15
   83d98:	ddf2      	ble.n	83d80 <_malloc_r+0xf8>
   83d9a:	68dc      	ldr	r4, [r3, #12]
   83d9c:	f8d3 c008 	ldr.w	ip, [r3, #8]
   83da0:	f046 0801 	orr.w	r8, r6, #1
   83da4:	4628      	mov	r0, r5
   83da6:	441e      	add	r6, r3
   83da8:	f042 0501 	orr.w	r5, r2, #1
   83dac:	f8c3 8004 	str.w	r8, [r3, #4]
   83db0:	f8cc 400c 	str.w	r4, [ip, #12]
   83db4:	f8c4 c008 	str.w	ip, [r4, #8]
   83db8:	617e      	str	r6, [r7, #20]
   83dba:	613e      	str	r6, [r7, #16]
   83dbc:	f8c6 e00c 	str.w	lr, [r6, #12]
   83dc0:	f8c6 e008 	str.w	lr, [r6, #8]
   83dc4:	6075      	str	r5, [r6, #4]
   83dc6:	505a      	str	r2, [r3, r1]
   83dc8:	9300      	str	r3, [sp, #0]
   83dca:	f000 fac5 	bl	84358 <__malloc_unlock>
   83dce:	9b00      	ldr	r3, [sp, #0]
   83dd0:	f103 0408 	add.w	r4, r3, #8
   83dd4:	e01e      	b.n	83e14 <_malloc_r+0x18c>
   83dd6:	2910      	cmp	r1, #16
   83dd8:	d820      	bhi.n	83e1c <_malloc_r+0x194>
   83dda:	f000 fab7 	bl	8434c <__malloc_lock>
   83dde:	2610      	movs	r6, #16
   83de0:	2318      	movs	r3, #24
   83de2:	2002      	movs	r0, #2
   83de4:	4f72      	ldr	r7, [pc, #456]	; (83fb0 <_malloc_r+0x328>)
   83de6:	443b      	add	r3, r7
   83de8:	685c      	ldr	r4, [r3, #4]
   83dea:	f1a3 0208 	sub.w	r2, r3, #8
   83dee:	4294      	cmp	r4, r2
   83df0:	f000 812f 	beq.w	84052 <_malloc_r+0x3ca>
   83df4:	6863      	ldr	r3, [r4, #4]
   83df6:	68e1      	ldr	r1, [r4, #12]
   83df8:	f023 0303 	bic.w	r3, r3, #3
   83dfc:	4423      	add	r3, r4
   83dfe:	685a      	ldr	r2, [r3, #4]
   83e00:	68a6      	ldr	r6, [r4, #8]
   83e02:	f042 0201 	orr.w	r2, r2, #1
   83e06:	60f1      	str	r1, [r6, #12]
   83e08:	4628      	mov	r0, r5
   83e0a:	608e      	str	r6, [r1, #8]
   83e0c:	605a      	str	r2, [r3, #4]
   83e0e:	f000 faa3 	bl	84358 <__malloc_unlock>
   83e12:	3408      	adds	r4, #8
   83e14:	4620      	mov	r0, r4
   83e16:	b003      	add	sp, #12
   83e18:	e8bd 8ff0 	ldmia.w	sp!, {r4, r5, r6, r7, r8, r9, sl, fp, pc}
   83e1c:	2400      	movs	r4, #0
   83e1e:	230c      	movs	r3, #12
   83e20:	4620      	mov	r0, r4
   83e22:	602b      	str	r3, [r5, #0]
   83e24:	b003      	add	sp, #12
   83e26:	e8bd 8ff0 	ldmia.w	sp!, {r4, r5, r6, r7, r8, r9, sl, fp, pc}
   83e2a:	2040      	movs	r0, #64	; 0x40
   83e2c:	f44f 7100 	mov.w	r1, #512	; 0x200
   83e30:	f04f 0e3f 	mov.w	lr, #63	; 0x3f
   83e34:	e74a      	b.n	83ccc <_malloc_r+0x44>
   83e36:	4423      	add	r3, r4
   83e38:	685a      	ldr	r2, [r3, #4]
   83e3a:	68e1      	ldr	r1, [r4, #12]
   83e3c:	e7e0      	b.n	83e00 <_malloc_r+0x178>
   83e3e:	4423      	add	r3, r4
   83e40:	685a      	ldr	r2, [r3, #4]
   83e42:	4628      	mov	r0, r5
   83e44:	f042 0201 	orr.w	r2, r2, #1
   83e48:	605a      	str	r2, [r3, #4]
   83e4a:	3408      	adds	r4, #8
   83e4c:	f000 fa84 	bl	84358 <__malloc_unlock>
   83e50:	4620      	mov	r0, r4
   83e52:	b003      	add	sp, #12
   83e54:	e8bd 8ff0 	ldmia.w	sp!, {r4, r5, r6, r7, r8, r9, sl, fp, pc}
   83e58:	68bc      	ldr	r4, [r7, #8]
   83e5a:	6863      	ldr	r3, [r4, #4]
   83e5c:	f023 0803 	bic.w	r8, r3, #3
   83e60:	45b0      	cmp	r8, r6
   83e62:	d304      	bcc.n	83e6e <_malloc_r+0x1e6>
   83e64:	eba8 0306 	sub.w	r3, r8, r6
   83e68:	2b0f      	cmp	r3, #15
   83e6a:	f300 8085 	bgt.w	83f78 <_malloc_r+0x2f0>
   83e6e:	f8df 9158 	ldr.w	r9, [pc, #344]	; 83fc8 <_malloc_r+0x340>
   83e72:	4b50      	ldr	r3, [pc, #320]	; (83fb4 <_malloc_r+0x32c>)
   83e74:	f8d9 2000 	ldr.w	r2, [r9]
   83e78:	681b      	ldr	r3, [r3, #0]
   83e7a:	3201      	adds	r2, #1
   83e7c:	4433      	add	r3, r6
   83e7e:	eb04 0a08 	add.w	sl, r4, r8
   83e82:	f000 8154 	beq.w	8412e <_malloc_r+0x4a6>
   83e86:	f503 5380 	add.w	r3, r3, #4096	; 0x1000
   83e8a:	330f      	adds	r3, #15
   83e8c:	f423 6b7f 	bic.w	fp, r3, #4080	; 0xff0
   83e90:	f02b 0b0f 	bic.w	fp, fp, #15
   83e94:	4659      	mov	r1, fp
   83e96:	4628      	mov	r0, r5
   83e98:	f000 fc1a 	bl	846d0 <_sbrk_r>
   83e9c:	1c41      	adds	r1, r0, #1
   83e9e:	4602      	mov	r2, r0
   83ea0:	f000 80fb 	beq.w	8409a <_malloc_r+0x412>
   83ea4:	4582      	cmp	sl, r0
   83ea6:	f200 80f6 	bhi.w	84096 <_malloc_r+0x40e>
   83eaa:	4b43      	ldr	r3, [pc, #268]	; (83fb8 <_malloc_r+0x330>)
   83eac:	6819      	ldr	r1, [r3, #0]
   83eae:	4459      	add	r1, fp
   83eb0:	6019      	str	r1, [r3, #0]
   83eb2:	f000 814c 	beq.w	8414e <_malloc_r+0x4c6>
   83eb6:	f8d9 0000 	ldr.w	r0, [r9]
   83eba:	3001      	adds	r0, #1
   83ebc:	bf1b      	ittet	ne
   83ebe:	eba2 0a0a 	subne.w	sl, r2, sl
   83ec2:	4451      	addne	r1, sl
   83ec4:	f8c9 2000 	streq.w	r2, [r9]
   83ec8:	6019      	strne	r1, [r3, #0]
   83eca:	f012 0107 	ands.w	r1, r2, #7
   83ece:	f000 8114 	beq.w	840fa <_malloc_r+0x472>
   83ed2:	f1c1 0008 	rsb	r0, r1, #8
   83ed6:	f5c1 5180 	rsb	r1, r1, #4096	; 0x1000
   83eda:	4402      	add	r2, r0
   83edc:	3108      	adds	r1, #8
   83ede:	eb02 090b 	add.w	r9, r2, fp
   83ee2:	f3c9 090b 	ubfx	r9, r9, #0, #12
   83ee6:	eba1 0909 	sub.w	r9, r1, r9
   83eea:	4649      	mov	r1, r9
   83eec:	4628      	mov	r0, r5
   83eee:	9301      	str	r3, [sp, #4]
   83ef0:	9200      	str	r2, [sp, #0]
   83ef2:	f000 fbed 	bl	846d0 <_sbrk_r>
   83ef6:	1c43      	adds	r3, r0, #1
   83ef8:	e89d 000c 	ldmia.w	sp, {r2, r3}
   83efc:	f000 8142 	beq.w	84184 <_malloc_r+0x4fc>
   83f00:	1a80      	subs	r0, r0, r2
   83f02:	4448      	add	r0, r9
   83f04:	f040 0001 	orr.w	r0, r0, #1
   83f08:	6819      	ldr	r1, [r3, #0]
   83f0a:	42bc      	cmp	r4, r7
   83f0c:	4449      	add	r1, r9
   83f0e:	60ba      	str	r2, [r7, #8]
   83f10:	6019      	str	r1, [r3, #0]
   83f12:	6050      	str	r0, [r2, #4]
   83f14:	d017      	beq.n	83f46 <_malloc_r+0x2be>
   83f16:	f1b8 0f0f 	cmp.w	r8, #15
   83f1a:	f240 80fa 	bls.w	84112 <_malloc_r+0x48a>
   83f1e:	f04f 0c05 	mov.w	ip, #5
   83f22:	6862      	ldr	r2, [r4, #4]
   83f24:	f1a8 000c 	sub.w	r0, r8, #12
   83f28:	f020 0007 	bic.w	r0, r0, #7
   83f2c:	f002 0201 	and.w	r2, r2, #1
   83f30:	eb04 0e00 	add.w	lr, r4, r0
   83f34:	4302      	orrs	r2, r0
   83f36:	280f      	cmp	r0, #15
   83f38:	6062      	str	r2, [r4, #4]
   83f3a:	f8ce c004 	str.w	ip, [lr, #4]
   83f3e:	f8ce c008 	str.w	ip, [lr, #8]
   83f42:	f200 8116 	bhi.w	84172 <_malloc_r+0x4ea>
   83f46:	4b1d      	ldr	r3, [pc, #116]	; (83fbc <_malloc_r+0x334>)
   83f48:	68bc      	ldr	r4, [r7, #8]
   83f4a:	681a      	ldr	r2, [r3, #0]
   83f4c:	4291      	cmp	r1, r2
   83f4e:	bf88      	it	hi
   83f50:	6019      	strhi	r1, [r3, #0]
   83f52:	4b1b      	ldr	r3, [pc, #108]	; (83fc0 <_malloc_r+0x338>)
   83f54:	681a      	ldr	r2, [r3, #0]
   83f56:	4291      	cmp	r1, r2
   83f58:	6862      	ldr	r2, [r4, #4]
   83f5a:	bf88      	it	hi
   83f5c:	6019      	strhi	r1, [r3, #0]
   83f5e:	f022 0203 	bic.w	r2, r2, #3
   83f62:	4296      	cmp	r6, r2
   83f64:	eba2 0306 	sub.w	r3, r2, r6
   83f68:	d801      	bhi.n	83f6e <_malloc_r+0x2e6>
   83f6a:	2b0f      	cmp	r3, #15
   83f6c:	dc04      	bgt.n	83f78 <_malloc_r+0x2f0>
   83f6e:	4628      	mov	r0, r5
   83f70:	f000 f9f2 	bl	84358 <__malloc_unlock>
   83f74:	2400      	movs	r4, #0
   83f76:	e74d      	b.n	83e14 <_malloc_r+0x18c>
   83f78:	f046 0201 	orr.w	r2, r6, #1
   83f7c:	f043 0301 	orr.w	r3, r3, #1
   83f80:	4426      	add	r6, r4
   83f82:	6062      	str	r2, [r4, #4]
   83f84:	4628      	mov	r0, r5
   83f86:	60be      	str	r6, [r7, #8]
   83f88:	3408      	adds	r4, #8
   83f8a:	6073      	str	r3, [r6, #4]
   83f8c:	f000 f9e4 	bl	84358 <__malloc_unlock>
   83f90:	4620      	mov	r0, r4
   83f92:	b003      	add	sp, #12
   83f94:	e8bd 8ff0 	ldmia.w	sp!, {r4, r5, r6, r7, r8, r9, sl, fp, pc}
   83f98:	2b14      	cmp	r3, #20
   83f9a:	d970      	bls.n	8407e <_malloc_r+0x3f6>
   83f9c:	2b54      	cmp	r3, #84	; 0x54
   83f9e:	f200 80a2 	bhi.w	840e6 <_malloc_r+0x45e>
   83fa2:	0b33      	lsrs	r3, r6, #12
   83fa4:	f103 006f 	add.w	r0, r3, #111	; 0x6f
   83fa8:	f103 0e6e 	add.w	lr, r3, #110	; 0x6e
   83fac:	00c1      	lsls	r1, r0, #3
   83fae:	e68d      	b.n	83ccc <_malloc_r+0x44>
   83fb0:	20070690 	.word	0x20070690
   83fb4:	20070bf0 	.word	0x20070bf0
   83fb8:	20070bc0 	.word	0x20070bc0
   83fbc:	20070be8 	.word	0x20070be8
   83fc0:	20070bec 	.word	0x20070bec
   83fc4:	20070698 	.word	0x20070698
   83fc8:	20070a98 	.word	0x20070a98
   83fcc:	0a5a      	lsrs	r2, r3, #9
   83fce:	2a04      	cmp	r2, #4
   83fd0:	d95b      	bls.n	8408a <_malloc_r+0x402>
   83fd2:	2a14      	cmp	r2, #20
   83fd4:	f200 80ae 	bhi.w	84134 <_malloc_r+0x4ac>
   83fd8:	f102 015c 	add.w	r1, r2, #92	; 0x5c
   83fdc:	00c9      	lsls	r1, r1, #3
   83fde:	325b      	adds	r2, #91	; 0x5b
   83fe0:	eb07 0c01 	add.w	ip, r7, r1
   83fe4:	5879      	ldr	r1, [r7, r1]
   83fe6:	f1ac 0c08 	sub.w	ip, ip, #8
   83fea:	458c      	cmp	ip, r1
   83fec:	f000 8088 	beq.w	84100 <_malloc_r+0x478>
   83ff0:	684a      	ldr	r2, [r1, #4]
   83ff2:	f022 0203 	bic.w	r2, r2, #3
   83ff6:	4293      	cmp	r3, r2
   83ff8:	d273      	bcs.n	840e2 <_malloc_r+0x45a>
   83ffa:	6889      	ldr	r1, [r1, #8]
   83ffc:	458c      	cmp	ip, r1
   83ffe:	d1f7      	bne.n	83ff0 <_malloc_r+0x368>
   84000:	f8dc 300c 	ldr.w	r3, [ip, #12]
   84004:	687a      	ldr	r2, [r7, #4]
   84006:	60e3      	str	r3, [r4, #12]
   84008:	f8c4 c008 	str.w	ip, [r4, #8]
   8400c:	609c      	str	r4, [r3, #8]
   8400e:	f8cc 400c 	str.w	r4, [ip, #12]
   84012:	e69e      	b.n	83d52 <_malloc_r+0xca>
   84014:	f046 0c01 	orr.w	ip, r6, #1
   84018:	f042 0101 	orr.w	r1, r2, #1
   8401c:	4426      	add	r6, r4
   8401e:	f8c4 c004 	str.w	ip, [r4, #4]
   84022:	4628      	mov	r0, r5
   84024:	617e      	str	r6, [r7, #20]
   84026:	613e      	str	r6, [r7, #16]
   84028:	f8c6 e00c 	str.w	lr, [r6, #12]
   8402c:	f8c6 e008 	str.w	lr, [r6, #8]
   84030:	6071      	str	r1, [r6, #4]
   84032:	50e2      	str	r2, [r4, r3]
   84034:	f000 f990 	bl	84358 <__malloc_unlock>
   84038:	3408      	adds	r4, #8
   8403a:	e6eb      	b.n	83e14 <_malloc_r+0x18c>
   8403c:	687a      	ldr	r2, [r7, #4]
   8403e:	e688      	b.n	83d52 <_malloc_r+0xca>
   84040:	f108 0801 	add.w	r8, r8, #1
   84044:	f018 0f03 	tst.w	r8, #3
   84048:	f10c 0c08 	add.w	ip, ip, #8
   8404c:	f47f ae93 	bne.w	83d76 <_malloc_r+0xee>
   84050:	e02d      	b.n	840ae <_malloc_r+0x426>
   84052:	68dc      	ldr	r4, [r3, #12]
   84054:	42a3      	cmp	r3, r4
   84056:	bf08      	it	eq
   84058:	3002      	addeq	r0, #2
   8405a:	f43f ae4b 	beq.w	83cf4 <_malloc_r+0x6c>
   8405e:	e6c9      	b.n	83df4 <_malloc_r+0x16c>
   84060:	461c      	mov	r4, r3
   84062:	4419      	add	r1, r3
   84064:	684a      	ldr	r2, [r1, #4]
   84066:	68db      	ldr	r3, [r3, #12]
   84068:	f854 6f08 	ldr.w	r6, [r4, #8]!
   8406c:	f042 0201 	orr.w	r2, r2, #1
   84070:	604a      	str	r2, [r1, #4]
   84072:	4628      	mov	r0, r5
   84074:	60f3      	str	r3, [r6, #12]
   84076:	609e      	str	r6, [r3, #8]
   84078:	f000 f96e 	bl	84358 <__malloc_unlock>
   8407c:	e6ca      	b.n	83e14 <_malloc_r+0x18c>
   8407e:	f103 005c 	add.w	r0, r3, #92	; 0x5c
   84082:	f103 0e5b 	add.w	lr, r3, #91	; 0x5b
   84086:	00c1      	lsls	r1, r0, #3
   84088:	e620      	b.n	83ccc <_malloc_r+0x44>
   8408a:	099a      	lsrs	r2, r3, #6
   8408c:	f102 0139 	add.w	r1, r2, #57	; 0x39
   84090:	00c9      	lsls	r1, r1, #3
   84092:	3238      	adds	r2, #56	; 0x38
   84094:	e7a4      	b.n	83fe0 <_malloc_r+0x358>
   84096:	42bc      	cmp	r4, r7
   84098:	d054      	beq.n	84144 <_malloc_r+0x4bc>
   8409a:	68bc      	ldr	r4, [r7, #8]
   8409c:	6862      	ldr	r2, [r4, #4]
   8409e:	f022 0203 	bic.w	r2, r2, #3
   840a2:	e75e      	b.n	83f62 <_malloc_r+0x2da>
   840a4:	f859 3908 	ldr.w	r3, [r9], #-8
   840a8:	4599      	cmp	r9, r3
   840aa:	f040 8086 	bne.w	841ba <_malloc_r+0x532>
   840ae:	f010 0f03 	tst.w	r0, #3
   840b2:	f100 30ff 	add.w	r0, r0, #4294967295
   840b6:	d1f5      	bne.n	840a4 <_malloc_r+0x41c>
   840b8:	687b      	ldr	r3, [r7, #4]
   840ba:	ea23 0304 	bic.w	r3, r3, r4
   840be:	607b      	str	r3, [r7, #4]
   840c0:	0064      	lsls	r4, r4, #1
   840c2:	429c      	cmp	r4, r3
   840c4:	f63f aec8 	bhi.w	83e58 <_malloc_r+0x1d0>
   840c8:	2c00      	cmp	r4, #0
   840ca:	f43f aec5 	beq.w	83e58 <_malloc_r+0x1d0>
   840ce:	421c      	tst	r4, r3
   840d0:	4640      	mov	r0, r8
   840d2:	f47f ae4c 	bne.w	83d6e <_malloc_r+0xe6>
   840d6:	0064      	lsls	r4, r4, #1
   840d8:	421c      	tst	r4, r3
   840da:	f100 0004 	add.w	r0, r0, #4
   840de:	d0fa      	beq.n	840d6 <_malloc_r+0x44e>
   840e0:	e645      	b.n	83d6e <_malloc_r+0xe6>
   840e2:	468c      	mov	ip, r1
   840e4:	e78c      	b.n	84000 <_malloc_r+0x378>
   840e6:	f5b3 7faa 	cmp.w	r3, #340	; 0x154
   840ea:	d815      	bhi.n	84118 <_malloc_r+0x490>
   840ec:	0bf3      	lsrs	r3, r6, #15
   840ee:	f103 0078 	add.w	r0, r3, #120	; 0x78
   840f2:	f103 0e77 	add.w	lr, r3, #119	; 0x77
   840f6:	00c1      	lsls	r1, r0, #3
   840f8:	e5e8      	b.n	83ccc <_malloc_r+0x44>
   840fa:	f44f 5180 	mov.w	r1, #4096	; 0x1000
   840fe:	e6ee      	b.n	83ede <_malloc_r+0x256>
   84100:	2101      	movs	r1, #1
   84102:	687b      	ldr	r3, [r7, #4]
   84104:	1092      	asrs	r2, r2, #2
   84106:	fa01 f202 	lsl.w	r2, r1, r2
   8410a:	431a      	orrs	r2, r3
   8410c:	607a      	str	r2, [r7, #4]
   8410e:	4663      	mov	r3, ip
   84110:	e779      	b.n	84006 <_malloc_r+0x37e>
   84112:	2301      	movs	r3, #1
   84114:	6053      	str	r3, [r2, #4]
   84116:	e72a      	b.n	83f6e <_malloc_r+0x2e6>
   84118:	f240 5254 	movw	r2, #1364	; 0x554
   8411c:	4293      	cmp	r3, r2
   8411e:	d822      	bhi.n	84166 <_malloc_r+0x4de>
   84120:	0cb3      	lsrs	r3, r6, #18
   84122:	f103 007d 	add.w	r0, r3, #125	; 0x7d
   84126:	f103 0e7c 	add.w	lr, r3, #124	; 0x7c
   8412a:	00c1      	lsls	r1, r0, #3
   8412c:	e5ce      	b.n	83ccc <_malloc_r+0x44>
   8412e:	f103 0b10 	add.w	fp, r3, #16
   84132:	e6af      	b.n	83e94 <_malloc_r+0x20c>
   84134:	2a54      	cmp	r2, #84	; 0x54
   84136:	d829      	bhi.n	8418c <_malloc_r+0x504>
   84138:	0b1a      	lsrs	r2, r3, #12
   8413a:	f102 016f 	add.w	r1, r2, #111	; 0x6f
   8413e:	00c9      	lsls	r1, r1, #3
   84140:	326e      	adds	r2, #110	; 0x6e
   84142:	e74d      	b.n	83fe0 <_malloc_r+0x358>
   84144:	4b20      	ldr	r3, [pc, #128]	; (841c8 <_malloc_r+0x540>)
   84146:	6819      	ldr	r1, [r3, #0]
   84148:	4459      	add	r1, fp
   8414a:	6019      	str	r1, [r3, #0]
   8414c:	e6b3      	b.n	83eb6 <_malloc_r+0x22e>
   8414e:	f3ca 000b 	ubfx	r0, sl, #0, #12
   84152:	2800      	cmp	r0, #0
   84154:	f47f aeaf 	bne.w	83eb6 <_malloc_r+0x22e>
   84158:	eb08 030b 	add.w	r3, r8, fp
   8415c:	68ba      	ldr	r2, [r7, #8]
   8415e:	f043 0301 	orr.w	r3, r3, #1
   84162:	6053      	str	r3, [r2, #4]
   84164:	e6ef      	b.n	83f46 <_malloc_r+0x2be>
   84166:	207f      	movs	r0, #127	; 0x7f
   84168:	f44f 717e 	mov.w	r1, #1016	; 0x3f8
   8416c:	f04f 0e7e 	mov.w	lr, #126	; 0x7e
   84170:	e5ac      	b.n	83ccc <_malloc_r+0x44>
   84172:	f104 0108 	add.w	r1, r4, #8
   84176:	4628      	mov	r0, r5
   84178:	9300      	str	r3, [sp, #0]
   8417a:	f7ff fa67 	bl	8364c <_free_r>
   8417e:	9b00      	ldr	r3, [sp, #0]
   84180:	6819      	ldr	r1, [r3, #0]
   84182:	e6e0      	b.n	83f46 <_malloc_r+0x2be>
   84184:	2001      	movs	r0, #1
   84186:	f04f 0900 	mov.w	r9, #0
   8418a:	e6bd      	b.n	83f08 <_malloc_r+0x280>
   8418c:	f5b2 7faa 	cmp.w	r2, #340	; 0x154
   84190:	d805      	bhi.n	8419e <_malloc_r+0x516>
   84192:	0bda      	lsrs	r2, r3, #15
   84194:	f102 0178 	add.w	r1, r2, #120	; 0x78
   84198:	00c9      	lsls	r1, r1, #3
   8419a:	3277      	adds	r2, #119	; 0x77
   8419c:	e720      	b.n	83fe0 <_malloc_r+0x358>
   8419e:	f240 5154 	movw	r1, #1364	; 0x554
   841a2:	428a      	cmp	r2, r1
   841a4:	d805      	bhi.n	841b2 <_malloc_r+0x52a>
   841a6:	0c9a      	lsrs	r2, r3, #18
   841a8:	f102 017d 	add.w	r1, r2, #125	; 0x7d
   841ac:	00c9      	lsls	r1, r1, #3
   841ae:	327c      	adds	r2, #124	; 0x7c
   841b0:	e716      	b.n	83fe0 <_malloc_r+0x358>
   841b2:	f44f 717e 	mov.w	r1, #1016	; 0x3f8
   841b6:	227e      	movs	r2, #126	; 0x7e
   841b8:	e712      	b.n	83fe0 <_malloc_r+0x358>
   841ba:	687b      	ldr	r3, [r7, #4]
   841bc:	e780      	b.n	840c0 <_malloc_r+0x438>
   841be:	08f0      	lsrs	r0, r6, #3
   841c0:	f106 0308 	add.w	r3, r6, #8
   841c4:	e60e      	b.n	83de4 <_malloc_r+0x15c>
   841c6:	bf00      	nop
   841c8:	20070bc0 	.word	0x20070bc0

000841cc <__ascii_mbtowc>:
   841cc:	b082      	sub	sp, #8
   841ce:	b149      	cbz	r1, 841e4 <__ascii_mbtowc+0x18>
   841d0:	b15a      	cbz	r2, 841ea <__ascii_mbtowc+0x1e>
   841d2:	b16b      	cbz	r3, 841f0 <__ascii_mbtowc+0x24>
   841d4:	7813      	ldrb	r3, [r2, #0]
   841d6:	600b      	str	r3, [r1, #0]
   841d8:	7812      	ldrb	r2, [r2, #0]
   841da:	1c10      	adds	r0, r2, #0
   841dc:	bf18      	it	ne
   841de:	2001      	movne	r0, #1
   841e0:	b002      	add	sp, #8
   841e2:	4770      	bx	lr
   841e4:	a901      	add	r1, sp, #4
   841e6:	2a00      	cmp	r2, #0
   841e8:	d1f3      	bne.n	841d2 <__ascii_mbtowc+0x6>
   841ea:	4610      	mov	r0, r2
   841ec:	b002      	add	sp, #8
   841ee:	4770      	bx	lr
   841f0:	f06f 0001 	mvn.w	r0, #1
   841f4:	e7f4      	b.n	841e0 <__ascii_mbtowc+0x14>
   841f6:	bf00      	nop

000841f8 <memchr>:
   841f8:	0783      	lsls	r3, r0, #30
   841fa:	b470      	push	{r4, r5, r6}
   841fc:	b2cd      	uxtb	r5, r1
   841fe:	d03d      	beq.n	8427c <memchr+0x84>
   84200:	1e54      	subs	r4, r2, #1
   84202:	b30a      	cbz	r2, 84248 <memchr+0x50>
   84204:	7803      	ldrb	r3, [r0, #0]
   84206:	42ab      	cmp	r3, r5
   84208:	d01f      	beq.n	8424a <memchr+0x52>
   8420a:	1c43      	adds	r3, r0, #1
   8420c:	e005      	b.n	8421a <memchr+0x22>
   8420e:	f114 34ff 	adds.w	r4, r4, #4294967295
   84212:	d319      	bcc.n	84248 <memchr+0x50>
   84214:	7802      	ldrb	r2, [r0, #0]
   84216:	42aa      	cmp	r2, r5
   84218:	d017      	beq.n	8424a <memchr+0x52>
   8421a:	f013 0f03 	tst.w	r3, #3
   8421e:	4618      	mov	r0, r3
   84220:	f103 0301 	add.w	r3, r3, #1
   84224:	d1f3      	bne.n	8420e <memchr+0x16>
   84226:	2c03      	cmp	r4, #3
   84228:	d811      	bhi.n	8424e <memchr+0x56>
   8422a:	b34c      	cbz	r4, 84280 <memchr+0x88>
   8422c:	7803      	ldrb	r3, [r0, #0]
   8422e:	42ab      	cmp	r3, r5
   84230:	d00b      	beq.n	8424a <memchr+0x52>
   84232:	4404      	add	r4, r0
   84234:	1c43      	adds	r3, r0, #1
   84236:	e002      	b.n	8423e <memchr+0x46>
   84238:	7802      	ldrb	r2, [r0, #0]
   8423a:	42aa      	cmp	r2, r5
   8423c:	d005      	beq.n	8424a <memchr+0x52>
   8423e:	429c      	cmp	r4, r3
   84240:	4618      	mov	r0, r3
   84242:	f103 0301 	add.w	r3, r3, #1
   84246:	d1f7      	bne.n	84238 <memchr+0x40>
   84248:	2000      	movs	r0, #0
   8424a:	bc70      	pop	{r4, r5, r6}
   8424c:	4770      	bx	lr
   8424e:	0209      	lsls	r1, r1, #8
   84250:	b289      	uxth	r1, r1
   84252:	4329      	orrs	r1, r5
   84254:	ea41 4101 	orr.w	r1, r1, r1, lsl #16
   84258:	6803      	ldr	r3, [r0, #0]
   8425a:	4606      	mov	r6, r0
   8425c:	404b      	eors	r3, r1
   8425e:	f1a3 3201 	sub.w	r2, r3, #16843009	; 0x1010101
   84262:	ea22 0303 	bic.w	r3, r2, r3
   84266:	f013 3f80 	tst.w	r3, #2155905152	; 0x80808080
   8426a:	f100 0004 	add.w	r0, r0, #4
   8426e:	d103      	bne.n	84278 <memchr+0x80>
   84270:	3c04      	subs	r4, #4
   84272:	2c03      	cmp	r4, #3
   84274:	d8f0      	bhi.n	84258 <memchr+0x60>
   84276:	e7d8      	b.n	8422a <memchr+0x32>
   84278:	4630      	mov	r0, r6
   8427a:	e7d7      	b.n	8422c <memchr+0x34>
   8427c:	4614      	mov	r4, r2
   8427e:	e7d2      	b.n	84226 <memchr+0x2e>
   84280:	4620      	mov	r0, r4
   84282:	e7e2      	b.n	8424a <memchr+0x52>

00084284 <memmove>:
   84284:	4288      	cmp	r0, r1
   84286:	b5f0      	push	{r4, r5, r6, r7, lr}
   84288:	d90d      	bls.n	842a6 <memmove+0x22>
   8428a:	188b      	adds	r3, r1, r2
   8428c:	4298      	cmp	r0, r3
   8428e:	d20a      	bcs.n	842a6 <memmove+0x22>
   84290:	1884      	adds	r4, r0, r2
   84292:	2a00      	cmp	r2, #0
   84294:	d051      	beq.n	8433a <memmove+0xb6>
   84296:	4622      	mov	r2, r4
   84298:	f813 4d01 	ldrb.w	r4, [r3, #-1]!
   8429c:	4299      	cmp	r1, r3
   8429e:	f802 4d01 	strb.w	r4, [r2, #-1]!
   842a2:	d1f9      	bne.n	84298 <memmove+0x14>
   842a4:	bdf0      	pop	{r4, r5, r6, r7, pc}
   842a6:	2a0f      	cmp	r2, #15
   842a8:	d948      	bls.n	8433c <memmove+0xb8>
   842aa:	ea41 0300 	orr.w	r3, r1, r0
   842ae:	079b      	lsls	r3, r3, #30
   842b0:	d146      	bne.n	84340 <memmove+0xbc>
   842b2:	4615      	mov	r5, r2
   842b4:	f100 0410 	add.w	r4, r0, #16
   842b8:	f101 0310 	add.w	r3, r1, #16
   842bc:	f853 6c10 	ldr.w	r6, [r3, #-16]
   842c0:	3d10      	subs	r5, #16
   842c2:	f844 6c10 	str.w	r6, [r4, #-16]
   842c6:	f853 6c0c 	ldr.w	r6, [r3, #-12]
   842ca:	2d0f      	cmp	r5, #15
   842cc:	f844 6c0c 	str.w	r6, [r4, #-12]
   842d0:	f853 6c08 	ldr.w	r6, [r3, #-8]
   842d4:	f104 0410 	add.w	r4, r4, #16
   842d8:	f844 6c18 	str.w	r6, [r4, #-24]
   842dc:	f853 6c04 	ldr.w	r6, [r3, #-4]
   842e0:	f103 0310 	add.w	r3, r3, #16
   842e4:	f844 6c14 	str.w	r6, [r4, #-20]
   842e8:	d8e8      	bhi.n	842bc <memmove+0x38>
   842ea:	f1a2 0310 	sub.w	r3, r2, #16
   842ee:	f023 030f 	bic.w	r3, r3, #15
   842f2:	f002 0e0f 	and.w	lr, r2, #15
   842f6:	3310      	adds	r3, #16
   842f8:	f1be 0f03 	cmp.w	lr, #3
   842fc:	4419      	add	r1, r3
   842fe:	4403      	add	r3, r0
   84300:	d921      	bls.n	84346 <memmove+0xc2>
   84302:	460e      	mov	r6, r1
   84304:	4674      	mov	r4, lr
   84306:	1f1d      	subs	r5, r3, #4
   84308:	f856 7b04 	ldr.w	r7, [r6], #4
   8430c:	3c04      	subs	r4, #4
   8430e:	2c03      	cmp	r4, #3
   84310:	f845 7f04 	str.w	r7, [r5, #4]!
   84314:	d8f8      	bhi.n	84308 <memmove+0x84>
   84316:	f1ae 0404 	sub.w	r4, lr, #4
   8431a:	f024 0403 	bic.w	r4, r4, #3
   8431e:	3404      	adds	r4, #4
   84320:	4421      	add	r1, r4
   84322:	4423      	add	r3, r4
   84324:	f002 0203 	and.w	r2, r2, #3
   84328:	b162      	cbz	r2, 84344 <memmove+0xc0>
   8432a:	3b01      	subs	r3, #1
   8432c:	440a      	add	r2, r1
   8432e:	f811 4b01 	ldrb.w	r4, [r1], #1
   84332:	428a      	cmp	r2, r1
   84334:	f803 4f01 	strb.w	r4, [r3, #1]!
   84338:	d1f9      	bne.n	8432e <memmove+0xaa>
   8433a:	bdf0      	pop	{r4, r5, r6, r7, pc}
   8433c:	4603      	mov	r3, r0
   8433e:	e7f3      	b.n	84328 <memmove+0xa4>
   84340:	4603      	mov	r3, r0
   84342:	e7f2      	b.n	8432a <memmove+0xa6>
   84344:	bdf0      	pop	{r4, r5, r6, r7, pc}
   84346:	4672      	mov	r2, lr
   84348:	e7ee      	b.n	84328 <memmove+0xa4>
   8434a:	bf00      	nop

0008434c <__malloc_lock>:
   8434c:	4801      	ldr	r0, [pc, #4]	; (84354 <__malloc_lock+0x8>)
   8434e:	f7ff bc17 	b.w	83b80 <__retarget_lock_acquire_recursive>
   84352:	bf00      	nop
   84354:	20070c6c 	.word	0x20070c6c

00084358 <__malloc_unlock>:
   84358:	4801      	ldr	r0, [pc, #4]	; (84360 <__malloc_unlock+0x8>)
   8435a:	f7ff bc13 	b.w	83b84 <__retarget_lock_release_recursive>
   8435e:	bf00      	nop
   84360:	20070c6c 	.word	0x20070c6c

00084364 <_realloc_r>:
   84364:	2900      	cmp	r1, #0
   84366:	f000 8094 	beq.w	84492 <_realloc_r+0x12e>
   8436a:	e92d 4ff0 	stmdb	sp!, {r4, r5, r6, r7, r8, r9, sl, fp, lr}
   8436e:	460c      	mov	r4, r1
   84370:	4615      	mov	r5, r2
   84372:	b083      	sub	sp, #12
   84374:	4680      	mov	r8, r0
   84376:	f105 060b 	add.w	r6, r5, #11
   8437a:	f7ff ffe7 	bl	8434c <__malloc_lock>
   8437e:	f854 ec04 	ldr.w	lr, [r4, #-4]
   84382:	2e16      	cmp	r6, #22
   84384:	f02e 0703 	bic.w	r7, lr, #3
   84388:	f1a4 0908 	sub.w	r9, r4, #8
   8438c:	d83c      	bhi.n	84408 <_realloc_r+0xa4>
   8438e:	2210      	movs	r2, #16
   84390:	4616      	mov	r6, r2
   84392:	42b5      	cmp	r5, r6
   84394:	d83d      	bhi.n	84412 <_realloc_r+0xae>
   84396:	4297      	cmp	r7, r2
   84398:	da43      	bge.n	84422 <_realloc_r+0xbe>
   8439a:	4bc6      	ldr	r3, [pc, #792]	; (846b4 <_realloc_r+0x350>)
   8439c:	eb09 0007 	add.w	r0, r9, r7
   843a0:	6899      	ldr	r1, [r3, #8]
   843a2:	4288      	cmp	r0, r1
   843a4:	f000 80c3 	beq.w	8452e <_realloc_r+0x1ca>
   843a8:	6843      	ldr	r3, [r0, #4]
   843aa:	f023 0101 	bic.w	r1, r3, #1
   843ae:	4401      	add	r1, r0
   843b0:	6849      	ldr	r1, [r1, #4]
   843b2:	07c9      	lsls	r1, r1, #31
   843b4:	d54d      	bpl.n	84452 <_realloc_r+0xee>
   843b6:	f01e 0f01 	tst.w	lr, #1
   843ba:	f000 809b 	beq.w	844f4 <_realloc_r+0x190>
   843be:	4629      	mov	r1, r5
   843c0:	4640      	mov	r0, r8
   843c2:	f7ff fc61 	bl	83c88 <_malloc_r>
   843c6:	4605      	mov	r5, r0
   843c8:	2800      	cmp	r0, #0
   843ca:	d03b      	beq.n	84444 <_realloc_r+0xe0>
   843cc:	f854 3c04 	ldr.w	r3, [r4, #-4]
   843d0:	f1a0 0208 	sub.w	r2, r0, #8
   843d4:	f023 0301 	bic.w	r3, r3, #1
   843d8:	444b      	add	r3, r9
   843da:	429a      	cmp	r2, r3
   843dc:	f000 812b 	beq.w	84636 <_realloc_r+0x2d2>
   843e0:	1f3a      	subs	r2, r7, #4
   843e2:	2a24      	cmp	r2, #36	; 0x24
   843e4:	f200 8118 	bhi.w	84618 <_realloc_r+0x2b4>
   843e8:	2a13      	cmp	r2, #19
   843ea:	f200 80eb 	bhi.w	845c4 <_realloc_r+0x260>
   843ee:	4603      	mov	r3, r0
   843f0:	4622      	mov	r2, r4
   843f2:	6811      	ldr	r1, [r2, #0]
   843f4:	6019      	str	r1, [r3, #0]
   843f6:	6851      	ldr	r1, [r2, #4]
   843f8:	6059      	str	r1, [r3, #4]
   843fa:	6892      	ldr	r2, [r2, #8]
   843fc:	609a      	str	r2, [r3, #8]
   843fe:	4621      	mov	r1, r4
   84400:	4640      	mov	r0, r8
   84402:	f7ff f923 	bl	8364c <_free_r>
   84406:	e01d      	b.n	84444 <_realloc_r+0xe0>
   84408:	f026 0607 	bic.w	r6, r6, #7
   8440c:	2e00      	cmp	r6, #0
   8440e:	4632      	mov	r2, r6
   84410:	dabf      	bge.n	84392 <_realloc_r+0x2e>
   84412:	2500      	movs	r5, #0
   84414:	230c      	movs	r3, #12
   84416:	4628      	mov	r0, r5
   84418:	f8c8 3000 	str.w	r3, [r8]
   8441c:	b003      	add	sp, #12
   8441e:	e8bd 8ff0 	ldmia.w	sp!, {r4, r5, r6, r7, r8, r9, sl, fp, pc}
   84422:	4625      	mov	r5, r4
   84424:	1bbb      	subs	r3, r7, r6
   84426:	2b0f      	cmp	r3, #15
   84428:	f8d9 2004 	ldr.w	r2, [r9, #4]
   8442c:	d81d      	bhi.n	8446a <_realloc_r+0x106>
   8442e:	f002 0201 	and.w	r2, r2, #1
   84432:	433a      	orrs	r2, r7
   84434:	eb09 0107 	add.w	r1, r9, r7
   84438:	f8c9 2004 	str.w	r2, [r9, #4]
   8443c:	684b      	ldr	r3, [r1, #4]
   8443e:	f043 0301 	orr.w	r3, r3, #1
   84442:	604b      	str	r3, [r1, #4]
   84444:	4640      	mov	r0, r8
   84446:	f7ff ff87 	bl	84358 <__malloc_unlock>
   8444a:	4628      	mov	r0, r5
   8444c:	b003      	add	sp, #12
   8444e:	e8bd 8ff0 	ldmia.w	sp!, {r4, r5, r6, r7, r8, r9, sl, fp, pc}
   84452:	f023 0303 	bic.w	r3, r3, #3
   84456:	18f9      	adds	r1, r7, r3
   84458:	4291      	cmp	r1, r2
   8445a:	db1d      	blt.n	84498 <_realloc_r+0x134>
   8445c:	68c3      	ldr	r3, [r0, #12]
   8445e:	6882      	ldr	r2, [r0, #8]
   84460:	4625      	mov	r5, r4
   84462:	60d3      	str	r3, [r2, #12]
   84464:	460f      	mov	r7, r1
   84466:	609a      	str	r2, [r3, #8]
   84468:	e7dc      	b.n	84424 <_realloc_r+0xc0>
   8446a:	f002 0201 	and.w	r2, r2, #1
   8446e:	eb09 0106 	add.w	r1, r9, r6
   84472:	f043 0301 	orr.w	r3, r3, #1
   84476:	4332      	orrs	r2, r6
   84478:	f8c9 2004 	str.w	r2, [r9, #4]
   8447c:	444f      	add	r7, r9
   8447e:	604b      	str	r3, [r1, #4]
   84480:	687b      	ldr	r3, [r7, #4]
   84482:	3108      	adds	r1, #8
   84484:	f043 0301 	orr.w	r3, r3, #1
   84488:	607b      	str	r3, [r7, #4]
   8448a:	4640      	mov	r0, r8
   8448c:	f7ff f8de 	bl	8364c <_free_r>
   84490:	e7d8      	b.n	84444 <_realloc_r+0xe0>
   84492:	4611      	mov	r1, r2
   84494:	f7ff bbf8 	b.w	83c88 <_malloc_r>
   84498:	f01e 0f01 	tst.w	lr, #1
   8449c:	d18f      	bne.n	843be <_realloc_r+0x5a>
   8449e:	f854 1c08 	ldr.w	r1, [r4, #-8]
   844a2:	eba9 0a01 	sub.w	sl, r9, r1
   844a6:	f8da 1004 	ldr.w	r1, [sl, #4]
   844aa:	f021 0103 	bic.w	r1, r1, #3
   844ae:	440b      	add	r3, r1
   844b0:	443b      	add	r3, r7
   844b2:	4293      	cmp	r3, r2
   844b4:	db26      	blt.n	84504 <_realloc_r+0x1a0>
   844b6:	4655      	mov	r5, sl
   844b8:	68c1      	ldr	r1, [r0, #12]
   844ba:	6880      	ldr	r0, [r0, #8]
   844bc:	1f3a      	subs	r2, r7, #4
   844be:	60c1      	str	r1, [r0, #12]
   844c0:	6088      	str	r0, [r1, #8]
   844c2:	f855 0f08 	ldr.w	r0, [r5, #8]!
   844c6:	f8da 100c 	ldr.w	r1, [sl, #12]
   844ca:	2a24      	cmp	r2, #36	; 0x24
   844cc:	60c1      	str	r1, [r0, #12]
   844ce:	6088      	str	r0, [r1, #8]
   844d0:	d826      	bhi.n	84520 <_realloc_r+0x1bc>
   844d2:	2a13      	cmp	r2, #19
   844d4:	f240 8081 	bls.w	845da <_realloc_r+0x276>
   844d8:	6821      	ldr	r1, [r4, #0]
   844da:	2a1b      	cmp	r2, #27
   844dc:	f8ca 1008 	str.w	r1, [sl, #8]
   844e0:	6861      	ldr	r1, [r4, #4]
   844e2:	f8ca 100c 	str.w	r1, [sl, #12]
   844e6:	f200 80ad 	bhi.w	84644 <_realloc_r+0x2e0>
   844ea:	f104 0008 	add.w	r0, r4, #8
   844ee:	f10a 0210 	add.w	r2, sl, #16
   844f2:	e074      	b.n	845de <_realloc_r+0x27a>
   844f4:	f854 3c08 	ldr.w	r3, [r4, #-8]
   844f8:	eba9 0a03 	sub.w	sl, r9, r3
   844fc:	f8da 1004 	ldr.w	r1, [sl, #4]
   84500:	f021 0103 	bic.w	r1, r1, #3
   84504:	187b      	adds	r3, r7, r1
   84506:	4293      	cmp	r3, r2
   84508:	f6ff af59 	blt.w	843be <_realloc_r+0x5a>
   8450c:	4655      	mov	r5, sl
   8450e:	f8da 100c 	ldr.w	r1, [sl, #12]
   84512:	f855 0f08 	ldr.w	r0, [r5, #8]!
   84516:	1f3a      	subs	r2, r7, #4
   84518:	2a24      	cmp	r2, #36	; 0x24
   8451a:	60c1      	str	r1, [r0, #12]
   8451c:	6088      	str	r0, [r1, #8]
   8451e:	d9d8      	bls.n	844d2 <_realloc_r+0x16e>
   84520:	4621      	mov	r1, r4
   84522:	4628      	mov	r0, r5
   84524:	461f      	mov	r7, r3
   84526:	46d1      	mov	r9, sl
   84528:	f7ff feac 	bl	84284 <memmove>
   8452c:	e77a      	b.n	84424 <_realloc_r+0xc0>
   8452e:	6841      	ldr	r1, [r0, #4]
   84530:	f106 0010 	add.w	r0, r6, #16
   84534:	f021 0b03 	bic.w	fp, r1, #3
   84538:	44bb      	add	fp, r7
   8453a:	4583      	cmp	fp, r0
   8453c:	da58      	bge.n	845f0 <_realloc_r+0x28c>
   8453e:	f01e 0f01 	tst.w	lr, #1
   84542:	f47f af3c 	bne.w	843be <_realloc_r+0x5a>
   84546:	f854 1c08 	ldr.w	r1, [r4, #-8]
   8454a:	eba9 0a01 	sub.w	sl, r9, r1
   8454e:	f8da 1004 	ldr.w	r1, [sl, #4]
   84552:	f021 0103 	bic.w	r1, r1, #3
   84556:	448b      	add	fp, r1
   84558:	4558      	cmp	r0, fp
   8455a:	dcd3      	bgt.n	84504 <_realloc_r+0x1a0>
   8455c:	4655      	mov	r5, sl
   8455e:	f8da 100c 	ldr.w	r1, [sl, #12]
   84562:	f855 0f08 	ldr.w	r0, [r5, #8]!
   84566:	1f3a      	subs	r2, r7, #4
   84568:	2a24      	cmp	r2, #36	; 0x24
   8456a:	60c1      	str	r1, [r0, #12]
   8456c:	6088      	str	r0, [r1, #8]
   8456e:	f200 808d 	bhi.w	8468c <_realloc_r+0x328>
   84572:	2a13      	cmp	r2, #19
   84574:	f240 8087 	bls.w	84686 <_realloc_r+0x322>
   84578:	6821      	ldr	r1, [r4, #0]
   8457a:	2a1b      	cmp	r2, #27
   8457c:	f8ca 1008 	str.w	r1, [sl, #8]
   84580:	6861      	ldr	r1, [r4, #4]
   84582:	f8ca 100c 	str.w	r1, [sl, #12]
   84586:	f200 8088 	bhi.w	8469a <_realloc_r+0x336>
   8458a:	f104 0108 	add.w	r1, r4, #8
   8458e:	f10a 0210 	add.w	r2, sl, #16
   84592:	6808      	ldr	r0, [r1, #0]
   84594:	6010      	str	r0, [r2, #0]
   84596:	6848      	ldr	r0, [r1, #4]
   84598:	6050      	str	r0, [r2, #4]
   8459a:	6889      	ldr	r1, [r1, #8]
   8459c:	6091      	str	r1, [r2, #8]
   8459e:	ebab 0206 	sub.w	r2, fp, r6
   845a2:	eb0a 0106 	add.w	r1, sl, r6
   845a6:	f042 0201 	orr.w	r2, r2, #1
   845aa:	6099      	str	r1, [r3, #8]
   845ac:	604a      	str	r2, [r1, #4]
   845ae:	f8da 3004 	ldr.w	r3, [sl, #4]
   845b2:	4640      	mov	r0, r8
   845b4:	f003 0301 	and.w	r3, r3, #1
   845b8:	431e      	orrs	r6, r3
   845ba:	f8ca 6004 	str.w	r6, [sl, #4]
   845be:	f7ff fecb 	bl	84358 <__malloc_unlock>
   845c2:	e742      	b.n	8444a <_realloc_r+0xe6>
   845c4:	6823      	ldr	r3, [r4, #0]
   845c6:	2a1b      	cmp	r2, #27
   845c8:	6003      	str	r3, [r0, #0]
   845ca:	6863      	ldr	r3, [r4, #4]
   845cc:	6043      	str	r3, [r0, #4]
   845ce:	d827      	bhi.n	84620 <_realloc_r+0x2bc>
   845d0:	f100 0308 	add.w	r3, r0, #8
   845d4:	f104 0208 	add.w	r2, r4, #8
   845d8:	e70b      	b.n	843f2 <_realloc_r+0x8e>
   845da:	4620      	mov	r0, r4
   845dc:	462a      	mov	r2, r5
   845de:	6801      	ldr	r1, [r0, #0]
   845e0:	461f      	mov	r7, r3
   845e2:	6011      	str	r1, [r2, #0]
   845e4:	6841      	ldr	r1, [r0, #4]
   845e6:	46d1      	mov	r9, sl
   845e8:	6051      	str	r1, [r2, #4]
   845ea:	6883      	ldr	r3, [r0, #8]
   845ec:	6093      	str	r3, [r2, #8]
   845ee:	e719      	b.n	84424 <_realloc_r+0xc0>
   845f0:	ebab 0b06 	sub.w	fp, fp, r6
   845f4:	eb09 0106 	add.w	r1, r9, r6
   845f8:	f04b 0201 	orr.w	r2, fp, #1
   845fc:	6099      	str	r1, [r3, #8]
   845fe:	604a      	str	r2, [r1, #4]
   84600:	f854 3c04 	ldr.w	r3, [r4, #-4]
   84604:	4640      	mov	r0, r8
   84606:	f003 0301 	and.w	r3, r3, #1
   8460a:	431e      	orrs	r6, r3
   8460c:	f844 6c04 	str.w	r6, [r4, #-4]
   84610:	f7ff fea2 	bl	84358 <__malloc_unlock>
   84614:	4625      	mov	r5, r4
   84616:	e718      	b.n	8444a <_realloc_r+0xe6>
   84618:	4621      	mov	r1, r4
   8461a:	f7ff fe33 	bl	84284 <memmove>
   8461e:	e6ee      	b.n	843fe <_realloc_r+0x9a>
   84620:	68a3      	ldr	r3, [r4, #8]
   84622:	2a24      	cmp	r2, #36	; 0x24
   84624:	6083      	str	r3, [r0, #8]
   84626:	68e3      	ldr	r3, [r4, #12]
   84628:	60c3      	str	r3, [r0, #12]
   8462a:	d018      	beq.n	8465e <_realloc_r+0x2fa>
   8462c:	f100 0310 	add.w	r3, r0, #16
   84630:	f104 0210 	add.w	r2, r4, #16
   84634:	e6dd      	b.n	843f2 <_realloc_r+0x8e>
   84636:	f850 3c04 	ldr.w	r3, [r0, #-4]
   8463a:	4625      	mov	r5, r4
   8463c:	f023 0303 	bic.w	r3, r3, #3
   84640:	441f      	add	r7, r3
   84642:	e6ef      	b.n	84424 <_realloc_r+0xc0>
   84644:	68a1      	ldr	r1, [r4, #8]
   84646:	2a24      	cmp	r2, #36	; 0x24
   84648:	f8ca 1010 	str.w	r1, [sl, #16]
   8464c:	68e1      	ldr	r1, [r4, #12]
   8464e:	f8ca 1014 	str.w	r1, [sl, #20]
   84652:	d00d      	beq.n	84670 <_realloc_r+0x30c>
   84654:	f104 0010 	add.w	r0, r4, #16
   84658:	f10a 0218 	add.w	r2, sl, #24
   8465c:	e7bf      	b.n	845de <_realloc_r+0x27a>
   8465e:	6922      	ldr	r2, [r4, #16]
   84660:	f100 0318 	add.w	r3, r0, #24
   84664:	6102      	str	r2, [r0, #16]
   84666:	6961      	ldr	r1, [r4, #20]
   84668:	f104 0218 	add.w	r2, r4, #24
   8466c:	6141      	str	r1, [r0, #20]
   8466e:	e6c0      	b.n	843f2 <_realloc_r+0x8e>
   84670:	6922      	ldr	r2, [r4, #16]
   84672:	f104 0018 	add.w	r0, r4, #24
   84676:	f8ca 2018 	str.w	r2, [sl, #24]
   8467a:	6961      	ldr	r1, [r4, #20]
   8467c:	f10a 0220 	add.w	r2, sl, #32
   84680:	f8ca 101c 	str.w	r1, [sl, #28]
   84684:	e7ab      	b.n	845de <_realloc_r+0x27a>
   84686:	4621      	mov	r1, r4
   84688:	462a      	mov	r2, r5
   8468a:	e782      	b.n	84592 <_realloc_r+0x22e>
   8468c:	4621      	mov	r1, r4
   8468e:	4628      	mov	r0, r5
   84690:	9301      	str	r3, [sp, #4]
   84692:	f7ff fdf7 	bl	84284 <memmove>
   84696:	9b01      	ldr	r3, [sp, #4]
   84698:	e781      	b.n	8459e <_realloc_r+0x23a>
   8469a:	68a1      	ldr	r1, [r4, #8]
   8469c:	2a24      	cmp	r2, #36	; 0x24
   8469e:	f8ca 1010 	str.w	r1, [sl, #16]
   846a2:	68e1      	ldr	r1, [r4, #12]
   846a4:	f8ca 1014 	str.w	r1, [sl, #20]
   846a8:	d006      	beq.n	846b8 <_realloc_r+0x354>
   846aa:	f104 0110 	add.w	r1, r4, #16
   846ae:	f10a 0218 	add.w	r2, sl, #24
   846b2:	e76e      	b.n	84592 <_realloc_r+0x22e>
   846b4:	20070690 	.word	0x20070690
   846b8:	6922      	ldr	r2, [r4, #16]
   846ba:	f104 0118 	add.w	r1, r4, #24
   846be:	f8ca 2018 	str.w	r2, [sl, #24]
   846c2:	6960      	ldr	r0, [r4, #20]
   846c4:	f10a 0220 	add.w	r2, sl, #32
   846c8:	f8ca 001c 	str.w	r0, [sl, #28]
   846cc:	e761      	b.n	84592 <_realloc_r+0x22e>
   846ce:	bf00      	nop

000846d0 <_sbrk_r>:
   846d0:	b538      	push	{r3, r4, r5, lr}
   846d2:	2300      	movs	r3, #0
   846d4:	4c06      	ldr	r4, [pc, #24]	; (846f0 <_sbrk_r+0x20>)
   846d6:	4605      	mov	r5, r0
   846d8:	4608      	mov	r0, r1
   846da:	6023      	str	r3, [r4, #0]
   846dc:	f7fc fe64 	bl	813a8 <_sbrk>
   846e0:	1c43      	adds	r3, r0, #1
   846e2:	d000      	beq.n	846e6 <_sbrk_r+0x16>
   846e4:	bd38      	pop	{r3, r4, r5, pc}
   846e6:	6823      	ldr	r3, [r4, #0]
   846e8:	2b00      	cmp	r3, #0
   846ea:	d0fb      	beq.n	846e4 <_sbrk_r+0x14>
   846ec:	602b      	str	r3, [r5, #0]
   846ee:	bd38      	pop	{r3, r4, r5, pc}
   846f0:	20070c80 	.word	0x20070c80

000846f4 <__sread>:
   846f4:	b510      	push	{r4, lr}
   846f6:	460c      	mov	r4, r1
   846f8:	f9b1 100e 	ldrsh.w	r1, [r1, #14]
   846fc:	f000 f9f4 	bl	84ae8 <_read_r>
   84700:	2800      	cmp	r0, #0
   84702:	db03      	blt.n	8470c <__sread+0x18>
   84704:	6d23      	ldr	r3, [r4, #80]	; 0x50
   84706:	4403      	add	r3, r0
   84708:	6523      	str	r3, [r4, #80]	; 0x50
   8470a:	bd10      	pop	{r4, pc}
   8470c:	89a3      	ldrh	r3, [r4, #12]
   8470e:	f423 5380 	bic.w	r3, r3, #4096	; 0x1000
   84712:	81a3      	strh	r3, [r4, #12]
   84714:	bd10      	pop	{r4, pc}
   84716:	bf00      	nop

00084718 <__swrite>:
   84718:	e92d 41f0 	stmdb	sp!, {r4, r5, r6, r7, r8, lr}
   8471c:	460c      	mov	r4, r1
   8471e:	f9b1 100c 	ldrsh.w	r1, [r1, #12]
   84722:	461f      	mov	r7, r3
   84724:	05cb      	lsls	r3, r1, #23
   84726:	4616      	mov	r6, r2
   84728:	4605      	mov	r5, r0
   8472a:	d507      	bpl.n	8473c <__swrite+0x24>
   8472c:	f9b4 100e 	ldrsh.w	r1, [r4, #14]
   84730:	2302      	movs	r3, #2
   84732:	2200      	movs	r2, #0
   84734:	f000 f9c2 	bl	84abc <_lseek_r>
   84738:	f9b4 100c 	ldrsh.w	r1, [r4, #12]
   8473c:	f421 5180 	bic.w	r1, r1, #4096	; 0x1000
   84740:	81a1      	strh	r1, [r4, #12]
   84742:	463b      	mov	r3, r7
   84744:	4632      	mov	r2, r6
   84746:	f9b4 100e 	ldrsh.w	r1, [r4, #14]
   8474a:	4628      	mov	r0, r5
   8474c:	e8bd 41f0 	ldmia.w	sp!, {r4, r5, r6, r7, r8, lr}
   84750:	f000 b8a2 	b.w	84898 <_write_r>

00084754 <__sseek>:
   84754:	b510      	push	{r4, lr}
   84756:	460c      	mov	r4, r1
   84758:	f9b1 100e 	ldrsh.w	r1, [r1, #14]
   8475c:	f000 f9ae 	bl	84abc <_lseek_r>
   84760:	89a3      	ldrh	r3, [r4, #12]
   84762:	1c42      	adds	r2, r0, #1
   84764:	bf0e      	itee	eq
   84766:	f423 5380 	biceq.w	r3, r3, #4096	; 0x1000
   8476a:	f443 5380 	orrne.w	r3, r3, #4096	; 0x1000
   8476e:	6520      	strne	r0, [r4, #80]	; 0x50
   84770:	81a3      	strh	r3, [r4, #12]
   84772:	bd10      	pop	{r4, pc}

00084774 <__sclose>:
   84774:	f9b1 100e 	ldrsh.w	r1, [r1, #14]
   84778:	f000 b906 	b.w	84988 <_close_r>

0008477c <__swbuf_r>:
   8477c:	b5f8      	push	{r3, r4, r5, r6, r7, lr}
   8477e:	460d      	mov	r5, r1
   84780:	4614      	mov	r4, r2
   84782:	4606      	mov	r6, r0
   84784:	b110      	cbz	r0, 8478c <__swbuf_r+0x10>
   84786:	6b83      	ldr	r3, [r0, #56]	; 0x38
   84788:	2b00      	cmp	r3, #0
   8478a:	d04b      	beq.n	84824 <__swbuf_r+0xa8>
   8478c:	f9b4 200c 	ldrsh.w	r2, [r4, #12]
   84790:	69a3      	ldr	r3, [r4, #24]
   84792:	b291      	uxth	r1, r2
   84794:	0708      	lsls	r0, r1, #28
   84796:	60a3      	str	r3, [r4, #8]
   84798:	d539      	bpl.n	8480e <__swbuf_r+0x92>
   8479a:	6923      	ldr	r3, [r4, #16]
   8479c:	2b00      	cmp	r3, #0
   8479e:	d036      	beq.n	8480e <__swbuf_r+0x92>
   847a0:	b2ed      	uxtb	r5, r5
   847a2:	0489      	lsls	r1, r1, #18
   847a4:	462f      	mov	r7, r5
   847a6:	d515      	bpl.n	847d4 <__swbuf_r+0x58>
   847a8:	6822      	ldr	r2, [r4, #0]
   847aa:	6961      	ldr	r1, [r4, #20]
   847ac:	1ad3      	subs	r3, r2, r3
   847ae:	428b      	cmp	r3, r1
   847b0:	da1c      	bge.n	847ec <__swbuf_r+0x70>
   847b2:	3301      	adds	r3, #1
   847b4:	68a1      	ldr	r1, [r4, #8]
   847b6:	1c50      	adds	r0, r2, #1
   847b8:	3901      	subs	r1, #1
   847ba:	60a1      	str	r1, [r4, #8]
   847bc:	6020      	str	r0, [r4, #0]
   847be:	7015      	strb	r5, [r2, #0]
   847c0:	6962      	ldr	r2, [r4, #20]
   847c2:	429a      	cmp	r2, r3
   847c4:	d01a      	beq.n	847fc <__swbuf_r+0x80>
   847c6:	89a3      	ldrh	r3, [r4, #12]
   847c8:	07db      	lsls	r3, r3, #31
   847ca:	d501      	bpl.n	847d0 <__swbuf_r+0x54>
   847cc:	2d0a      	cmp	r5, #10
   847ce:	d015      	beq.n	847fc <__swbuf_r+0x80>
   847d0:	4638      	mov	r0, r7
   847d2:	bdf8      	pop	{r3, r4, r5, r6, r7, pc}
   847d4:	6e61      	ldr	r1, [r4, #100]	; 0x64
   847d6:	f442 5200 	orr.w	r2, r2, #8192	; 0x2000
   847da:	f421 5100 	bic.w	r1, r1, #8192	; 0x2000
   847de:	81a2      	strh	r2, [r4, #12]
   847e0:	6822      	ldr	r2, [r4, #0]
   847e2:	6661      	str	r1, [r4, #100]	; 0x64
   847e4:	6961      	ldr	r1, [r4, #20]
   847e6:	1ad3      	subs	r3, r2, r3
   847e8:	428b      	cmp	r3, r1
   847ea:	dbe2      	blt.n	847b2 <__swbuf_r+0x36>
   847ec:	4621      	mov	r1, r4
   847ee:	4630      	mov	r0, r6
   847f0:	f7fe fdae 	bl	83350 <_fflush_r>
   847f4:	b940      	cbnz	r0, 84808 <__swbuf_r+0x8c>
   847f6:	2301      	movs	r3, #1
   847f8:	6822      	ldr	r2, [r4, #0]
   847fa:	e7db      	b.n	847b4 <__swbuf_r+0x38>
   847fc:	4621      	mov	r1, r4
   847fe:	4630      	mov	r0, r6
   84800:	f7fe fda6 	bl	83350 <_fflush_r>
   84804:	2800      	cmp	r0, #0
   84806:	d0e3      	beq.n	847d0 <__swbuf_r+0x54>
   84808:	f04f 37ff 	mov.w	r7, #4294967295
   8480c:	e7e0      	b.n	847d0 <__swbuf_r+0x54>
   8480e:	4621      	mov	r1, r4
   84810:	4630      	mov	r0, r6
   84812:	f7fe fc8d 	bl	83130 <__swsetup_r>
   84816:	2800      	cmp	r0, #0
   84818:	d1f6      	bne.n	84808 <__swbuf_r+0x8c>
   8481a:	f9b4 200c 	ldrsh.w	r2, [r4, #12]
   8481e:	6923      	ldr	r3, [r4, #16]
   84820:	b291      	uxth	r1, r2
   84822:	e7bd      	b.n	847a0 <__swbuf_r+0x24>
   84824:	f7fe fdec 	bl	83400 <__sinit>
   84828:	e7b0      	b.n	8478c <__swbuf_r+0x10>
   8482a:	bf00      	nop

0008482c <_wcrtomb_r>:
   8482c:	b5f0      	push	{r4, r5, r6, r7, lr}
   8482e:	4606      	mov	r6, r0
   84830:	b085      	sub	sp, #20
   84832:	461f      	mov	r7, r3
   84834:	b189      	cbz	r1, 8485a <_wcrtomb_r+0x2e>
   84836:	4c10      	ldr	r4, [pc, #64]	; (84878 <_wcrtomb_r+0x4c>)
   84838:	4d10      	ldr	r5, [pc, #64]	; (8487c <_wcrtomb_r+0x50>)
   8483a:	6824      	ldr	r4, [r4, #0]
   8483c:	6b64      	ldr	r4, [r4, #52]	; 0x34
   8483e:	2c00      	cmp	r4, #0
   84840:	bf08      	it	eq
   84842:	462c      	moveq	r4, r5
   84844:	f8d4 40e0 	ldr.w	r4, [r4, #224]	; 0xe0
   84848:	47a0      	blx	r4
   8484a:	1c43      	adds	r3, r0, #1
   8484c:	d103      	bne.n	84856 <_wcrtomb_r+0x2a>
   8484e:	2200      	movs	r2, #0
   84850:	238a      	movs	r3, #138	; 0x8a
   84852:	603a      	str	r2, [r7, #0]
   84854:	6033      	str	r3, [r6, #0]
   84856:	b005      	add	sp, #20
   84858:	bdf0      	pop	{r4, r5, r6, r7, pc}
   8485a:	460c      	mov	r4, r1
   8485c:	4a06      	ldr	r2, [pc, #24]	; (84878 <_wcrtomb_r+0x4c>)
   8485e:	4d07      	ldr	r5, [pc, #28]	; (8487c <_wcrtomb_r+0x50>)
   84860:	6811      	ldr	r1, [r2, #0]
   84862:	4622      	mov	r2, r4
   84864:	6b4c      	ldr	r4, [r1, #52]	; 0x34
   84866:	a901      	add	r1, sp, #4
   84868:	2c00      	cmp	r4, #0
   8486a:	bf08      	it	eq
   8486c:	462c      	moveq	r4, r5
   8486e:	f8d4 40e0 	ldr.w	r4, [r4, #224]	; 0xe0
   84872:	47a0      	blx	r4
   84874:	e7e9      	b.n	8484a <_wcrtomb_r+0x1e>
   84876:	bf00      	nop
   84878:	200700f4 	.word	0x200700f4
   8487c:	20070524 	.word	0x20070524

00084880 <__ascii_wctomb>:
   84880:	b119      	cbz	r1, 8488a <__ascii_wctomb+0xa>
   84882:	2aff      	cmp	r2, #255	; 0xff
   84884:	d803      	bhi.n	8488e <__ascii_wctomb+0xe>
   84886:	700a      	strb	r2, [r1, #0]
   84888:	2101      	movs	r1, #1
   8488a:	4608      	mov	r0, r1
   8488c:	4770      	bx	lr
   8488e:	238a      	movs	r3, #138	; 0x8a
   84890:	f04f 31ff 	mov.w	r1, #4294967295
   84894:	6003      	str	r3, [r0, #0]
   84896:	e7f8      	b.n	8488a <__ascii_wctomb+0xa>

00084898 <_write_r>:
   84898:	b5f8      	push	{r3, r4, r5, r6, r7, lr}
   8489a:	460e      	mov	r6, r1
   8489c:	2500      	movs	r5, #0
   8489e:	4c08      	ldr	r4, [pc, #32]	; (848c0 <_write_r+0x28>)
   848a0:	4611      	mov	r1, r2
   848a2:	4607      	mov	r7, r0
   848a4:	461a      	mov	r2, r3
   848a6:	4630      	mov	r0, r6
   848a8:	6025      	str	r5, [r4, #0]
   848aa:	f7fb ff69 	bl	80780 <_write>
   848ae:	1c43      	adds	r3, r0, #1
   848b0:	d000      	beq.n	848b4 <_write_r+0x1c>
   848b2:	bdf8      	pop	{r3, r4, r5, r6, r7, pc}
   848b4:	6823      	ldr	r3, [r4, #0]
   848b6:	2b00      	cmp	r3, #0
   848b8:	d0fb      	beq.n	848b2 <_write_r+0x1a>
   848ba:	603b      	str	r3, [r7, #0]
   848bc:	bdf8      	pop	{r3, r4, r5, r6, r7, pc}
   848be:	bf00      	nop
   848c0:	20070c80 	.word	0x20070c80

000848c4 <__register_exitproc>:
   848c4:	e92d 43f8 	stmdb	sp!, {r3, r4, r5, r6, r7, r8, r9, lr}
   848c8:	4d2c      	ldr	r5, [pc, #176]	; (8497c <__register_exitproc+0xb8>)
   848ca:	4606      	mov	r6, r0
   848cc:	6828      	ldr	r0, [r5, #0]
   848ce:	4698      	mov	r8, r3
   848d0:	460f      	mov	r7, r1
   848d2:	4691      	mov	r9, r2
   848d4:	f7ff f954 	bl	83b80 <__retarget_lock_acquire_recursive>
   848d8:	4b29      	ldr	r3, [pc, #164]	; (84980 <__register_exitproc+0xbc>)
   848da:	681c      	ldr	r4, [r3, #0]
   848dc:	f8d4 3148 	ldr.w	r3, [r4, #328]	; 0x148
   848e0:	2b00      	cmp	r3, #0
   848e2:	d03e      	beq.n	84962 <__register_exitproc+0x9e>
   848e4:	685a      	ldr	r2, [r3, #4]
   848e6:	2a1f      	cmp	r2, #31
   848e8:	dc1c      	bgt.n	84924 <__register_exitproc+0x60>
   848ea:	f102 0e01 	add.w	lr, r2, #1
   848ee:	b176      	cbz	r6, 8490e <__register_exitproc+0x4a>
   848f0:	2101      	movs	r1, #1
   848f2:	eb03 0482 	add.w	r4, r3, r2, lsl #2
   848f6:	f8c4 9088 	str.w	r9, [r4, #136]	; 0x88
   848fa:	f8d3 0188 	ldr.w	r0, [r3, #392]	; 0x188
   848fe:	4091      	lsls	r1, r2
   84900:	4308      	orrs	r0, r1
   84902:	2e02      	cmp	r6, #2
   84904:	f8c3 0188 	str.w	r0, [r3, #392]	; 0x188
   84908:	f8c4 8108 	str.w	r8, [r4, #264]	; 0x108
   8490c:	d023      	beq.n	84956 <__register_exitproc+0x92>
   8490e:	3202      	adds	r2, #2
   84910:	f8c3 e004 	str.w	lr, [r3, #4]
   84914:	6828      	ldr	r0, [r5, #0]
   84916:	f843 7022 	str.w	r7, [r3, r2, lsl #2]
   8491a:	f7ff f933 	bl	83b84 <__retarget_lock_release_recursive>
   8491e:	2000      	movs	r0, #0
   84920:	e8bd 83f8 	ldmia.w	sp!, {r3, r4, r5, r6, r7, r8, r9, pc}
   84924:	4b17      	ldr	r3, [pc, #92]	; (84984 <__register_exitproc+0xc0>)
   84926:	b30b      	cbz	r3, 8496c <__register_exitproc+0xa8>
   84928:	f44f 70c8 	mov.w	r0, #400	; 0x190
   8492c:	f7ff f9a4 	bl	83c78 <malloc>
   84930:	4603      	mov	r3, r0
   84932:	b1d8      	cbz	r0, 8496c <__register_exitproc+0xa8>
   84934:	2000      	movs	r0, #0
   84936:	f8d4 1148 	ldr.w	r1, [r4, #328]	; 0x148
   8493a:	f04f 0e01 	mov.w	lr, #1
   8493e:	6058      	str	r0, [r3, #4]
   84940:	6019      	str	r1, [r3, #0]
   84942:	4602      	mov	r2, r0
   84944:	f8c4 3148 	str.w	r3, [r4, #328]	; 0x148
   84948:	f8c3 0188 	str.w	r0, [r3, #392]	; 0x188
   8494c:	f8c3 018c 	str.w	r0, [r3, #396]	; 0x18c
   84950:	2e00      	cmp	r6, #0
   84952:	d0dc      	beq.n	8490e <__register_exitproc+0x4a>
   84954:	e7cc      	b.n	848f0 <__register_exitproc+0x2c>
   84956:	f8d3 018c 	ldr.w	r0, [r3, #396]	; 0x18c
   8495a:	4301      	orrs	r1, r0
   8495c:	f8c3 118c 	str.w	r1, [r3, #396]	; 0x18c
   84960:	e7d5      	b.n	8490e <__register_exitproc+0x4a>
   84962:	f504 73a6 	add.w	r3, r4, #332	; 0x14c
   84966:	f8c4 3148 	str.w	r3, [r4, #328]	; 0x148
   8496a:	e7bb      	b.n	848e4 <__register_exitproc+0x20>
   8496c:	6828      	ldr	r0, [r5, #0]
   8496e:	f7ff f909 	bl	83b84 <__retarget_lock_release_recursive>
   84972:	f04f 30ff 	mov.w	r0, #4294967295
   84976:	e8bd 83f8 	ldmia.w	sp!, {r3, r4, r5, r6, r7, r8, r9, pc}
   8497a:	bf00      	nop
   8497c:	20070520 	.word	0x20070520
   84980:	00084f4c 	.word	0x00084f4c
   84984:	00083c79 	.word	0x00083c79

00084988 <_close_r>:
   84988:	b538      	push	{r3, r4, r5, lr}
   8498a:	2300      	movs	r3, #0
   8498c:	4c06      	ldr	r4, [pc, #24]	; (849a8 <_close_r+0x20>)
   8498e:	4605      	mov	r5, r0
   84990:	4608      	mov	r0, r1
   84992:	6023      	str	r3, [r4, #0]
   84994:	f7fc fd1e 	bl	813d4 <_close>
   84998:	1c43      	adds	r3, r0, #1
   8499a:	d000      	beq.n	8499e <_close_r+0x16>
   8499c:	bd38      	pop	{r3, r4, r5, pc}
   8499e:	6823      	ldr	r3, [r4, #0]
   849a0:	2b00      	cmp	r3, #0
   849a2:	d0fb      	beq.n	8499c <_close_r+0x14>
   849a4:	602b      	str	r3, [r5, #0]
   849a6:	bd38      	pop	{r3, r4, r5, pc}
   849a8:	20070c80 	.word	0x20070c80

000849ac <_fclose_r>:
   849ac:	b570      	push	{r4, r5, r6, lr}
   849ae:	b159      	cbz	r1, 849c8 <_fclose_r+0x1c>
   849b0:	4605      	mov	r5, r0
   849b2:	460c      	mov	r4, r1
   849b4:	b110      	cbz	r0, 849bc <_fclose_r+0x10>
   849b6:	6b83      	ldr	r3, [r0, #56]	; 0x38
   849b8:	2b00      	cmp	r3, #0
   849ba:	d03c      	beq.n	84a36 <_fclose_r+0x8a>
   849bc:	6e63      	ldr	r3, [r4, #100]	; 0x64
   849be:	07d8      	lsls	r0, r3, #31
   849c0:	d505      	bpl.n	849ce <_fclose_r+0x22>
   849c2:	f9b4 300c 	ldrsh.w	r3, [r4, #12]
   849c6:	b92b      	cbnz	r3, 849d4 <_fclose_r+0x28>
   849c8:	2600      	movs	r6, #0
   849ca:	4630      	mov	r0, r6
   849cc:	bd70      	pop	{r4, r5, r6, pc}
   849ce:	89a3      	ldrh	r3, [r4, #12]
   849d0:	0599      	lsls	r1, r3, #22
   849d2:	d53c      	bpl.n	84a4e <_fclose_r+0xa2>
   849d4:	4621      	mov	r1, r4
   849d6:	4628      	mov	r0, r5
   849d8:	f7fe fc1e 	bl	83218 <__sflush_r>
   849dc:	6ae3      	ldr	r3, [r4, #44]	; 0x2c
   849de:	4606      	mov	r6, r0
   849e0:	b133      	cbz	r3, 849f0 <_fclose_r+0x44>
   849e2:	69e1      	ldr	r1, [r4, #28]
   849e4:	4628      	mov	r0, r5
   849e6:	4798      	blx	r3
   849e8:	2800      	cmp	r0, #0
   849ea:	bfb8      	it	lt
   849ec:	f04f 36ff 	movlt.w	r6, #4294967295
   849f0:	89a3      	ldrh	r3, [r4, #12]
   849f2:	061a      	lsls	r2, r3, #24
   849f4:	d422      	bmi.n	84a3c <_fclose_r+0x90>
   849f6:	6b21      	ldr	r1, [r4, #48]	; 0x30
   849f8:	b141      	cbz	r1, 84a0c <_fclose_r+0x60>
   849fa:	f104 0340 	add.w	r3, r4, #64	; 0x40
   849fe:	4299      	cmp	r1, r3
   84a00:	d002      	beq.n	84a08 <_fclose_r+0x5c>
   84a02:	4628      	mov	r0, r5
   84a04:	f7fe fe22 	bl	8364c <_free_r>
   84a08:	2300      	movs	r3, #0
   84a0a:	6323      	str	r3, [r4, #48]	; 0x30
   84a0c:	6c61      	ldr	r1, [r4, #68]	; 0x44
   84a0e:	b121      	cbz	r1, 84a1a <_fclose_r+0x6e>
   84a10:	4628      	mov	r0, r5
   84a12:	f7fe fe1b 	bl	8364c <_free_r>
   84a16:	2300      	movs	r3, #0
   84a18:	6463      	str	r3, [r4, #68]	; 0x44
   84a1a:	f7fe fd21 	bl	83460 <__sfp_lock_acquire>
   84a1e:	2200      	movs	r2, #0
   84a20:	6e63      	ldr	r3, [r4, #100]	; 0x64
   84a22:	81a2      	strh	r2, [r4, #12]
   84a24:	07db      	lsls	r3, r3, #31
   84a26:	d50e      	bpl.n	84a46 <_fclose_r+0x9a>
   84a28:	6da0      	ldr	r0, [r4, #88]	; 0x58
   84a2a:	f7ff f8a7 	bl	83b7c <__retarget_lock_close_recursive>
   84a2e:	f7fe fd1d 	bl	8346c <__sfp_lock_release>
   84a32:	4630      	mov	r0, r6
   84a34:	bd70      	pop	{r4, r5, r6, pc}
   84a36:	f7fe fce3 	bl	83400 <__sinit>
   84a3a:	e7bf      	b.n	849bc <_fclose_r+0x10>
   84a3c:	6921      	ldr	r1, [r4, #16]
   84a3e:	4628      	mov	r0, r5
   84a40:	f7fe fe04 	bl	8364c <_free_r>
   84a44:	e7d7      	b.n	849f6 <_fclose_r+0x4a>
   84a46:	6da0      	ldr	r0, [r4, #88]	; 0x58
   84a48:	f7ff f89c 	bl	83b84 <__retarget_lock_release_recursive>
   84a4c:	e7ec      	b.n	84a28 <_fclose_r+0x7c>
   84a4e:	6da0      	ldr	r0, [r4, #88]	; 0x58
   84a50:	f7ff f896 	bl	83b80 <__retarget_lock_acquire_recursive>
   84a54:	f9b4 300c 	ldrsh.w	r3, [r4, #12]
   84a58:	2b00      	cmp	r3, #0
   84a5a:	d1bb      	bne.n	849d4 <_fclose_r+0x28>
   84a5c:	6e66      	ldr	r6, [r4, #100]	; 0x64
   84a5e:	f016 0601 	ands.w	r6, r6, #1
   84a62:	d1b1      	bne.n	849c8 <_fclose_r+0x1c>
   84a64:	6da0      	ldr	r0, [r4, #88]	; 0x58
   84a66:	f7ff f88d 	bl	83b84 <__retarget_lock_release_recursive>
   84a6a:	4630      	mov	r0, r6
   84a6c:	bd70      	pop	{r4, r5, r6, pc}
   84a6e:	bf00      	nop

00084a70 <_fstat_r>:
   84a70:	b570      	push	{r4, r5, r6, lr}
   84a72:	460d      	mov	r5, r1
   84a74:	2300      	movs	r3, #0
   84a76:	4c07      	ldr	r4, [pc, #28]	; (84a94 <_fstat_r+0x24>)
   84a78:	4606      	mov	r6, r0
   84a7a:	4611      	mov	r1, r2
   84a7c:	4628      	mov	r0, r5
   84a7e:	6023      	str	r3, [r4, #0]
   84a80:	f7fc fcab 	bl	813da <_fstat>
   84a84:	1c43      	adds	r3, r0, #1
   84a86:	d000      	beq.n	84a8a <_fstat_r+0x1a>
   84a88:	bd70      	pop	{r4, r5, r6, pc}
   84a8a:	6823      	ldr	r3, [r4, #0]
   84a8c:	2b00      	cmp	r3, #0
   84a8e:	d0fb      	beq.n	84a88 <_fstat_r+0x18>
   84a90:	6033      	str	r3, [r6, #0]
   84a92:	bd70      	pop	{r4, r5, r6, pc}
   84a94:	20070c80 	.word	0x20070c80

00084a98 <_isatty_r>:
   84a98:	b538      	push	{r3, r4, r5, lr}
   84a9a:	2300      	movs	r3, #0
   84a9c:	4c06      	ldr	r4, [pc, #24]	; (84ab8 <_isatty_r+0x20>)
   84a9e:	4605      	mov	r5, r0
   84aa0:	4608      	mov	r0, r1
   84aa2:	6023      	str	r3, [r4, #0]
   84aa4:	f7fc fc9e 	bl	813e4 <_isatty>
   84aa8:	1c43      	adds	r3, r0, #1
   84aaa:	d000      	beq.n	84aae <_isatty_r+0x16>
   84aac:	bd38      	pop	{r3, r4, r5, pc}
   84aae:	6823      	ldr	r3, [r4, #0]
   84ab0:	2b00      	cmp	r3, #0
   84ab2:	d0fb      	beq.n	84aac <_isatty_r+0x14>
   84ab4:	602b      	str	r3, [r5, #0]
   84ab6:	bd38      	pop	{r3, r4, r5, pc}
   84ab8:	20070c80 	.word	0x20070c80

00084abc <_lseek_r>:
   84abc:	b5f8      	push	{r3, r4, r5, r6, r7, lr}
   84abe:	460e      	mov	r6, r1
   84ac0:	2500      	movs	r5, #0
   84ac2:	4c08      	ldr	r4, [pc, #32]	; (84ae4 <_lseek_r+0x28>)
   84ac4:	4611      	mov	r1, r2
   84ac6:	4607      	mov	r7, r0
   84ac8:	461a      	mov	r2, r3
   84aca:	4630      	mov	r0, r6
   84acc:	6025      	str	r5, [r4, #0]
   84ace:	f7fc fc8b 	bl	813e8 <_lseek>
   84ad2:	1c43      	adds	r3, r0, #1
   84ad4:	d000      	beq.n	84ad8 <_lseek_r+0x1c>
   84ad6:	bdf8      	pop	{r3, r4, r5, r6, r7, pc}
   84ad8:	6823      	ldr	r3, [r4, #0]
   84ada:	2b00      	cmp	r3, #0
   84adc:	d0fb      	beq.n	84ad6 <_lseek_r+0x1a>
   84ade:	603b      	str	r3, [r7, #0]
   84ae0:	bdf8      	pop	{r3, r4, r5, r6, r7, pc}
   84ae2:	bf00      	nop
   84ae4:	20070c80 	.word	0x20070c80

00084ae8 <_read_r>:
   84ae8:	b5f8      	push	{r3, r4, r5, r6, r7, lr}
   84aea:	460e      	mov	r6, r1
   84aec:	2500      	movs	r5, #0
   84aee:	4c08      	ldr	r4, [pc, #32]	; (84b10 <_read_r+0x28>)
   84af0:	4611      	mov	r1, r2
   84af2:	4607      	mov	r7, r0
   84af4:	461a      	mov	r2, r3
   84af6:	4630      	mov	r0, r6
   84af8:	6025      	str	r5, [r4, #0]
   84afa:	f7fb fe21 	bl	80740 <_read>
   84afe:	1c43      	adds	r3, r0, #1
   84b00:	d000      	beq.n	84b04 <_read_r+0x1c>
   84b02:	bdf8      	pop	{r3, r4, r5, r6, r7, pc}
   84b04:	6823      	ldr	r3, [r4, #0]
   84b06:	2b00      	cmp	r3, #0
   84b08:	d0fb      	beq.n	84b02 <_read_r+0x1a>
   84b0a:	603b      	str	r3, [r7, #0]
   84b0c:	bdf8      	pop	{r3, r4, r5, r6, r7, pc}
   84b0e:	bf00      	nop
   84b10:	20070c80 	.word	0x20070c80

00084b14 <__aeabi_uldivmod>:
   84b14:	b953      	cbnz	r3, 84b2c <__aeabi_uldivmod+0x18>
   84b16:	b94a      	cbnz	r2, 84b2c <__aeabi_uldivmod+0x18>
   84b18:	2900      	cmp	r1, #0
   84b1a:	bf08      	it	eq
   84b1c:	2800      	cmpeq	r0, #0
   84b1e:	bf1c      	itt	ne
   84b20:	f04f 31ff 	movne.w	r1, #4294967295
   84b24:	f04f 30ff 	movne.w	r0, #4294967295
   84b28:	f000 b97a 	b.w	84e20 <__aeabi_idiv0>
   84b2c:	f1ad 0c08 	sub.w	ip, sp, #8
   84b30:	e96d ce04 	strd	ip, lr, [sp, #-16]!
   84b34:	f000 f806 	bl	84b44 <__udivmoddi4>
   84b38:	f8dd e004 	ldr.w	lr, [sp, #4]
   84b3c:	e9dd 2302 	ldrd	r2, r3, [sp, #8]
   84b40:	b004      	add	sp, #16
   84b42:	4770      	bx	lr

00084b44 <__udivmoddi4>:
   84b44:	e92d 47f0 	stmdb	sp!, {r4, r5, r6, r7, r8, r9, sl, lr}
   84b48:	468c      	mov	ip, r1
   84b4a:	460e      	mov	r6, r1
   84b4c:	4604      	mov	r4, r0
   84b4e:	9d08      	ldr	r5, [sp, #32]
   84b50:	2b00      	cmp	r3, #0
   84b52:	d150      	bne.n	84bf6 <__udivmoddi4+0xb2>
   84b54:	428a      	cmp	r2, r1
   84b56:	4617      	mov	r7, r2
   84b58:	d96c      	bls.n	84c34 <__udivmoddi4+0xf0>
   84b5a:	fab2 fe82 	clz	lr, r2
   84b5e:	f1be 0f00 	cmp.w	lr, #0
   84b62:	d00b      	beq.n	84b7c <__udivmoddi4+0x38>
   84b64:	f1ce 0c20 	rsb	ip, lr, #32
   84b68:	fa01 f60e 	lsl.w	r6, r1, lr
   84b6c:	fa20 fc0c 	lsr.w	ip, r0, ip
   84b70:	fa02 f70e 	lsl.w	r7, r2, lr
   84b74:	ea4c 0c06 	orr.w	ip, ip, r6
   84b78:	fa00 f40e 	lsl.w	r4, r0, lr
   84b7c:	0c3a      	lsrs	r2, r7, #16
   84b7e:	fbbc f9f2 	udiv	r9, ip, r2
   84b82:	b2bb      	uxth	r3, r7
   84b84:	fb02 cc19 	mls	ip, r2, r9, ip
   84b88:	fb09 fa03 	mul.w	sl, r9, r3
   84b8c:	ea4f 4814 	mov.w	r8, r4, lsr #16
   84b90:	ea48 460c 	orr.w	r6, r8, ip, lsl #16
   84b94:	45b2      	cmp	sl, r6
   84b96:	d90a      	bls.n	84bae <__udivmoddi4+0x6a>
   84b98:	19f6      	adds	r6, r6, r7
   84b9a:	f109 31ff 	add.w	r1, r9, #4294967295
   84b9e:	f080 8125 	bcs.w	84dec <__udivmoddi4+0x2a8>
   84ba2:	45b2      	cmp	sl, r6
   84ba4:	f240 8122 	bls.w	84dec <__udivmoddi4+0x2a8>
   84ba8:	f1a9 0902 	sub.w	r9, r9, #2
   84bac:	443e      	add	r6, r7
   84bae:	eba6 060a 	sub.w	r6, r6, sl
   84bb2:	fbb6 f0f2 	udiv	r0, r6, r2
   84bb6:	fb02 6610 	mls	r6, r2, r0, r6
   84bba:	fb00 f303 	mul.w	r3, r0, r3
   84bbe:	b2a4      	uxth	r4, r4
   84bc0:	ea44 4406 	orr.w	r4, r4, r6, lsl #16
   84bc4:	42a3      	cmp	r3, r4
   84bc6:	d909      	bls.n	84bdc <__udivmoddi4+0x98>
   84bc8:	19e4      	adds	r4, r4, r7
   84bca:	f100 32ff 	add.w	r2, r0, #4294967295
   84bce:	f080 810b 	bcs.w	84de8 <__udivmoddi4+0x2a4>
   84bd2:	42a3      	cmp	r3, r4
   84bd4:	f240 8108 	bls.w	84de8 <__udivmoddi4+0x2a4>
   84bd8:	3802      	subs	r0, #2
   84bda:	443c      	add	r4, r7
   84bdc:	2100      	movs	r1, #0
   84bde:	1ae4      	subs	r4, r4, r3
   84be0:	ea40 4009 	orr.w	r0, r0, r9, lsl #16
   84be4:	2d00      	cmp	r5, #0
   84be6:	d062      	beq.n	84cae <__udivmoddi4+0x16a>
   84be8:	2300      	movs	r3, #0
   84bea:	fa24 f40e 	lsr.w	r4, r4, lr
   84bee:	602c      	str	r4, [r5, #0]
   84bf0:	606b      	str	r3, [r5, #4]
   84bf2:	e8bd 87f0 	ldmia.w	sp!, {r4, r5, r6, r7, r8, r9, sl, pc}
   84bf6:	428b      	cmp	r3, r1
   84bf8:	d907      	bls.n	84c0a <__udivmoddi4+0xc6>
   84bfa:	2d00      	cmp	r5, #0
   84bfc:	d055      	beq.n	84caa <__udivmoddi4+0x166>
   84bfe:	2100      	movs	r1, #0
   84c00:	e885 0041 	stmia.w	r5, {r0, r6}
   84c04:	4608      	mov	r0, r1
   84c06:	e8bd 87f0 	ldmia.w	sp!, {r4, r5, r6, r7, r8, r9, sl, pc}
   84c0a:	fab3 f183 	clz	r1, r3
   84c0e:	2900      	cmp	r1, #0
   84c10:	f040 808f 	bne.w	84d32 <__udivmoddi4+0x1ee>
   84c14:	42b3      	cmp	r3, r6
   84c16:	d302      	bcc.n	84c1e <__udivmoddi4+0xda>
   84c18:	4282      	cmp	r2, r0
   84c1a:	f200 80fc 	bhi.w	84e16 <__udivmoddi4+0x2d2>
   84c1e:	1a84      	subs	r4, r0, r2
   84c20:	eb66 0603 	sbc.w	r6, r6, r3
   84c24:	2001      	movs	r0, #1
   84c26:	46b4      	mov	ip, r6
   84c28:	2d00      	cmp	r5, #0
   84c2a:	d040      	beq.n	84cae <__udivmoddi4+0x16a>
   84c2c:	e885 1010 	stmia.w	r5, {r4, ip}
   84c30:	e8bd 87f0 	ldmia.w	sp!, {r4, r5, r6, r7, r8, r9, sl, pc}
   84c34:	b912      	cbnz	r2, 84c3c <__udivmoddi4+0xf8>
   84c36:	2701      	movs	r7, #1
   84c38:	fbb7 f7f2 	udiv	r7, r7, r2
   84c3c:	fab7 fe87 	clz	lr, r7
   84c40:	f1be 0f00 	cmp.w	lr, #0
   84c44:	d135      	bne.n	84cb2 <__udivmoddi4+0x16e>
   84c46:	2101      	movs	r1, #1
   84c48:	1bf6      	subs	r6, r6, r7
   84c4a:	ea4f 4c17 	mov.w	ip, r7, lsr #16
   84c4e:	fa1f f887 	uxth.w	r8, r7
   84c52:	fbb6 f2fc 	udiv	r2, r6, ip
   84c56:	fb0c 6612 	mls	r6, ip, r2, r6
   84c5a:	fb08 f002 	mul.w	r0, r8, r2
   84c5e:	0c23      	lsrs	r3, r4, #16
   84c60:	ea43 4606 	orr.w	r6, r3, r6, lsl #16
   84c64:	42b0      	cmp	r0, r6
   84c66:	d907      	bls.n	84c78 <__udivmoddi4+0x134>
   84c68:	19f6      	adds	r6, r6, r7
   84c6a:	f102 33ff 	add.w	r3, r2, #4294967295
   84c6e:	d202      	bcs.n	84c76 <__udivmoddi4+0x132>
   84c70:	42b0      	cmp	r0, r6
   84c72:	f200 80d2 	bhi.w	84e1a <__udivmoddi4+0x2d6>
   84c76:	461a      	mov	r2, r3
   84c78:	1a36      	subs	r6, r6, r0
   84c7a:	fbb6 f0fc 	udiv	r0, r6, ip
   84c7e:	fb0c 6610 	mls	r6, ip, r0, r6
   84c82:	fb08 f800 	mul.w	r8, r8, r0
   84c86:	b2a3      	uxth	r3, r4
   84c88:	ea43 4406 	orr.w	r4, r3, r6, lsl #16
   84c8c:	45a0      	cmp	r8, r4
   84c8e:	d907      	bls.n	84ca0 <__udivmoddi4+0x15c>
   84c90:	19e4      	adds	r4, r4, r7
   84c92:	f100 33ff 	add.w	r3, r0, #4294967295
   84c96:	d202      	bcs.n	84c9e <__udivmoddi4+0x15a>
   84c98:	45a0      	cmp	r8, r4
   84c9a:	f200 80b9 	bhi.w	84e10 <__udivmoddi4+0x2cc>
   84c9e:	4618      	mov	r0, r3
   84ca0:	eba4 0408 	sub.w	r4, r4, r8
   84ca4:	ea40 4002 	orr.w	r0, r0, r2, lsl #16
   84ca8:	e79c      	b.n	84be4 <__udivmoddi4+0xa0>
   84caa:	4629      	mov	r1, r5
   84cac:	4628      	mov	r0, r5
   84cae:	e8bd 87f0 	ldmia.w	sp!, {r4, r5, r6, r7, r8, r9, sl, pc}
   84cb2:	fa07 f70e 	lsl.w	r7, r7, lr
   84cb6:	f1ce 0320 	rsb	r3, lr, #32
   84cba:	fa26 f203 	lsr.w	r2, r6, r3
   84cbe:	ea4f 4c17 	mov.w	ip, r7, lsr #16
   84cc2:	fbb2 f1fc 	udiv	r1, r2, ip
   84cc6:	fa1f f887 	uxth.w	r8, r7
   84cca:	fb0c 2211 	mls	r2, ip, r1, r2
   84cce:	fa06 f60e 	lsl.w	r6, r6, lr
   84cd2:	fa20 f303 	lsr.w	r3, r0, r3
   84cd6:	fb01 f908 	mul.w	r9, r1, r8
   84cda:	4333      	orrs	r3, r6
   84cdc:	0c1e      	lsrs	r6, r3, #16
   84cde:	ea46 4602 	orr.w	r6, r6, r2, lsl #16
   84ce2:	45b1      	cmp	r9, r6
   84ce4:	fa00 f40e 	lsl.w	r4, r0, lr
   84ce8:	d909      	bls.n	84cfe <__udivmoddi4+0x1ba>
   84cea:	19f6      	adds	r6, r6, r7
   84cec:	f101 32ff 	add.w	r2, r1, #4294967295
   84cf0:	f080 808c 	bcs.w	84e0c <__udivmoddi4+0x2c8>
   84cf4:	45b1      	cmp	r9, r6
   84cf6:	f240 8089 	bls.w	84e0c <__udivmoddi4+0x2c8>
   84cfa:	3902      	subs	r1, #2
   84cfc:	443e      	add	r6, r7
   84cfe:	eba6 0609 	sub.w	r6, r6, r9
   84d02:	fbb6 f0fc 	udiv	r0, r6, ip
   84d06:	fb0c 6210 	mls	r2, ip, r0, r6
   84d0a:	fb00 f908 	mul.w	r9, r0, r8
   84d0e:	b29e      	uxth	r6, r3
   84d10:	ea46 4602 	orr.w	r6, r6, r2, lsl #16
   84d14:	45b1      	cmp	r9, r6
   84d16:	d907      	bls.n	84d28 <__udivmoddi4+0x1e4>
   84d18:	19f6      	adds	r6, r6, r7
   84d1a:	f100 33ff 	add.w	r3, r0, #4294967295
   84d1e:	d271      	bcs.n	84e04 <__udivmoddi4+0x2c0>
   84d20:	45b1      	cmp	r9, r6
   84d22:	d96f      	bls.n	84e04 <__udivmoddi4+0x2c0>
   84d24:	3802      	subs	r0, #2
   84d26:	443e      	add	r6, r7
   84d28:	eba6 0609 	sub.w	r6, r6, r9
   84d2c:	ea40 4101 	orr.w	r1, r0, r1, lsl #16
   84d30:	e78f      	b.n	84c52 <__udivmoddi4+0x10e>
   84d32:	f1c1 0720 	rsb	r7, r1, #32
   84d36:	fa22 f807 	lsr.w	r8, r2, r7
   84d3a:	408b      	lsls	r3, r1
   84d3c:	ea48 0303 	orr.w	r3, r8, r3
   84d40:	fa26 f407 	lsr.w	r4, r6, r7
   84d44:	ea4f 4e13 	mov.w	lr, r3, lsr #16
   84d48:	fbb4 f9fe 	udiv	r9, r4, lr
   84d4c:	fa1f fc83 	uxth.w	ip, r3
   84d50:	fb0e 4419 	mls	r4, lr, r9, r4
   84d54:	408e      	lsls	r6, r1
   84d56:	fa20 f807 	lsr.w	r8, r0, r7
   84d5a:	fb09 fa0c 	mul.w	sl, r9, ip
   84d5e:	ea48 0806 	orr.w	r8, r8, r6
   84d62:	ea4f 4618 	mov.w	r6, r8, lsr #16
   84d66:	ea46 4404 	orr.w	r4, r6, r4, lsl #16
   84d6a:	45a2      	cmp	sl, r4
   84d6c:	fa02 f201 	lsl.w	r2, r2, r1
   84d70:	fa00 f601 	lsl.w	r6, r0, r1
   84d74:	d908      	bls.n	84d88 <__udivmoddi4+0x244>
   84d76:	18e4      	adds	r4, r4, r3
   84d78:	f109 30ff 	add.w	r0, r9, #4294967295
   84d7c:	d244      	bcs.n	84e08 <__udivmoddi4+0x2c4>
   84d7e:	45a2      	cmp	sl, r4
   84d80:	d942      	bls.n	84e08 <__udivmoddi4+0x2c4>
   84d82:	f1a9 0902 	sub.w	r9, r9, #2
   84d86:	441c      	add	r4, r3
   84d88:	eba4 040a 	sub.w	r4, r4, sl
   84d8c:	fbb4 f0fe 	udiv	r0, r4, lr
   84d90:	fb0e 4410 	mls	r4, lr, r0, r4
   84d94:	fb00 fc0c 	mul.w	ip, r0, ip
   84d98:	fa1f f888 	uxth.w	r8, r8
   84d9c:	ea48 4404 	orr.w	r4, r8, r4, lsl #16
   84da0:	45a4      	cmp	ip, r4
   84da2:	d907      	bls.n	84db4 <__udivmoddi4+0x270>
   84da4:	18e4      	adds	r4, r4, r3
   84da6:	f100 3eff 	add.w	lr, r0, #4294967295
   84daa:	d229      	bcs.n	84e00 <__udivmoddi4+0x2bc>
   84dac:	45a4      	cmp	ip, r4
   84dae:	d927      	bls.n	84e00 <__udivmoddi4+0x2bc>
   84db0:	3802      	subs	r0, #2
   84db2:	441c      	add	r4, r3
   84db4:	ea40 4009 	orr.w	r0, r0, r9, lsl #16
   84db8:	fba0 8902 	umull	r8, r9, r0, r2
   84dbc:	eba4 0c0c 	sub.w	ip, r4, ip
   84dc0:	45cc      	cmp	ip, r9
   84dc2:	46c2      	mov	sl, r8
   84dc4:	46ce      	mov	lr, r9
   84dc6:	d315      	bcc.n	84df4 <__udivmoddi4+0x2b0>
   84dc8:	d012      	beq.n	84df0 <__udivmoddi4+0x2ac>
   84dca:	b155      	cbz	r5, 84de2 <__udivmoddi4+0x29e>
   84dcc:	ebb6 030a 	subs.w	r3, r6, sl
   84dd0:	eb6c 060e 	sbc.w	r6, ip, lr
   84dd4:	fa06 f707 	lsl.w	r7, r6, r7
   84dd8:	40cb      	lsrs	r3, r1
   84dda:	431f      	orrs	r7, r3
   84ddc:	40ce      	lsrs	r6, r1
   84dde:	602f      	str	r7, [r5, #0]
   84de0:	606e      	str	r6, [r5, #4]
   84de2:	2100      	movs	r1, #0
   84de4:	e8bd 87f0 	ldmia.w	sp!, {r4, r5, r6, r7, r8, r9, sl, pc}
   84de8:	4610      	mov	r0, r2
   84dea:	e6f7      	b.n	84bdc <__udivmoddi4+0x98>
   84dec:	4689      	mov	r9, r1
   84dee:	e6de      	b.n	84bae <__udivmoddi4+0x6a>
   84df0:	4546      	cmp	r6, r8
   84df2:	d2ea      	bcs.n	84dca <__udivmoddi4+0x286>
   84df4:	ebb8 0a02 	subs.w	sl, r8, r2
   84df8:	eb69 0e03 	sbc.w	lr, r9, r3
   84dfc:	3801      	subs	r0, #1
   84dfe:	e7e4      	b.n	84dca <__udivmoddi4+0x286>
   84e00:	4670      	mov	r0, lr
   84e02:	e7d7      	b.n	84db4 <__udivmoddi4+0x270>
   84e04:	4618      	mov	r0, r3
   84e06:	e78f      	b.n	84d28 <__udivmoddi4+0x1e4>
   84e08:	4681      	mov	r9, r0
   84e0a:	e7bd      	b.n	84d88 <__udivmoddi4+0x244>
   84e0c:	4611      	mov	r1, r2
   84e0e:	e776      	b.n	84cfe <__udivmoddi4+0x1ba>
   84e10:	3802      	subs	r0, #2
   84e12:	443c      	add	r4, r7
   84e14:	e744      	b.n	84ca0 <__udivmoddi4+0x15c>
   84e16:	4608      	mov	r0, r1
   84e18:	e706      	b.n	84c28 <__udivmoddi4+0xe4>
   84e1a:	3a02      	subs	r2, #2
   84e1c:	443e      	add	r6, r7
   84e1e:	e72b      	b.n	84c78 <__udivmoddi4+0x134>

00084e20 <__aeabi_idiv0>:
   84e20:	4770      	bx	lr
   84e22:	bf00      	nop
   84e24:	4f525245 	.word	0x4f525245
   84e28:	6e203a52 	.word	0x6e203a52
   84e2c:	6964206f 	.word	0x6964206f
   84e30:	74636572 	.word	0x74636572
   84e34:	206e6f69 	.word	0x206e6f69
   84e38:	6c756f63 	.word	0x6c756f63
   84e3c:	65622064 	.word	0x65622064
   84e40:	74656620 	.word	0x74656620
   84e44:	64656863 	.word	0x64656863
   84e48:	6f726620 	.word	0x6f726620
   84e4c:	6874206d 	.word	0x6874206d
   84e50:	656c2065 	.word	0x656c2065
   84e54:	6d207466 	.word	0x6d207466
   84e58:	726f746f 	.word	0x726f746f
   84e5c:	74756220 	.word	0x74756220
   84e60:	6c757020 	.word	0x6c757020
   84e64:	77206573 	.word	0x77206573
   84e68:	73207361 	.word	0x73207361
   84e6c:	6c6c6974 	.word	0x6c6c6974
   84e70:	69727420 	.word	0x69727420
   84e74:	72656767 	.word	0x72656767
   84e78:	202e6465 	.word	0x202e6465
   84e7c:	6f636e45 	.word	0x6f636e45
   84e80:	20726564 	.word	0x20726564
   84e84:	736c7570 	.word	0x736c7570
   84e88:	61642065 	.word	0x61642065
   84e8c:	77206174 	.word	0x77206174
   84e90:	206c6c69 	.word	0x206c6c69
   84e94:	75206562 	.word	0x75206562
   84e98:	6c65726e 	.word	0x6c65726e
   84e9c:	6c626169 	.word	0x6c626169
   84ea0:	000a2e65 	.word	0x000a2e65
   84ea4:	4f525245 	.word	0x4f525245
   84ea8:	6e203a52 	.word	0x6e203a52
   84eac:	6964206f 	.word	0x6964206f
   84eb0:	74636572 	.word	0x74636572
   84eb4:	206e6f69 	.word	0x206e6f69
   84eb8:	6c756f63 	.word	0x6c756f63
   84ebc:	65622064 	.word	0x65622064
   84ec0:	74656620 	.word	0x74656620
   84ec4:	64656863 	.word	0x64656863
   84ec8:	6f726620 	.word	0x6f726620
   84ecc:	6874206d 	.word	0x6874206d
   84ed0:	69722065 	.word	0x69722065
   84ed4:	20746867 	.word	0x20746867
   84ed8:	6f746f6d 	.word	0x6f746f6d
   84edc:	75622072 	.word	0x75622072
   84ee0:	75702074 	.word	0x75702074
   84ee4:	2065736c 	.word	0x2065736c
   84ee8:	20736177 	.word	0x20736177
   84eec:	6c697473 	.word	0x6c697473
   84ef0:	7274206c 	.word	0x7274206c
   84ef4:	65676769 	.word	0x65676769
   84ef8:	2e646572 	.word	0x2e646572
   84efc:	636e4520 	.word	0x636e4520
   84f00:	7265646f 	.word	0x7265646f
   84f04:	6c757020 	.word	0x6c757020
   84f08:	64206573 	.word	0x64206573
   84f0c:	20617461 	.word	0x20617461
   84f10:	6c6c6977 	.word	0x6c6c6977
   84f14:	20656220 	.word	0x20656220
   84f18:	65726e75 	.word	0x65726e75
   84f1c:	6261696c 	.word	0x6261696c
   84f20:	0a2e656c 	.word	0x0a2e656c
   84f24:	00          	.byte	0x00
   84f25:	43          	.byte	0x43
   84f26:	6e6f      	.short	0x6e6f
   84f28:	656c6f73 	.word	0x656c6f73
   84f2c:	61657220 	.word	0x61657220
   84f30:	000a7964 	.word	0x000a7964
   84f34:	3d3d3d3d 	.word	0x3d3d3d3d
   84f38:	3d3d3d3d 	.word	0x3d3d3d3d
   84f3c:	3d3d3d3d 	.word	0x3d3d3d3d
   84f40:	00000a3d 	.word	0x00000a3d
   84f44:	74727173 	.word	0x74727173
   84f48:	00000000 	.word	0x00000000

00084f4c <_global_impure_ptr>:
   84f4c:	200700f8 33323130 37363534 42413938     ... 0123456789AB
   84f5c:	46454443 00000000 33323130 37363534     CDEF....01234567
   84f6c:	62613938 66656463 00000000 6c756e28     89abcdef....(nul
   84f7c:	0000296c                                l)..

00084f80 <blanks.7217>:
   84f80:	20202020 20202020 20202020 20202020                     

00084f90 <zeroes.7218>:
   84f90:	30303030 30303030 30303030 30303030     0000000000000000
   84fa0:	00000043 49534f50 00000058 0000002e     C...POSIX.......

00084fb0 <_ctype_>:
   84fb0:	20202000 20202020 28282020 20282828     .         ((((( 
   84fc0:	20202020 20202020 20202020 20202020                     
   84fd0:	10108820 10101010 10101010 10101010      ...............
   84fe0:	04040410 04040404 10040404 10101010     ................
   84ff0:	41411010 41414141 01010101 01010101     ..AAAAAA........
   85000:	01010101 01010101 01010101 10101010     ................
   85010:	42421010 42424242 02020202 02020202     ..BBBBBB........
   85020:	02020202 02020202 02020202 10101010     ................
   85030:	00000020 00000000 00000000 00000000      ...............
	...

000850b4 <_init>:
   850b4:	b5f8      	push	{r3, r4, r5, r6, r7, lr}
   850b6:	bf00      	nop
   850b8:	bcf8      	pop	{r3, r4, r5, r6, r7}
   850ba:	bc08      	pop	{r3}
   850bc:	469e      	mov	lr, r3
   850be:	4770      	bx	lr

000850c0 <__init_array_start>:
   850c0:	000831f9 	.word	0x000831f9

000850c4 <__frame_dummy_init_array_entry>:
   850c4:	00080119                                ....

000850c8 <_fini>:
   850c8:	b5f8      	push	{r3, r4, r5, r6, r7, lr}
   850ca:	bf00      	nop
   850cc:	bcf8      	pop	{r3, r4, r5, r6, r7}
   850ce:	bc08      	pop	{r3}
   850d0:	469e      	mov	lr, r3
   850d2:	4770      	bx	lr

000850d4 <__fini_array_start>:
   850d4:	000800f5 	.word	0x000800f5

Disassembly of section .relocate:

20070000 <SystemInit>:
20070000:	f44f 6380 	mov.w	r3, #1024	; 0x400
20070004:	4a17      	ldr	r2, [pc, #92]	; (20070064 <SystemInit+0x64>)
20070006:	6013      	str	r3, [r2, #0]
20070008:	f8c2 3200 	str.w	r3, [r2, #512]	; 0x200
2007000c:	4b16      	ldr	r3, [pc, #88]	; (20070068 <SystemInit+0x68>)
2007000e:	6a1a      	ldr	r2, [r3, #32]
20070010:	01d2      	lsls	r2, r2, #7
20070012:	d520      	bpl.n	20070056 <SystemInit+0x56>
20070014:	4a15      	ldr	r2, [pc, #84]	; (2007006c <SystemInit+0x6c>)
20070016:	621a      	str	r2, [r3, #32]
20070018:	6e9a      	ldr	r2, [r3, #104]	; 0x68
2007001a:	03d1      	lsls	r1, r2, #15
2007001c:	d5fc      	bpl.n	20070018 <SystemInit+0x18>
2007001e:	6b1a      	ldr	r2, [r3, #48]	; 0x30
20070020:	f022 0203 	bic.w	r2, r2, #3
20070024:	f042 0201 	orr.w	r2, r2, #1
20070028:	631a      	str	r2, [r3, #48]	; 0x30
2007002a:	6e9a      	ldr	r2, [r3, #104]	; 0x68
2007002c:	0712      	lsls	r2, r2, #28
2007002e:	d5fc      	bpl.n	2007002a <SystemInit+0x2a>
20070030:	4a0f      	ldr	r2, [pc, #60]	; (20070070 <SystemInit+0x70>)
20070032:	629a      	str	r2, [r3, #40]	; 0x28
20070034:	6e9a      	ldr	r2, [r3, #104]	; 0x68
20070036:	0790      	lsls	r0, r2, #30
20070038:	d5fc      	bpl.n	20070034 <SystemInit+0x34>
2007003a:	2211      	movs	r2, #17
2007003c:	631a      	str	r2, [r3, #48]	; 0x30
2007003e:	6e9a      	ldr	r2, [r3, #104]	; 0x68
20070040:	0711      	lsls	r1, r2, #28
20070042:	d5fc      	bpl.n	2007003e <SystemInit+0x3e>
20070044:	2212      	movs	r2, #18
20070046:	631a      	str	r2, [r3, #48]	; 0x30
20070048:	6e9a      	ldr	r2, [r3, #104]	; 0x68
2007004a:	0712      	lsls	r2, r2, #28
2007004c:	d5fc      	bpl.n	20070048 <SystemInit+0x48>
2007004e:	4a09      	ldr	r2, [pc, #36]	; (20070074 <SystemInit+0x74>)
20070050:	4b09      	ldr	r3, [pc, #36]	; (20070078 <SystemInit+0x78>)
20070052:	601a      	str	r2, [r3, #0]
20070054:	4770      	bx	lr
20070056:	4a09      	ldr	r2, [pc, #36]	; (2007007c <SystemInit+0x7c>)
20070058:	621a      	str	r2, [r3, #32]
2007005a:	6e9a      	ldr	r2, [r3, #104]	; 0x68
2007005c:	07d0      	lsls	r0, r2, #31
2007005e:	d5fc      	bpl.n	2007005a <SystemInit+0x5a>
20070060:	e7d8      	b.n	20070014 <SystemInit+0x14>
20070062:	bf00      	nop
20070064:	400e0a00 	.word	0x400e0a00
20070068:	400e0600 	.word	0x400e0600
2007006c:	01370809 	.word	0x01370809
20070070:	200d3f01 	.word	0x200d3f01
20070074:	0501bd00 	.word	0x0501bd00
20070078:	200700ec 	.word	0x200700ec
2007007c:	00370809 	.word	0x00370809

20070080 <system_init_flash>:
20070080:	4b11      	ldr	r3, [pc, #68]	; (200700c8 <system_init_flash+0x48>)
20070082:	4a12      	ldr	r2, [pc, #72]	; (200700cc <system_init_flash+0x4c>)
20070084:	4298      	cmp	r0, r3
20070086:	4b12      	ldr	r3, [pc, #72]	; (200700d0 <system_init_flash+0x50>)
20070088:	d803      	bhi.n	20070092 <system_init_flash+0x12>
2007008a:	2100      	movs	r1, #0
2007008c:	6011      	str	r1, [r2, #0]
2007008e:	6019      	str	r1, [r3, #0]
20070090:	4770      	bx	lr
20070092:	4910      	ldr	r1, [pc, #64]	; (200700d4 <system_init_flash+0x54>)
20070094:	4288      	cmp	r0, r1
20070096:	d802      	bhi.n	2007009e <system_init_flash+0x1e>
20070098:	f44f 7180 	mov.w	r1, #256	; 0x100
2007009c:	e7f6      	b.n	2007008c <system_init_flash+0xc>
2007009e:	490e      	ldr	r1, [pc, #56]	; (200700d8 <system_init_flash+0x58>)
200700a0:	4288      	cmp	r0, r1
200700a2:	d802      	bhi.n	200700aa <system_init_flash+0x2a>
200700a4:	f44f 7100 	mov.w	r1, #512	; 0x200
200700a8:	e7f0      	b.n	2007008c <system_init_flash+0xc>
200700aa:	490c      	ldr	r1, [pc, #48]	; (200700dc <system_init_flash+0x5c>)
200700ac:	4288      	cmp	r0, r1
200700ae:	d802      	bhi.n	200700b6 <system_init_flash+0x36>
200700b0:	f44f 7140 	mov.w	r1, #768	; 0x300
200700b4:	e7ea      	b.n	2007008c <system_init_flash+0xc>
200700b6:	490a      	ldr	r1, [pc, #40]	; (200700e0 <system_init_flash+0x60>)
200700b8:	4288      	cmp	r0, r1
200700ba:	bf94      	ite	ls
200700bc:	f44f 6180 	movls.w	r1, #1024	; 0x400
200700c0:	f44f 61a0 	movhi.w	r1, #1280	; 0x500
200700c4:	e7e2      	b.n	2007008c <system_init_flash+0xc>
200700c6:	bf00      	nop
200700c8:	0121eabf 	.word	0x0121eabf
200700cc:	400e0a00 	.word	0x400e0a00
200700d0:	400e0c00 	.word	0x400e0c00
200700d4:	02faf07f 	.word	0x02faf07f
200700d8:	03d08fff 	.word	0x03d08fff
200700dc:	04c4b3ff 	.word	0x04c4b3ff
200700e0:	055d4a7f 	.word	0x055d4a7f

200700e4 <pVal1>:
200700e4:	0000ffff                                         .

200700e5 <pVal2>:
200700e5:	ff0000ff                                         ...

200700e8 <xNextTaskUnblockTime>:
200700e8:	ffffffff                                ....

200700ec <SystemCoreClock>:
200700ec:	003d0900                                ..=.

200700f0 <__fdlib_version>:
200700f0:	00000001                                ....

200700f4 <_impure_ptr>:
200700f4:	200700f8                                ... 

200700f8 <impure_data>:
200700f8:	00000000 200703e4 2007044c 200704b4     ....... L.. ... 
	...
200701a0:	00000001 00000000 abcd330e e66d1234     .........3..4.m.
200701b0:	0005deec 0000000b 00000000 00000000     ................
	...

20070520 <__atexit_recursive_mutex>:
20070520:	20070c5c                                \.. 

20070524 <__global_locale>:
20070524:	00000043 00000000 00000000 00000000     C...............
	...
20070544:	00000043 00000000 00000000 00000000     C...............
	...
20070564:	00000043 00000000 00000000 00000000     C...............
	...
20070584:	00000043 00000000 00000000 00000000     C...............
	...
200705a4:	00000043 00000000 00000000 00000000     C...............
	...
200705c4:	00000043 00000000 00000000 00000000     C...............
	...
200705e4:	00000043 00000000 00000000 00000000     C...............
	...
20070604:	00084881 000841cd 00000000 00084fb0     .H...A.......O..
20070614:	00084fac 00084f60 00084f60 00084f60     .O..`O..`O..`O..
20070624:	00084f60 00084f60 00084f60 00084f60     `O..`O..`O..`O..
20070634:	00084f60 00084f60 ffffffff ffffffff     `O..`O..........
20070644:	ffffffff 0000ffff 53410001 00494943     ..........ASCII.
	...
2007066c:	53410000 00494943 00000000 00000000     ..ASCII.........
	...

20070690 <__malloc_av_>:
	...
20070698:	20070690 20070690 20070698 20070698     ... ... ... ... 
200706a8:	200706a0 200706a0 200706a8 200706a8     ... ... ... ... 
200706b8:	200706b0 200706b0 200706b8 200706b8     ... ... ... ... 
200706c8:	200706c0 200706c0 200706c8 200706c8     ... ... ... ... 
200706d8:	200706d0 200706d0 200706d8 200706d8     ... ... ... ... 
200706e8:	200706e0 200706e0 200706e8 200706e8     ... ... ... ... 
200706f8:	200706f0 200706f0 200706f8 200706f8     ... ... ... ... 
20070708:	20070700 20070700 20070708 20070708     ... ... ... ... 
20070718:	20070710 20070710 20070718 20070718     ... ... ... ... 
20070728:	20070720 20070720 20070728 20070728      ..  .. (.. (.. 
20070738:	20070730 20070730 20070738 20070738     0.. 0.. 8.. 8.. 
20070748:	20070740 20070740 20070748 20070748     @.. @.. H.. H.. 
20070758:	20070750 20070750 20070758 20070758     P.. P.. X.. X.. 
20070768:	20070760 20070760 20070768 20070768     `.. `.. h.. h.. 
20070778:	20070770 20070770 20070778 20070778     p.. p.. x.. x.. 
20070788:	20070780 20070780 20070788 20070788     ... ... ... ... 
20070798:	20070790 20070790 20070798 20070798     ... ... ... ... 
200707a8:	200707a0 200707a0 200707a8 200707a8     ... ... ... ... 
200707b8:	200707b0 200707b0 200707b8 200707b8     ... ... ... ... 
200707c8:	200707c0 200707c0 200707c8 200707c8     ... ... ... ... 
200707d8:	200707d0 200707d0 200707d8 200707d8     ... ... ... ... 
200707e8:	200707e0 200707e0 200707e8 200707e8     ... ... ... ... 
200707f8:	200707f0 200707f0 200707f8 200707f8     ... ... ... ... 
20070808:	20070800 20070800 20070808 20070808     ... ... ... ... 
20070818:	20070810 20070810 20070818 20070818     ... ... ... ... 
20070828:	20070820 20070820 20070828 20070828      ..  .. (.. (.. 
20070838:	20070830 20070830 20070838 20070838     0.. 0.. 8.. 8.. 
20070848:	20070840 20070840 20070848 20070848     @.. @.. H.. H.. 
20070858:	20070850 20070850 20070858 20070858     P.. P.. X.. X.. 
20070868:	20070860 20070860 20070868 20070868     `.. `.. h.. h.. 
20070878:	20070870 20070870 20070878 20070878     p.. p.. x.. x.. 
20070888:	20070880 20070880 20070888 20070888     ... ... ... ... 
20070898:	20070890 20070890 20070898 20070898     ... ... ... ... 
200708a8:	200708a0 200708a0 200708a8 200708a8     ... ... ... ... 
200708b8:	200708b0 200708b0 200708b8 200708b8     ... ... ... ... 
200708c8:	200708c0 200708c0 200708c8 200708c8     ... ... ... ... 
200708d8:	200708d0 200708d0 200708d8 200708d8     ... ... ... ... 
200708e8:	200708e0 200708e0 200708e8 200708e8     ... ... ... ... 
200708f8:	200708f0 200708f0 200708f8 200708f8     ... ... ... ... 
20070908:	20070900 20070900 20070908 20070908     ... ... ... ... 
20070918:	20070910 20070910 20070918 20070918     ... ... ... ... 
20070928:	20070920 20070920 20070928 20070928      ..  .. (.. (.. 
20070938:	20070930 20070930 20070938 20070938     0.. 0.. 8.. 8.. 
20070948:	20070940 20070940 20070948 20070948     @.. @.. H.. H.. 
20070958:	20070950 20070950 20070958 20070958     P.. P.. X.. X.. 
20070968:	20070960 20070960 20070968 20070968     `.. `.. h.. h.. 
20070978:	20070970 20070970 20070978 20070978     p.. p.. x.. x.. 
20070988:	20070980 20070980 20070988 20070988     ... ... ... ... 
20070998:	20070990 20070990 20070998 20070998     ... ... ... ... 
200709a8:	200709a0 200709a0 200709a8 200709a8     ... ... ... ... 
200709b8:	200709b0 200709b0 200709b8 200709b8     ... ... ... ... 
200709c8:	200709c0 200709c0 200709c8 200709c8     ... ... ... ... 
200709d8:	200709d0 200709d0 200709d8 200709d8     ... ... ... ... 
200709e8:	200709e0 200709e0 200709e8 200709e8     ... ... ... ... 
200709f8:	200709f0 200709f0 200709f8 200709f8     ... ... ... ... 
20070a08:	20070a00 20070a00 20070a08 20070a08     ... ... ... ... 
20070a18:	20070a10 20070a10 20070a18 20070a18     ... ... ... ... 
20070a28:	20070a20 20070a20 20070a28 20070a28      ..  .. (.. (.. 
20070a38:	20070a30 20070a30 20070a38 20070a38     0.. 0.. 8.. 8.. 
20070a48:	20070a40 20070a40 20070a48 20070a48     @.. @.. H.. H.. 
20070a58:	20070a50 20070a50 20070a58 20070a58     P.. P.. X.. X.. 
20070a68:	20070a60 20070a60 20070a68 20070a68     `.. `.. h.. h.. 
20070a78:	20070a70 20070a70 20070a78 20070a78     p.. p.. x.. x.. 
20070a88:	20070a80 20070a80 20070a88 20070a88     ... ... ... ... 

20070a98 <__malloc_sbrk_base>:
20070a98:	ffffffff                                ....

20070a9c <__malloc_trim_threshold>:
20070a9c:	00020000                                ....
