
FreeRTOS.elf:     file format elf32-littlearm

Sections:
Idx Name          Size      VMA       LMA       File off  Algn
  0 .text         00005cac  00080000  00080000  00010000  2**2
                  CONTENTS, ALLOC, LOAD, READONLY, CODE
  1 .ARM.exidx    00000008  00085cac  00085cac  00015cac  2**2
                  CONTENTS, ALLOC, LOAD, READONLY, DATA
  2 .relocate     00000ae8  20070000  00085cb4  00020000  2**3
                  CONTENTS, ALLOC, LOAD, CODE
  3 .bss          0000a2bc  20070ae8  000867a0  00020ae8  2**3
                  ALLOC
  4 .stack        00002004  2007ada4  00090a5c  00020ae8  2**0
                  ALLOC
  5 .ARM.attributes 00000029  00000000  00000000  00020ae8  2**0
                  CONTENTS, READONLY
  6 .comment      00000059  00000000  00000000  00020b11  2**0
                  CONTENTS, READONLY
  7 .debug_info   0001e8ab  00000000  00000000  00020b6a  2**0
                  CONTENTS, READONLY, DEBUGGING
  8 .debug_abbrev 000044e9  00000000  00000000  0003f415  2**0
                  CONTENTS, READONLY, DEBUGGING
  9 .debug_loc    00008140  00000000  00000000  000438fe  2**0
                  CONTENTS, READONLY, DEBUGGING
 10 .debug_aranges 00000ee0  00000000  00000000  0004ba3e  2**0
                  CONTENTS, READONLY, DEBUGGING
 11 .debug_ranges 00000eb8  00000000  00000000  0004c91e  2**0
                  CONTENTS, READONLY, DEBUGGING
 12 .debug_macro  00009f25  00000000  00000000  0004d7d6  2**0
                  CONTENTS, READONLY, DEBUGGING
 13 .debug_line   000136d2  00000000  00000000  000576fb  2**0
                  CONTENTS, READONLY, DEBUGGING
 14 .debug_str    0006ab6d  00000000  00000000  0006adcd  2**0
                  CONTENTS, READONLY, DEBUGGING
 15 .debug_frame  00002f94  00000000  00000000  000d593c  2**2
                  CONTENTS, READONLY, DEBUGGING

Disassembly of section .text:

00080000 <exception_table>:
   80000:	a8 cd 07 20 a5 27 08 00 a1 27 08 00 a1 27 08 00     ... .'...'...'..
   80010:	a1 27 08 00 a1 27 08 00 a1 27 08 00 00 00 00 00     .'...'...'......
	...
   8002c:	8d 0d 08 00 a1 27 08 00 00 00 00 00 0d 0e 08 00     .....'..........
   8003c:	49 0e 08 00 a1 27 08 00 a1 27 08 00 a1 27 08 00     I....'...'...'..
   8004c:	a1 27 08 00 a1 27 08 00 a1 27 08 00 a1 27 08 00     .'...'...'...'..
   8005c:	a1 27 08 00 a1 27 08 00 a1 27 08 00 00 00 00 00     .'...'...'......
   8006c:	15 26 08 00 29 26 08 00 3d 26 08 00 51 26 08 00     .&..)&..=&..Q&..
	...
   80084:	a1 27 08 00 a1 27 08 00 a1 27 08 00 a1 27 08 00     .'...'...'...'..
   80094:	a1 27 08 00 a1 27 08 00 a1 27 08 00 a1 27 08 00     .'...'...'...'..
   800a4:	00 00 00 00 a1 27 08 00 a1 27 08 00 a1 27 08 00     .....'...'...'..
   800b4:	a1 27 08 00 a1 27 08 00 a1 27 08 00 a1 27 08 00     .'...'...'...'..
   800c4:	a1 27 08 00 a1 27 08 00 a1 27 08 00 a1 27 08 00     .'...'...'...'..
   800d4:	a1 27 08 00 a1 27 08 00 a1 27 08 00 a1 27 08 00     .'...'...'...'..
   800e4:	a1 27 08 00 a1 27 08 00 a1 27 08 00 a1 27 08 00     .'...'...'...'..

000800f4 <__do_global_dtors_aux>:
   800f4:	b510      	push	{r4, lr}
   800f6:	4c05      	ldr	r4, [pc, #20]	; (8010c <__do_global_dtors_aux+0x18>)
   800f8:	7823      	ldrb	r3, [r4, #0]
   800fa:	b933      	cbnz	r3, 8010a <__do_global_dtors_aux+0x16>
   800fc:	4b04      	ldr	r3, [pc, #16]	; (80110 <__do_global_dtors_aux+0x1c>)
   800fe:	b113      	cbz	r3, 80106 <__do_global_dtors_aux+0x12>
   80100:	4804      	ldr	r0, [pc, #16]	; (80114 <__do_global_dtors_aux+0x20>)
   80102:	f3af 8000 	nop.w
   80106:	2301      	movs	r3, #1
   80108:	7023      	strb	r3, [r4, #0]
   8010a:	bd10      	pop	{r4, pc}
   8010c:	20070ae8 	.word	0x20070ae8
   80110:	00000000 	.word	0x00000000
   80114:	00085cb4 	.word	0x00085cb4

00080118 <frame_dummy>:
   80118:	4b0c      	ldr	r3, [pc, #48]	; (8014c <frame_dummy+0x34>)
   8011a:	b143      	cbz	r3, 8012e <frame_dummy+0x16>
   8011c:	480c      	ldr	r0, [pc, #48]	; (80150 <frame_dummy+0x38>)
   8011e:	b510      	push	{r4, lr}
   80120:	490c      	ldr	r1, [pc, #48]	; (80154 <frame_dummy+0x3c>)
   80122:	f3af 8000 	nop.w
   80126:	480c      	ldr	r0, [pc, #48]	; (80158 <frame_dummy+0x40>)
   80128:	6803      	ldr	r3, [r0, #0]
   8012a:	b923      	cbnz	r3, 80136 <frame_dummy+0x1e>
   8012c:	bd10      	pop	{r4, pc}
   8012e:	480a      	ldr	r0, [pc, #40]	; (80158 <frame_dummy+0x40>)
   80130:	6803      	ldr	r3, [r0, #0]
   80132:	b933      	cbnz	r3, 80142 <frame_dummy+0x2a>
   80134:	4770      	bx	lr
   80136:	4b09      	ldr	r3, [pc, #36]	; (8015c <frame_dummy+0x44>)
   80138:	2b00      	cmp	r3, #0
   8013a:	d0f7      	beq.n	8012c <frame_dummy+0x14>
   8013c:	e8bd 4010 	ldmia.w	sp!, {r4, lr}
   80140:	4718      	bx	r3
   80142:	4b06      	ldr	r3, [pc, #24]	; (8015c <frame_dummy+0x44>)
   80144:	2b00      	cmp	r3, #0
   80146:	d0f5      	beq.n	80134 <frame_dummy+0x1c>
   80148:	4718      	bx	r3
   8014a:	bf00      	nop
   8014c:	00000000 	.word	0x00000000
   80150:	00085cb4 	.word	0x00085cb4
   80154:	20070aec 	.word	0x20070aec
   80158:	00085cb4 	.word	0x00085cb4
   8015c:	00000000 	.word	0x00000000

00080160 <pwm_clocks_generate>:
 *
 * \retval Return the value to be set in the PWM Clock Register (PWM Mode Register for
 * SAM3N/SAM4N/SAM4C/SAM4CP/SAM4CM) or PWM_INVALID_ARGUMENT if the configuration cannot be met.
 */
static uint32_t pwm_clocks_generate(uint32_t ul_frequency, uint32_t ul_mck)
{
   80160:	b4f0      	push	{r4, r5, r6, r7}
   80162:	b08c      	sub	sp, #48	; 0x30
   80164:	4607      	mov	r7, r0
   80166:	460e      	mov	r6, r1
	uint32_t ul_divisors[PWM_CLOCK_PRE_MAX] =
   80168:	ac01      	add	r4, sp, #4
   8016a:	4d11      	ldr	r5, [pc, #68]	; (801b0 <pwm_clocks_generate+0x50>)
   8016c:	cd0f      	ldmia	r5!, {r0, r1, r2, r3}
   8016e:	c40f      	stmia	r4!, {r0, r1, r2, r3}
   80170:	cd0f      	ldmia	r5!, {r0, r1, r2, r3}
   80172:	c40f      	stmia	r4!, {r0, r1, r2, r3}
   80174:	e895 0007 	ldmia.w	r5, {r0, r1, r2}
   80178:	e884 0007 	stmia.w	r4, {r0, r1, r2}
   8017c:	aa01      	add	r2, sp, #4
			{1, 2, 4, 8, 16, 32, 64, 128, 256, 512, 1024 };
	uint32_t ul_pre = 0;
   8017e:	2300      	movs	r3, #0
	uint32_t ul_div;

	/* Find prescaler and divisor values */
	do {
		ul_div = (ul_mck / ul_divisors[ul_pre]) / ul_frequency;
   80180:	f852 0b04 	ldr.w	r0, [r2], #4
   80184:	fbb6 f0f0 	udiv	r0, r6, r0
   80188:	fbb0 f0f7 	udiv	r0, r0, r7
		if (ul_div <= PWM_CLOCK_DIV_MAX) {
   8018c:	f5b0 7f80 	cmp.w	r0, #256	; 0x100
   80190:	d907      	bls.n	801a2 <pwm_clocks_generate+0x42>
			break;
		}
		ul_pre++;
   80192:	3301      	adds	r3, #1
	} while (ul_pre < PWM_CLOCK_PRE_MAX);
   80194:	2b0b      	cmp	r3, #11
   80196:	d1f3      	bne.n	80180 <pwm_clocks_generate+0x20>

	/* Return result */
	if (ul_pre < PWM_CLOCK_PRE_MAX) {
		return ul_div | (ul_pre << 8);
	} else {
		return PWM_INVALID_ARGUMENT;
   80198:	f64f 70ff 	movw	r0, #65535	; 0xffff
	}
}
   8019c:	b00c      	add	sp, #48	; 0x30
   8019e:	bcf0      	pop	{r4, r5, r6, r7}
   801a0:	4770      	bx	lr
	if (ul_pre < PWM_CLOCK_PRE_MAX) {
   801a2:	2b0a      	cmp	r3, #10
		return ul_div | (ul_pre << 8);
   801a4:	bf94      	ite	ls
   801a6:	ea40 2003 	orrls.w	r0, r0, r3, lsl #8
		return PWM_INVALID_ARGUMENT;
   801aa:	f64f 70ff 	movwhi	r0, #65535	; 0xffff
   801ae:	e7f5      	b.n	8019c <pwm_clocks_generate+0x3c>
   801b0:	000858b0 	.word	0x000858b0

000801b4 <pwm_init>:
 * \param clock_config PWM clock configuration.
 *
 * \retval 0 if initialization succeeds, otherwise fails.
 */
uint32_t pwm_init(Pwm *p_pwm, pwm_clock_t *clock_config)
{
   801b4:	b570      	push	{r4, r5, r6, lr}
   801b6:	4606      	mov	r6, r0
   801b8:	460d      	mov	r5, r1
	uint32_t clock = 0;
	uint32_t result;

	/* Clock A */
	if (clock_config->ul_clka != 0) {
   801ba:	680c      	ldr	r4, [r1, #0]
   801bc:	b144      	cbz	r4, 801d0 <pwm_init+0x1c>
		result = pwm_clocks_generate(clock_config->ul_clka, clock_config->ul_mck);
   801be:	6889      	ldr	r1, [r1, #8]
   801c0:	4620      	mov	r0, r4
   801c2:	4b0c      	ldr	r3, [pc, #48]	; (801f4 <pwm_init+0x40>)
   801c4:	4798      	blx	r3
   801c6:	4604      	mov	r4, r0
		if (result == PWM_INVALID_ARGUMENT) {
   801c8:	f64f 73ff 	movw	r3, #65535	; 0xffff
   801cc:	4298      	cmp	r0, r3
   801ce:	d00c      	beq.n	801ea <pwm_init+0x36>

		clock = result;
	}

	/* Clock B */
	if (clock_config->ul_clkb != 0) {
   801d0:	6868      	ldr	r0, [r5, #4]
   801d2:	b140      	cbz	r0, 801e6 <pwm_init+0x32>
		result = pwm_clocks_generate(clock_config->ul_clkb, clock_config->ul_mck);
   801d4:	68a9      	ldr	r1, [r5, #8]
   801d6:	4b07      	ldr	r3, [pc, #28]	; (801f4 <pwm_init+0x40>)
   801d8:	4798      	blx	r3

		if (result == PWM_INVALID_ARGUMENT) {
   801da:	f64f 73ff 	movw	r3, #65535	; 0xffff
   801de:	4298      	cmp	r0, r3
   801e0:	d005      	beq.n	801ee <pwm_init+0x3a>
			return result;
		}

		clock |= (result << 16);
   801e2:	ea44 4400 	orr.w	r4, r4, r0, lsl #16
	}
#if (SAM3N || SAM4N || SAM4C || SAM4CP || SAM4CM)
	p_pwm->PWM_MR = clock;
#else
	p_pwm->PWM_CLK = clock;
   801e6:	6034      	str	r4, [r6, #0]
#endif
	return 0;
   801e8:	2400      	movs	r4, #0
}
   801ea:	4620      	mov	r0, r4
   801ec:	bd70      	pop	{r4, r5, r6, pc}
			return result;
   801ee:	4604      	mov	r4, r0
   801f0:	e7fb      	b.n	801ea <pwm_init+0x36>
   801f2:	bf00      	nop
   801f4:	00080161 	.word	0x00080161

000801f8 <pwm_channel_init>:
 * \param p_channel Configurations of the specified PWM channel.
 *
 * \retval 0 if initialization succeeds, otherwise fails.
 */
uint32_t pwm_channel_init(Pwm *p_pwm, pwm_channel_t *p_channel)
{
   801f8:	b470      	push	{r4, r5, r6}
	uint32_t tmp_reg = 0;
	uint32_t ch_num = p_channel->channel;
   801fa:	680a      	ldr	r2, [r1, #0]

	/* Channel Mode/Clock Register */
	tmp_reg = (p_channel->ul_prescaler & 0xF) |
   801fc:	684b      	ldr	r3, [r1, #4]
   801fe:	f003 030f 	and.w	r3, r3, #15
			(p_channel->polarity << 9) |
#if (SAM3U || SAM3S || SAM3XA || SAM4S || SAM4E || SAMV70 || SAMV71 || SAME70 || SAMS70)
			(p_channel->counter_event) |
   80202:	8a8c      	ldrh	r4, [r1, #20]
	tmp_reg = (p_channel->ul_prescaler & 0xF) |
   80204:	4323      	orrs	r3, r4
			(p_channel->b_deadtime_generator << 16) |
			(p_channel->b_pwmh_output_inverted << 17) |
			(p_channel->b_pwml_output_inverted << 18) |
#endif
			(p_channel->alignment);
   80206:	890c      	ldrh	r4, [r1, #8]
	tmp_reg = (p_channel->ul_prescaler & 0xF) |
   80208:	4323      	orrs	r3, r4
			(p_channel->polarity << 9) |
   8020a:	7a8c      	ldrb	r4, [r1, #10]
	tmp_reg = (p_channel->ul_prescaler & 0xF) |
   8020c:	ea43 2344 	orr.w	r3, r3, r4, lsl #9
			(p_channel->b_deadtime_generator << 16) |
   80210:	7d8c      	ldrb	r4, [r1, #22]
	tmp_reg = (p_channel->ul_prescaler & 0xF) |
   80212:	ea43 4304 	orr.w	r3, r3, r4, lsl #16
			(p_channel->b_pwmh_output_inverted << 17) |
   80216:	7dcc      	ldrb	r4, [r1, #23]
	tmp_reg = (p_channel->ul_prescaler & 0xF) |
   80218:	ea43 4344 	orr.w	r3, r3, r4, lsl #17
			(p_channel->b_pwml_output_inverted << 18) |
   8021c:	7e0c      	ldrb	r4, [r1, #24]
	tmp_reg = (p_channel->ul_prescaler & 0xF) |
   8021e:	ea43 4384 	orr.w	r3, r3, r4, lsl #18
   80222:	eb00 1442 	add.w	r4, r0, r2, lsl #5
	p_pwm->PWM_CH_NUM[ch_num].PWM_CMR = tmp_reg;
   80226:	f8c4 3200 	str.w	r3, [r4, #512]	; 0x200

	/* Channel Duty Cycle Register */
	p_pwm->PWM_CH_NUM[ch_num].PWM_CDTY = p_channel->ul_duty;
   8022a:	68cb      	ldr	r3, [r1, #12]
   8022c:	f8c4 3204 	str.w	r3, [r4, #516]	; 0x204

	/* Channel Period Register */
	p_pwm->PWM_CH_NUM[ch_num].PWM_CPRD = p_channel->ul_period;
   80230:	690b      	ldr	r3, [r1, #16]
   80232:	f8c4 320c 	str.w	r3, [r4, #524]	; 0x20c
	
#if (SAM3U || SAM3S || SAM3XA || SAM4S || SAM4E || SAMV70 || SAMV71 || SAME70 || SAMS70)
	/* Channel Dead Time Register */
	if (p_channel->b_deadtime_generator) {
   80236:	7d8b      	ldrb	r3, [r1, #22]
   80238:	b13b      	cbz	r3, 8024a <pwm_channel_init+0x52>
		p_pwm->PWM_CH_NUM[ch_num].PWM_DT =
				PWM_DT_DTL(p_channel->
   8023a:	8b8c      	ldrh	r4, [r1, #28]
				us_deadtime_pwml) | PWM_DT_DTH(p_channel->
   8023c:	8b4b      	ldrh	r3, [r1, #26]
   8023e:	ea43 4304 	orr.w	r3, r3, r4, lsl #16
		p_pwm->PWM_CH_NUM[ch_num].PWM_DT =
   80242:	eb00 1442 	add.w	r4, r0, r2, lsl #5
   80246:	f8c4 3218 	str.w	r3, [r4, #536]	; 0x218
				us_deadtime_pwmh);
	}

	/* Output Selection Register */
	tmp_reg  = p_pwm->PWM_OS & (~((PWM_OS_OSH0 | PWM_OS_OSL0) << ch_num));
   8024a:	6c85      	ldr	r5, [r0, #72]	; 0x48
   8024c:	f04f 1301 	mov.w	r3, #65537	; 0x10001
   80250:	4093      	lsls	r3, r2
   80252:	43db      	mvns	r3, r3
   80254:	401d      	ands	r5, r3
	tmp_reg |= ((p_channel->output_selection.b_override_pwmh) << ch_num) |
			(((p_channel->output_selection.b_override_pwml) << ch_num)
   80256:	7fcc      	ldrb	r4, [r1, #31]
   80258:	fa04 f602 	lsl.w	r6, r4, r2
	tmp_reg |= ((p_channel->output_selection.b_override_pwmh) << ch_num) |
   8025c:	7f8c      	ldrb	r4, [r1, #30]
   8025e:	4094      	lsls	r4, r2
   80260:	ea44 4406 	orr.w	r4, r4, r6, lsl #16
   80264:	432c      	orrs	r4, r5
					<< 16);
	p_pwm->PWM_OS = tmp_reg;
   80266:	6484      	str	r4, [r0, #72]	; 0x48

	/* Output Override Value Register */
	tmp_reg  = p_pwm->PWM_OOV & (~((PWM_OOV_OOVH0 | PWM_OOV_OOVL0) << ch_num));
   80268:	6c44      	ldr	r4, [r0, #68]	; 0x44
   8026a:	4023      	ands	r3, r4
	tmp_reg |= ((p_channel->output_selection.override_level_pwmh) << ch_num) |
			(((p_channel->output_selection.override_level_pwml) << ch_num)
   8026c:	f891 4021 	ldrb.w	r4, [r1, #33]	; 0x21
   80270:	fa04 f502 	lsl.w	r5, r4, r2
	tmp_reg |= ((p_channel->output_selection.override_level_pwmh) << ch_num) |
   80274:	f891 4020 	ldrb.w	r4, [r1, #32]
   80278:	4094      	lsls	r4, r2
   8027a:	ea44 4405 	orr.w	r4, r4, r5, lsl #16
   8027e:	4323      	orrs	r3, r4
					<< 16);
	p_pwm->PWM_OOV = tmp_reg;
   80280:	6443      	str	r3, [r0, #68]	; 0x44

	/* Sync Channels Mode Register */
	uint32_t channel = (1 << ch_num);
   80282:	2301      	movs	r3, #1
   80284:	4093      	lsls	r3, r2
	if (p_channel->b_sync_ch) {
   80286:	f891 4022 	ldrb.w	r4, [r1, #34]	; 0x22
   8028a:	b334      	cbz	r4, 802da <pwm_channel_init+0xe2>
		p_pwm->PWM_SCM |= channel;
   8028c:	6a04      	ldr	r4, [r0, #32]
   8028e:	431c      	orrs	r4, r3
   80290:	6204      	str	r4, [r0, #32]
		} else {
			p_pwm->PWM_FPV1 &= (~((0x01 << ch_num) << 16));
		}
	}
#else
	if (p_channel->ul_fault_output_pwmh == PWM_HIGH) {
   80292:	f891 4024 	ldrb.w	r4, [r1, #36]	; 0x24
   80296:	2c01      	cmp	r4, #1
		p_pwm->PWM_FPV |= (0x01 << ch_num);
   80298:	6e84      	ldr	r4, [r0, #104]	; 0x68
   8029a:	bf0c      	ite	eq
   8029c:	431c      	orreq	r4, r3
	} else {
		p_pwm->PWM_FPV &= (~(0x01 << ch_num));
   8029e:	439c      	bicne	r4, r3
   802a0:	6684      	str	r4, [r0, #104]	; 0x68
	}
	if (p_channel->ul_fault_output_pwml == PWM_HIGH) {
   802a2:	f891 4025 	ldrb.w	r4, [r1, #37]	; 0x25
   802a6:	2c01      	cmp	r4, #1
		p_pwm->PWM_FPV |= ((0x01 << ch_num) << 16);
   802a8:	6e84      	ldr	r4, [r0, #104]	; 0x68
   802aa:	bf0c      	ite	eq
   802ac:	ea44 4303 	orreq.w	r3, r4, r3, lsl #16
	} else {
		p_pwm->PWM_FPV &= (~((0x01 << ch_num) << 16));
   802b0:	ea24 4303 	bicne.w	r3, r4, r3, lsl #16
   802b4:	6683      	str	r3, [r0, #104]	; 0x68
	}
#endif
	/* Fault Protection Enable Register */
	uint32_t fault_enable_reg = 0;
#if (SAM3XA)
	if (ch_num < 4) {
   802b6:	2a03      	cmp	r2, #3
   802b8:	d914      	bls.n	802e4 <pwm_channel_init+0xec>
		fault_enable_reg = p_pwm->PWM_FPE1;
		fault_enable_reg &= ~(0xFF << ch_num);
		fault_enable_reg |= ((p_channel->fault_id) << ch_num);
		p_pwm->PWM_FPE1 = fault_enable_reg;
	} else {
		ch_num -= 4;
   802ba:	3a04      	subs	r2, #4
		ch_num *= 8;
   802bc:	00d2      	lsls	r2, r2, #3
		fault_enable_reg = p_pwm->PWM_FPE2;
   802be:	6f04      	ldr	r4, [r0, #112]	; 0x70
		fault_enable_reg &= ~(0xFF << ch_num);
   802c0:	23ff      	movs	r3, #255	; 0xff
   802c2:	4093      	lsls	r3, r2
   802c4:	ea24 0403 	bic.w	r4, r4, r3
		fault_enable_reg |= ((p_channel->fault_id) << ch_num);
   802c8:	f891 3023 	ldrb.w	r3, [r1, #35]	; 0x23
   802cc:	fa03 f202 	lsl.w	r2, r3, r2
   802d0:	4322      	orrs	r2, r4
		p_pwm->PWM_FPE2 = fault_enable_reg;
   802d2:	6702      	str	r2, [r0, #112]	; 0x70
	p_pwm->PWM_CH_NUM[ch_num].PWM_CMR &= (~PWM_CMR_PPM);
	p_pwm->PWM_CH_NUM[ch_num].PWM_CMR |= (p_channel->ul_ppm_mode & PWM_CMR_PPM);
#endif

	return 0;
}
   802d4:	2000      	movs	r0, #0
   802d6:	bc70      	pop	{r4, r5, r6}
   802d8:	4770      	bx	lr
		p_pwm->PWM_SCM &= ~((uint32_t) channel);
   802da:	6a04      	ldr	r4, [r0, #32]
   802dc:	ea24 0403 	bic.w	r4, r4, r3
   802e0:	6204      	str	r4, [r0, #32]
   802e2:	e7d6      	b.n	80292 <pwm_channel_init+0x9a>
		ch_num *= 8;
   802e4:	00d5      	lsls	r5, r2, #3
		fault_enable_reg = p_pwm->PWM_FPE1;
   802e6:	6ec3      	ldr	r3, [r0, #108]	; 0x6c
		fault_enable_reg &= ~(0xFF << ch_num);
   802e8:	24ff      	movs	r4, #255	; 0xff
   802ea:	40ac      	lsls	r4, r5
   802ec:	ea23 0304 	bic.w	r3, r3, r4
		fault_enable_reg |= ((p_channel->fault_id) << ch_num);
   802f0:	f891 2023 	ldrb.w	r2, [r1, #35]	; 0x23
   802f4:	40aa      	lsls	r2, r5
   802f6:	431a      	orrs	r2, r3
		p_pwm->PWM_FPE1 = fault_enable_reg;
   802f8:	66c2      	str	r2, [r0, #108]	; 0x6c
   802fa:	e7eb      	b.n	802d4 <pwm_channel_init+0xdc>

000802fc <pwm_channel_enable>:
 * \param p_pwm Pointer to a PWM instance.
 * \param ul_channel PWM channel number to enable.
 */
void pwm_channel_enable(Pwm *p_pwm, uint32_t ul_channel)
{
	p_pwm->PWM_ENA = (1 << ul_channel);
   802fc:	2301      	movs	r3, #1
   802fe:	fa03 f101 	lsl.w	r1, r3, r1
   80302:	6041      	str	r1, [r0, #4]
   80304:	4770      	bx	lr

00080306 <pwm_channel_disable>:
 * \param p_pwm Pointer to a PWM instance.
 * \param ul_channel PWM channel number to disable.
 */
void pwm_channel_disable(Pwm *p_pwm, uint32_t ul_channel)
{
	p_pwm->PWM_DIS = (1 << ul_channel);
   80306:	2301      	movs	r3, #1
   80308:	fa03 f101 	lsl.w	r1, r3, r1
   8030c:	6081      	str	r1, [r0, #8]
   8030e:	4770      	bx	lr

00080310 <rightEncoderAISR>:
	printf("%i\n",lTickTime);
	
} 
*/
//////////////////////////////ENCODER ISR//////////////////////////////////////////
void rightEncoderAISR(){ //ISR for the right encoder A
   80310:	b538      	push	{r3, r4, r5, lr}
	//Counts pulses on the right wheel encoder	
	if(getSetRDirection()>0){
   80312:	4b14      	ldr	r3, [pc, #80]	; (80364 <rightEncoderAISR+0x54>)
   80314:	4798      	blx	r3
   80316:	2800      	cmp	r0, #0
   80318:	dd12      	ble.n	80340 <rightEncoderAISR+0x30>
		rAPulses++; 
   8031a:	4a13      	ldr	r2, [pc, #76]	; (80368 <rightEncoderAISR+0x58>)
   8031c:	6813      	ldr	r3, [r2, #0]
   8031e:	3301      	adds	r3, #1
   80320:	6013      	str	r3, [r2, #0]
		printf("ERROR: no direction could be fetched from the right motor but pulse was still triggered. Encoder pulse data will be unreliable.\n");
	}

	//Compares tick-count since last time it was here to get a measurement of the pulsetime in units of ticks
	//It uses the inbuilt tick counter as reference 
	rAPrevTick = rACurrentTick;
   80322:	4c12      	ldr	r4, [pc, #72]	; (8036c <rightEncoderAISR+0x5c>)
   80324:	4d12      	ldr	r5, [pc, #72]	; (80370 <rightEncoderAISR+0x60>)
   80326:	682b      	ldr	r3, [r5, #0]
   80328:	6023      	str	r3, [r4, #0]
	rACurrentTick = xTaskGetTickCountFromISR();
   8032a:	4b12      	ldr	r3, [pc, #72]	; (80374 <rightEncoderAISR+0x64>)
   8032c:	4798      	blx	r3
   8032e:	6028      	str	r0, [r5, #0]
	rAPulseTime = rACurrentTick-rAPrevTick*msPerTick;
   80330:	6823      	ldr	r3, [r4, #0]
   80332:	4a11      	ldr	r2, [pc, #68]	; (80378 <rightEncoderAISR+0x68>)
   80334:	6812      	ldr	r2, [r2, #0]
   80336:	fb02 0013 	mls	r0, r2, r3, r0
   8033a:	4b10      	ldr	r3, [pc, #64]	; (8037c <rightEncoderAISR+0x6c>)
   8033c:	6018      	str	r0, [r3, #0]
   8033e:	bd38      	pop	{r3, r4, r5, pc}
	else if(getSetRDirection()<0){
   80340:	4b08      	ldr	r3, [pc, #32]	; (80364 <rightEncoderAISR+0x54>)
   80342:	4798      	blx	r3
   80344:	2800      	cmp	r0, #0
   80346:	db07      	blt.n	80358 <rightEncoderAISR+0x48>
	}else if(getSetRDirection()==0){
   80348:	4b06      	ldr	r3, [pc, #24]	; (80364 <rightEncoderAISR+0x54>)
   8034a:	4798      	blx	r3
   8034c:	2800      	cmp	r0, #0
   8034e:	d1e8      	bne.n	80322 <rightEncoderAISR+0x12>
		printf("ERROR: no direction could be fetched from the right motor but pulse was still triggered. Encoder pulse data will be unreliable.\n");
   80350:	480b      	ldr	r0, [pc, #44]	; (80380 <rightEncoderAISR+0x70>)
   80352:	4b0c      	ldr	r3, [pc, #48]	; (80384 <rightEncoderAISR+0x74>)
   80354:	4798      	blx	r3
   80356:	e7e4      	b.n	80322 <rightEncoderAISR+0x12>
		rAPulses--;
   80358:	4a03      	ldr	r2, [pc, #12]	; (80368 <rightEncoderAISR+0x58>)
   8035a:	6813      	ldr	r3, [r2, #0]
   8035c:	3b01      	subs	r3, #1
   8035e:	6013      	str	r3, [r2, #0]
   80360:	e7df      	b.n	80322 <rightEncoderAISR+0x12>
   80362:	bf00      	nop
   80364:	00080861 	.word	0x00080861
   80368:	2007ad04 	.word	0x2007ad04
   8036c:	2007ad30 	.word	0x2007ad30
   80370:	2007ad20 	.word	0x2007ad20
   80374:	0008187d 	.word	0x0008187d
   80378:	2007ad28 	.word	0x2007ad28
   8037c:	2007ad1c 	.word	0x2007ad1c
   80380:	000859f4 	.word	0x000859f4
   80384:	00082a1d 	.word	0x00082a1d

00080388 <rightEncoderBISR>:
	//printf("RightPulseTime A: %i ms\n",rAPulseTime);
	
}

void rightEncoderBISR(){ //ISR for the right encoder B
   80388:	b538      	push	{r3, r4, r5, lr}
	//Counts pulses on the right wheel encoder
	if(getSetRDirection()>0){
   8038a:	4b14      	ldr	r3, [pc, #80]	; (803dc <rightEncoderBISR+0x54>)
   8038c:	4798      	blx	r3
   8038e:	2800      	cmp	r0, #0
   80390:	dd12      	ble.n	803b8 <rightEncoderBISR+0x30>
		rBPulses++;
   80392:	4a13      	ldr	r2, [pc, #76]	; (803e0 <rightEncoderBISR+0x58>)
   80394:	6813      	ldr	r3, [r2, #0]
   80396:	3301      	adds	r3, #1
   80398:	6013      	str	r3, [r2, #0]
			printf("ERROR: no direction could be fetched from the right motor but pulse was still triggered. Encoder pulse data will be unreliable.\n");
	}
	
	//Compares tick-count since last time it was here to get a measurement of the pulsetime in units of ticks
	//It uses the inbuilt tick counter as reference
	rBPrevTick = rBCurrentTick;
   8039a:	4c12      	ldr	r4, [pc, #72]	; (803e4 <rightEncoderBISR+0x5c>)
   8039c:	4d12      	ldr	r5, [pc, #72]	; (803e8 <rightEncoderBISR+0x60>)
   8039e:	682b      	ldr	r3, [r5, #0]
   803a0:	6023      	str	r3, [r4, #0]
	rBCurrentTick = xTaskGetTickCountFromISR();
   803a2:	4b12      	ldr	r3, [pc, #72]	; (803ec <rightEncoderBISR+0x64>)
   803a4:	4798      	blx	r3
   803a6:	6028      	str	r0, [r5, #0]
	rBPulseTime = rBCurrentTick-rBPrevTick*msPerTick;
   803a8:	6823      	ldr	r3, [r4, #0]
   803aa:	4a11      	ldr	r2, [pc, #68]	; (803f0 <rightEncoderBISR+0x68>)
   803ac:	6812      	ldr	r2, [r2, #0]
   803ae:	fb02 0013 	mls	r0, r2, r3, r0
   803b2:	4b10      	ldr	r3, [pc, #64]	; (803f4 <rightEncoderBISR+0x6c>)
   803b4:	6018      	str	r0, [r3, #0]
   803b6:	bd38      	pop	{r3, r4, r5, pc}
	else if(getSetRDirection()<0){
   803b8:	4b08      	ldr	r3, [pc, #32]	; (803dc <rightEncoderBISR+0x54>)
   803ba:	4798      	blx	r3
   803bc:	2800      	cmp	r0, #0
   803be:	db07      	blt.n	803d0 <rightEncoderBISR+0x48>
		}else if(getSetRDirection()==0){
   803c0:	4b06      	ldr	r3, [pc, #24]	; (803dc <rightEncoderBISR+0x54>)
   803c2:	4798      	blx	r3
   803c4:	2800      	cmp	r0, #0
   803c6:	d1e8      	bne.n	8039a <rightEncoderBISR+0x12>
			printf("ERROR: no direction could be fetched from the right motor but pulse was still triggered. Encoder pulse data will be unreliable.\n");
   803c8:	480b      	ldr	r0, [pc, #44]	; (803f8 <rightEncoderBISR+0x70>)
   803ca:	4b0c      	ldr	r3, [pc, #48]	; (803fc <rightEncoderBISR+0x74>)
   803cc:	4798      	blx	r3
   803ce:	e7e4      	b.n	8039a <rightEncoderBISR+0x12>
		rBPulses--;
   803d0:	4a03      	ldr	r2, [pc, #12]	; (803e0 <rightEncoderBISR+0x58>)
   803d2:	6813      	ldr	r3, [r2, #0]
   803d4:	3b01      	subs	r3, #1
   803d6:	6013      	str	r3, [r2, #0]
   803d8:	e7df      	b.n	8039a <rightEncoderBISR+0x12>
   803da:	bf00      	nop
   803dc:	00080861 	.word	0x00080861
   803e0:	2007ad10 	.word	0x2007ad10
   803e4:	2007ad18 	.word	0x2007ad18
   803e8:	2007ad38 	.word	0x2007ad38
   803ec:	0008187d 	.word	0x0008187d
   803f0:	2007ad28 	.word	0x2007ad28
   803f4:	2007ad0c 	.word	0x2007ad0c
   803f8:	000859f4 	.word	0x000859f4
   803fc:	00082a1d 	.word	0x00082a1d

00080400 <leftEncoderAISR>:
	//printf("RightPulseTime B: %i ms\n",rBPulseTime);
	
}

void leftEncoderAISR(){ //ISR for the left encoder A
   80400:	b538      	push	{r3, r4, r5, lr}
	//Counts pulses on the left wheel encoder
	if(getSetLDirection()>0){
   80402:	4b14      	ldr	r3, [pc, #80]	; (80454 <leftEncoderAISR+0x54>)
   80404:	4798      	blx	r3
   80406:	2800      	cmp	r0, #0
   80408:	dd13      	ble.n	80432 <leftEncoderAISR+0x32>
		lAPulses++;
   8040a:	4a13      	ldr	r2, [pc, #76]	; (80458 <leftEncoderAISR+0x58>)
   8040c:	6813      	ldr	r3, [r2, #0]
   8040e:	3301      	adds	r3, #1
   80410:	6013      	str	r3, [r2, #0]
			printf("ERROR: no direction could be fetched from the left motor but pulse was still triggered. Encoder pulse data will be unreliable.\n");
	}
	
	//Compares tick-count since last time it was here to get a measurement of the pulsetime in units of ticks
	//It uses the inbuilt tick counter as reference
	lAPrevTick = lACurrentTick;
   80412:	4c12      	ldr	r4, [pc, #72]	; (8045c <leftEncoderAISR+0x5c>)
   80414:	4d12      	ldr	r5, [pc, #72]	; (80460 <leftEncoderAISR+0x60>)
   80416:	682b      	ldr	r3, [r5, #0]
   80418:	6023      	str	r3, [r4, #0]
	lACurrentTick = xTaskGetTickCountFromISR();
   8041a:	4b12      	ldr	r3, [pc, #72]	; (80464 <leftEncoderAISR+0x64>)
   8041c:	4798      	blx	r3
   8041e:	6028      	str	r0, [r5, #0]
	lAPulseTime = (lACurrentTick-lAPrevTick)*msPerTick;
   80420:	6823      	ldr	r3, [r4, #0]
   80422:	1ac0      	subs	r0, r0, r3
   80424:	4b10      	ldr	r3, [pc, #64]	; (80468 <leftEncoderAISR+0x68>)
   80426:	681b      	ldr	r3, [r3, #0]
   80428:	fb03 f000 	mul.w	r0, r3, r0
   8042c:	4b0f      	ldr	r3, [pc, #60]	; (8046c <leftEncoderAISR+0x6c>)
   8042e:	6018      	str	r0, [r3, #0]
   80430:	bd38      	pop	{r3, r4, r5, pc}
	else if(getSetLDirection()<0){
   80432:	4b08      	ldr	r3, [pc, #32]	; (80454 <leftEncoderAISR+0x54>)
   80434:	4798      	blx	r3
   80436:	2800      	cmp	r0, #0
   80438:	db07      	blt.n	8044a <leftEncoderAISR+0x4a>
		}else if(getSetLDirection()==0){
   8043a:	4b06      	ldr	r3, [pc, #24]	; (80454 <leftEncoderAISR+0x54>)
   8043c:	4798      	blx	r3
   8043e:	2800      	cmp	r0, #0
   80440:	d1e7      	bne.n	80412 <leftEncoderAISR+0x12>
			printf("ERROR: no direction could be fetched from the left motor but pulse was still triggered. Encoder pulse data will be unreliable.\n");
   80442:	480b      	ldr	r0, [pc, #44]	; (80470 <leftEncoderAISR+0x70>)
   80444:	4b0b      	ldr	r3, [pc, #44]	; (80474 <leftEncoderAISR+0x74>)
   80446:	4798      	blx	r3
   80448:	e7e3      	b.n	80412 <leftEncoderAISR+0x12>
		lAPulses--;
   8044a:	4a03      	ldr	r2, [pc, #12]	; (80458 <leftEncoderAISR+0x58>)
   8044c:	6813      	ldr	r3, [r2, #0]
   8044e:	3b01      	subs	r3, #1
   80450:	6013      	str	r3, [r2, #0]
   80452:	e7de      	b.n	80412 <leftEncoderAISR+0x12>
   80454:	00080855 	.word	0x00080855
   80458:	2007ad24 	.word	0x2007ad24
   8045c:	2007ad14 	.word	0x2007ad14
   80460:	2007ad40 	.word	0x2007ad40
   80464:	0008187d 	.word	0x0008187d
   80468:	2007ad28 	.word	0x2007ad28
   8046c:	2007ad44 	.word	0x2007ad44
   80470:	0008590c 	.word	0x0008590c
   80474:	00082a1d 	.word	0x00082a1d

00080478 <leftEncoderBISR>:
	//printf("LeftPulseTime A: %i ms\n",lAPulseTime);
	
}

void leftEncoderBISR(){ //ISR for the left encoder B
   80478:	b538      	push	{r3, r4, r5, lr}
	//Counts pulses on the left wheel encoder
	if(getSetLDirection()>0){
   8047a:	4b14      	ldr	r3, [pc, #80]	; (804cc <leftEncoderBISR+0x54>)
   8047c:	4798      	blx	r3
   8047e:	2800      	cmp	r0, #0
   80480:	dd13      	ble.n	804aa <leftEncoderBISR+0x32>
		lBPulses++;
   80482:	4a13      	ldr	r2, [pc, #76]	; (804d0 <leftEncoderBISR+0x58>)
   80484:	6813      	ldr	r3, [r2, #0]
   80486:	3301      	adds	r3, #1
   80488:	6013      	str	r3, [r2, #0]
		printf("ERROR: no direction could be fetched from the left motor but pulse was still triggered. Encoder pulse data will be unreliable.\n");
	}
	
	//Compares tick-count since last time it was here to get a measurement of the pulsetime in units of ticks
	//It uses the inbuilt tick counter as reference
	lBPrevTick = lBCurrentTick;
   8048a:	4c12      	ldr	r4, [pc, #72]	; (804d4 <leftEncoderBISR+0x5c>)
   8048c:	4d12      	ldr	r5, [pc, #72]	; (804d8 <leftEncoderBISR+0x60>)
   8048e:	682b      	ldr	r3, [r5, #0]
   80490:	6023      	str	r3, [r4, #0]
	lBCurrentTick = xTaskGetTickCountFromISR();
   80492:	4b12      	ldr	r3, [pc, #72]	; (804dc <leftEncoderBISR+0x64>)
   80494:	4798      	blx	r3
   80496:	6028      	str	r0, [r5, #0]
	lBPulseTime = (lBCurrentTick-lBPrevTick)*msPerTick;
   80498:	6823      	ldr	r3, [r4, #0]
   8049a:	1ac0      	subs	r0, r0, r3
   8049c:	4b10      	ldr	r3, [pc, #64]	; (804e0 <leftEncoderBISR+0x68>)
   8049e:	681b      	ldr	r3, [r3, #0]
   804a0:	fb03 f000 	mul.w	r0, r3, r0
   804a4:	4b0f      	ldr	r3, [pc, #60]	; (804e4 <leftEncoderBISR+0x6c>)
   804a6:	6018      	str	r0, [r3, #0]
   804a8:	bd38      	pop	{r3, r4, r5, pc}
	else if(getSetLDirection()<0){
   804aa:	4b08      	ldr	r3, [pc, #32]	; (804cc <leftEncoderBISR+0x54>)
   804ac:	4798      	blx	r3
   804ae:	2800      	cmp	r0, #0
   804b0:	db07      	blt.n	804c2 <leftEncoderBISR+0x4a>
	}else if(getSetLDirection()==0){
   804b2:	4b06      	ldr	r3, [pc, #24]	; (804cc <leftEncoderBISR+0x54>)
   804b4:	4798      	blx	r3
   804b6:	2800      	cmp	r0, #0
   804b8:	d1e7      	bne.n	8048a <leftEncoderBISR+0x12>
		printf("ERROR: no direction could be fetched from the left motor but pulse was still triggered. Encoder pulse data will be unreliable.\n");
   804ba:	480b      	ldr	r0, [pc, #44]	; (804e8 <leftEncoderBISR+0x70>)
   804bc:	4b0b      	ldr	r3, [pc, #44]	; (804ec <leftEncoderBISR+0x74>)
   804be:	4798      	blx	r3
   804c0:	e7e3      	b.n	8048a <leftEncoderBISR+0x12>
		lBPulses--;
   804c2:	4a03      	ldr	r2, [pc, #12]	; (804d0 <leftEncoderBISR+0x58>)
   804c4:	6813      	ldr	r3, [r2, #0]
   804c6:	3b01      	subs	r3, #1
   804c8:	6013      	str	r3, [r2, #0]
   804ca:	e7de      	b.n	8048a <leftEncoderBISR+0x12>
   804cc:	00080855 	.word	0x00080855
   804d0:	2007ad34 	.word	0x2007ad34
   804d4:	2007ad08 	.word	0x2007ad08
   804d8:	2007ad2c 	.word	0x2007ad2c
   804dc:	0008187d 	.word	0x0008187d
   804e0:	2007ad28 	.word	0x2007ad28
   804e4:	2007ad3c 	.word	0x2007ad3c
   804e8:	0008590c 	.word	0x0008590c
   804ec:	00082a1d 	.word	0x00082a1d

000804f0 <encoder_init>:
void encoder_init(){ //initialise the encoders
   804f0:	e92d 41f0 	stmdb	sp!, {r4, r5, r6, r7, r8, lr}
   804f4:	b082      	sub	sp, #8
	lAPrevTick=0; 
   804f6:	2400      	movs	r4, #0
   804f8:	4b39      	ldr	r3, [pc, #228]	; (805e0 <encoder_init+0xf0>)
   804fa:	601c      	str	r4, [r3, #0]
	rAPrevTick=0;
   804fc:	4b39      	ldr	r3, [pc, #228]	; (805e4 <encoder_init+0xf4>)
   804fe:	601c      	str	r4, [r3, #0]
	lACurrentTick=0;
   80500:	4b39      	ldr	r3, [pc, #228]	; (805e8 <encoder_init+0xf8>)
   80502:	601c      	str	r4, [r3, #0]
	rACurrentTick=0;
   80504:	4b39      	ldr	r3, [pc, #228]	; (805ec <encoder_init+0xfc>)
   80506:	601c      	str	r4, [r3, #0]
	lBPrevTick=0;
   80508:	4b39      	ldr	r3, [pc, #228]	; (805f0 <encoder_init+0x100>)
   8050a:	601c      	str	r4, [r3, #0]
	rBPrevTick=0;
   8050c:	4b39      	ldr	r3, [pc, #228]	; (805f4 <encoder_init+0x104>)
   8050e:	601c      	str	r4, [r3, #0]
	lBCurrentTick=0;
   80510:	4b39      	ldr	r3, [pc, #228]	; (805f8 <encoder_init+0x108>)
   80512:	601c      	str	r4, [r3, #0]
	rBCurrentTick=0;
   80514:	4b39      	ldr	r3, [pc, #228]	; (805fc <encoder_init+0x10c>)
   80516:	601c      	str	r4, [r3, #0]
	lAPulses=0;
   80518:	4b39      	ldr	r3, [pc, #228]	; (80600 <encoder_init+0x110>)
   8051a:	601c      	str	r4, [r3, #0]
	lAPulseTime=0;
   8051c:	4b39      	ldr	r3, [pc, #228]	; (80604 <encoder_init+0x114>)
   8051e:	601c      	str	r4, [r3, #0]
	rAPulses=0;
   80520:	4b39      	ldr	r3, [pc, #228]	; (80608 <encoder_init+0x118>)
   80522:	601c      	str	r4, [r3, #0]
	rAPulseTime=0;
   80524:	4b39      	ldr	r3, [pc, #228]	; (8060c <encoder_init+0x11c>)
   80526:	601c      	str	r4, [r3, #0]
	lBPulses=0;
   80528:	4b39      	ldr	r3, [pc, #228]	; (80610 <encoder_init+0x120>)
   8052a:	601c      	str	r4, [r3, #0]
	lBPulseTime=0;
   8052c:	4b39      	ldr	r3, [pc, #228]	; (80614 <encoder_init+0x124>)
   8052e:	601c      	str	r4, [r3, #0]
	rBPulses=0;
   80530:	4b39      	ldr	r3, [pc, #228]	; (80618 <encoder_init+0x128>)
   80532:	601c      	str	r4, [r3, #0]
	rBPulseTime=0;
   80534:	4b39      	ldr	r3, [pc, #228]	; (8061c <encoder_init+0x12c>)
   80536:	601c      	str	r4, [r3, #0]
	msPerTick=1; // Time for a tick is 1 ms on SAM3X8E CPU
   80538:	2201      	movs	r2, #1
   8053a:	4b39      	ldr	r3, [pc, #228]	; (80620 <encoder_init+0x130>)
   8053c:	601a      	str	r2, [r3, #0]
	pmc_enable_periph_clk(ID_PIOC);
   8053e:	200d      	movs	r0, #13
   80540:	4b38      	ldr	r3, [pc, #224]	; (80624 <encoder_init+0x134>)
   80542:	4798      	blx	r3
pio_set_input(PIOC,pin7i,NULL);
   80544:	4d38      	ldr	r5, [pc, #224]	; (80628 <encoder_init+0x138>)
   80546:	4622      	mov	r2, r4
   80548:	f44f 0100 	mov.w	r1, #8388608	; 0x800000
   8054c:	4628      	mov	r0, r5
   8054e:	f8df 80f8 	ldr.w	r8, [pc, #248]	; 80648 <encoder_init+0x158>
   80552:	47c0      	blx	r8
pio_handler_set(PIOC,ID_PIOC,pin7i,PIO_IT_RISE_EDGE,rightEncoderAISR);
   80554:	4b35      	ldr	r3, [pc, #212]	; (8062c <encoder_init+0x13c>)
   80556:	9300      	str	r3, [sp, #0]
   80558:	2370      	movs	r3, #112	; 0x70
   8055a:	f44f 0200 	mov.w	r2, #8388608	; 0x800000
   8055e:	210d      	movs	r1, #13
   80560:	4628      	mov	r0, r5
   80562:	4f33      	ldr	r7, [pc, #204]	; (80630 <encoder_init+0x140>)
   80564:	47b8      	blx	r7
pio_enable_interrupt(PIOC,pin7i); //digital pin 7
   80566:	f44f 0100 	mov.w	r1, #8388608	; 0x800000
   8056a:	4628      	mov	r0, r5
   8056c:	4e31      	ldr	r6, [pc, #196]	; (80634 <encoder_init+0x144>)
   8056e:	47b0      	blx	r6
pio_set_input(PIOC,pin5i,NULL);
   80570:	4622      	mov	r2, r4
   80572:	f04f 7100 	mov.w	r1, #33554432	; 0x2000000
   80576:	4628      	mov	r0, r5
   80578:	47c0      	blx	r8
pio_handler_set(PIOC, ID_PIOC,pin5i, PIO_IT_RISE_EDGE , leftEncoderAISR);
   8057a:	4b2f      	ldr	r3, [pc, #188]	; (80638 <encoder_init+0x148>)
   8057c:	9300      	str	r3, [sp, #0]
   8057e:	2370      	movs	r3, #112	; 0x70
   80580:	f04f 7200 	mov.w	r2, #33554432	; 0x2000000
   80584:	210d      	movs	r1, #13
   80586:	4628      	mov	r0, r5
   80588:	47b8      	blx	r7
pio_enable_interrupt(PIOC,pin5i); //digital pin 5 
   8058a:	f04f 7100 	mov.w	r1, #33554432	; 0x2000000
   8058e:	4628      	mov	r0, r5
   80590:	47b0      	blx	r6
pio_set_input(PIOC,pin33,NULL);
   80592:	4622      	mov	r2, r4
   80594:	2102      	movs	r1, #2
   80596:	4628      	mov	r0, r5
   80598:	47c0      	blx	r8
pio_handler_set(PIOC, ID_PIOC,pin33, PIO_IT_RISE_EDGE , rightEncoderBISR);
   8059a:	4b28      	ldr	r3, [pc, #160]	; (8063c <encoder_init+0x14c>)
   8059c:	9300      	str	r3, [sp, #0]
   8059e:	2370      	movs	r3, #112	; 0x70
   805a0:	2202      	movs	r2, #2
   805a2:	210d      	movs	r1, #13
   805a4:	4628      	mov	r0, r5
   805a6:	47b8      	blx	r7
pio_enable_interrupt(PIOC,pin33); //digital pin 33 
   805a8:	2102      	movs	r1, #2
   805aa:	4628      	mov	r0, r5
   805ac:	47b0      	blx	r6
pio_set_input(PIOC,pin10i,NULL);
   805ae:	4622      	mov	r2, r4
   805b0:	f04f 5100 	mov.w	r1, #536870912	; 0x20000000
   805b4:	4628      	mov	r0, r5
   805b6:	47c0      	blx	r8
pio_handler_set(PIOC,ID_PIOC,pin10i,PIO_IT_RISE_EDGE,leftEncoderBISR);
   805b8:	4b21      	ldr	r3, [pc, #132]	; (80640 <encoder_init+0x150>)
   805ba:	9300      	str	r3, [sp, #0]
   805bc:	2370      	movs	r3, #112	; 0x70
   805be:	f04f 5200 	mov.w	r2, #536870912	; 0x20000000
   805c2:	210d      	movs	r1, #13
   805c4:	4628      	mov	r0, r5
   805c6:	47b8      	blx	r7
pio_enable_interrupt(PIOC,pin10i); //digital pin 10 
   805c8:	f04f 5100 	mov.w	r1, #536870912	; 0x20000000
   805cc:	4628      	mov	r0, r5
   805ce:	47b0      	blx	r6

    \param [in]      IRQn  External interrupt number. Value cannot be negative.
 */
__STATIC_INLINE void NVIC_EnableIRQ(IRQn_Type IRQn)
{
  NVIC->ISER[((uint32_t)(IRQn) >> 5)] = (1 << ((uint32_t)(IRQn) & 0x1F)); /* enable interrupt */
   805d0:	f44f 5200 	mov.w	r2, #8192	; 0x2000
   805d4:	4b1b      	ldr	r3, [pc, #108]	; (80644 <encoder_init+0x154>)
   805d6:	601a      	str	r2, [r3, #0]
}
   805d8:	b002      	add	sp, #8
   805da:	e8bd 81f0 	ldmia.w	sp!, {r4, r5, r6, r7, r8, pc}
   805de:	bf00      	nop
   805e0:	2007ad14 	.word	0x2007ad14
   805e4:	2007ad30 	.word	0x2007ad30
   805e8:	2007ad40 	.word	0x2007ad40
   805ec:	2007ad20 	.word	0x2007ad20
   805f0:	2007ad08 	.word	0x2007ad08
   805f4:	2007ad18 	.word	0x2007ad18
   805f8:	2007ad2c 	.word	0x2007ad2c
   805fc:	2007ad38 	.word	0x2007ad38
   80600:	2007ad24 	.word	0x2007ad24
   80604:	2007ad44 	.word	0x2007ad44
   80608:	2007ad04 	.word	0x2007ad04
   8060c:	2007ad1c 	.word	0x2007ad1c
   80610:	2007ad34 	.word	0x2007ad34
   80614:	2007ad3c 	.word	0x2007ad3c
   80618:	2007ad10 	.word	0x2007ad10
   8061c:	2007ad0c 	.word	0x2007ad0c
   80620:	2007ad28 	.word	0x2007ad28
   80624:	0008274d 	.word	0x0008274d
   80628:	400e1200 	.word	0x400e1200
   8062c:	00080311 	.word	0x00080311
   80630:	000825a5 	.word	0x000825a5
   80634:	000823dd 	.word	0x000823dd
   80638:	00080401 	.word	0x00080401
   8063c:	00080389 	.word	0x00080389
   80640:	00080479 	.word	0x00080479
   80644:	e000e100 	.word	0xe000e100
   80648:	00082357 	.word	0x00082357

0008064c <resetCounter>:
	//printf("LeftPulseTime B: %i ms\n",lBPulseTime);
	
}

void resetCounter(){ //resets left and right encoders pulse counters
   8064c:	b510      	push	{r4, lr}
   8064e:	b082      	sub	sp, #8
	lAPulses=0;
   80650:	2100      	movs	r1, #0
   80652:	4b08      	ldr	r3, [pc, #32]	; (80674 <resetCounter+0x28>)
   80654:	6019      	str	r1, [r3, #0]
	rAPulses=0;
   80656:	4b08      	ldr	r3, [pc, #32]	; (80678 <resetCounter+0x2c>)
   80658:	6019      	str	r1, [r3, #0]
	rBPulses=0;
   8065a:	4b08      	ldr	r3, [pc, #32]	; (8067c <resetCounter+0x30>)
   8065c:	6019      	str	r1, [r3, #0]
	lBPulses=0;
   8065e:	4b08      	ldr	r3, [pc, #32]	; (80680 <resetCounter+0x34>)
   80660:	6019      	str	r1, [r3, #0]
	printf("Reseting pulse counters:\n LeftPulses A: #%i\n LeftPulses B: #%i\n RightPulses A: #%i\n RightPulses B: #%i\n",lAPulses,lBPulses,rAPulses,rBPulses);
   80662:	9100      	str	r1, [sp, #0]
   80664:	460b      	mov	r3, r1
   80666:	460a      	mov	r2, r1
   80668:	4806      	ldr	r0, [pc, #24]	; (80684 <resetCounter+0x38>)
   8066a:	4c07      	ldr	r4, [pc, #28]	; (80688 <resetCounter+0x3c>)
   8066c:	47a0      	blx	r4
}
   8066e:	b002      	add	sp, #8
   80670:	bd10      	pop	{r4, pc}
   80672:	bf00      	nop
   80674:	2007ad24 	.word	0x2007ad24
   80678:	2007ad04 	.word	0x2007ad04
   8067c:	2007ad10 	.word	0x2007ad10
   80680:	2007ad34 	.word	0x2007ad34
   80684:	0008598c 	.word	0x0008598c
   80688:	00082a1d 	.word	0x00082a1d

0008068c <getLeftPulses>:
/////////////////////PULSE COUNTER//////////////////////////////////////////
int getLeftPulses(){ //returns the sum of pulses from left encoder A and B since last reset
   8068c:	b538      	push	{r3, r4, r5, lr}
	//printf("LeftPulses A: #%i\n",lAPulses);
	return lAPulses;
}
int getLeftBPulses(){ //returns the amount of pulses from left encoder B since last reset
	//printf("LeftPulses B: #%i\n",lBPulses);
	return lBPulses;
   8068e:	4d06      	ldr	r5, [pc, #24]	; (806a8 <getLeftPulses+0x1c>)
	return lAPulses;
   80690:	4c06      	ldr	r4, [pc, #24]	; (806ac <getLeftPulses+0x20>)
	printf("LeftPulses : ##[%i]##\n",(getLeftAPulses()+getLeftBPulses()));
   80692:	6829      	ldr	r1, [r5, #0]
   80694:	6823      	ldr	r3, [r4, #0]
   80696:	4419      	add	r1, r3
   80698:	4805      	ldr	r0, [pc, #20]	; (806b0 <getLeftPulses+0x24>)
   8069a:	4b06      	ldr	r3, [pc, #24]	; (806b4 <getLeftPulses+0x28>)
   8069c:	4798      	blx	r3
	return (getLeftAPulses()+getLeftBPulses());
   8069e:	6828      	ldr	r0, [r5, #0]
   806a0:	6823      	ldr	r3, [r4, #0]
}
   806a2:	4418      	add	r0, r3
   806a4:	bd38      	pop	{r3, r4, r5, pc}
   806a6:	bf00      	nop
   806a8:	2007ad34 	.word	0x2007ad34
   806ac:	2007ad24 	.word	0x2007ad24
   806b0:	000858dc 	.word	0x000858dc
   806b4:	00082a1d 	.word	0x00082a1d

000806b8 <getRightPulses>:
}
int getRightPulses(){ //returns the sum of pulses from right encoder A and B since last reset
   806b8:	b538      	push	{r3, r4, r5, lr}
	//printf("RightPulses A: #%i\n",rAPulses);
	return rAPulses;
}
int getRightBPulses(){ //returns the amount of pulses from right encoder B since last reset
	//printf("RightPulses B: #%i\n",rBPulses);
	return rBPulses;
   806ba:	4d06      	ldr	r5, [pc, #24]	; (806d4 <getRightPulses+0x1c>)
	return rAPulses;
   806bc:	4c06      	ldr	r4, [pc, #24]	; (806d8 <getRightPulses+0x20>)
	printf("RightPulses : ##[%i]##\n",(getRightAPulses()+getRightBPulses()));
   806be:	6829      	ldr	r1, [r5, #0]
   806c0:	6823      	ldr	r3, [r4, #0]
   806c2:	4419      	add	r1, r3
   806c4:	4805      	ldr	r0, [pc, #20]	; (806dc <getRightPulses+0x24>)
   806c6:	4b06      	ldr	r3, [pc, #24]	; (806e0 <getRightPulses+0x28>)
   806c8:	4798      	blx	r3
	return (getRightAPulses()+getRightBPulses());
   806ca:	6828      	ldr	r0, [r5, #0]
   806cc:	6823      	ldr	r3, [r4, #0]
}
   806ce:	4418      	add	r0, r3
   806d0:	bd38      	pop	{r3, r4, r5, pc}
   806d2:	bf00      	nop
   806d4:	2007ad10 	.word	0x2007ad10
   806d8:	2007ad04 	.word	0x2007ad04
   806dc:	000858f4 	.word	0x000858f4
   806e0:	00082a1d 	.word	0x00082a1d

000806e4 <testDriveR>:
	//delay_us(lMotorSpeed);
	//ioport_set_pin_level(PIO_PB27_IDX, LOW);
	//delay_us(5250);
}

void testDriveR(int speed, int direction) {
   806e4:	b570      	push	{r4, r5, r6, lr}
   806e6:	b084      	sub	sp, #16
	speed = Abs(speed);
   806e8:	2800      	cmp	r0, #0
   806ea:	bfb8      	it	lt
   806ec:	4240      	neglt	r0, r0
	int motorSpeed = (1500 + 7 * speed * direction);
   806ee:	ebc0 00c0 	rsb	r0, r0, r0, lsl #3
   806f2:	fb01 f400 	mul.w	r4, r1, r0

	//connect peripheral B to pin C3
	pio_configure_pin(PWM_35, PIO_TYPE_PIO_PERIPH_B);
   806f6:	f04f 5180 	mov.w	r1, #268435456	; 0x10000000
   806fa:	2043      	movs	r0, #67	; 0x43
   806fc:	4b15      	ldr	r3, [pc, #84]	; (80754 <testDriveR+0x70>)
   806fe:	4798      	blx	r3

	//enable the peripheral clock for the PWM hardware
	pmc_enable_periph_clk(ID_PWM);
   80700:	2024      	movs	r0, #36	; 0x24
   80702:	4b15      	ldr	r3, [pc, #84]	; (80758 <testDriveR+0x74>)
   80704:	4798      	blx	r3

	//disable the channel until it is properly configured
	pwm_channel_disable(PWM, PWM_CHANNEL_0);
   80706:	4d15      	ldr	r5, [pc, #84]	; (8075c <testDriveR+0x78>)
   80708:	2100      	movs	r1, #0
   8070a:	4628      	mov	r0, r5
   8070c:	4b14      	ldr	r3, [pc, #80]	; (80760 <testDriveR+0x7c>)
   8070e:	4798      	blx	r3

	//PWM clock configuration
	pwm_clock_t PWMDAC_clock_config =
   80710:	4b14      	ldr	r3, [pc, #80]	; (80764 <testDriveR+0x80>)
   80712:	9301      	str	r3, [sp, #4]
   80714:	2600      	movs	r6, #0
   80716:	9602      	str	r6, [sp, #8]
   80718:	4b13      	ldr	r3, [pc, #76]	; (80768 <testDriveR+0x84>)
   8071a:	9303      	str	r3, [sp, #12]
		.ul_clkb = 0,
		.ul_mck = sysclk_get_cpu_hz()
	};

	//apply the clock configuration
	pwm_init(PWM, &PWMDAC_clock_config);
   8071c:	a901      	add	r1, sp, #4
   8071e:	4628      	mov	r0, r5
   80720:	4b12      	ldr	r3, [pc, #72]	; (8076c <testDriveR+0x88>)
   80722:	4798      	blx	r3

	//sets the wave pulse properties
	pwm_channel_instance.channel = PWM_CHANNEL_0;
   80724:	4912      	ldr	r1, [pc, #72]	; (80770 <testDriveR+0x8c>)
   80726:	600e      	str	r6, [r1, #0]
	pwm_channel_instance.ul_prescaler = PWM_CMR_CPRE_CLKA;
   80728:	230b      	movs	r3, #11
   8072a:	604b      	str	r3, [r1, #4]
	pwm_channel_instance.polarity = PWM_HIGH;
   8072c:	2301      	movs	r3, #1
   8072e:	728b      	strb	r3, [r1, #10]
	pwm_channel_instance.alignment = PWM_ALIGN_LEFT;
   80730:	810e      	strh	r6, [r1, #8]
	pwm_channel_instance.ul_period = 5250 + motorSpeed;
   80732:	f504 53d2 	add.w	r3, r4, #6720	; 0x1a40
   80736:	331e      	adds	r3, #30
   80738:	610b      	str	r3, [r1, #16]
	int motorSpeed = (1500 + 7 * speed * direction);
   8073a:	f204 54dc 	addw	r4, r4, #1500	; 0x5dc
	pwm_channel_instance.ul_duty = motorSpeed;
   8073e:	60cc      	str	r4, [r1, #12]
	//apply the channel configuration
	pwm_channel_init(PWM, &pwm_channel_instance);
   80740:	4628      	mov	r0, r5
   80742:	4b0c      	ldr	r3, [pc, #48]	; (80774 <testDriveR+0x90>)
   80744:	4798      	blx	r3

	//configuration is complete, so enable the channel
	pwm_channel_enable(PWM, PWM_CHANNEL_0);
   80746:	4631      	mov	r1, r6
   80748:	4628      	mov	r0, r5
   8074a:	4b0b      	ldr	r3, [pc, #44]	; (80778 <testDriveR+0x94>)
   8074c:	4798      	blx	r3
}
   8074e:	b004      	add	sp, #16
   80750:	bd70      	pop	{r4, r5, r6, pc}
   80752:	bf00      	nop
   80754:	000823e9 	.word	0x000823e9
   80758:	0008274d 	.word	0x0008274d
   8075c:	40094000 	.word	0x40094000
   80760:	00080307 	.word	0x00080307
   80764:	000f4240 	.word	0x000f4240
   80768:	0501bd00 	.word	0x0501bd00
   8076c:	000801b5 	.word	0x000801b5
   80770:	2007ad48 	.word	0x2007ad48
   80774:	000801f9 	.word	0x000801f9
   80778:	000802fd 	.word	0x000802fd

0008077c <testDriveL>:

void testDriveL(int speed, int direction) {
   8077c:	b5f0      	push	{r4, r5, r6, r7, lr}
   8077e:	b085      	sub	sp, #20
	speed = Abs(speed);
   80780:	2800      	cmp	r0, #0
   80782:	bfb8      	it	lt
   80784:	4240      	neglt	r0, r0
	int motorSpeed = (1500 + 7 * speed * direction);
   80786:	ebc0 00c0 	rsb	r0, r0, r0, lsl #3
   8078a:	fb01 f400 	mul.w	r4, r1, r0

	//connect peripheral B to pin A19
	pio_configure_pin(PWM_42, PIO_TYPE_PIO_PERIPH_B);
   8078e:	f04f 5180 	mov.w	r1, #268435456	; 0x10000000
   80792:	2013      	movs	r0, #19
   80794:	4b15      	ldr	r3, [pc, #84]	; (807ec <testDriveL+0x70>)
   80796:	4798      	blx	r3

	//enable the peripheral clock for the PWM hardware
	pmc_enable_periph_clk(ID_PWM);
   80798:	2024      	movs	r0, #36	; 0x24
   8079a:	4b15      	ldr	r3, [pc, #84]	; (807f0 <testDriveL+0x74>)
   8079c:	4798      	blx	r3

	//disable the channel until it is properly configured
	pwm_channel_disable(PWM, PWM_CHANNEL_1);
   8079e:	4d15      	ldr	r5, [pc, #84]	; (807f4 <testDriveL+0x78>)
   807a0:	2101      	movs	r1, #1
   807a2:	4628      	mov	r0, r5
   807a4:	4b14      	ldr	r3, [pc, #80]	; (807f8 <testDriveL+0x7c>)
   807a6:	4798      	blx	r3

	//PWM clock configuration
	pwm_clock_t PWMDAC_clock_config =
   807a8:	4b14      	ldr	r3, [pc, #80]	; (807fc <testDriveL+0x80>)
   807aa:	9301      	str	r3, [sp, #4]
   807ac:	2700      	movs	r7, #0
   807ae:	9702      	str	r7, [sp, #8]
   807b0:	4b13      	ldr	r3, [pc, #76]	; (80800 <testDriveL+0x84>)
   807b2:	9303      	str	r3, [sp, #12]
		.ul_clkb = 0,
		.ul_mck = sysclk_get_cpu_hz()
	};

	//apply the clock configuration
	pwm_init(PWM, &PWMDAC_clock_config);
   807b4:	a901      	add	r1, sp, #4
   807b6:	4628      	mov	r0, r5
   807b8:	4b12      	ldr	r3, [pc, #72]	; (80804 <testDriveL+0x88>)
   807ba:	4798      	blx	r3

	//sets the wave pulse properties
	pwm_channel_instance.channel = PWM_CHANNEL_1;
   807bc:	4912      	ldr	r1, [pc, #72]	; (80808 <testDriveL+0x8c>)
   807be:	2601      	movs	r6, #1
   807c0:	600e      	str	r6, [r1, #0]
	pwm_channel_instance.ul_prescaler = PWM_CMR_CPRE_CLKA;
   807c2:	230b      	movs	r3, #11
   807c4:	604b      	str	r3, [r1, #4]
	pwm_channel_instance.polarity = PWM_HIGH;
   807c6:	728e      	strb	r6, [r1, #10]
	pwm_channel_instance.alignment = PWM_ALIGN_LEFT;
   807c8:	810f      	strh	r7, [r1, #8]
	pwm_channel_instance.ul_period = 5250 + motorSpeed;
   807ca:	f504 53d2 	add.w	r3, r4, #6720	; 0x1a40
   807ce:	331e      	adds	r3, #30
   807d0:	610b      	str	r3, [r1, #16]
	int motorSpeed = (1500 + 7 * speed * direction);
   807d2:	f204 54dc 	addw	r4, r4, #1500	; 0x5dc
	pwm_channel_instance.ul_duty = motorSpeed;
   807d6:	60cc      	str	r4, [r1, #12]
	//apply the channel configuration
	pwm_channel_init(PWM, &pwm_channel_instance);
   807d8:	4628      	mov	r0, r5
   807da:	4b0c      	ldr	r3, [pc, #48]	; (8080c <testDriveL+0x90>)
   807dc:	4798      	blx	r3

	//configuration is complete, so enable the channel
	pwm_channel_enable(PWM, PWM_CHANNEL_1);
   807de:	4631      	mov	r1, r6
   807e0:	4628      	mov	r0, r5
   807e2:	4b0b      	ldr	r3, [pc, #44]	; (80810 <testDriveL+0x94>)
   807e4:	4798      	blx	r3
}
   807e6:	b005      	add	sp, #20
   807e8:	bdf0      	pop	{r4, r5, r6, r7, pc}
   807ea:	bf00      	nop
   807ec:	000823e9 	.word	0x000823e9
   807f0:	0008274d 	.word	0x0008274d
   807f4:	40094000 	.word	0x40094000
   807f8:	00080307 	.word	0x00080307
   807fc:	000f4240 	.word	0x000f4240
   80800:	0501bd00 	.word	0x0501bd00
   80804:	000801b5 	.word	0x000801b5
   80808:	2007ad48 	.word	0x2007ad48
   8080c:	000801f9 	.word	0x000801f9
   80810:	000802fd 	.word	0x000802fd

00080814 <drive>:
 void drive(int lSpeed, int rSpeed, int lDirection, int rDirection) { //speed 0-100 in %, direction -1,1, where -1 is backwards and 1 is forward.
   80814:	b538      	push	{r3, r4, r5, lr}
   80816:	4604      	mov	r4, r0
   80818:	4608      	mov	r0, r1
   8081a:	4615      	mov	r5, r2
	rSpeedLatest = rSpeed;
   8081c:	4a07      	ldr	r2, [pc, #28]	; (8083c <drive+0x28>)
   8081e:	6011      	str	r1, [r2, #0]
	lSpeedLatest = lSpeed;
   80820:	4a07      	ldr	r2, [pc, #28]	; (80840 <drive+0x2c>)
   80822:	6014      	str	r4, [r2, #0]
	rDirectionLatest = rDirection;
   80824:	4a07      	ldr	r2, [pc, #28]	; (80844 <drive+0x30>)
   80826:	6013      	str	r3, [r2, #0]
	lDirectionLatest = lDirection;
   80828:	4a07      	ldr	r2, [pc, #28]	; (80848 <drive+0x34>)
   8082a:	6015      	str	r5, [r2, #0]
	testDriveR(rSpeed, -1*rDirection); // sets pwm for the right motors 
   8082c:	4259      	negs	r1, r3
   8082e:	4b07      	ldr	r3, [pc, #28]	; (8084c <drive+0x38>)
   80830:	4798      	blx	r3
	testDriveL(lSpeed, -1*lDirection); // sets pwm for the left motors
   80832:	4269      	negs	r1, r5
   80834:	4620      	mov	r0, r4
   80836:	4b06      	ldr	r3, [pc, #24]	; (80850 <drive+0x3c>)
   80838:	4798      	blx	r3
   8083a:	bd38      	pop	{r3, r4, r5, pc}
   8083c:	20070b10 	.word	0x20070b10
   80840:	20070b08 	.word	0x20070b08
   80844:	20070b0c 	.word	0x20070b0c
   80848:	20070b04 	.word	0x20070b04
   8084c:	000806e5 	.word	0x000806e5
   80850:	0008077d 	.word	0x0008077d

00080854 <getSetLDirection>:
}
/*Returns the value of latest direction set for the left motor*/
int getSetLDirection(){
	//printf("Set Direction for Left Motor is: %i\n",lDirectionLatest);
	return lDirectionLatest;
}
   80854:	4b01      	ldr	r3, [pc, #4]	; (8085c <getSetLDirection+0x8>)
   80856:	6818      	ldr	r0, [r3, #0]
   80858:	4770      	bx	lr
   8085a:	bf00      	nop
   8085c:	20070b04 	.word	0x20070b04

00080860 <getSetRDirection>:
/*Returns the value of latest direction set for the right motor*/
int getSetRDirection(){
	//printf("Set Direction for Right Motor is: %i\n",rDirectionLatest);
	return rDirectionLatest;
   80860:	4b01      	ldr	r3, [pc, #4]	; (80868 <getSetRDirection+0x8>)
   80862:	6818      	ldr	r0, [r3, #0]
   80864:	4770      	bx	lr
   80866:	bf00      	nop
   80868:	20070b0c 	.word	0x20070b0c

0008086c <_read>:
int __attribute__((weak))
_read (int file, char * ptr, int len); // Remove GCC compiler warning

int __attribute__((weak))
_read (int file, char * ptr, int len)
{
   8086c:	e92d 41f0 	stmdb	sp!, {r4, r5, r6, r7, r8, lr}
	int nChars = 0;

	if (file != 0) {
   80870:	b980      	cbnz	r0, 80894 <_read+0x28>
   80872:	460c      	mov	r4, r1
   80874:	4690      	mov	r8, r2
		return -1;
	}

	for (; len > 0; --len) {
   80876:	2a00      	cmp	r2, #0
   80878:	dd0f      	ble.n	8089a <_read+0x2e>
   8087a:	188f      	adds	r7, r1, r2
		ptr_get(stdio_base, ptr);
   8087c:	4e08      	ldr	r6, [pc, #32]	; (808a0 <_read+0x34>)
   8087e:	4d09      	ldr	r5, [pc, #36]	; (808a4 <_read+0x38>)
   80880:	6830      	ldr	r0, [r6, #0]
   80882:	4621      	mov	r1, r4
   80884:	682b      	ldr	r3, [r5, #0]
   80886:	4798      	blx	r3
		ptr++;
   80888:	3401      	adds	r4, #1
	for (; len > 0; --len) {
   8088a:	42bc      	cmp	r4, r7
   8088c:	d1f8      	bne.n	80880 <_read+0x14>
		nChars++;
	}
	return nChars;
}
   8088e:	4640      	mov	r0, r8
   80890:	e8bd 81f0 	ldmia.w	sp!, {r4, r5, r6, r7, r8, pc}
		return -1;
   80894:	f04f 38ff 	mov.w	r8, #4294967295
   80898:	e7f9      	b.n	8088e <_read+0x22>
	for (; len > 0; --len) {
   8089a:	4680      	mov	r8, r0
   8089c:	e7f7      	b.n	8088e <_read+0x22>
   8089e:	bf00      	nop
   808a0:	2007ad78 	.word	0x2007ad78
   808a4:	2007ad70 	.word	0x2007ad70

000808a8 <_write>:
int __attribute__((weak))
_write (int file, const char *ptr, int len)
{
	int nChars = 0;

	if ((file != 1) && (file != 2) && (file!=3)) {
   808a8:	3801      	subs	r0, #1
   808aa:	2802      	cmp	r0, #2
   808ac:	d815      	bhi.n	808da <_write+0x32>
{
   808ae:	e92d 41f0 	stmdb	sp!, {r4, r5, r6, r7, r8, lr}
   808b2:	460e      	mov	r6, r1
   808b4:	4614      	mov	r4, r2
		return -1;
	}

	for (; len != 0; --len) {
   808b6:	b19a      	cbz	r2, 808e0 <_write+0x38>
   808b8:	460d      	mov	r5, r1
		if (ptr_put(stdio_base, *ptr++) < 0) {
   808ba:	f8df 8038 	ldr.w	r8, [pc, #56]	; 808f4 <_write+0x4c>
   808be:	4f0c      	ldr	r7, [pc, #48]	; (808f0 <_write+0x48>)
   808c0:	f8d8 0000 	ldr.w	r0, [r8]
   808c4:	f815 1b01 	ldrb.w	r1, [r5], #1
   808c8:	683b      	ldr	r3, [r7, #0]
   808ca:	4798      	blx	r3
   808cc:	2800      	cmp	r0, #0
   808ce:	db0a      	blt.n	808e6 <_write+0x3e>
   808d0:	1ba8      	subs	r0, r5, r6
	for (; len != 0; --len) {
   808d2:	3c01      	subs	r4, #1
   808d4:	d1f4      	bne.n	808c0 <_write+0x18>
   808d6:	e8bd 81f0 	ldmia.w	sp!, {r4, r5, r6, r7, r8, pc}
		return -1;
   808da:	f04f 30ff 	mov.w	r0, #4294967295
   808de:	4770      	bx	lr
	for (; len != 0; --len) {
   808e0:	4610      	mov	r0, r2
   808e2:	e8bd 81f0 	ldmia.w	sp!, {r4, r5, r6, r7, r8, pc}
			return -1;
   808e6:	f04f 30ff 	mov.w	r0, #4294967295
		}
		++nChars;
	}
	return nChars;
}
   808ea:	e8bd 81f0 	ldmia.w	sp!, {r4, r5, r6, r7, r8, pc}
   808ee:	bf00      	nop
   808f0:	2007ad74 	.word	0x2007ad74
   808f4:	2007ad78 	.word	0x2007ad78

000808f8 <uart_init>:
 *
 * \retval 0 Success.
 * \retval 1 Bad baud rate generator value.
 */
uint32_t uart_init(Uart *p_uart, const sam_uart_opt_t *p_uart_opt)
{
   808f8:	b410      	push	{r4}
	uint32_t cd = 0;

	/* Reset and disable receiver & transmitter */
	p_uart->UART_CR = UART_CR_RSTRX | UART_CR_RSTTX
   808fa:	23ac      	movs	r3, #172	; 0xac
   808fc:	6003      	str	r3, [r0, #0]
			| UART_CR_RXDIS | UART_CR_TXDIS;

	/* Check and configure baudrate */
	/* Asynchronous, no oversampling */
	cd = (p_uart_opt->ul_mck / p_uart_opt->ul_baudrate) / UART_MCK_DIV;
   808fe:	680b      	ldr	r3, [r1, #0]
   80900:	684a      	ldr	r2, [r1, #4]
   80902:	fbb3 f3f2 	udiv	r3, r3, r2
   80906:	091b      	lsrs	r3, r3, #4
	if (cd < UART_MCK_DIV_MIN_FACTOR || cd > UART_MCK_DIV_MAX_FACTOR)
   80908:	1e5c      	subs	r4, r3, #1
   8090a:	f64f 72fe 	movw	r2, #65534	; 0xfffe
   8090e:	4294      	cmp	r4, r2
   80910:	d80b      	bhi.n	8092a <uart_init+0x32>
		return 1;

	p_uart->UART_BRGR = cd;
   80912:	6203      	str	r3, [r0, #32]
	/* Configure mode */
	p_uart->UART_MR = p_uart_opt->ul_mode;
   80914:	688b      	ldr	r3, [r1, #8]
   80916:	6043      	str	r3, [r0, #4]

#if (!SAMV71 && !SAMV70 && !SAME70 && !SAMS70)
	/* Disable PDC channel */
	p_uart->UART_PTCR = UART_PTCR_RXTDIS | UART_PTCR_TXTDIS;
   80918:	f240 2302 	movw	r3, #514	; 0x202
   8091c:	f8c0 3120 	str.w	r3, [r0, #288]	; 0x120
#endif

	/* Enable receiver and transmitter */
	p_uart->UART_CR = UART_CR_RXEN | UART_CR_TXEN;
   80920:	2350      	movs	r3, #80	; 0x50
   80922:	6003      	str	r3, [r0, #0]

	return 0;
   80924:	2000      	movs	r0, #0
}
   80926:	bc10      	pop	{r4}
   80928:	4770      	bx	lr
		return 1;
   8092a:	2001      	movs	r0, #1
   8092c:	e7fb      	b.n	80926 <uart_init+0x2e>

0008092e <uart_write>:
 * \retval 1 I/O Failure, UART is not ready.
 */
uint32_t uart_write(Uart *p_uart, const uint8_t uc_data)
{
	/* Check if the transmitter is ready */
	if (!(p_uart->UART_SR & UART_SR_TXRDY))
   8092e:	6943      	ldr	r3, [r0, #20]
   80930:	f013 0f02 	tst.w	r3, #2
		return 1;

	/* Send character */
	p_uart->UART_THR = uc_data;
   80934:	bf1a      	itte	ne
   80936:	61c1      	strne	r1, [r0, #28]
	return 0;
   80938:	2000      	movne	r0, #0
		return 1;
   8093a:	2001      	moveq	r0, #1
}
   8093c:	4770      	bx	lr

0008093e <uart_read>:
 * \retval 1 I/O Failure, UART is not ready.
 */
uint32_t uart_read(Uart *p_uart, uint8_t *puc_data)
{
	/* Check if the receiver is ready */
	if ((p_uart->UART_SR & UART_SR_RXRDY) == 0)
   8093e:	6943      	ldr	r3, [r0, #20]
   80940:	f013 0f01 	tst.w	r3, #1
		return 1;

	/* Read character */
	*puc_data = (uint8_t) p_uart->UART_RHR;
   80944:	bf1d      	ittte	ne
   80946:	6983      	ldrne	r3, [r0, #24]
   80948:	700b      	strbne	r3, [r1, #0]
	return 0;
   8094a:	2000      	movne	r0, #0
		return 1;
   8094c:	2001      	moveq	r0, #1
}
   8094e:	4770      	bx	lr

00080950 <usart_write>:
 * \retval 0 on success.
 * \retval 1 on failure.
 */
uint32_t usart_write(Usart *p_usart, uint32_t c)
{
	if (!(p_usart->US_CSR & US_CSR_TXRDY)) {
   80950:	6943      	ldr	r3, [r0, #20]
   80952:	f013 0f02 	tst.w	r3, #2
		return 1;
	}

	p_usart->US_THR = US_THR_TXCHR(c);
   80956:	bf1d      	ittte	ne
   80958:	f3c1 0108 	ubfxne	r1, r1, #0, #9
   8095c:	61c1      	strne	r1, [r0, #28]
	return 0;
   8095e:	2000      	movne	r0, #0
		return 1;
   80960:	2001      	moveq	r0, #1
}
   80962:	4770      	bx	lr

00080964 <usart_read>:
 * \retval 0 on success.
 * \retval 1 if no data is available or errors.
 */
uint32_t usart_read(Usart *p_usart, uint32_t *c)
{
	if (!(p_usart->US_CSR & US_CSR_RXRDY)) {
   80964:	6943      	ldr	r3, [r0, #20]
   80966:	f013 0f01 	tst.w	r3, #1
   8096a:	d005      	beq.n	80978 <usart_read+0x14>
		return 1;
	}

	/* Read character */
	*c = p_usart->US_RHR & US_RHR_RXCHR_Msk;
   8096c:	6983      	ldr	r3, [r0, #24]
   8096e:	f3c3 0308 	ubfx	r3, r3, #0, #9
   80972:	600b      	str	r3, [r1, #0]

	return 0;
   80974:	2000      	movs	r0, #0
   80976:	4770      	bx	lr
		return 1;
   80978:	2001      	movs	r0, #1
}
   8097a:	4770      	bx	lr

0008097c <usart_serial_getchar>:
 * \param p_usart   Base address of the USART instance.
 * \param data   Data to read
 *
 */
static inline void usart_serial_getchar(usart_if p_usart, uint8_t *data)
{
   8097c:	b5f0      	push	{r4, r5, r6, r7, lr}
   8097e:	b083      	sub	sp, #12
   80980:	4604      	mov	r4, r0
   80982:	460d      	mov	r5, r1
	uint32_t val = 0;
   80984:	2300      	movs	r3, #0
   80986:	9301      	str	r3, [sp, #4]

	/* Avoid Cppcheck Warning */
	UNUSED(val);

#ifdef UART
	if (UART == (Uart*)p_usart) {
   80988:	4b20      	ldr	r3, [pc, #128]	; (80a0c <usart_serial_getchar+0x90>)
   8098a:	4298      	cmp	r0, r3
   8098c:	d00d      	beq.n	809aa <usart_serial_getchar+0x2e>
		while (usart_read(p_usart, &val));
		*data = (uint8_t)(val & 0xFF);
	}
#else
# ifdef USART0
	if (USART0 == p_usart) {
   8098e:	4b20      	ldr	r3, [pc, #128]	; (80a10 <usart_serial_getchar+0x94>)
   80990:	4298      	cmp	r0, r3
   80992:	d012      	beq.n	809ba <usart_serial_getchar+0x3e>
		while (usart_read(p_usart, &val));
		*data = (uint8_t)(val & 0xFF);
	}
# endif
# ifdef USART1
	if (USART1 == p_usart) {
   80994:	4b1f      	ldr	r3, [pc, #124]	; (80a14 <usart_serial_getchar+0x98>)
   80996:	4298      	cmp	r0, r3
   80998:	d019      	beq.n	809ce <usart_serial_getchar+0x52>
		while (usart_read(p_usart, &val));
		*data = (uint8_t)(val & 0xFF);
	}
# endif
# ifdef USART2
	if (USART2 == p_usart) {
   8099a:	4b1f      	ldr	r3, [pc, #124]	; (80a18 <usart_serial_getchar+0x9c>)
   8099c:	429c      	cmp	r4, r3
   8099e:	d020      	beq.n	809e2 <usart_serial_getchar+0x66>
		while (usart_read(p_usart, &val));
		*data = (uint8_t)(val & 0xFF);
	}
# endif
# ifdef USART3
	if (USART3 == p_usart) {
   809a0:	4b1e      	ldr	r3, [pc, #120]	; (80a1c <usart_serial_getchar+0xa0>)
   809a2:	429c      	cmp	r4, r3
   809a4:	d027      	beq.n	809f6 <usart_serial_getchar+0x7a>
		*data = (uint8_t)(val & 0xFF);
	}
# endif
#endif /* ifdef USART */

}
   809a6:	b003      	add	sp, #12
   809a8:	bdf0      	pop	{r4, r5, r6, r7, pc}
		while (uart_read((Uart*)p_usart, data));
   809aa:	461f      	mov	r7, r3
   809ac:	4e1c      	ldr	r6, [pc, #112]	; (80a20 <usart_serial_getchar+0xa4>)
   809ae:	4629      	mov	r1, r5
   809b0:	4638      	mov	r0, r7
   809b2:	47b0      	blx	r6
   809b4:	2800      	cmp	r0, #0
   809b6:	d1fa      	bne.n	809ae <usart_serial_getchar+0x32>
   809b8:	e7ef      	b.n	8099a <usart_serial_getchar+0x1e>
		while (usart_read(p_usart, &val));
   809ba:	461f      	mov	r7, r3
   809bc:	4e19      	ldr	r6, [pc, #100]	; (80a24 <usart_serial_getchar+0xa8>)
   809be:	a901      	add	r1, sp, #4
   809c0:	4638      	mov	r0, r7
   809c2:	47b0      	blx	r6
   809c4:	2800      	cmp	r0, #0
   809c6:	d1fa      	bne.n	809be <usart_serial_getchar+0x42>
		*data = (uint8_t)(val & 0xFF);
   809c8:	9b01      	ldr	r3, [sp, #4]
   809ca:	702b      	strb	r3, [r5, #0]
   809cc:	e7e8      	b.n	809a0 <usart_serial_getchar+0x24>
		while (usart_read(p_usart, &val));
   809ce:	461e      	mov	r6, r3
   809d0:	4c14      	ldr	r4, [pc, #80]	; (80a24 <usart_serial_getchar+0xa8>)
   809d2:	a901      	add	r1, sp, #4
   809d4:	4630      	mov	r0, r6
   809d6:	47a0      	blx	r4
   809d8:	2800      	cmp	r0, #0
   809da:	d1fa      	bne.n	809d2 <usart_serial_getchar+0x56>
		*data = (uint8_t)(val & 0xFF);
   809dc:	9b01      	ldr	r3, [sp, #4]
   809de:	702b      	strb	r3, [r5, #0]
   809e0:	e7e1      	b.n	809a6 <usart_serial_getchar+0x2a>
		while (usart_read(p_usart, &val));
   809e2:	461e      	mov	r6, r3
   809e4:	4c0f      	ldr	r4, [pc, #60]	; (80a24 <usart_serial_getchar+0xa8>)
   809e6:	a901      	add	r1, sp, #4
   809e8:	4630      	mov	r0, r6
   809ea:	47a0      	blx	r4
   809ec:	2800      	cmp	r0, #0
   809ee:	d1fa      	bne.n	809e6 <usart_serial_getchar+0x6a>
		*data = (uint8_t)(val & 0xFF);
   809f0:	9b01      	ldr	r3, [sp, #4]
   809f2:	702b      	strb	r3, [r5, #0]
   809f4:	e7d7      	b.n	809a6 <usart_serial_getchar+0x2a>
		while (usart_read(p_usart, &val));
   809f6:	461e      	mov	r6, r3
   809f8:	4c0a      	ldr	r4, [pc, #40]	; (80a24 <usart_serial_getchar+0xa8>)
   809fa:	a901      	add	r1, sp, #4
   809fc:	4630      	mov	r0, r6
   809fe:	47a0      	blx	r4
   80a00:	2800      	cmp	r0, #0
   80a02:	d1fa      	bne.n	809fa <usart_serial_getchar+0x7e>
		*data = (uint8_t)(val & 0xFF);
   80a04:	9b01      	ldr	r3, [sp, #4]
   80a06:	702b      	strb	r3, [r5, #0]
}
   80a08:	e7cd      	b.n	809a6 <usart_serial_getchar+0x2a>
   80a0a:	bf00      	nop
   80a0c:	400e0800 	.word	0x400e0800
   80a10:	40098000 	.word	0x40098000
   80a14:	4009c000 	.word	0x4009c000
   80a18:	400a0000 	.word	0x400a0000
   80a1c:	400a4000 	.word	0x400a4000
   80a20:	0008093f 	.word	0x0008093f
   80a24:	00080965 	.word	0x00080965

00080a28 <usart_serial_putchar>:
{
   80a28:	b570      	push	{r4, r5, r6, lr}
   80a2a:	460c      	mov	r4, r1
	if (UART == (Uart*)p_usart) {
   80a2c:	4b1e      	ldr	r3, [pc, #120]	; (80aa8 <usart_serial_putchar+0x80>)
   80a2e:	4298      	cmp	r0, r3
   80a30:	d00d      	beq.n	80a4e <usart_serial_putchar+0x26>
	if (USART0 == p_usart) {
   80a32:	4b1e      	ldr	r3, [pc, #120]	; (80aac <usart_serial_putchar+0x84>)
   80a34:	4298      	cmp	r0, r3
   80a36:	d013      	beq.n	80a60 <usart_serial_putchar+0x38>
	if (USART1 == p_usart) {
   80a38:	4b1d      	ldr	r3, [pc, #116]	; (80ab0 <usart_serial_putchar+0x88>)
   80a3a:	4298      	cmp	r0, r3
   80a3c:	d019      	beq.n	80a72 <usart_serial_putchar+0x4a>
	if (USART2 == p_usart) {
   80a3e:	4b1d      	ldr	r3, [pc, #116]	; (80ab4 <usart_serial_putchar+0x8c>)
   80a40:	4298      	cmp	r0, r3
   80a42:	d01f      	beq.n	80a84 <usart_serial_putchar+0x5c>
	if (USART3 == p_usart) {
   80a44:	4b1c      	ldr	r3, [pc, #112]	; (80ab8 <usart_serial_putchar+0x90>)
   80a46:	4298      	cmp	r0, r3
   80a48:	d025      	beq.n	80a96 <usart_serial_putchar+0x6e>
	return 0;
   80a4a:	2000      	movs	r0, #0
}
   80a4c:	bd70      	pop	{r4, r5, r6, pc}
		while (uart_write((Uart*)p_usart, c)!=0);
   80a4e:	461e      	mov	r6, r3
   80a50:	4d1a      	ldr	r5, [pc, #104]	; (80abc <usart_serial_putchar+0x94>)
   80a52:	4621      	mov	r1, r4
   80a54:	4630      	mov	r0, r6
   80a56:	47a8      	blx	r5
   80a58:	2800      	cmp	r0, #0
   80a5a:	d1fa      	bne.n	80a52 <usart_serial_putchar+0x2a>
		return 1;
   80a5c:	2001      	movs	r0, #1
   80a5e:	bd70      	pop	{r4, r5, r6, pc}
		while (usart_write(p_usart, c)!=0);
   80a60:	461e      	mov	r6, r3
   80a62:	4d17      	ldr	r5, [pc, #92]	; (80ac0 <usart_serial_putchar+0x98>)
   80a64:	4621      	mov	r1, r4
   80a66:	4630      	mov	r0, r6
   80a68:	47a8      	blx	r5
   80a6a:	2800      	cmp	r0, #0
   80a6c:	d1fa      	bne.n	80a64 <usart_serial_putchar+0x3c>
		return 1;
   80a6e:	2001      	movs	r0, #1
   80a70:	bd70      	pop	{r4, r5, r6, pc}
		while (usart_write(p_usart, c)!=0);
   80a72:	461e      	mov	r6, r3
   80a74:	4d12      	ldr	r5, [pc, #72]	; (80ac0 <usart_serial_putchar+0x98>)
   80a76:	4621      	mov	r1, r4
   80a78:	4630      	mov	r0, r6
   80a7a:	47a8      	blx	r5
   80a7c:	2800      	cmp	r0, #0
   80a7e:	d1fa      	bne.n	80a76 <usart_serial_putchar+0x4e>
		return 1;
   80a80:	2001      	movs	r0, #1
   80a82:	bd70      	pop	{r4, r5, r6, pc}
		while (usart_write(p_usart, c)!=0);
   80a84:	461e      	mov	r6, r3
   80a86:	4d0e      	ldr	r5, [pc, #56]	; (80ac0 <usart_serial_putchar+0x98>)
   80a88:	4621      	mov	r1, r4
   80a8a:	4630      	mov	r0, r6
   80a8c:	47a8      	blx	r5
   80a8e:	2800      	cmp	r0, #0
   80a90:	d1fa      	bne.n	80a88 <usart_serial_putchar+0x60>
		return 1;
   80a92:	2001      	movs	r0, #1
   80a94:	bd70      	pop	{r4, r5, r6, pc}
		while (usart_write(p_usart, c)!=0);
   80a96:	461e      	mov	r6, r3
   80a98:	4d09      	ldr	r5, [pc, #36]	; (80ac0 <usart_serial_putchar+0x98>)
   80a9a:	4621      	mov	r1, r4
   80a9c:	4630      	mov	r0, r6
   80a9e:	47a8      	blx	r5
   80aa0:	2800      	cmp	r0, #0
   80aa2:	d1fa      	bne.n	80a9a <usart_serial_putchar+0x72>
		return 1;
   80aa4:	2001      	movs	r0, #1
   80aa6:	bd70      	pop	{r4, r5, r6, pc}
   80aa8:	400e0800 	.word	0x400e0800
   80aac:	40098000 	.word	0x40098000
   80ab0:	4009c000 	.word	0x4009c000
   80ab4:	400a0000 	.word	0x400a0000
   80ab8:	400a4000 	.word	0x400a4000
   80abc:	0008092f 	.word	0x0008092f
   80ac0:	00080951 	.word	0x00080951

00080ac4 <misc_init>:
* Function: misc_init
* -------------------
* initializes system clock & board.
*/
int misc_init (void)
{
   80ac4:	b510      	push	{r4, lr}
	sysclk_init();
   80ac6:	4b17      	ldr	r3, [pc, #92]	; (80b24 <misc_init+0x60>)
   80ac8:	4798      	blx	r3
	board_init();
   80aca:	4b17      	ldr	r3, [pc, #92]	; (80b28 <misc_init+0x64>)
   80acc:	4798      	blx	r3
 *
 * \param ul_id Id (number) of the peripheral clock.
 */
static inline void sysclk_enable_peripheral_clock(uint32_t ul_id)
{
	pmc_enable_periph_clk(ul_id);
   80ace:	200b      	movs	r0, #11
   80ad0:	4c16      	ldr	r4, [pc, #88]	; (80b2c <misc_init+0x68>)
   80ad2:	47a0      	blx	r4
   80ad4:	200c      	movs	r0, #12
   80ad6:	47a0      	blx	r4
   80ad8:	200d      	movs	r0, #13
   80ada:	47a0      	blx	r4
   80adc:	200e      	movs	r0, #14
   80ade:	47a0      	blx	r4
		enum ioport_direction dir)
{
	Pio *base = arch_ioport_pin_to_base(pin);

	if (dir == IOPORT_DIR_OUTPUT) {
		base->PIO_OER = arch_ioport_pin_to_mask(pin);
   80ae0:	4b13      	ldr	r3, [pc, #76]	; (80b30 <misc_init+0x6c>)
   80ae2:	f04f 7200 	mov.w	r2, #33554432	; 0x2000000
   80ae6:	611a      	str	r2, [r3, #16]
	} else if (dir == IOPORT_DIR_INPUT) {
		base->PIO_ODR = arch_ioport_pin_to_mask(pin);
	}

	base->PIO_OWER = arch_ioport_pin_to_mask(pin);
   80ae8:	f8c3 20a0 	str.w	r2, [r3, #160]	; 0xa0
		base->PIO_ODR = arch_ioport_pin_to_mask(pin);
   80aec:	f503 7300 	add.w	r3, r3, #512	; 0x200
   80af0:	615a      	str	r2, [r3, #20]
	base->PIO_OWER = arch_ioport_pin_to_mask(pin);
   80af2:	f8c3 20a0 	str.w	r2, [r3, #160]	; 0xa0
		base->PIO_ODR = arch_ioport_pin_to_mask(pin);
   80af6:	f44f 0200 	mov.w	r2, #8388608	; 0x800000
   80afa:	615a      	str	r2, [r3, #20]
	base->PIO_OWER = arch_ioport_pin_to_mask(pin);
   80afc:	f8c3 20a0 	str.w	r2, [r3, #160]	; 0xa0
		base->PIO_ODR = arch_ioport_pin_to_mask(pin);
   80b00:	f44f 0280 	mov.w	r2, #4194304	; 0x400000
   80b04:	615a      	str	r2, [r3, #20]
	base->PIO_OWER = arch_ioport_pin_to_mask(pin);
   80b06:	f8c3 20a0 	str.w	r2, [r3, #160]	; 0xa0
		base->PIO_ODR = arch_ioport_pin_to_mask(pin);
   80b0a:	f5a3 6380 	sub.w	r3, r3, #1024	; 0x400
   80b0e:	f04f 5280 	mov.w	r2, #268435456	; 0x10000000
   80b12:	615a      	str	r2, [r3, #20]
	base->PIO_OWER = arch_ioport_pin_to_mask(pin);
   80b14:	f8c3 20a0 	str.w	r2, [r3, #160]	; 0xa0
		base->PIO_ODR = arch_ioport_pin_to_mask(pin);
   80b18:	2204      	movs	r2, #4
   80b1a:	615a      	str	r2, [r3, #20]
	base->PIO_OWER = arch_ioport_pin_to_mask(pin);
   80b1c:	f8c3 20a0 	str.w	r2, [r3, #160]	; 0xa0
	//ioport_set_pin_level(pin13, LOW); 
	//ioport_set_pin_level(pin12, LOW);
	/* ------------------------------------------------------------------------- */
	
	return 0;
}
   80b20:	2000      	movs	r0, #0
   80b22:	bd10      	pop	{r4, pc}
   80b24:	00082235 	.word	0x00082235
   80b28:	00082299 	.word	0x00082299
   80b2c:	0008274d 	.word	0x0008274d
   80b30:	400e1000 	.word	0x400e1000

00080b34 <rtos_init>:
* Function: rtos_init
* -------------------
* initializes FreeRTOS by creating a number of tasks and starting the scheduler.
*/
int rtos_init (void)
{
   80b34:	b530      	push	{r4, r5, lr}
   80b36:	b085      	sub	sp, #20
	/* -------------------------------- Used for testing purposes ------------------------------------- */
	xTaskCreate(task1, (const signed char * const) "task1", TASK_1_STACK_SIZE, NULL, TASK_1_PRIORITY, NULL);
   80b38:	2400      	movs	r4, #0
   80b3a:	9403      	str	r4, [sp, #12]
   80b3c:	9402      	str	r4, [sp, #8]
   80b3e:	9401      	str	r4, [sp, #4]
   80b40:	2301      	movs	r3, #1
   80b42:	9300      	str	r3, [sp, #0]
   80b44:	4623      	mov	r3, r4
   80b46:	f44f 7200 	mov.w	r2, #512	; 0x200
   80b4a:	4904      	ldr	r1, [pc, #16]	; (80b5c <rtos_init+0x28>)
   80b4c:	4804      	ldr	r0, [pc, #16]	; (80b60 <rtos_init+0x2c>)
   80b4e:	4d05      	ldr	r5, [pc, #20]	; (80b64 <rtos_init+0x30>)
   80b50:	47a8      	blx	r5
	//xTaskCreate(task2, (const signed char * const) "task2", TASK_2_STACK_SIZE, NULL, TASK_2_PRIORITY, NULL);
	/* ------------------------------------------------------------------------------------------------ */
	
	vTaskStartScheduler();
   80b52:	4b05      	ldr	r3, [pc, #20]	; (80b68 <rtos_init+0x34>)
   80b54:	4798      	blx	r3
	return 0;
}
   80b56:	4620      	mov	r0, r4
   80b58:	b005      	add	sp, #20
   80b5a:	bd30      	pop	{r4, r5, pc}
   80b5c:	00085a98 	.word	0x00085a98
   80b60:	00080c01 	.word	0x00080c01
   80b64:	000815e1 	.word	0x000815e1
   80b68:	000817e5 	.word	0x000817e5

00080b6c <console_init>:
* -------------------
* Enables feedback through the USB-cable back to terminal within Atmel Studio.
* Note that the baudrate, parity and other parameters must be set in conf/conf_uart_serial.h
*/
int console_init(void)
{
   80b6c:	b530      	push	{r4, r5, lr}
   80b6e:	b085      	sub	sp, #20
   80b70:	2008      	movs	r0, #8
   80b72:	4d15      	ldr	r5, [pc, #84]	; (80bc8 <console_init+0x5c>)
   80b74:	47a8      	blx	r5
 * \param opt         Options needed to set up RS232 communication (see \ref usart_options_t).
 *
 */
static inline void stdio_serial_init(volatile void *usart, const usart_serial_options_t *opt)
{
	stdio_base = (void *)usart;
   80b76:	4c15      	ldr	r4, [pc, #84]	; (80bcc <console_init+0x60>)
   80b78:	4b15      	ldr	r3, [pc, #84]	; (80bd0 <console_init+0x64>)
   80b7a:	601c      	str	r4, [r3, #0]
	ptr_put = (int (*)(void volatile*,char))&usart_serial_putchar;
   80b7c:	4a15      	ldr	r2, [pc, #84]	; (80bd4 <console_init+0x68>)
   80b7e:	4b16      	ldr	r3, [pc, #88]	; (80bd8 <console_init+0x6c>)
   80b80:	601a      	str	r2, [r3, #0]
	ptr_get = (void (*)(void volatile*,char*))&usart_serial_getchar;
   80b82:	4a16      	ldr	r2, [pc, #88]	; (80bdc <console_init+0x70>)
   80b84:	4b16      	ldr	r3, [pc, #88]	; (80be0 <console_init+0x74>)
   80b86:	601a      	str	r2, [r3, #0]
	uart_settings.ul_mck = sysclk_get_peripheral_hz();
   80b88:	4b16      	ldr	r3, [pc, #88]	; (80be4 <console_init+0x78>)
   80b8a:	9301      	str	r3, [sp, #4]
	uart_settings.ul_baudrate = opt->baudrate;
   80b8c:	f44f 33e1 	mov.w	r3, #115200	; 0x1c200
   80b90:	9302      	str	r3, [sp, #8]
	uart_settings.ul_mode = opt->paritytype;
   80b92:	f44f 6300 	mov.w	r3, #2048	; 0x800
   80b96:	9303      	str	r3, [sp, #12]
   80b98:	2008      	movs	r0, #8
   80b9a:	47a8      	blx	r5
		uart_init((Uart*)p_usart, &uart_settings);
   80b9c:	a901      	add	r1, sp, #4
   80b9e:	4620      	mov	r0, r4
   80ba0:	4b11      	ldr	r3, [pc, #68]	; (80be8 <console_init+0x7c>)
   80ba2:	4798      	blx	r3
	fdevopen((int (*)(char, FILE*))(_write),(int (*)(FILE*))(_read));
#  endif
#  if UC3 || SAM
	// For AVR32 and SAM GCC
	// Specify that stdout and stdin should not be buffered.
	setbuf(stdout, NULL);
   80ba4:	4d11      	ldr	r5, [pc, #68]	; (80bec <console_init+0x80>)
   80ba6:	682b      	ldr	r3, [r5, #0]
   80ba8:	2100      	movs	r1, #0
   80baa:	6898      	ldr	r0, [r3, #8]
   80bac:	4c10      	ldr	r4, [pc, #64]	; (80bf0 <console_init+0x84>)
   80bae:	47a0      	blx	r4
	setbuf(stdin, NULL);
   80bb0:	682b      	ldr	r3, [r5, #0]
   80bb2:	2100      	movs	r1, #0
   80bb4:	6858      	ldr	r0, [r3, #4]
   80bb6:	47a0      	blx	r4

	/* Configure console UART. */
	sysclk_enable_peripheral_clock(CONSOLE_UART_ID);
	stdio_serial_init(CONF_UART, &uart_serial_options);
	
	printf("Console ready\n");
   80bb8:	480e      	ldr	r0, [pc, #56]	; (80bf4 <console_init+0x88>)
   80bba:	4c0f      	ldr	r4, [pc, #60]	; (80bf8 <console_init+0x8c>)
   80bbc:	47a0      	blx	r4
	printf("=============\n");
   80bbe:	480f      	ldr	r0, [pc, #60]	; (80bfc <console_init+0x90>)
   80bc0:	47a0      	blx	r4
	return 0;
}
   80bc2:	2000      	movs	r0, #0
   80bc4:	b005      	add	sp, #20
   80bc6:	bd30      	pop	{r4, r5, pc}
   80bc8:	0008274d 	.word	0x0008274d
   80bcc:	400e0800 	.word	0x400e0800
   80bd0:	2007ad78 	.word	0x2007ad78
   80bd4:	00080a29 	.word	0x00080a29
   80bd8:	2007ad74 	.word	0x2007ad74
   80bdc:	0008097d 	.word	0x0008097d
   80be0:	2007ad70 	.word	0x2007ad70
   80be4:	0501bd00 	.word	0x0501bd00
   80be8:	000808f9 	.word	0x000808f9
   80bec:	2007013c 	.word	0x2007013c
   80bf0:	00082bcd 	.word	0x00082bcd
   80bf4:	00085a78 	.word	0x00085a78
   80bf8:	00082a1d 	.word	0x00082a1d
   80bfc:	00085a88 	.word	0x00085a88

00080c00 <task1>:
* Function: task1
* -------------------
* Performs an action every xTimeT1 milliseconds
*/
void task1(void *pvParamters)
{
   80c00:	e92d 4ff0 	stmdb	sp!, {r4, r5, r6, r7, r8, r9, sl, fp, lr}
   80c04:	b083      	sub	sp, #12
   80c06:	af00      	add	r7, sp, #0
	int testNbr = 1; //Do not modify	
	int secondsPerTest = 2; //MODIFY for yout test, NOTE: take into account limits of data type if needed	
	int dir = -1; //MODIFY direction for wheels +1 = forward , -1 = reverse
	int speedIncrementFactor = 5; //MODIFY for your test, NOTE: Motorspeed is limited to 0-100	
	int totalNbrTests = 100/speedIncrementFactor; //Do not modify
	int pulses[2][totalNbrTests]; //Do not modify
   80c08:	b0aa      	sub	sp, #168	; 0xa8
   80c0a:	f10d 0b50 	add.w	fp, sp, #80	; 0x50
   80c0e:	f10d 0aa0 	add.w	sl, sp, #160	; 0xa0
	int testNbr = 1; //Do not modify	
   80c12:	2601      	movs	r6, #1
/*$$$$$$$$$$$$$$$$$$$$$$$$$$$$$$$$$$$$$$$$$$$$$$$$$$$$$$$$$$$$$$$$$$$$$$$$$$$$$$$$$$*/
/*$$$$$$$$$$$        TEST PROGRAM: FR PULSER FRN VNSTER OCH      $$$$$$$$$$$$$$$$*/
/*$$$$$$$$$$$        HGER STEGAR IGENOM 5-100% MOTORSTYRKA         $$$$$$$$$$$$$$$$*/          
/*$$$$$$$$$$$$$$$$$$$$$$$$$$$$$$$$$$$$$$$$$$$$$$$$$$$$$$$$$$$$$$$$$$$$$$$$$$$$$$$$$$*/
	while(testNbr <= totalNbrTests){
		printf("Test#%i speed:%i is startning...\n",testNbr,speedIncrementFactor*testNbr);
   80c14:	f8df 90a8 	ldr.w	r9, [pc, #168]	; 80cc0 <task1+0xc0>
		getLeftPulses();
		getRightPulses();
		printf("------\n");	
		ticksReference = xTaskGetTickCount();
   80c18:	4c20      	ldr	r4, [pc, #128]	; (80c9c <task1+0x9c>)
		drive(speedIncrementFactor*testNbr,speedIncrementFactor*testNbr, dir, dir);
   80c1a:	f8df 809c 	ldr.w	r8, [pc, #156]	; 80cb8 <task1+0xb8>
   80c1e:	e018      	b.n	80c52 <task1+0x52>
		while(ticksPassed<secondsPerTest*1000){
			ticksPassed =  xTaskGetTickCount() - ticksReference;
		}
		drive(0,0,dir,dir);
   80c20:	f04f 33ff 	mov.w	r3, #4294967295
   80c24:	461a      	mov	r2, r3
   80c26:	2100      	movs	r1, #0
   80c28:	4608      	mov	r0, r1
   80c2a:	47c0      	blx	r8
		pulses[1][testNbr] = getLeftPulses();
   80c2c:	4b1c      	ldr	r3, [pc, #112]	; (80ca0 <task1+0xa0>)
   80c2e:	4798      	blx	r3
   80c30:	f84b 0f04 	str.w	r0, [fp, #4]!
		pulses[2][testNbr] = getRightPulses();
   80c34:	4b1b      	ldr	r3, [pc, #108]	; (80ca4 <task1+0xa4>)
   80c36:	4798      	blx	r3
   80c38:	f84a 0f04 	str.w	r0, [sl, #4]!
		printf("Test#%i speed:%i is ending...\n",testNbr,speedIncrementFactor*testNbr);
   80c3c:	687a      	ldr	r2, [r7, #4]
   80c3e:	4631      	mov	r1, r6
   80c40:	4819      	ldr	r0, [pc, #100]	; (80ca8 <task1+0xa8>)
   80c42:	47c8      	blx	r9
		printf("------\n");
   80c44:	4819      	ldr	r0, [pc, #100]	; (80cac <task1+0xac>)
   80c46:	47c8      	blx	r9
		resetCounter();	
   80c48:	4b19      	ldr	r3, [pc, #100]	; (80cb0 <task1+0xb0>)
   80c4a:	4798      	blx	r3
		testNbr++;
   80c4c:	3601      	adds	r6, #1
	while(testNbr <= totalNbrTests){
   80c4e:	2e15      	cmp	r6, #21
   80c50:	d01a      	beq.n	80c88 <task1+0x88>
   80c52:	eb06 0386 	add.w	r3, r6, r6, lsl #2
		printf("Test#%i speed:%i is startning...\n",testNbr,speedIncrementFactor*testNbr);
   80c56:	607b      	str	r3, [r7, #4]
   80c58:	461a      	mov	r2, r3
   80c5a:	4631      	mov	r1, r6
   80c5c:	4815      	ldr	r0, [pc, #84]	; (80cb4 <task1+0xb4>)
   80c5e:	47c8      	blx	r9
		getLeftPulses();
   80c60:	4a0f      	ldr	r2, [pc, #60]	; (80ca0 <task1+0xa0>)
   80c62:	4790      	blx	r2
		getRightPulses();
   80c64:	4a0f      	ldr	r2, [pc, #60]	; (80ca4 <task1+0xa4>)
   80c66:	4790      	blx	r2
		printf("------\n");	
   80c68:	4810      	ldr	r0, [pc, #64]	; (80cac <task1+0xac>)
   80c6a:	47c8      	blx	r9
		ticksReference = xTaskGetTickCount();
   80c6c:	47a0      	blx	r4
   80c6e:	4605      	mov	r5, r0
		drive(speedIncrementFactor*testNbr,speedIncrementFactor*testNbr, dir, dir);
   80c70:	f04f 33ff 	mov.w	r3, #4294967295
   80c74:	461a      	mov	r2, r3
   80c76:	6878      	ldr	r0, [r7, #4]
   80c78:	4601      	mov	r1, r0
   80c7a:	47c0      	blx	r8
			ticksPassed =  xTaskGetTickCount() - ticksReference;
   80c7c:	47a0      	blx	r4
   80c7e:	1b40      	subs	r0, r0, r5
		while(ticksPassed<secondsPerTest*1000){
   80c80:	f5b0 6ffa 	cmp.w	r0, #2000	; 0x7d0
   80c84:	dbfa      	blt.n	80c7c <task1+0x7c>
   80c86:	e7cb      	b.n	80c20 <task1+0x20>
		ticksPassed = 0;
	}
	drive(0,0,1,1);
   80c88:	2301      	movs	r3, #1
   80c8a:	461a      	mov	r2, r3
   80c8c:	2100      	movs	r1, #0
   80c8e:	4608      	mov	r0, r1
   80c90:	4c09      	ldr	r4, [pc, #36]	; (80cb8 <task1+0xb8>)
   80c92:	47a0      	blx	r4
	printf("All tests have been run through...\n");
   80c94:	4809      	ldr	r0, [pc, #36]	; (80cbc <task1+0xbc>)
   80c96:	4b0a      	ldr	r3, [pc, #40]	; (80cc0 <task1+0xc0>)
   80c98:	4798      	blx	r3
   80c9a:	e7fe      	b.n	80c9a <task1+0x9a>
   80c9c:	0008185d 	.word	0x0008185d
   80ca0:	0008068d 	.word	0x0008068d
   80ca4:	000806b9 	.word	0x000806b9
   80ca8:	00085acc 	.word	0x00085acc
   80cac:	00085ac4 	.word	0x00085ac4
   80cb0:	0008064d 	.word	0x0008064d
   80cb4:	00085aa0 	.word	0x00085aa0
   80cb8:	00080815 	.word	0x00080815
   80cbc:	00085aec 	.word	0x00085aec
   80cc0:	00082a1d 	.word	0x00082a1d

00080cc4 <vListInitialise>:
void vListInitialise( xList *pxList )
{
	/* The list structure contains a list item which is used to mark the
	end of the list.  To initialise the list the list end is inserted
	as the only list entry. */
	pxList->pxIndex = ( xListItem * ) &( pxList->xListEnd );
   80cc4:	f100 0308 	add.w	r3, r0, #8
   80cc8:	6043      	str	r3, [r0, #4]

	/* The list end value is the highest possible value in the list to
	ensure it remains at the end of the list. */
	pxList->xListEnd.xItemValue = portMAX_DELAY;
   80cca:	f04f 32ff 	mov.w	r2, #4294967295
   80cce:	6082      	str	r2, [r0, #8]

	/* The list end next and previous pointers point to itself so we know
	when the list is empty. */
	pxList->xListEnd.pxNext = ( xListItem * ) &( pxList->xListEnd );
   80cd0:	60c3      	str	r3, [r0, #12]
	pxList->xListEnd.pxPrevious = ( xListItem * ) &( pxList->xListEnd );
   80cd2:	6103      	str	r3, [r0, #16]

	pxList->uxNumberOfItems = ( unsigned portBASE_TYPE ) 0U;
   80cd4:	2300      	movs	r3, #0
   80cd6:	6003      	str	r3, [r0, #0]
   80cd8:	4770      	bx	lr

00080cda <vListInitialiseItem>:
/*-----------------------------------------------------------*/

void vListInitialiseItem( xListItem *pxItem )
{
	/* Make sure the list item is not recorded as being on a list. */
	pxItem->pvContainer = NULL;
   80cda:	2300      	movs	r3, #0
   80cdc:	6103      	str	r3, [r0, #16]
   80cde:	4770      	bx	lr

00080ce0 <vListInsertEnd>:

	/* Insert a new list item into pxList, but rather than sort the list,
	makes the new list item the last item to be removed by a call to
	pvListGetOwnerOfNextEntry.  This means it has to be the item pointed to by
	the pxIndex member. */
	pxIndex = pxList->pxIndex;
   80ce0:	6843      	ldr	r3, [r0, #4]

	pxNewListItem->pxNext = pxIndex->pxNext;
   80ce2:	685a      	ldr	r2, [r3, #4]
   80ce4:	604a      	str	r2, [r1, #4]
	pxNewListItem->pxPrevious = pxList->pxIndex;
   80ce6:	6842      	ldr	r2, [r0, #4]
   80ce8:	608a      	str	r2, [r1, #8]
	pxIndex->pxNext->pxPrevious = ( volatile xListItem * ) pxNewListItem;
   80cea:	685a      	ldr	r2, [r3, #4]
   80cec:	6091      	str	r1, [r2, #8]
	pxIndex->pxNext = ( volatile xListItem * ) pxNewListItem;
   80cee:	6059      	str	r1, [r3, #4]
	pxList->pxIndex = ( volatile xListItem * ) pxNewListItem;
   80cf0:	6041      	str	r1, [r0, #4]

	/* Remember which list the item is in. */
	pxNewListItem->pvContainer = ( void * ) pxList;
   80cf2:	6108      	str	r0, [r1, #16]

	( pxList->uxNumberOfItems )++;
   80cf4:	6803      	ldr	r3, [r0, #0]
   80cf6:	3301      	adds	r3, #1
   80cf8:	6003      	str	r3, [r0, #0]
   80cfa:	4770      	bx	lr

00080cfc <vListInsert>:
}
/*-----------------------------------------------------------*/

void vListInsert( xList *pxList, xListItem *pxNewListItem )
{
   80cfc:	b410      	push	{r4}
volatile xListItem *pxIterator;
portTickType xValueOfInsertion;

	/* Insert the new list item into the list, sorted in ulListItem order. */
	xValueOfInsertion = pxNewListItem->xItemValue;
   80cfe:	680c      	ldr	r4, [r1, #0]
	are stored in ready lists (all of which have the same ulListItem value)
	get an equal share of the CPU.  However, if the xItemValue is the same as
	the back marker the iteration loop below will not end.  This means we need
	to guard against this by checking the value first and modifying the
	algorithm slightly if necessary. */
	if( xValueOfInsertion == portMAX_DELAY )
   80d00:	f1b4 3fff 	cmp.w	r4, #4294967295
   80d04:	d015      	beq.n	80d32 <vListInsert+0x36>
			   before the scheduler has been started (are interrupts firing
			   before vTaskStartScheduler() has been called?).
		See http://www.freertos.org/FAQHelp.html for more tips.
		**********************************************************************/

		for( pxIterator = ( xListItem * ) &( pxList->xListEnd ); pxIterator->pxNext->xItemValue <= xValueOfInsertion; pxIterator = pxIterator->pxNext )
   80d06:	f100 0308 	add.w	r3, r0, #8
   80d0a:	68c2      	ldr	r2, [r0, #12]
   80d0c:	6812      	ldr	r2, [r2, #0]
   80d0e:	4294      	cmp	r4, r2
   80d10:	d304      	bcc.n	80d1c <vListInsert+0x20>
   80d12:	685b      	ldr	r3, [r3, #4]
   80d14:	685a      	ldr	r2, [r3, #4]
   80d16:	6812      	ldr	r2, [r2, #0]
   80d18:	4294      	cmp	r4, r2
   80d1a:	d2fa      	bcs.n	80d12 <vListInsert+0x16>
			/* There is nothing to do here, we are just iterating to the
			wanted insertion position. */
		}
	}

	pxNewListItem->pxNext = pxIterator->pxNext;
   80d1c:	685a      	ldr	r2, [r3, #4]
   80d1e:	604a      	str	r2, [r1, #4]
	pxNewListItem->pxNext->pxPrevious = ( volatile xListItem * ) pxNewListItem;
   80d20:	6091      	str	r1, [r2, #8]
	pxNewListItem->pxPrevious = pxIterator;
   80d22:	608b      	str	r3, [r1, #8]
	pxIterator->pxNext = ( volatile xListItem * ) pxNewListItem;
   80d24:	6059      	str	r1, [r3, #4]

	/* Remember which list the item is in.  This allows fast removal of the
	item later. */
	pxNewListItem->pvContainer = ( void * ) pxList;
   80d26:	6108      	str	r0, [r1, #16]

	( pxList->uxNumberOfItems )++;
   80d28:	6803      	ldr	r3, [r0, #0]
   80d2a:	3301      	adds	r3, #1
   80d2c:	6003      	str	r3, [r0, #0]
}
   80d2e:	bc10      	pop	{r4}
   80d30:	4770      	bx	lr
		pxIterator = pxList->xListEnd.pxPrevious;
   80d32:	6903      	ldr	r3, [r0, #16]
   80d34:	e7f2      	b.n	80d1c <vListInsert+0x20>

00080d36 <uxListRemove>:

unsigned portBASE_TYPE uxListRemove( xListItem *pxItemToRemove )
{
xList * pxList;

	pxItemToRemove->pxNext->pxPrevious = pxItemToRemove->pxPrevious;
   80d36:	6843      	ldr	r3, [r0, #4]
   80d38:	6882      	ldr	r2, [r0, #8]
   80d3a:	609a      	str	r2, [r3, #8]
	pxItemToRemove->pxPrevious->pxNext = pxItemToRemove->pxNext;
   80d3c:	6883      	ldr	r3, [r0, #8]
   80d3e:	6842      	ldr	r2, [r0, #4]
   80d40:	605a      	str	r2, [r3, #4]

	/* The list item knows which list it is in.  Obtain the list from the list
	item. */
	pxList = ( xList * ) pxItemToRemove->pvContainer;
   80d42:	6903      	ldr	r3, [r0, #16]

	/* Make sure the index is left pointing to a valid item. */
	if( pxList->pxIndex == pxItemToRemove )
   80d44:	685a      	ldr	r2, [r3, #4]
   80d46:	4290      	cmp	r0, r2
	{
		pxList->pxIndex = pxItemToRemove->pxPrevious;
   80d48:	bf04      	itt	eq
   80d4a:	6882      	ldreq	r2, [r0, #8]
   80d4c:	605a      	streq	r2, [r3, #4]
	}

	pxItemToRemove->pvContainer = NULL;
   80d4e:	2200      	movs	r2, #0
   80d50:	6102      	str	r2, [r0, #16]
	( pxList->uxNumberOfItems )--;
   80d52:	681a      	ldr	r2, [r3, #0]
   80d54:	3a01      	subs	r2, #1
   80d56:	601a      	str	r2, [r3, #0]

	return pxList->uxNumberOfItems;
   80d58:	6818      	ldr	r0, [r3, #0]
}
   80d5a:	4770      	bx	lr

00080d5c <prvPortStartFirstTask>:
}
/*-----------------------------------------------------------*/

static void prvPortStartFirstTask( void )
{
	__asm volatile(
   80d5c:	4803      	ldr	r0, [pc, #12]	; (80d6c <prvPortStartFirstTask+0x10>)
   80d5e:	6800      	ldr	r0, [r0, #0]
   80d60:	6800      	ldr	r0, [r0, #0]
   80d62:	f380 8808 	msr	MSP, r0
   80d66:	b662      	cpsie	i
   80d68:	df00      	svc	0
   80d6a:	bf00      	nop
   80d6c:	e000ed08 	.word	0xe000ed08

00080d70 <pxPortInitialiseStack>:
	*pxTopOfStack = portINITIAL_XPSR;	/* xPSR */
   80d70:	f04f 7380 	mov.w	r3, #16777216	; 0x1000000
   80d74:	f840 3c04 	str.w	r3, [r0, #-4]
	*pxTopOfStack = ( portSTACK_TYPE ) pxCode;	/* PC */
   80d78:	f840 1c08 	str.w	r1, [r0, #-8]
	*pxTopOfStack = 0;	/* LR */
   80d7c:	2300      	movs	r3, #0
   80d7e:	f840 3c0c 	str.w	r3, [r0, #-12]
	*pxTopOfStack = ( portSTACK_TYPE ) pvParameters;	/* R0 */
   80d82:	f840 2c20 	str.w	r2, [r0, #-32]
}
   80d86:	3840      	subs	r0, #64	; 0x40
   80d88:	4770      	bx	lr
	...

00080d8c <SVC_Handler>:
	__asm volatile (
   80d8c:	4b06      	ldr	r3, [pc, #24]	; (80da8 <pxCurrentTCBConst2>)
   80d8e:	6819      	ldr	r1, [r3, #0]
   80d90:	6808      	ldr	r0, [r1, #0]
   80d92:	e8b0 0ff0 	ldmia.w	r0!, {r4, r5, r6, r7, r8, r9, sl, fp}
   80d96:	f380 8809 	msr	PSP, r0
   80d9a:	f04f 0000 	mov.w	r0, #0
   80d9e:	f380 8811 	msr	BASEPRI, r0
   80da2:	f04e 0e0d 	orr.w	lr, lr, #13
   80da6:	4770      	bx	lr

00080da8 <pxCurrentTCBConst2>:
   80da8:	2007ab20 	.word	0x2007ab20

00080dac <vPortYieldFromISR>:
/*-----------------------------------------------------------*/

void vPortYieldFromISR( void )
{
	/* Set a PendSV to request a context switch. */
	portNVIC_INT_CTRL_REG = portNVIC_PENDSVSET_BIT;
   80dac:	f04f 5280 	mov.w	r2, #268435456	; 0x10000000
   80db0:	4b01      	ldr	r3, [pc, #4]	; (80db8 <vPortYieldFromISR+0xc>)
   80db2:	601a      	str	r2, [r3, #0]
   80db4:	4770      	bx	lr
   80db6:	bf00      	nop
   80db8:	e000ed04 	.word	0xe000ed04

00080dbc <ulPortSetInterruptMask>:
}
/*-----------------------------------------------------------*/

__attribute__(( naked )) unsigned long ulPortSetInterruptMask( void )
{
	__asm volatile														\
   80dbc:	f3ef 8011 	mrs	r0, BASEPRI
   80dc0:	f04f 01a0 	mov.w	r1, #160	; 0xa0
   80dc4:	f381 8811 	msr	BASEPRI, r1
   80dc8:	4770      	bx	lr
	);

	/* This return will not be reached but is necessary to prevent compiler
	warnings. */
	return 0;
}
   80dca:	2000      	movs	r0, #0

00080dcc <vPortEnterCritical>:
{
   80dcc:	b508      	push	{r3, lr}
	portDISABLE_INTERRUPTS();
   80dce:	4b03      	ldr	r3, [pc, #12]	; (80ddc <vPortEnterCritical+0x10>)
   80dd0:	4798      	blx	r3
	uxCriticalNesting++;
   80dd2:	4a03      	ldr	r2, [pc, #12]	; (80de0 <vPortEnterCritical+0x14>)
   80dd4:	6813      	ldr	r3, [r2, #0]
   80dd6:	3301      	adds	r3, #1
   80dd8:	6013      	str	r3, [r2, #0]
   80dda:	bd08      	pop	{r3, pc}
   80ddc:	00080dbd 	.word	0x00080dbd
   80de0:	2007012c 	.word	0x2007012c

00080de4 <vPortClearInterruptMask>:
/*-----------------------------------------------------------*/

__attribute__(( naked )) void vPortClearInterruptMask( unsigned long ulNewMaskValue )
{
	__asm volatile													\
   80de4:	f380 8811 	msr	BASEPRI, r0
   80de8:	4770      	bx	lr
	...

00080dec <vPortExitCritical>:
{
   80dec:	b508      	push	{r3, lr}
	uxCriticalNesting--;
   80dee:	4a05      	ldr	r2, [pc, #20]	; (80e04 <vPortExitCritical+0x18>)
   80df0:	6813      	ldr	r3, [r2, #0]
   80df2:	3b01      	subs	r3, #1
   80df4:	6013      	str	r3, [r2, #0]
	if( uxCriticalNesting == 0 )
   80df6:	b103      	cbz	r3, 80dfa <vPortExitCritical+0xe>
   80df8:	bd08      	pop	{r3, pc}
		portENABLE_INTERRUPTS();
   80dfa:	2000      	movs	r0, #0
   80dfc:	4b02      	ldr	r3, [pc, #8]	; (80e08 <vPortExitCritical+0x1c>)
   80dfe:	4798      	blx	r3
}
   80e00:	e7fa      	b.n	80df8 <vPortExitCritical+0xc>
   80e02:	bf00      	nop
   80e04:	2007012c 	.word	0x2007012c
   80e08:	00080de5 	.word	0x00080de5

00080e0c <PendSV_Handler>:

__attribute__(( naked )) void PendSV_Handler( void )
{
	/* This is a naked function. */

	__asm volatile
   80e0c:	f3ef 8009 	mrs	r0, PSP
   80e10:	4b0c      	ldr	r3, [pc, #48]	; (80e44 <pxCurrentTCBConst>)
   80e12:	681a      	ldr	r2, [r3, #0]
   80e14:	e920 0ff0 	stmdb	r0!, {r4, r5, r6, r7, r8, r9, sl, fp}
   80e18:	6010      	str	r0, [r2, #0]
   80e1a:	e92d 4008 	stmdb	sp!, {r3, lr}
   80e1e:	f04f 00a0 	mov.w	r0, #160	; 0xa0
   80e22:	f380 8811 	msr	BASEPRI, r0
   80e26:	f000 fe91 	bl	81b4c <vTaskSwitchContext>
   80e2a:	f04f 0000 	mov.w	r0, #0
   80e2e:	f380 8811 	msr	BASEPRI, r0
   80e32:	e8bd 4008 	ldmia.w	sp!, {r3, lr}
   80e36:	6819      	ldr	r1, [r3, #0]
   80e38:	6808      	ldr	r0, [r1, #0]
   80e3a:	e8b0 0ff0 	ldmia.w	r0!, {r4, r5, r6, r7, r8, r9, sl, fp}
   80e3e:	f380 8809 	msr	PSP, r0
   80e42:	4770      	bx	lr

00080e44 <pxCurrentTCBConst>:
   80e44:	2007ab20 	.word	0x2007ab20

00080e48 <SysTick_Handler>:
	);
}
/*-----------------------------------------------------------*/

void SysTick_Handler( void )
{
   80e48:	b508      	push	{r3, lr}
	/* If using preemption, also force a context switch. */
	#if configUSE_PREEMPTION == 1
		portNVIC_INT_CTRL_REG = portNVIC_PENDSVSET_BIT;
   80e4a:	f04f 5280 	mov.w	r2, #268435456	; 0x10000000
   80e4e:	4b05      	ldr	r3, [pc, #20]	; (80e64 <SysTick_Handler+0x1c>)
   80e50:	601a      	str	r2, [r3, #0]
	to generate the tick interrupt. */
	#if configUSE_TICKLESS_IDLE == 1
		portNVIC_SYSTICK_LOAD_REG = ulTimerReloadValueForOneTick;
	#endif

	( void ) portSET_INTERRUPT_MASK_FROM_ISR();
   80e52:	4b05      	ldr	r3, [pc, #20]	; (80e68 <SysTick_Handler+0x20>)
   80e54:	4798      	blx	r3
	{
		vTaskIncrementTick();
   80e56:	4b05      	ldr	r3, [pc, #20]	; (80e6c <SysTick_Handler+0x24>)
   80e58:	4798      	blx	r3
	}
	portCLEAR_INTERRUPT_MASK_FROM_ISR( 0 );
   80e5a:	2000      	movs	r0, #0
   80e5c:	4b04      	ldr	r3, [pc, #16]	; (80e70 <SysTick_Handler+0x28>)
   80e5e:	4798      	blx	r3
   80e60:	bd08      	pop	{r3, pc}
   80e62:	bf00      	nop
   80e64:	e000ed04 	.word	0xe000ed04
   80e68:	00080dbd 	.word	0x00080dbd
   80e6c:	0008189d 	.word	0x0008189d
   80e70:	00080de5 	.word	0x00080de5

00080e74 <vPortSetupTimerInterrupt>:
		ulStoppedTimerCompensation = 45UL / ( configCPU_CLOCK_HZ / configSYSTICK_CLOCK_HZ );
	}
	#endif /* configUSE_TICKLESS_IDLE */

	/* Configure SysTick to interrupt at the requested rate. */
	portNVIC_SYSTICK_LOAD_REG = ( configSYSTICK_CLOCK_HZ / configTICK_RATE_HZ ) - 1UL;;
   80e74:	4a03      	ldr	r2, [pc, #12]	; (80e84 <vPortSetupTimerInterrupt+0x10>)
   80e76:	4b04      	ldr	r3, [pc, #16]	; (80e88 <vPortSetupTimerInterrupt+0x14>)
   80e78:	601a      	str	r2, [r3, #0]
	portNVIC_SYSTICK_CTRL_REG = portNVIC_SYSTICK_CLK_BIT | portNVIC_SYSTICK_INT_BIT | portNVIC_SYSTICK_ENABLE_BIT;
   80e7a:	2207      	movs	r2, #7
   80e7c:	3b04      	subs	r3, #4
   80e7e:	601a      	str	r2, [r3, #0]
   80e80:	4770      	bx	lr
   80e82:	bf00      	nop
   80e84:	0001481f 	.word	0x0001481f
   80e88:	e000e014 	.word	0xe000e014

00080e8c <xPortStartScheduler>:
{
   80e8c:	b510      	push	{r4, lr}
	portNVIC_SYSPRI2_REG |= portNVIC_PENDSV_PRI;
   80e8e:	4b09      	ldr	r3, [pc, #36]	; (80eb4 <xPortStartScheduler+0x28>)
   80e90:	681a      	ldr	r2, [r3, #0]
   80e92:	f442 0270 	orr.w	r2, r2, #15728640	; 0xf00000
   80e96:	601a      	str	r2, [r3, #0]
	portNVIC_SYSPRI2_REG |= portNVIC_SYSTICK_PRI;
   80e98:	681a      	ldr	r2, [r3, #0]
   80e9a:	f042 4270 	orr.w	r2, r2, #4026531840	; 0xf0000000
   80e9e:	601a      	str	r2, [r3, #0]
	vPortSetupTimerInterrupt();
   80ea0:	4b05      	ldr	r3, [pc, #20]	; (80eb8 <xPortStartScheduler+0x2c>)
   80ea2:	4798      	blx	r3
	uxCriticalNesting = 0;
   80ea4:	2400      	movs	r4, #0
   80ea6:	4b05      	ldr	r3, [pc, #20]	; (80ebc <xPortStartScheduler+0x30>)
   80ea8:	601c      	str	r4, [r3, #0]
	prvPortStartFirstTask();
   80eaa:	4b05      	ldr	r3, [pc, #20]	; (80ec0 <xPortStartScheduler+0x34>)
   80eac:	4798      	blx	r3
}
   80eae:	4620      	mov	r0, r4
   80eb0:	bd10      	pop	{r4, pc}
   80eb2:	bf00      	nop
   80eb4:	e000ed20 	.word	0xe000ed20
   80eb8:	00080e75 	.word	0x00080e75
   80ebc:	2007012c 	.word	0x2007012c
   80ec0:	00080d5d 	.word	0x00080d5d

00080ec4 <prvInsertBlockIntoFreeList>:
	xFreeBytesRemaining -= heapSTRUCT_SIZE;
}
/*-----------------------------------------------------------*/

static void prvInsertBlockIntoFreeList( xBlockLink *pxBlockToInsert )
{
   80ec4:	b410      	push	{r4}
xBlockLink *pxIterator;
unsigned char *puc;

	/* Iterate through the list until a block is found that has a higher address
	than the block being inserted. */
	for( pxIterator = &xStart; pxIterator->pxNextFreeBlock < pxBlockToInsert; pxIterator = pxIterator->pxNextFreeBlock )
   80ec6:	4a13      	ldr	r2, [pc, #76]	; (80f14 <prvInsertBlockIntoFreeList+0x50>)
   80ec8:	e000      	b.n	80ecc <prvInsertBlockIntoFreeList+0x8>
   80eca:	461a      	mov	r2, r3
   80ecc:	6813      	ldr	r3, [r2, #0]
   80ece:	4283      	cmp	r3, r0
   80ed0:	d3fb      	bcc.n	80eca <prvInsertBlockIntoFreeList+0x6>
	}

	/* Do the block being inserted, and the block it is being inserted after
	make a contiguous block of memory? */	
	puc = ( unsigned char * ) pxIterator;
	if( ( puc + pxIterator->xBlockSize ) == ( unsigned char * ) pxBlockToInsert )
   80ed2:	6851      	ldr	r1, [r2, #4]
   80ed4:	1854      	adds	r4, r2, r1
   80ed6:	42a0      	cmp	r0, r4
   80ed8:	d009      	beq.n	80eee <prvInsertBlockIntoFreeList+0x2a>
	}

	/* Do the block being inserted, and the block it is being inserted before
	make a contiguous block of memory? */
	puc = ( unsigned char * ) pxBlockToInsert;
	if( ( puc + pxBlockToInsert->xBlockSize ) == ( unsigned char * ) pxIterator->pxNextFreeBlock )
   80eda:	6841      	ldr	r1, [r0, #4]
   80edc:	1844      	adds	r4, r0, r1
   80ede:	42a3      	cmp	r3, r4
   80ee0:	d00a      	beq.n	80ef8 <prvInsertBlockIntoFreeList+0x34>
			pxBlockToInsert->pxNextFreeBlock = pxEnd;
		}
	}
	else
	{
		pxBlockToInsert->pxNextFreeBlock = pxIterator->pxNextFreeBlock;		
   80ee2:	6003      	str	r3, [r0, #0]

	/* If the block being inserted plugged a gab, so was merged with the block
	before and the block after, then it's pxNextFreeBlock pointer will have
	already been set, and should not be set here as that would make it point
	to itself. */
	if( pxIterator != pxBlockToInsert )
   80ee4:	4290      	cmp	r0, r2
	{
		pxIterator->pxNextFreeBlock = pxBlockToInsert;
   80ee6:	bf18      	it	ne
   80ee8:	6010      	strne	r0, [r2, #0]
	}
}
   80eea:	bc10      	pop	{r4}
   80eec:	4770      	bx	lr
		pxIterator->xBlockSize += pxBlockToInsert->xBlockSize;
   80eee:	6840      	ldr	r0, [r0, #4]
   80ef0:	4401      	add	r1, r0
   80ef2:	6051      	str	r1, [r2, #4]
   80ef4:	4610      	mov	r0, r2
   80ef6:	e7f0      	b.n	80eda <prvInsertBlockIntoFreeList+0x16>
		if( pxIterator->pxNextFreeBlock != pxEnd )
   80ef8:	4c07      	ldr	r4, [pc, #28]	; (80f18 <prvInsertBlockIntoFreeList+0x54>)
   80efa:	6824      	ldr	r4, [r4, #0]
   80efc:	42a3      	cmp	r3, r4
   80efe:	d006      	beq.n	80f0e <prvInsertBlockIntoFreeList+0x4a>
			pxBlockToInsert->xBlockSize += pxIterator->pxNextFreeBlock->xBlockSize;
   80f00:	685b      	ldr	r3, [r3, #4]
   80f02:	4419      	add	r1, r3
   80f04:	6041      	str	r1, [r0, #4]
			pxBlockToInsert->pxNextFreeBlock = pxIterator->pxNextFreeBlock->pxNextFreeBlock;
   80f06:	6813      	ldr	r3, [r2, #0]
   80f08:	681b      	ldr	r3, [r3, #0]
   80f0a:	6003      	str	r3, [r0, #0]
   80f0c:	e7ea      	b.n	80ee4 <prvInsertBlockIntoFreeList+0x20>
			pxBlockToInsert->pxNextFreeBlock = pxEnd;
   80f0e:	6003      	str	r3, [r0, #0]
   80f10:	e7e8      	b.n	80ee4 <prvInsertBlockIntoFreeList+0x20>
   80f12:	bf00      	nop
   80f14:	2007ab18 	.word	0x2007ab18
   80f18:	20070b14 	.word	0x20070b14

00080f1c <pvPortMalloc>:
{
   80f1c:	b538      	push	{r3, r4, r5, lr}
   80f1e:	4604      	mov	r4, r0
	vTaskSuspendAll();
   80f20:	4b2a      	ldr	r3, [pc, #168]	; (80fcc <pvPortMalloc+0xb0>)
   80f22:	4798      	blx	r3
		if( pxEnd == NULL )
   80f24:	4b2a      	ldr	r3, [pc, #168]	; (80fd0 <pvPortMalloc+0xb4>)
   80f26:	681b      	ldr	r3, [r3, #0]
   80f28:	b18b      	cbz	r3, 80f4e <pvPortMalloc+0x32>
		if( xWantedSize > 0 )
   80f2a:	2c00      	cmp	r4, #0
   80f2c:	d047      	beq.n	80fbe <pvPortMalloc+0xa2>
			xWantedSize += heapSTRUCT_SIZE;
   80f2e:	f104 0210 	add.w	r2, r4, #16
			if( xWantedSize & portBYTE_ALIGNMENT_MASK )
   80f32:	f012 0f07 	tst.w	r2, #7
				xWantedSize += ( portBYTE_ALIGNMENT - ( xWantedSize & portBYTE_ALIGNMENT_MASK ) );
   80f36:	bf1c      	itt	ne
   80f38:	f022 0207 	bicne.w	r2, r2, #7
   80f3c:	3208      	addne	r2, #8
		if( ( xWantedSize > 0 ) && ( xWantedSize < xTotalHeapSize ) )
   80f3e:	1e51      	subs	r1, r2, #1
   80f40:	f649 73fe 	movw	r3, #40958	; 0x9ffe
   80f44:	4299      	cmp	r1, r3
   80f46:	d83c      	bhi.n	80fc2 <pvPortMalloc+0xa6>
			pxBlock = xStart.pxNextFreeBlock;
   80f48:	4922      	ldr	r1, [pc, #136]	; (80fd4 <pvPortMalloc+0xb8>)
   80f4a:	680c      	ldr	r4, [r1, #0]
			while( ( pxBlock->xBlockSize < xWantedSize ) && ( pxBlock->pxNextFreeBlock != NULL ) )
   80f4c:	e016      	b.n	80f7c <pvPortMalloc+0x60>
	xStart.pxNextFreeBlock = ( void * ) xHeap.ucHeap;
   80f4e:	4a21      	ldr	r2, [pc, #132]	; (80fd4 <pvPortMalloc+0xb8>)
   80f50:	4b21      	ldr	r3, [pc, #132]	; (80fd8 <pvPortMalloc+0xbc>)
   80f52:	6013      	str	r3, [r2, #0]
	xStart.xBlockSize = ( size_t ) 0;
   80f54:	2100      	movs	r1, #0
   80f56:	6051      	str	r1, [r2, #4]
	pxEnd = ( void * ) pucHeapEnd;
   80f58:	f649 72f0 	movw	r2, #40944	; 0x9ff0
   80f5c:	1898      	adds	r0, r3, r2
   80f5e:	4d1c      	ldr	r5, [pc, #112]	; (80fd0 <pvPortMalloc+0xb4>)
   80f60:	6028      	str	r0, [r5, #0]
	pxEnd->xBlockSize = 0;
   80f62:	f649 75f4 	movw	r5, #40948	; 0x9ff4
   80f66:	5159      	str	r1, [r3, r5]
	pxEnd->pxNextFreeBlock = NULL;
   80f68:	5099      	str	r1, [r3, r2]
	pxFirstFreeBlock->xBlockSize = xTotalHeapSize - heapSTRUCT_SIZE;
   80f6a:	605a      	str	r2, [r3, #4]
	pxFirstFreeBlock->pxNextFreeBlock = pxEnd;
   80f6c:	6018      	str	r0, [r3, #0]
	xFreeBytesRemaining -= heapSTRUCT_SIZE;
   80f6e:	4a1b      	ldr	r2, [pc, #108]	; (80fdc <pvPortMalloc+0xc0>)
   80f70:	6813      	ldr	r3, [r2, #0]
   80f72:	3b10      	subs	r3, #16
   80f74:	6013      	str	r3, [r2, #0]
   80f76:	e7d8      	b.n	80f2a <pvPortMalloc+0xe>
   80f78:	4621      	mov	r1, r4
				pxBlock = pxBlock->pxNextFreeBlock;
   80f7a:	461c      	mov	r4, r3
			while( ( pxBlock->xBlockSize < xWantedSize ) && ( pxBlock->pxNextFreeBlock != NULL ) )
   80f7c:	6863      	ldr	r3, [r4, #4]
   80f7e:	429a      	cmp	r2, r3
   80f80:	d902      	bls.n	80f88 <pvPortMalloc+0x6c>
   80f82:	6823      	ldr	r3, [r4, #0]
   80f84:	2b00      	cmp	r3, #0
   80f86:	d1f7      	bne.n	80f78 <pvPortMalloc+0x5c>
			if( pxBlock != pxEnd )
   80f88:	4b11      	ldr	r3, [pc, #68]	; (80fd0 <pvPortMalloc+0xb4>)
   80f8a:	681b      	ldr	r3, [r3, #0]
   80f8c:	429c      	cmp	r4, r3
   80f8e:	d01a      	beq.n	80fc6 <pvPortMalloc+0xaa>
				pvReturn = ( void * ) ( ( ( unsigned char * ) pxPreviousBlock->pxNextFreeBlock ) + heapSTRUCT_SIZE );
   80f90:	680d      	ldr	r5, [r1, #0]
   80f92:	3510      	adds	r5, #16
				pxPreviousBlock->pxNextFreeBlock = pxBlock->pxNextFreeBlock;
   80f94:	6823      	ldr	r3, [r4, #0]
   80f96:	600b      	str	r3, [r1, #0]
				if( ( pxBlock->xBlockSize - xWantedSize ) > heapMINIMUM_BLOCK_SIZE )
   80f98:	6863      	ldr	r3, [r4, #4]
   80f9a:	1a9b      	subs	r3, r3, r2
   80f9c:	2b20      	cmp	r3, #32
   80f9e:	d808      	bhi.n	80fb2 <pvPortMalloc+0x96>
				xFreeBytesRemaining -= pxBlock->xBlockSize;
   80fa0:	4a0e      	ldr	r2, [pc, #56]	; (80fdc <pvPortMalloc+0xc0>)
   80fa2:	6813      	ldr	r3, [r2, #0]
   80fa4:	6861      	ldr	r1, [r4, #4]
   80fa6:	1a5b      	subs	r3, r3, r1
   80fa8:	6013      	str	r3, [r2, #0]
	xTaskResumeAll();
   80faa:	4b0d      	ldr	r3, [pc, #52]	; (80fe0 <pvPortMalloc+0xc4>)
   80fac:	4798      	blx	r3
}
   80fae:	4628      	mov	r0, r5
   80fb0:	bd38      	pop	{r3, r4, r5, pc}
					pxNewBlockLink = ( void * ) ( ( ( unsigned char * ) pxBlock ) + xWantedSize );
   80fb2:	18a0      	adds	r0, r4, r2
					pxNewBlockLink->xBlockSize = pxBlock->xBlockSize - xWantedSize;
   80fb4:	6043      	str	r3, [r0, #4]
					pxBlock->xBlockSize = xWantedSize;
   80fb6:	6062      	str	r2, [r4, #4]
					prvInsertBlockIntoFreeList( ( pxNewBlockLink ) );
   80fb8:	4b0a      	ldr	r3, [pc, #40]	; (80fe4 <pvPortMalloc+0xc8>)
   80fba:	4798      	blx	r3
   80fbc:	e7f0      	b.n	80fa0 <pvPortMalloc+0x84>
void *pvReturn = NULL;
   80fbe:	2500      	movs	r5, #0
   80fc0:	e7f3      	b.n	80faa <pvPortMalloc+0x8e>
   80fc2:	2500      	movs	r5, #0
   80fc4:	e7f1      	b.n	80faa <pvPortMalloc+0x8e>
   80fc6:	2500      	movs	r5, #0
   80fc8:	e7ef      	b.n	80faa <pvPortMalloc+0x8e>
   80fca:	bf00      	nop
   80fcc:	0008184d 	.word	0x0008184d
   80fd0:	20070b14 	.word	0x20070b14
   80fd4:	2007ab18 	.word	0x2007ab18
   80fd8:	20070b18 	.word	0x20070b18
   80fdc:	20070130 	.word	0x20070130
   80fe0:	000819c5 	.word	0x000819c5
   80fe4:	00080ec5 	.word	0x00080ec5

00080fe8 <vPortFree>:
	if( pv != NULL )
   80fe8:	b180      	cbz	r0, 8100c <vPortFree+0x24>
{
   80fea:	b510      	push	{r4, lr}
   80fec:	4604      	mov	r4, r0
		vTaskSuspendAll();
   80fee:	4b08      	ldr	r3, [pc, #32]	; (81010 <vPortFree+0x28>)
   80ff0:	4798      	blx	r3
			xFreeBytesRemaining += pxLink->xBlockSize;
   80ff2:	4a08      	ldr	r2, [pc, #32]	; (81014 <vPortFree+0x2c>)
   80ff4:	f854 3c0c 	ldr.w	r3, [r4, #-12]
   80ff8:	6811      	ldr	r1, [r2, #0]
   80ffa:	440b      	add	r3, r1
   80ffc:	6013      	str	r3, [r2, #0]
			prvInsertBlockIntoFreeList( ( ( xBlockLink * ) pxLink ) );			
   80ffe:	f1a4 0010 	sub.w	r0, r4, #16
   81002:	4b05      	ldr	r3, [pc, #20]	; (81018 <vPortFree+0x30>)
   81004:	4798      	blx	r3
		xTaskResumeAll();
   81006:	4b05      	ldr	r3, [pc, #20]	; (8101c <vPortFree+0x34>)
   81008:	4798      	blx	r3
   8100a:	bd10      	pop	{r4, pc}
   8100c:	4770      	bx	lr
   8100e:	bf00      	nop
   81010:	0008184d 	.word	0x0008184d
   81014:	20070130 	.word	0x20070130
   81018:	00080ec5 	.word	0x00080ec5
   8101c:	000819c5 	.word	0x000819c5

00081020 <prvCopyDataToQueue>:

#endif
/*-----------------------------------------------------------*/

static void prvCopyDataToQueue( xQUEUE *pxQueue, const void *pvItemToQueue, portBASE_TYPE xPosition )
{
   81020:	b510      	push	{r4, lr}
   81022:	4604      	mov	r4, r0
	if( pxQueue->uxItemSize == ( unsigned portBASE_TYPE ) 0 )
   81024:	6c03      	ldr	r3, [r0, #64]	; 0x40
   81026:	b95b      	cbnz	r3, 81040 <prvCopyDataToQueue+0x20>
	{
		#if ( configUSE_MUTEXES == 1 )
		{
			if( pxQueue->uxQueueType == queueQUEUE_IS_MUTEX )
   81028:	6803      	ldr	r3, [r0, #0]
   8102a:	b11b      	cbz	r3, 81034 <prvCopyDataToQueue+0x14>
		{
			pxQueue->pcReadFrom = ( pxQueue->pcTail - pxQueue->uxItemSize );
		}
	}

	++( pxQueue->uxMessagesWaiting );
   8102c:	6ba3      	ldr	r3, [r4, #56]	; 0x38
   8102e:	3301      	adds	r3, #1
   81030:	63a3      	str	r3, [r4, #56]	; 0x38
   81032:	bd10      	pop	{r4, pc}
				vTaskPriorityDisinherit( ( void * ) pxQueue->pxMutexHolder );
   81034:	6840      	ldr	r0, [r0, #4]
   81036:	4b12      	ldr	r3, [pc, #72]	; (81080 <prvCopyDataToQueue+0x60>)
   81038:	4798      	blx	r3
				pxQueue->pxMutexHolder = NULL;
   8103a:	2300      	movs	r3, #0
   8103c:	6063      	str	r3, [r4, #4]
   8103e:	e7f5      	b.n	8102c <prvCopyDataToQueue+0xc>
	else if( xPosition == queueSEND_TO_BACK )
   81040:	b96a      	cbnz	r2, 8105e <prvCopyDataToQueue+0x3e>
		memcpy( ( void * ) pxQueue->pcWriteTo, pvItemToQueue, ( unsigned ) pxQueue->uxItemSize );
   81042:	461a      	mov	r2, r3
   81044:	6880      	ldr	r0, [r0, #8]
   81046:	4b0f      	ldr	r3, [pc, #60]	; (81084 <prvCopyDataToQueue+0x64>)
   81048:	4798      	blx	r3
		pxQueue->pcWriteTo += pxQueue->uxItemSize;
   8104a:	68a3      	ldr	r3, [r4, #8]
   8104c:	6c22      	ldr	r2, [r4, #64]	; 0x40
   8104e:	4413      	add	r3, r2
   81050:	60a3      	str	r3, [r4, #8]
		if( pxQueue->pcWriteTo >= pxQueue->pcTail )
   81052:	6862      	ldr	r2, [r4, #4]
   81054:	4293      	cmp	r3, r2
   81056:	d3e9      	bcc.n	8102c <prvCopyDataToQueue+0xc>
			pxQueue->pcWriteTo = pxQueue->pcHead;
   81058:	6823      	ldr	r3, [r4, #0]
   8105a:	60a3      	str	r3, [r4, #8]
   8105c:	e7e6      	b.n	8102c <prvCopyDataToQueue+0xc>
		memcpy( ( void * ) pxQueue->pcReadFrom, pvItemToQueue, ( unsigned ) pxQueue->uxItemSize );
   8105e:	461a      	mov	r2, r3
   81060:	68c0      	ldr	r0, [r0, #12]
   81062:	4b08      	ldr	r3, [pc, #32]	; (81084 <prvCopyDataToQueue+0x64>)
   81064:	4798      	blx	r3
		pxQueue->pcReadFrom -= pxQueue->uxItemSize;
   81066:	6c22      	ldr	r2, [r4, #64]	; 0x40
   81068:	4252      	negs	r2, r2
   8106a:	68e3      	ldr	r3, [r4, #12]
   8106c:	4413      	add	r3, r2
   8106e:	60e3      	str	r3, [r4, #12]
		if( pxQueue->pcReadFrom < pxQueue->pcHead )
   81070:	6821      	ldr	r1, [r4, #0]
   81072:	428b      	cmp	r3, r1
   81074:	d2da      	bcs.n	8102c <prvCopyDataToQueue+0xc>
			pxQueue->pcReadFrom = ( pxQueue->pcTail - pxQueue->uxItemSize );
   81076:	6863      	ldr	r3, [r4, #4]
   81078:	441a      	add	r2, r3
   8107a:	60e2      	str	r2, [r4, #12]
   8107c:	e7d6      	b.n	8102c <prvCopyDataToQueue+0xc>
   8107e:	bf00      	nop
   81080:	00081e79 	.word	0x00081e79
   81084:	00082a45 	.word	0x00082a45

00081088 <prvCopyDataFromQueue>:
}
/*-----------------------------------------------------------*/

static void prvCopyDataFromQueue( xQUEUE * const pxQueue, const void *pvBuffer )
{
   81088:	b538      	push	{r3, r4, r5, lr}
   8108a:	4603      	mov	r3, r0
	if( pxQueue->uxQueueType != queueQUEUE_IS_MUTEX )
   8108c:	6800      	ldr	r0, [r0, #0]
   8108e:	b158      	cbz	r0, 810a8 <prvCopyDataFromQueue+0x20>
	{
		pxQueue->pcReadFrom += pxQueue->uxItemSize;
   81090:	6c1a      	ldr	r2, [r3, #64]	; 0x40
   81092:	68dc      	ldr	r4, [r3, #12]
   81094:	4414      	add	r4, r2
   81096:	60dc      	str	r4, [r3, #12]
		if( pxQueue->pcReadFrom >= pxQueue->pcTail )
   81098:	685d      	ldr	r5, [r3, #4]
   8109a:	42ac      	cmp	r4, r5
		{
			pxQueue->pcReadFrom = pxQueue->pcHead;
   8109c:	bf28      	it	cs
   8109e:	60d8      	strcs	r0, [r3, #12]
   810a0:	4608      	mov	r0, r1
		}
		memcpy( ( void * ) pvBuffer, ( void * ) pxQueue->pcReadFrom, ( unsigned ) pxQueue->uxItemSize );
   810a2:	68d9      	ldr	r1, [r3, #12]
   810a4:	4b01      	ldr	r3, [pc, #4]	; (810ac <prvCopyDataFromQueue+0x24>)
   810a6:	4798      	blx	r3
   810a8:	bd38      	pop	{r3, r4, r5, pc}
   810aa:	bf00      	nop
   810ac:	00082a45 	.word	0x00082a45

000810b0 <prvUnlockQueue>:
	}
}
/*-----------------------------------------------------------*/

static void prvUnlockQueue( xQueueHandle pxQueue )
{
   810b0:	b5f8      	push	{r3, r4, r5, r6, r7, lr}
   810b2:	4604      	mov	r4, r0

	/* The lock counts contains the number of extra data items placed or
	removed from the queue while the queue was locked.  When a queue is
	locked items can be added or removed, but the event lists cannot be
	updated. */
	taskENTER_CRITICAL();
   810b4:	4b1f      	ldr	r3, [pc, #124]	; (81134 <prvUnlockQueue+0x84>)
   810b6:	4798      	blx	r3
	{
		/* See if data was added to the queue while it was locked. */
		while( pxQueue->xTxLock > queueLOCKED_UNMODIFIED )
   810b8:	6ca3      	ldr	r3, [r4, #72]	; 0x48
   810ba:	2b00      	cmp	r3, #0
   810bc:	dd14      	ble.n	810e8 <prvUnlockQueue+0x38>
		{
			/* Data was posted while the queue was locked.  Are any tasks
			blocked waiting for data to become available? */
			if( listLIST_IS_EMPTY( &( pxQueue->xTasksWaitingToReceive ) ) == pdFALSE )
   810be:	6a63      	ldr	r3, [r4, #36]	; 0x24
   810c0:	b193      	cbz	r3, 810e8 <prvUnlockQueue+0x38>
			{
				/* Tasks that are removed from the event list will get added to
				the pending ready list as the scheduler is still suspended. */
				if( xTaskRemoveFromEventList( &( pxQueue->xTasksWaitingToReceive ) ) != pdFALSE )
   810c2:	f104 0624 	add.w	r6, r4, #36	; 0x24
   810c6:	4d1c      	ldr	r5, [pc, #112]	; (81138 <prvUnlockQueue+0x88>)
				{
					/* The task waiting has a higher priority so record that a
					context	switch is required. */
					vTaskMissedYield();
   810c8:	4f1c      	ldr	r7, [pc, #112]	; (8113c <prvUnlockQueue+0x8c>)
   810ca:	e007      	b.n	810dc <prvUnlockQueue+0x2c>
				}

				--( pxQueue->xTxLock );
   810cc:	6ca3      	ldr	r3, [r4, #72]	; 0x48
   810ce:	3b01      	subs	r3, #1
   810d0:	64a3      	str	r3, [r4, #72]	; 0x48
		while( pxQueue->xTxLock > queueLOCKED_UNMODIFIED )
   810d2:	6ca3      	ldr	r3, [r4, #72]	; 0x48
   810d4:	2b00      	cmp	r3, #0
   810d6:	dd07      	ble.n	810e8 <prvUnlockQueue+0x38>
			if( listLIST_IS_EMPTY( &( pxQueue->xTasksWaitingToReceive ) ) == pdFALSE )
   810d8:	6a63      	ldr	r3, [r4, #36]	; 0x24
   810da:	b12b      	cbz	r3, 810e8 <prvUnlockQueue+0x38>
				if( xTaskRemoveFromEventList( &( pxQueue->xTasksWaitingToReceive ) ) != pdFALSE )
   810dc:	4630      	mov	r0, r6
   810de:	47a8      	blx	r5
   810e0:	2800      	cmp	r0, #0
   810e2:	d0f3      	beq.n	810cc <prvUnlockQueue+0x1c>
					vTaskMissedYield();
   810e4:	47b8      	blx	r7
   810e6:	e7f1      	b.n	810cc <prvUnlockQueue+0x1c>
			{
				break;
			}
		}

		pxQueue->xTxLock = queueUNLOCKED;
   810e8:	f04f 33ff 	mov.w	r3, #4294967295
   810ec:	64a3      	str	r3, [r4, #72]	; 0x48
	}
	taskEXIT_CRITICAL();
   810ee:	4b14      	ldr	r3, [pc, #80]	; (81140 <prvUnlockQueue+0x90>)
   810f0:	4798      	blx	r3

	/* Do the same for the Rx lock. */
	taskENTER_CRITICAL();
   810f2:	4b10      	ldr	r3, [pc, #64]	; (81134 <prvUnlockQueue+0x84>)
   810f4:	4798      	blx	r3
	{
		while( pxQueue->xRxLock > queueLOCKED_UNMODIFIED )
   810f6:	6c63      	ldr	r3, [r4, #68]	; 0x44
   810f8:	2b00      	cmp	r3, #0
   810fa:	dd14      	ble.n	81126 <prvUnlockQueue+0x76>
		{
			if( listLIST_IS_EMPTY( &( pxQueue->xTasksWaitingToSend ) ) == pdFALSE )
   810fc:	6923      	ldr	r3, [r4, #16]
   810fe:	b193      	cbz	r3, 81126 <prvUnlockQueue+0x76>
			{
				if( xTaskRemoveFromEventList( &( pxQueue->xTasksWaitingToSend ) ) != pdFALSE )
   81100:	f104 0610 	add.w	r6, r4, #16
   81104:	4d0c      	ldr	r5, [pc, #48]	; (81138 <prvUnlockQueue+0x88>)
				{
					vTaskMissedYield();
   81106:	4f0d      	ldr	r7, [pc, #52]	; (8113c <prvUnlockQueue+0x8c>)
   81108:	e007      	b.n	8111a <prvUnlockQueue+0x6a>
				}

				--( pxQueue->xRxLock );
   8110a:	6c63      	ldr	r3, [r4, #68]	; 0x44
   8110c:	3b01      	subs	r3, #1
   8110e:	6463      	str	r3, [r4, #68]	; 0x44
		while( pxQueue->xRxLock > queueLOCKED_UNMODIFIED )
   81110:	6c63      	ldr	r3, [r4, #68]	; 0x44
   81112:	2b00      	cmp	r3, #0
   81114:	dd07      	ble.n	81126 <prvUnlockQueue+0x76>
			if( listLIST_IS_EMPTY( &( pxQueue->xTasksWaitingToSend ) ) == pdFALSE )
   81116:	6923      	ldr	r3, [r4, #16]
   81118:	b12b      	cbz	r3, 81126 <prvUnlockQueue+0x76>
				if( xTaskRemoveFromEventList( &( pxQueue->xTasksWaitingToSend ) ) != pdFALSE )
   8111a:	4630      	mov	r0, r6
   8111c:	47a8      	blx	r5
   8111e:	2800      	cmp	r0, #0
   81120:	d0f3      	beq.n	8110a <prvUnlockQueue+0x5a>
					vTaskMissedYield();
   81122:	47b8      	blx	r7
   81124:	e7f1      	b.n	8110a <prvUnlockQueue+0x5a>
			{
				break;
			}
		}

		pxQueue->xRxLock = queueUNLOCKED;
   81126:	f04f 33ff 	mov.w	r3, #4294967295
   8112a:	6463      	str	r3, [r4, #68]	; 0x44
	}
	taskEXIT_CRITICAL();
   8112c:	4b04      	ldr	r3, [pc, #16]	; (81140 <prvUnlockQueue+0x90>)
   8112e:	4798      	blx	r3
   81130:	bdf8      	pop	{r3, r4, r5, r6, r7, pc}
   81132:	bf00      	nop
   81134:	00080dcd 	.word	0x00080dcd
   81138:	00081c91 	.word	0x00081c91
   8113c:	00081dc1 	.word	0x00081dc1
   81140:	00080ded 	.word	0x00080ded

00081144 <xQueueGenericReset>:
{
   81144:	b538      	push	{r3, r4, r5, lr}
	configASSERT( pxQueue );
   81146:	b308      	cbz	r0, 8118c <xQueueGenericReset+0x48>
   81148:	460d      	mov	r5, r1
   8114a:	4604      	mov	r4, r0
	taskENTER_CRITICAL();
   8114c:	4b17      	ldr	r3, [pc, #92]	; (811ac <xQueueGenericReset+0x68>)
   8114e:	4798      	blx	r3
		pxQueue->pcTail = pxQueue->pcHead + ( pxQueue->uxLength * pxQueue->uxItemSize );
   81150:	6822      	ldr	r2, [r4, #0]
   81152:	6c21      	ldr	r1, [r4, #64]	; 0x40
   81154:	6be3      	ldr	r3, [r4, #60]	; 0x3c
   81156:	fb03 f301 	mul.w	r3, r3, r1
   8115a:	18d0      	adds	r0, r2, r3
   8115c:	6060      	str	r0, [r4, #4]
		pxQueue->uxMessagesWaiting = ( unsigned portBASE_TYPE ) 0U;
   8115e:	2000      	movs	r0, #0
   81160:	63a0      	str	r0, [r4, #56]	; 0x38
		pxQueue->pcWriteTo = pxQueue->pcHead;
   81162:	60a2      	str	r2, [r4, #8]
		pxQueue->pcReadFrom = pxQueue->pcHead + ( ( pxQueue->uxLength - ( unsigned portBASE_TYPE ) 1U ) * pxQueue->uxItemSize );
   81164:	1a5b      	subs	r3, r3, r1
   81166:	4413      	add	r3, r2
   81168:	60e3      	str	r3, [r4, #12]
		pxQueue->xRxLock = queueUNLOCKED;
   8116a:	f04f 33ff 	mov.w	r3, #4294967295
   8116e:	6463      	str	r3, [r4, #68]	; 0x44
		pxQueue->xTxLock = queueUNLOCKED;
   81170:	64a3      	str	r3, [r4, #72]	; 0x48
		if( xNewQueue == pdFALSE )
   81172:	b995      	cbnz	r5, 8119a <xQueueGenericReset+0x56>
			if( listLIST_IS_EMPTY( &( pxQueue->xTasksWaitingToSend ) ) == pdFALSE )
   81174:	6923      	ldr	r3, [r4, #16]
   81176:	b12b      	cbz	r3, 81184 <xQueueGenericReset+0x40>
				if( xTaskRemoveFromEventList( &( pxQueue->xTasksWaitingToSend ) ) == pdTRUE )
   81178:	f104 0010 	add.w	r0, r4, #16
   8117c:	4b0c      	ldr	r3, [pc, #48]	; (811b0 <xQueueGenericReset+0x6c>)
   8117e:	4798      	blx	r3
   81180:	2801      	cmp	r0, #1
   81182:	d007      	beq.n	81194 <xQueueGenericReset+0x50>
	taskEXIT_CRITICAL();
   81184:	4b0b      	ldr	r3, [pc, #44]	; (811b4 <xQueueGenericReset+0x70>)
   81186:	4798      	blx	r3
}
   81188:	2001      	movs	r0, #1
   8118a:	bd38      	pop	{r3, r4, r5, pc}
	configASSERT( pxQueue );
   8118c:	4b0a      	ldr	r3, [pc, #40]	; (811b8 <xQueueGenericReset+0x74>)
   8118e:	4798      	blx	r3
   81190:	bf00      	nop
   81192:	e7fd      	b.n	81190 <xQueueGenericReset+0x4c>
					portYIELD_WITHIN_API();
   81194:	4b09      	ldr	r3, [pc, #36]	; (811bc <xQueueGenericReset+0x78>)
   81196:	4798      	blx	r3
   81198:	e7f4      	b.n	81184 <xQueueGenericReset+0x40>
			vListInitialise( &( pxQueue->xTasksWaitingToSend ) );
   8119a:	f104 0010 	add.w	r0, r4, #16
   8119e:	4d08      	ldr	r5, [pc, #32]	; (811c0 <xQueueGenericReset+0x7c>)
   811a0:	47a8      	blx	r5
			vListInitialise( &( pxQueue->xTasksWaitingToReceive ) );
   811a2:	f104 0024 	add.w	r0, r4, #36	; 0x24
   811a6:	47a8      	blx	r5
   811a8:	e7ec      	b.n	81184 <xQueueGenericReset+0x40>
   811aa:	bf00      	nop
   811ac:	00080dcd 	.word	0x00080dcd
   811b0:	00081c91 	.word	0x00081c91
   811b4:	00080ded 	.word	0x00080ded
   811b8:	00080dbd 	.word	0x00080dbd
   811bc:	00080dad 	.word	0x00080dad
   811c0:	00080cc5 	.word	0x00080cc5

000811c4 <xQueueGenericCreate>:
{
   811c4:	b5f8      	push	{r3, r4, r5, r6, r7, lr}
	if( uxQueueLength > ( unsigned portBASE_TYPE ) 0 )
   811c6:	b1d8      	cbz	r0, 81200 <xQueueGenericCreate+0x3c>
   811c8:	460d      	mov	r5, r1
   811ca:	4617      	mov	r7, r2
   811cc:	4606      	mov	r6, r0
		pxNewQueue = ( xQUEUE * ) pvPortMalloc( sizeof( xQUEUE ) );
   811ce:	2050      	movs	r0, #80	; 0x50
   811d0:	4b0d      	ldr	r3, [pc, #52]	; (81208 <xQueueGenericCreate+0x44>)
   811d2:	4798      	blx	r3
		if( pxNewQueue != NULL )
   811d4:	4604      	mov	r4, r0
   811d6:	b198      	cbz	r0, 81200 <xQueueGenericCreate+0x3c>
			xQueueSizeInBytes = ( size_t ) ( uxQueueLength * uxItemSize ) + ( size_t ) 1;
   811d8:	fb05 f006 	mul.w	r0, r5, r6
			pxNewQueue->pcHead = ( signed char * ) pvPortMalloc( xQueueSizeInBytes );
   811dc:	3001      	adds	r0, #1
   811de:	4b0a      	ldr	r3, [pc, #40]	; (81208 <xQueueGenericCreate+0x44>)
   811e0:	4798      	blx	r3
   811e2:	6020      	str	r0, [r4, #0]
			if( pxNewQueue->pcHead != NULL )
   811e4:	b148      	cbz	r0, 811fa <xQueueGenericCreate+0x36>
				pxNewQueue->uxLength = uxQueueLength;
   811e6:	63e6      	str	r6, [r4, #60]	; 0x3c
				pxNewQueue->uxItemSize = uxItemSize;
   811e8:	6425      	str	r5, [r4, #64]	; 0x40
				xQueueGenericReset( pxNewQueue, pdTRUE );
   811ea:	2101      	movs	r1, #1
   811ec:	4620      	mov	r0, r4
   811ee:	4b07      	ldr	r3, [pc, #28]	; (8120c <xQueueGenericCreate+0x48>)
   811f0:	4798      	blx	r3
					pxNewQueue->ucQueueType = ucQueueType;
   811f2:	f884 704d 	strb.w	r7, [r4, #77]	; 0x4d
}
   811f6:	4620      	mov	r0, r4
   811f8:	bdf8      	pop	{r3, r4, r5, r6, r7, pc}
				vPortFree( pxNewQueue );
   811fa:	4620      	mov	r0, r4
   811fc:	4b04      	ldr	r3, [pc, #16]	; (81210 <xQueueGenericCreate+0x4c>)
   811fe:	4798      	blx	r3
	configASSERT( xReturn );
   81200:	4b04      	ldr	r3, [pc, #16]	; (81214 <xQueueGenericCreate+0x50>)
   81202:	4798      	blx	r3
   81204:	bf00      	nop
   81206:	e7fd      	b.n	81204 <xQueueGenericCreate+0x40>
   81208:	00080f1d 	.word	0x00080f1d
   8120c:	00081145 	.word	0x00081145
   81210:	00080fe9 	.word	0x00080fe9
   81214:	00080dbd 	.word	0x00080dbd

00081218 <xQueueGenericSend>:
{
   81218:	e92d 4ff0 	stmdb	sp!, {r4, r5, r6, r7, r8, r9, sl, fp, lr}
   8121c:	b085      	sub	sp, #20
   8121e:	9201      	str	r2, [sp, #4]
	configASSERT( pxQueue );
   81220:	b148      	cbz	r0, 81236 <xQueueGenericSend+0x1e>
   81222:	4688      	mov	r8, r1
   81224:	4699      	mov	r9, r3
   81226:	4604      	mov	r4, r0
	configASSERT( !( ( pvItemToQueue == NULL ) && ( pxQueue->uxItemSize != ( unsigned portBASE_TYPE ) 0U ) ) );
   81228:	b149      	cbz	r1, 8123e <xQueueGenericSend+0x26>
   8122a:	2700      	movs	r7, #0
		taskENTER_CRITICAL();
   8122c:	4e38      	ldr	r6, [pc, #224]	; (81310 <xQueueGenericSend+0xf8>)
					vTaskSetTimeOutState( &xTimeOut );
   8122e:	f8df a10c 	ldr.w	sl, [pc, #268]	; 8133c <xQueueGenericSend+0x124>
		taskEXIT_CRITICAL();
   81232:	4d38      	ldr	r5, [pc, #224]	; (81314 <xQueueGenericSend+0xfc>)
   81234:	e02e      	b.n	81294 <xQueueGenericSend+0x7c>
	configASSERT( pxQueue );
   81236:	4b38      	ldr	r3, [pc, #224]	; (81318 <xQueueGenericSend+0x100>)
   81238:	4798      	blx	r3
   8123a:	bf00      	nop
   8123c:	e7fd      	b.n	8123a <xQueueGenericSend+0x22>
	configASSERT( !( ( pvItemToQueue == NULL ) && ( pxQueue->uxItemSize != ( unsigned portBASE_TYPE ) 0U ) ) );
   8123e:	6c03      	ldr	r3, [r0, #64]	; 0x40
   81240:	b11b      	cbz	r3, 8124a <xQueueGenericSend+0x32>
   81242:	4b35      	ldr	r3, [pc, #212]	; (81318 <xQueueGenericSend+0x100>)
   81244:	4798      	blx	r3
   81246:	bf00      	nop
   81248:	e7fd      	b.n	81246 <xQueueGenericSend+0x2e>
   8124a:	2700      	movs	r7, #0
   8124c:	e7ee      	b.n	8122c <xQueueGenericSend+0x14>
				prvCopyDataToQueue( pxQueue, pvItemToQueue, xCopyPosition );
   8124e:	464a      	mov	r2, r9
   81250:	4641      	mov	r1, r8
   81252:	4620      	mov	r0, r4
   81254:	4b31      	ldr	r3, [pc, #196]	; (8131c <xQueueGenericSend+0x104>)
   81256:	4798      	blx	r3
				if( listLIST_IS_EMPTY( &( pxQueue->xTasksWaitingToReceive ) ) == pdFALSE )
   81258:	6a63      	ldr	r3, [r4, #36]	; 0x24
   8125a:	b92b      	cbnz	r3, 81268 <xQueueGenericSend+0x50>
				taskEXIT_CRITICAL();
   8125c:	4b2d      	ldr	r3, [pc, #180]	; (81314 <xQueueGenericSend+0xfc>)
   8125e:	4798      	blx	r3
				return pdPASS;
   81260:	2001      	movs	r0, #1
}
   81262:	b005      	add	sp, #20
   81264:	e8bd 8ff0 	ldmia.w	sp!, {r4, r5, r6, r7, r8, r9, sl, fp, pc}
					if( xTaskRemoveFromEventList( &( pxQueue->xTasksWaitingToReceive ) ) == pdTRUE )
   81268:	f104 0024 	add.w	r0, r4, #36	; 0x24
   8126c:	4b2c      	ldr	r3, [pc, #176]	; (81320 <xQueueGenericSend+0x108>)
   8126e:	4798      	blx	r3
   81270:	2801      	cmp	r0, #1
   81272:	d1f3      	bne.n	8125c <xQueueGenericSend+0x44>
						portYIELD_WITHIN_API();
   81274:	4b2b      	ldr	r3, [pc, #172]	; (81324 <xQueueGenericSend+0x10c>)
   81276:	4798      	blx	r3
   81278:	e7f0      	b.n	8125c <xQueueGenericSend+0x44>
					taskEXIT_CRITICAL();
   8127a:	4b26      	ldr	r3, [pc, #152]	; (81314 <xQueueGenericSend+0xfc>)
   8127c:	4798      	blx	r3
					return errQUEUE_FULL;
   8127e:	2000      	movs	r0, #0
   81280:	e7ef      	b.n	81262 <xQueueGenericSend+0x4a>
					vTaskSetTimeOutState( &xTimeOut );
   81282:	a802      	add	r0, sp, #8
   81284:	47d0      	blx	sl
   81286:	e00f      	b.n	812a8 <xQueueGenericSend+0x90>
				prvUnlockQueue( pxQueue );
   81288:	4620      	mov	r0, r4
   8128a:	4b27      	ldr	r3, [pc, #156]	; (81328 <xQueueGenericSend+0x110>)
   8128c:	4798      	blx	r3
				( void ) xTaskResumeAll();
   8128e:	4b27      	ldr	r3, [pc, #156]	; (8132c <xQueueGenericSend+0x114>)
   81290:	4798      	blx	r3
   81292:	2701      	movs	r7, #1
		taskENTER_CRITICAL();
   81294:	47b0      	blx	r6
			if( pxQueue->uxMessagesWaiting < pxQueue->uxLength )
   81296:	6ba2      	ldr	r2, [r4, #56]	; 0x38
   81298:	6be3      	ldr	r3, [r4, #60]	; 0x3c
   8129a:	429a      	cmp	r2, r3
   8129c:	d3d7      	bcc.n	8124e <xQueueGenericSend+0x36>
				if( xTicksToWait == ( portTickType ) 0 )
   8129e:	9b01      	ldr	r3, [sp, #4]
   812a0:	2b00      	cmp	r3, #0
   812a2:	d0ea      	beq.n	8127a <xQueueGenericSend+0x62>
				else if( xEntryTimeSet == pdFALSE )
   812a4:	2f00      	cmp	r7, #0
   812a6:	d0ec      	beq.n	81282 <xQueueGenericSend+0x6a>
		taskEXIT_CRITICAL();
   812a8:	47a8      	blx	r5
		vTaskSuspendAll();
   812aa:	4b21      	ldr	r3, [pc, #132]	; (81330 <xQueueGenericSend+0x118>)
   812ac:	4798      	blx	r3
		prvLockQueue( pxQueue );
   812ae:	47b0      	blx	r6
   812b0:	6c63      	ldr	r3, [r4, #68]	; 0x44
   812b2:	f1b3 3fff 	cmp.w	r3, #4294967295
   812b6:	bf04      	itt	eq
   812b8:	2300      	moveq	r3, #0
   812ba:	6463      	streq	r3, [r4, #68]	; 0x44
   812bc:	6ca3      	ldr	r3, [r4, #72]	; 0x48
   812be:	f1b3 3fff 	cmp.w	r3, #4294967295
   812c2:	bf04      	itt	eq
   812c4:	2300      	moveq	r3, #0
   812c6:	64a3      	streq	r3, [r4, #72]	; 0x48
   812c8:	47a8      	blx	r5
		if( xTaskCheckForTimeOut( &xTimeOut, &xTicksToWait ) == pdFALSE )
   812ca:	a901      	add	r1, sp, #4
   812cc:	a802      	add	r0, sp, #8
   812ce:	4b19      	ldr	r3, [pc, #100]	; (81334 <xQueueGenericSend+0x11c>)
   812d0:	4798      	blx	r3
   812d2:	b9a8      	cbnz	r0, 81300 <xQueueGenericSend+0xe8>

static signed portBASE_TYPE prvIsQueueFull( const xQueueHandle pxQueue )
{
signed portBASE_TYPE xReturn;

	taskENTER_CRITICAL();
   812d4:	47b0      	blx	r6
		xReturn = ( pxQueue->uxMessagesWaiting == pxQueue->uxLength );
   812d6:	f8d4 b038 	ldr.w	fp, [r4, #56]	; 0x38
   812da:	6be7      	ldr	r7, [r4, #60]	; 0x3c
	taskEXIT_CRITICAL();
   812dc:	47a8      	blx	r5
			if( prvIsQueueFull( pxQueue ) != pdFALSE )
   812de:	45bb      	cmp	fp, r7
   812e0:	d1d2      	bne.n	81288 <xQueueGenericSend+0x70>
				vTaskPlaceOnEventList( &( pxQueue->xTasksWaitingToSend ), xTicksToWait );
   812e2:	9901      	ldr	r1, [sp, #4]
   812e4:	f104 0010 	add.w	r0, r4, #16
   812e8:	4b13      	ldr	r3, [pc, #76]	; (81338 <xQueueGenericSend+0x120>)
   812ea:	4798      	blx	r3
				prvUnlockQueue( pxQueue );
   812ec:	4620      	mov	r0, r4
   812ee:	4b0e      	ldr	r3, [pc, #56]	; (81328 <xQueueGenericSend+0x110>)
   812f0:	4798      	blx	r3
				if( xTaskResumeAll() == pdFALSE )
   812f2:	4b0e      	ldr	r3, [pc, #56]	; (8132c <xQueueGenericSend+0x114>)
   812f4:	4798      	blx	r3
   812f6:	2800      	cmp	r0, #0
   812f8:	d1cb      	bne.n	81292 <xQueueGenericSend+0x7a>
					portYIELD_WITHIN_API();
   812fa:	4b0a      	ldr	r3, [pc, #40]	; (81324 <xQueueGenericSend+0x10c>)
   812fc:	4798      	blx	r3
   812fe:	e7c8      	b.n	81292 <xQueueGenericSend+0x7a>
			prvUnlockQueue( pxQueue );
   81300:	4620      	mov	r0, r4
   81302:	4b09      	ldr	r3, [pc, #36]	; (81328 <xQueueGenericSend+0x110>)
   81304:	4798      	blx	r3
			( void ) xTaskResumeAll();
   81306:	4b09      	ldr	r3, [pc, #36]	; (8132c <xQueueGenericSend+0x114>)
   81308:	4798      	blx	r3
			return errQUEUE_FULL;
   8130a:	2000      	movs	r0, #0
   8130c:	e7a9      	b.n	81262 <xQueueGenericSend+0x4a>
   8130e:	bf00      	nop
   81310:	00080dcd 	.word	0x00080dcd
   81314:	00080ded 	.word	0x00080ded
   81318:	00080dbd 	.word	0x00080dbd
   8131c:	00081021 	.word	0x00081021
   81320:	00081c91 	.word	0x00081c91
   81324:	00080dad 	.word	0x00080dad
   81328:	000810b1 	.word	0x000810b1
   8132c:	000819c5 	.word	0x000819c5
   81330:	0008184d 	.word	0x0008184d
   81334:	00081d3d 	.word	0x00081d3d
   81338:	00081bed 	.word	0x00081bed
   8133c:	00081d15 	.word	0x00081d15

00081340 <xQueueGenericSendFromISR>:
{
   81340:	e92d 41f0 	stmdb	sp!, {r4, r5, r6, r7, r8, lr}
	configASSERT( pxQueue );
   81344:	b190      	cbz	r0, 8136c <xQueueGenericSendFromISR+0x2c>
   81346:	460e      	mov	r6, r1
   81348:	4615      	mov	r5, r2
   8134a:	4698      	mov	r8, r3
   8134c:	4604      	mov	r4, r0
	configASSERT( !( ( pvItemToQueue == NULL ) && ( pxQueue->uxItemSize != ( unsigned portBASE_TYPE ) 0U ) ) );
   8134e:	b189      	cbz	r1, 81374 <xQueueGenericSendFromISR+0x34>
	uxSavedInterruptStatus = portSET_INTERRUPT_MASK_FROM_ISR();
   81350:	4b1b      	ldr	r3, [pc, #108]	; (813c0 <xQueueGenericSendFromISR+0x80>)
   81352:	4798      	blx	r3
   81354:	4607      	mov	r7, r0
		if( pxQueue->uxMessagesWaiting < pxQueue->uxLength )
   81356:	6ba2      	ldr	r2, [r4, #56]	; 0x38
   81358:	6be3      	ldr	r3, [r4, #60]	; 0x3c
   8135a:	429a      	cmp	r2, r3
   8135c:	d311      	bcc.n	81382 <xQueueGenericSendFromISR+0x42>
			xReturn = errQUEUE_FULL;
   8135e:	2400      	movs	r4, #0
	portCLEAR_INTERRUPT_MASK_FROM_ISR( uxSavedInterruptStatus );
   81360:	4638      	mov	r0, r7
   81362:	4b18      	ldr	r3, [pc, #96]	; (813c4 <xQueueGenericSendFromISR+0x84>)
   81364:	4798      	blx	r3
}
   81366:	4620      	mov	r0, r4
   81368:	e8bd 81f0 	ldmia.w	sp!, {r4, r5, r6, r7, r8, pc}
	configASSERT( pxQueue );
   8136c:	4b14      	ldr	r3, [pc, #80]	; (813c0 <xQueueGenericSendFromISR+0x80>)
   8136e:	4798      	blx	r3
   81370:	bf00      	nop
   81372:	e7fd      	b.n	81370 <xQueueGenericSendFromISR+0x30>
	configASSERT( !( ( pvItemToQueue == NULL ) && ( pxQueue->uxItemSize != ( unsigned portBASE_TYPE ) 0U ) ) );
   81374:	6c03      	ldr	r3, [r0, #64]	; 0x40
   81376:	2b00      	cmp	r3, #0
   81378:	d0ea      	beq.n	81350 <xQueueGenericSendFromISR+0x10>
   8137a:	4b11      	ldr	r3, [pc, #68]	; (813c0 <xQueueGenericSendFromISR+0x80>)
   8137c:	4798      	blx	r3
   8137e:	bf00      	nop
   81380:	e7fd      	b.n	8137e <xQueueGenericSendFromISR+0x3e>
			prvCopyDataToQueue( pxQueue, pvItemToQueue, xCopyPosition );
   81382:	4642      	mov	r2, r8
   81384:	4631      	mov	r1, r6
   81386:	4620      	mov	r0, r4
   81388:	4b0f      	ldr	r3, [pc, #60]	; (813c8 <xQueueGenericSendFromISR+0x88>)
   8138a:	4798      	blx	r3
			if( pxQueue->xTxLock == queueUNLOCKED )
   8138c:	6ca3      	ldr	r3, [r4, #72]	; 0x48
   8138e:	f1b3 3fff 	cmp.w	r3, #4294967295
   81392:	d10a      	bne.n	813aa <xQueueGenericSendFromISR+0x6a>
				if( listLIST_IS_EMPTY( &( pxQueue->xTasksWaitingToReceive ) ) == pdFALSE )
   81394:	6a63      	ldr	r3, [r4, #36]	; 0x24
   81396:	b16b      	cbz	r3, 813b4 <xQueueGenericSendFromISR+0x74>
					if( xTaskRemoveFromEventList( &( pxQueue->xTasksWaitingToReceive ) ) != pdFALSE )
   81398:	f104 0024 	add.w	r0, r4, #36	; 0x24
   8139c:	4b0b      	ldr	r3, [pc, #44]	; (813cc <xQueueGenericSendFromISR+0x8c>)
   8139e:	4798      	blx	r3
   813a0:	b150      	cbz	r0, 813b8 <xQueueGenericSendFromISR+0x78>
						if( pxHigherPriorityTaskWoken != NULL )
   813a2:	b15d      	cbz	r5, 813bc <xQueueGenericSendFromISR+0x7c>
							*pxHigherPriorityTaskWoken = pdTRUE;
   813a4:	2401      	movs	r4, #1
   813a6:	602c      	str	r4, [r5, #0]
   813a8:	e7da      	b.n	81360 <xQueueGenericSendFromISR+0x20>
				++( pxQueue->xTxLock );
   813aa:	6ca3      	ldr	r3, [r4, #72]	; 0x48
   813ac:	3301      	adds	r3, #1
   813ae:	64a3      	str	r3, [r4, #72]	; 0x48
			xReturn = pdPASS;
   813b0:	2401      	movs	r4, #1
   813b2:	e7d5      	b.n	81360 <xQueueGenericSendFromISR+0x20>
   813b4:	2401      	movs	r4, #1
   813b6:	e7d3      	b.n	81360 <xQueueGenericSendFromISR+0x20>
   813b8:	2401      	movs	r4, #1
   813ba:	e7d1      	b.n	81360 <xQueueGenericSendFromISR+0x20>
   813bc:	2401      	movs	r4, #1
   813be:	e7cf      	b.n	81360 <xQueueGenericSendFromISR+0x20>
   813c0:	00080dbd 	.word	0x00080dbd
   813c4:	00080de5 	.word	0x00080de5
   813c8:	00081021 	.word	0x00081021
   813cc:	00081c91 	.word	0x00081c91

000813d0 <xQueueGenericReceive>:
{
   813d0:	e92d 47f0 	stmdb	sp!, {r4, r5, r6, r7, r8, r9, sl, lr}
   813d4:	b084      	sub	sp, #16
   813d6:	9201      	str	r2, [sp, #4]
	configASSERT( pxQueue );
   813d8:	b148      	cbz	r0, 813ee <xQueueGenericReceive+0x1e>
   813da:	4688      	mov	r8, r1
   813dc:	4699      	mov	r9, r3
   813de:	4604      	mov	r4, r0
	configASSERT( !( ( pvBuffer == NULL ) && ( pxQueue->uxItemSize != ( unsigned portBASE_TYPE ) 0U ) ) );
   813e0:	b149      	cbz	r1, 813f6 <xQueueGenericReceive+0x26>
   813e2:	2700      	movs	r7, #0
		taskENTER_CRITICAL();
   813e4:	4e46      	ldr	r6, [pc, #280]	; (81500 <xQueueGenericReceive+0x130>)
					vTaskSetTimeOutState( &xTimeOut );
   813e6:	f8df a14c 	ldr.w	sl, [pc, #332]	; 81534 <xQueueGenericReceive+0x164>
		taskEXIT_CRITICAL();
   813ea:	4d46      	ldr	r5, [pc, #280]	; (81504 <xQueueGenericReceive+0x134>)
   813ec:	e04b      	b.n	81486 <xQueueGenericReceive+0xb6>
	configASSERT( pxQueue );
   813ee:	4b46      	ldr	r3, [pc, #280]	; (81508 <xQueueGenericReceive+0x138>)
   813f0:	4798      	blx	r3
   813f2:	bf00      	nop
   813f4:	e7fd      	b.n	813f2 <xQueueGenericReceive+0x22>
	configASSERT( !( ( pvBuffer == NULL ) && ( pxQueue->uxItemSize != ( unsigned portBASE_TYPE ) 0U ) ) );
   813f6:	6c03      	ldr	r3, [r0, #64]	; 0x40
   813f8:	b11b      	cbz	r3, 81402 <xQueueGenericReceive+0x32>
   813fa:	4b43      	ldr	r3, [pc, #268]	; (81508 <xQueueGenericReceive+0x138>)
   813fc:	4798      	blx	r3
   813fe:	bf00      	nop
   81400:	e7fd      	b.n	813fe <xQueueGenericReceive+0x2e>
   81402:	2700      	movs	r7, #0
   81404:	e7ee      	b.n	813e4 <xQueueGenericReceive+0x14>
				pcOriginalReadPosition = pxQueue->pcReadFrom;
   81406:	68e5      	ldr	r5, [r4, #12]
				prvCopyDataFromQueue( pxQueue, pvBuffer );
   81408:	4641      	mov	r1, r8
   8140a:	4620      	mov	r0, r4
   8140c:	4b3f      	ldr	r3, [pc, #252]	; (8150c <xQueueGenericReceive+0x13c>)
   8140e:	4798      	blx	r3
				if( xJustPeeking == pdFALSE )
   81410:	f1b9 0f00 	cmp.w	r9, #0
   81414:	d117      	bne.n	81446 <xQueueGenericReceive+0x76>
					--( pxQueue->uxMessagesWaiting );
   81416:	6ba3      	ldr	r3, [r4, #56]	; 0x38
   81418:	3b01      	subs	r3, #1
   8141a:	63a3      	str	r3, [r4, #56]	; 0x38
						if( pxQueue->uxQueueType == queueQUEUE_IS_MUTEX )
   8141c:	6823      	ldr	r3, [r4, #0]
   8141e:	b913      	cbnz	r3, 81426 <xQueueGenericReceive+0x56>
							pxQueue->pxMutexHolder = xTaskGetCurrentTaskHandle();
   81420:	4b3b      	ldr	r3, [pc, #236]	; (81510 <xQueueGenericReceive+0x140>)
   81422:	4798      	blx	r3
   81424:	6060      	str	r0, [r4, #4]
					if( listLIST_IS_EMPTY( &( pxQueue->xTasksWaitingToSend ) ) == pdFALSE )
   81426:	6923      	ldr	r3, [r4, #16]
   81428:	b13b      	cbz	r3, 8143a <xQueueGenericReceive+0x6a>
						if( xTaskRemoveFromEventList( &( pxQueue->xTasksWaitingToSend ) ) == pdTRUE )
   8142a:	f104 0010 	add.w	r0, r4, #16
   8142e:	4b39      	ldr	r3, [pc, #228]	; (81514 <xQueueGenericReceive+0x144>)
   81430:	4798      	blx	r3
   81432:	2801      	cmp	r0, #1
   81434:	d101      	bne.n	8143a <xQueueGenericReceive+0x6a>
							portYIELD_WITHIN_API();
   81436:	4b38      	ldr	r3, [pc, #224]	; (81518 <xQueueGenericReceive+0x148>)
   81438:	4798      	blx	r3
				taskEXIT_CRITICAL();
   8143a:	4b32      	ldr	r3, [pc, #200]	; (81504 <xQueueGenericReceive+0x134>)
   8143c:	4798      	blx	r3
				return pdPASS;
   8143e:	2001      	movs	r0, #1
}
   81440:	b004      	add	sp, #16
   81442:	e8bd 87f0 	ldmia.w	sp!, {r4, r5, r6, r7, r8, r9, sl, pc}
					pxQueue->pcReadFrom = pcOriginalReadPosition;
   81446:	60e5      	str	r5, [r4, #12]
					if( listLIST_IS_EMPTY( &( pxQueue->xTasksWaitingToReceive ) ) == pdFALSE )
   81448:	6a63      	ldr	r3, [r4, #36]	; 0x24
   8144a:	2b00      	cmp	r3, #0
   8144c:	d0f5      	beq.n	8143a <xQueueGenericReceive+0x6a>
						if( xTaskRemoveFromEventList( &( pxQueue->xTasksWaitingToReceive ) ) != pdFALSE )
   8144e:	f104 0024 	add.w	r0, r4, #36	; 0x24
   81452:	4b30      	ldr	r3, [pc, #192]	; (81514 <xQueueGenericReceive+0x144>)
   81454:	4798      	blx	r3
   81456:	2800      	cmp	r0, #0
   81458:	d0ef      	beq.n	8143a <xQueueGenericReceive+0x6a>
							portYIELD_WITHIN_API();
   8145a:	4b2f      	ldr	r3, [pc, #188]	; (81518 <xQueueGenericReceive+0x148>)
   8145c:	4798      	blx	r3
   8145e:	e7ec      	b.n	8143a <xQueueGenericReceive+0x6a>
					taskEXIT_CRITICAL();
   81460:	4b28      	ldr	r3, [pc, #160]	; (81504 <xQueueGenericReceive+0x134>)
   81462:	4798      	blx	r3
					return errQUEUE_EMPTY;
   81464:	2000      	movs	r0, #0
   81466:	e7eb      	b.n	81440 <xQueueGenericReceive+0x70>
					vTaskSetTimeOutState( &xTimeOut );
   81468:	a802      	add	r0, sp, #8
   8146a:	47d0      	blx	sl
   8146c:	e014      	b.n	81498 <xQueueGenericReceive+0xc8>
						portENTER_CRITICAL();
   8146e:	47b0      	blx	r6
							vTaskPriorityInherit( ( void * ) pxQueue->pxMutexHolder );
   81470:	6860      	ldr	r0, [r4, #4]
   81472:	4b2a      	ldr	r3, [pc, #168]	; (8151c <xQueueGenericReceive+0x14c>)
   81474:	4798      	blx	r3
						portEXIT_CRITICAL();
   81476:	47a8      	blx	r5
   81478:	e02c      	b.n	814d4 <xQueueGenericReceive+0x104>
				prvUnlockQueue( pxQueue );
   8147a:	4620      	mov	r0, r4
   8147c:	4b28      	ldr	r3, [pc, #160]	; (81520 <xQueueGenericReceive+0x150>)
   8147e:	4798      	blx	r3
				( void ) xTaskResumeAll();
   81480:	4b28      	ldr	r3, [pc, #160]	; (81524 <xQueueGenericReceive+0x154>)
   81482:	4798      	blx	r3
   81484:	2701      	movs	r7, #1
		taskENTER_CRITICAL();
   81486:	47b0      	blx	r6
			if( pxQueue->uxMessagesWaiting > ( unsigned portBASE_TYPE ) 0 )
   81488:	6ba3      	ldr	r3, [r4, #56]	; 0x38
   8148a:	2b00      	cmp	r3, #0
   8148c:	d1bb      	bne.n	81406 <xQueueGenericReceive+0x36>
				if( xTicksToWait == ( portTickType ) 0 )
   8148e:	9b01      	ldr	r3, [sp, #4]
   81490:	2b00      	cmp	r3, #0
   81492:	d0e5      	beq.n	81460 <xQueueGenericReceive+0x90>
				else if( xEntryTimeSet == pdFALSE )
   81494:	2f00      	cmp	r7, #0
   81496:	d0e7      	beq.n	81468 <xQueueGenericReceive+0x98>
		taskEXIT_CRITICAL();
   81498:	47a8      	blx	r5
		vTaskSuspendAll();
   8149a:	4b23      	ldr	r3, [pc, #140]	; (81528 <xQueueGenericReceive+0x158>)
   8149c:	4798      	blx	r3
		prvLockQueue( pxQueue );
   8149e:	47b0      	blx	r6
   814a0:	6c63      	ldr	r3, [r4, #68]	; 0x44
   814a2:	f1b3 3fff 	cmp.w	r3, #4294967295
   814a6:	bf04      	itt	eq
   814a8:	2300      	moveq	r3, #0
   814aa:	6463      	streq	r3, [r4, #68]	; 0x44
   814ac:	6ca3      	ldr	r3, [r4, #72]	; 0x48
   814ae:	f1b3 3fff 	cmp.w	r3, #4294967295
   814b2:	bf04      	itt	eq
   814b4:	2300      	moveq	r3, #0
   814b6:	64a3      	streq	r3, [r4, #72]	; 0x48
   814b8:	47a8      	blx	r5
		if( xTaskCheckForTimeOut( &xTimeOut, &xTicksToWait ) == pdFALSE )
   814ba:	a901      	add	r1, sp, #4
   814bc:	a802      	add	r0, sp, #8
   814be:	4b1b      	ldr	r3, [pc, #108]	; (8152c <xQueueGenericReceive+0x15c>)
   814c0:	4798      	blx	r3
   814c2:	b9b0      	cbnz	r0, 814f2 <xQueueGenericReceive+0x122>
	taskENTER_CRITICAL();
   814c4:	47b0      	blx	r6
		xReturn = ( pxQueue->uxMessagesWaiting == ( unsigned portBASE_TYPE ) 0 );
   814c6:	6ba7      	ldr	r7, [r4, #56]	; 0x38
	taskEXIT_CRITICAL();
   814c8:	47a8      	blx	r5
			if( prvIsQueueEmpty( pxQueue ) != pdFALSE )
   814ca:	2f00      	cmp	r7, #0
   814cc:	d1d5      	bne.n	8147a <xQueueGenericReceive+0xaa>
					if( pxQueue->uxQueueType == queueQUEUE_IS_MUTEX )
   814ce:	6823      	ldr	r3, [r4, #0]
   814d0:	2b00      	cmp	r3, #0
   814d2:	d0cc      	beq.n	8146e <xQueueGenericReceive+0x9e>
				vTaskPlaceOnEventList( &( pxQueue->xTasksWaitingToReceive ), xTicksToWait );
   814d4:	9901      	ldr	r1, [sp, #4]
   814d6:	f104 0024 	add.w	r0, r4, #36	; 0x24
   814da:	4b15      	ldr	r3, [pc, #84]	; (81530 <xQueueGenericReceive+0x160>)
   814dc:	4798      	blx	r3
				prvUnlockQueue( pxQueue );
   814de:	4620      	mov	r0, r4
   814e0:	4b0f      	ldr	r3, [pc, #60]	; (81520 <xQueueGenericReceive+0x150>)
   814e2:	4798      	blx	r3
				if( xTaskResumeAll() == pdFALSE )
   814e4:	4b0f      	ldr	r3, [pc, #60]	; (81524 <xQueueGenericReceive+0x154>)
   814e6:	4798      	blx	r3
   814e8:	2800      	cmp	r0, #0
   814ea:	d1cb      	bne.n	81484 <xQueueGenericReceive+0xb4>
					portYIELD_WITHIN_API();
   814ec:	4b0a      	ldr	r3, [pc, #40]	; (81518 <xQueueGenericReceive+0x148>)
   814ee:	4798      	blx	r3
   814f0:	e7c8      	b.n	81484 <xQueueGenericReceive+0xb4>
			prvUnlockQueue( pxQueue );
   814f2:	4620      	mov	r0, r4
   814f4:	4b0a      	ldr	r3, [pc, #40]	; (81520 <xQueueGenericReceive+0x150>)
   814f6:	4798      	blx	r3
			( void ) xTaskResumeAll();
   814f8:	4b0a      	ldr	r3, [pc, #40]	; (81524 <xQueueGenericReceive+0x154>)
   814fa:	4798      	blx	r3
			return errQUEUE_EMPTY;
   814fc:	2000      	movs	r0, #0
   814fe:	e79f      	b.n	81440 <xQueueGenericReceive+0x70>
   81500:	00080dcd 	.word	0x00080dcd
   81504:	00080ded 	.word	0x00080ded
   81508:	00080dbd 	.word	0x00080dbd
   8150c:	00081089 	.word	0x00081089
   81510:	00081dcd 	.word	0x00081dcd
   81514:	00081c91 	.word	0x00081c91
   81518:	00080dad 	.word	0x00080dad
   8151c:	00081df9 	.word	0x00081df9
   81520:	000810b1 	.word	0x000810b1
   81524:	000819c5 	.word	0x000819c5
   81528:	0008184d 	.word	0x0008184d
   8152c:	00081d3d 	.word	0x00081d3d
   81530:	00081bed 	.word	0x00081bed
   81534:	00081d15 	.word	0x00081d15

00081538 <vQueueWaitForMessageRestricted>:
/*-----------------------------------------------------------*/

#if configUSE_TIMERS == 1

	void vQueueWaitForMessageRestricted( xQueueHandle pxQueue, portTickType xTicksToWait )
	{
   81538:	b538      	push	{r3, r4, r5, lr}
   8153a:	4604      	mov	r4, r0
   8153c:	460d      	mov	r5, r1
		will not actually cause the task to block, just place it on a blocked
		list.  It will not block until the scheduler is unlocked - at which
		time a yield will be performed.  If an item is added to the queue while
		the queue is locked, and the calling task blocks on the queue, then the
		calling task will be immediately unblocked when the queue is unlocked. */
		prvLockQueue( pxQueue );
   8153e:	4b0e      	ldr	r3, [pc, #56]	; (81578 <vQueueWaitForMessageRestricted+0x40>)
   81540:	4798      	blx	r3
   81542:	6c63      	ldr	r3, [r4, #68]	; 0x44
   81544:	f1b3 3fff 	cmp.w	r3, #4294967295
   81548:	bf04      	itt	eq
   8154a:	2300      	moveq	r3, #0
   8154c:	6463      	streq	r3, [r4, #68]	; 0x44
   8154e:	6ca3      	ldr	r3, [r4, #72]	; 0x48
   81550:	f1b3 3fff 	cmp.w	r3, #4294967295
   81554:	bf04      	itt	eq
   81556:	2300      	moveq	r3, #0
   81558:	64a3      	streq	r3, [r4, #72]	; 0x48
   8155a:	4b08      	ldr	r3, [pc, #32]	; (8157c <vQueueWaitForMessageRestricted+0x44>)
   8155c:	4798      	blx	r3
		if( pxQueue->uxMessagesWaiting == ( unsigned portBASE_TYPE ) 0U )
   8155e:	6ba3      	ldr	r3, [r4, #56]	; 0x38
   81560:	b11b      	cbz	r3, 8156a <vQueueWaitForMessageRestricted+0x32>
		{
			/* There is nothing in the queue, block for the specified period. */
			vTaskPlaceOnEventListRestricted( &( pxQueue->xTasksWaitingToReceive ), xTicksToWait );
		}
		prvUnlockQueue( pxQueue );
   81562:	4620      	mov	r0, r4
   81564:	4b06      	ldr	r3, [pc, #24]	; (81580 <vQueueWaitForMessageRestricted+0x48>)
   81566:	4798      	blx	r3
   81568:	bd38      	pop	{r3, r4, r5, pc}
			vTaskPlaceOnEventListRestricted( &( pxQueue->xTasksWaitingToReceive ), xTicksToWait );
   8156a:	4629      	mov	r1, r5
   8156c:	f104 0024 	add.w	r0, r4, #36	; 0x24
   81570:	4b04      	ldr	r3, [pc, #16]	; (81584 <vQueueWaitForMessageRestricted+0x4c>)
   81572:	4798      	blx	r3
   81574:	e7f5      	b.n	81562 <vQueueWaitForMessageRestricted+0x2a>
   81576:	bf00      	nop
   81578:	00080dcd 	.word	0x00080dcd
   8157c:	00080ded 	.word	0x00080ded
   81580:	000810b1 	.word	0x000810b1
   81584:	00081c4d 	.word	0x00081c4d

00081588 <prvAddCurrentTaskToDelayedList>:
	#endif
}
/*-----------------------------------------------------------*/

static void prvAddCurrentTaskToDelayedList( portTickType xTimeToWake )
{
   81588:	b510      	push	{r4, lr}
	/* The list item will be inserted in wake time order. */
	listSET_LIST_ITEM_VALUE( &( pxCurrentTCB->xGenericListItem ), xTimeToWake );
   8158a:	4b0f      	ldr	r3, [pc, #60]	; (815c8 <prvAddCurrentTaskToDelayedList+0x40>)
   8158c:	681b      	ldr	r3, [r3, #0]
   8158e:	6058      	str	r0, [r3, #4]

	if( xTimeToWake < xTickCount )
   81590:	4b0e      	ldr	r3, [pc, #56]	; (815cc <prvAddCurrentTaskToDelayedList+0x44>)
   81592:	681b      	ldr	r3, [r3, #0]
   81594:	4298      	cmp	r0, r3
   81596:	d30e      	bcc.n	815b6 <prvAddCurrentTaskToDelayedList+0x2e>
   81598:	4604      	mov	r4, r0
		vListInsert( ( xList * ) pxOverflowDelayedTaskList, ( xListItem * ) &( pxCurrentTCB->xGenericListItem ) );
	}
	else
	{
		/* The wake time has not overflowed, so we can use the current block list. */
		vListInsert( ( xList * ) pxDelayedTaskList, ( xListItem * ) &( pxCurrentTCB->xGenericListItem ) );
   8159a:	4b0d      	ldr	r3, [pc, #52]	; (815d0 <prvAddCurrentTaskToDelayedList+0x48>)
   8159c:	6818      	ldr	r0, [r3, #0]
   8159e:	4b0a      	ldr	r3, [pc, #40]	; (815c8 <prvAddCurrentTaskToDelayedList+0x40>)
   815a0:	6819      	ldr	r1, [r3, #0]
   815a2:	3104      	adds	r1, #4
   815a4:	4b0b      	ldr	r3, [pc, #44]	; (815d4 <prvAddCurrentTaskToDelayedList+0x4c>)
   815a6:	4798      	blx	r3

		/* If the task entering the blocked state was placed at the head of the
		list of blocked tasks then xNextTaskUnblockTime needs to be updated
		too. */
		if( xTimeToWake < xNextTaskUnblockTime )
   815a8:	4b0b      	ldr	r3, [pc, #44]	; (815d8 <prvAddCurrentTaskToDelayedList+0x50>)
   815aa:	681b      	ldr	r3, [r3, #0]
   815ac:	429c      	cmp	r4, r3
		{
			xNextTaskUnblockTime = xTimeToWake;
   815ae:	bf3c      	itt	cc
   815b0:	4b09      	ldrcc	r3, [pc, #36]	; (815d8 <prvAddCurrentTaskToDelayedList+0x50>)
   815b2:	601c      	strcc	r4, [r3, #0]
   815b4:	bd10      	pop	{r4, pc}
		vListInsert( ( xList * ) pxOverflowDelayedTaskList, ( xListItem * ) &( pxCurrentTCB->xGenericListItem ) );
   815b6:	4b09      	ldr	r3, [pc, #36]	; (815dc <prvAddCurrentTaskToDelayedList+0x54>)
   815b8:	6818      	ldr	r0, [r3, #0]
   815ba:	4b03      	ldr	r3, [pc, #12]	; (815c8 <prvAddCurrentTaskToDelayedList+0x40>)
   815bc:	6819      	ldr	r1, [r3, #0]
   815be:	3104      	adds	r1, #4
   815c0:	4b04      	ldr	r3, [pc, #16]	; (815d4 <prvAddCurrentTaskToDelayedList+0x4c>)
   815c2:	4798      	blx	r3
   815c4:	bd10      	pop	{r4, pc}
   815c6:	bf00      	nop
   815c8:	2007ab20 	.word	0x2007ab20
   815cc:	2007ac1c 	.word	0x2007ac1c
   815d0:	2007ab24 	.word	0x2007ab24
   815d4:	00080cfd 	.word	0x00080cfd
   815d8:	20070134 	.word	0x20070134
   815dc:	2007ab28 	.word	0x2007ab28

000815e0 <xTaskGenericCreate>:
{
   815e0:	e92d 4ff8 	stmdb	sp!, {r3, r4, r5, r6, r7, r8, r9, sl, fp, lr}
   815e4:	9f0a      	ldr	r7, [sp, #40]	; 0x28
   815e6:	f8dd 902c 	ldr.w	r9, [sp, #44]	; 0x2c
   815ea:	9e0c      	ldr	r6, [sp, #48]	; 0x30
	configASSERT( pxTaskCode );
   815ec:	b148      	cbz	r0, 81602 <xTaskGenericCreate+0x22>
   815ee:	4688      	mov	r8, r1
   815f0:	4615      	mov	r5, r2
   815f2:	469b      	mov	fp, r3
   815f4:	4682      	mov	sl, r0
	configASSERT( ( ( uxPriority & ( ~portPRIVILEGE_BIT ) ) < configMAX_PRIORITIES ) );
   815f6:	2f04      	cmp	r7, #4
   815f8:	d907      	bls.n	8160a <xTaskGenericCreate+0x2a>
   815fa:	4b60      	ldr	r3, [pc, #384]	; (8177c <xTaskGenericCreate+0x19c>)
   815fc:	4798      	blx	r3
   815fe:	bf00      	nop
   81600:	e7fd      	b.n	815fe <xTaskGenericCreate+0x1e>
	configASSERT( pxTaskCode );
   81602:	4b5e      	ldr	r3, [pc, #376]	; (8177c <xTaskGenericCreate+0x19c>)
   81604:	4798      	blx	r3
   81606:	bf00      	nop
   81608:	e7fd      	b.n	81606 <xTaskGenericCreate+0x26>
{
tskTCB *pxNewTCB;

	/* Allocate space for the TCB.  Where the memory comes from depends on
	the implementation of the port malloc function. */
	pxNewTCB = ( tskTCB * ) pvPortMalloc( sizeof( tskTCB ) );
   8160a:	204c      	movs	r0, #76	; 0x4c
   8160c:	4b5c      	ldr	r3, [pc, #368]	; (81780 <xTaskGenericCreate+0x1a0>)
   8160e:	4798      	blx	r3

	if( pxNewTCB != NULL )
   81610:	4604      	mov	r4, r0
   81612:	2800      	cmp	r0, #0
   81614:	d054      	beq.n	816c0 <xTaskGenericCreate+0xe0>
	{
		/* Allocate space for the stack used by the task being created.
		The base of the stack memory stored in the TCB so the task can
		be deleted later if required. */
		pxNewTCB->pxStack = ( portSTACK_TYPE * ) pvPortMallocAligned( ( ( ( size_t )usStackDepth ) * sizeof( portSTACK_TYPE ) ), puxStackBuffer );
   81616:	2e00      	cmp	r6, #0
   81618:	d048      	beq.n	816ac <xTaskGenericCreate+0xcc>
   8161a:	6306      	str	r6, [r0, #48]	; 0x30
			pxNewTCB = NULL;
		}
		else
		{
			/* Just to help debugging. */
			memset( pxNewTCB->pxStack, ( int ) tskSTACK_FILL_BYTE, ( size_t ) usStackDepth * sizeof( portSTACK_TYPE ) );
   8161c:	00aa      	lsls	r2, r5, #2
   8161e:	21a5      	movs	r1, #165	; 0xa5
   81620:	4630      	mov	r0, r6
   81622:	4b58      	ldr	r3, [pc, #352]	; (81784 <xTaskGenericCreate+0x1a4>)
   81624:	4798      	blx	r3
			pxTopOfStack = pxNewTCB->pxStack + ( usStackDepth - ( unsigned short ) 1 );
   81626:	f105 4580 	add.w	r5, r5, #1073741824	; 0x40000000
   8162a:	3d01      	subs	r5, #1
   8162c:	6b23      	ldr	r3, [r4, #48]	; 0x30
   8162e:	eb03 0385 	add.w	r3, r3, r5, lsl #2
			pxTopOfStack = ( portSTACK_TYPE * ) ( ( ( portPOINTER_SIZE_TYPE ) pxTopOfStack ) & ( ( portPOINTER_SIZE_TYPE ) ~portBYTE_ALIGNMENT_MASK  ) );
   81632:	f023 0507 	bic.w	r5, r3, #7
		strncpy( ( char * ) pxTCB->pcTaskName, ( const char * ) pcName, ( unsigned short ) configMAX_TASK_NAME_LEN );
   81636:	220a      	movs	r2, #10
   81638:	4641      	mov	r1, r8
   8163a:	f104 0034 	add.w	r0, r4, #52	; 0x34
   8163e:	4b52      	ldr	r3, [pc, #328]	; (81788 <xTaskGenericCreate+0x1a8>)
   81640:	4798      	blx	r3
	pxTCB->pcTaskName[ ( unsigned short ) configMAX_TASK_NAME_LEN - ( unsigned short ) 1 ] = ( signed char ) '\0';
   81642:	2300      	movs	r3, #0
   81644:	f884 303d 	strb.w	r3, [r4, #61]	; 0x3d
	pxTCB->uxPriority = uxPriority;
   81648:	62e7      	str	r7, [r4, #44]	; 0x2c
		pxTCB->uxBasePriority = uxPriority;
   8164a:	64a7      	str	r7, [r4, #72]	; 0x48
	vListInitialiseItem( &( pxTCB->xGenericListItem ) );
   8164c:	f104 0804 	add.w	r8, r4, #4
   81650:	4640      	mov	r0, r8
   81652:	4e4e      	ldr	r6, [pc, #312]	; (8178c <xTaskGenericCreate+0x1ac>)
   81654:	47b0      	blx	r6
	vListInitialiseItem( &( pxTCB->xEventListItem ) );
   81656:	f104 0018 	add.w	r0, r4, #24
   8165a:	47b0      	blx	r6
	listSET_LIST_ITEM_OWNER( &( pxTCB->xGenericListItem ), pxTCB );
   8165c:	6124      	str	r4, [r4, #16]
	listSET_LIST_ITEM_VALUE( &( pxTCB->xEventListItem ), configMAX_PRIORITIES - ( portTickType ) uxPriority );
   8165e:	f1c7 0305 	rsb	r3, r7, #5
   81662:	61a3      	str	r3, [r4, #24]
	listSET_LIST_ITEM_OWNER( &( pxTCB->xEventListItem ), pxTCB );
   81664:	6264      	str	r4, [r4, #36]	; 0x24
			pxNewTCB->pxTopOfStack = pxPortInitialiseStack( pxTopOfStack, pxTaskCode, pvParameters );
   81666:	465a      	mov	r2, fp
   81668:	4651      	mov	r1, sl
   8166a:	4628      	mov	r0, r5
   8166c:	4b48      	ldr	r3, [pc, #288]	; (81790 <xTaskGenericCreate+0x1b0>)
   8166e:	4798      	blx	r3
   81670:	6020      	str	r0, [r4, #0]
		portALIGNMENT_ASSERT_pxCurrentTCB( ( ( ( unsigned long ) pxNewTCB->pxTopOfStack & ( unsigned long ) portBYTE_ALIGNMENT_MASK ) == 0UL ) );
   81672:	f010 0f07 	tst.w	r0, #7
   81676:	d127      	bne.n	816c8 <xTaskGenericCreate+0xe8>
		if( ( void * ) pxCreatedTask != NULL )
   81678:	f1b9 0f00 	cmp.w	r9, #0
   8167c:	d001      	beq.n	81682 <xTaskGenericCreate+0xa2>
			*pxCreatedTask = ( xTaskHandle ) pxNewTCB;
   8167e:	f8c9 4000 	str.w	r4, [r9]
		taskENTER_CRITICAL();
   81682:	4b44      	ldr	r3, [pc, #272]	; (81794 <xTaskGenericCreate+0x1b4>)
   81684:	4798      	blx	r3
			uxCurrentNumberOfTasks++;
   81686:	4a44      	ldr	r2, [pc, #272]	; (81798 <xTaskGenericCreate+0x1b8>)
   81688:	6813      	ldr	r3, [r2, #0]
   8168a:	3301      	adds	r3, #1
   8168c:	6013      	str	r3, [r2, #0]
			if( pxCurrentTCB == NULL )
   8168e:	4b43      	ldr	r3, [pc, #268]	; (8179c <xTaskGenericCreate+0x1bc>)
   81690:	681b      	ldr	r3, [r3, #0]
   81692:	b1eb      	cbz	r3, 816d0 <xTaskGenericCreate+0xf0>
				if( xSchedulerRunning == pdFALSE )
   81694:	4b42      	ldr	r3, [pc, #264]	; (817a0 <xTaskGenericCreate+0x1c0>)
   81696:	681b      	ldr	r3, [r3, #0]
   81698:	2b00      	cmp	r3, #0
   8169a:	d140      	bne.n	8171e <xTaskGenericCreate+0x13e>
					if( pxCurrentTCB->uxPriority <= uxPriority )
   8169c:	4b3f      	ldr	r3, [pc, #252]	; (8179c <xTaskGenericCreate+0x1bc>)
   8169e:	681b      	ldr	r3, [r3, #0]
   816a0:	6adb      	ldr	r3, [r3, #44]	; 0x2c
   816a2:	429f      	cmp	r7, r3
						pxCurrentTCB = pxNewTCB;
   816a4:	bf24      	itt	cs
   816a6:	4b3d      	ldrcs	r3, [pc, #244]	; (8179c <xTaskGenericCreate+0x1bc>)
   816a8:	601c      	strcs	r4, [r3, #0]
   816aa:	e038      	b.n	8171e <xTaskGenericCreate+0x13e>
		pxNewTCB->pxStack = ( portSTACK_TYPE * ) pvPortMallocAligned( ( ( ( size_t )usStackDepth ) * sizeof( portSTACK_TYPE ) ), puxStackBuffer );
   816ac:	00a8      	lsls	r0, r5, #2
   816ae:	4b34      	ldr	r3, [pc, #208]	; (81780 <xTaskGenericCreate+0x1a0>)
   816b0:	4798      	blx	r3
   816b2:	4606      	mov	r6, r0
   816b4:	6320      	str	r0, [r4, #48]	; 0x30
		if( pxNewTCB->pxStack == NULL )
   816b6:	2800      	cmp	r0, #0
   816b8:	d1b0      	bne.n	8161c <xTaskGenericCreate+0x3c>
			vPortFree( pxNewTCB );
   816ba:	4620      	mov	r0, r4
   816bc:	4b39      	ldr	r3, [pc, #228]	; (817a4 <xTaskGenericCreate+0x1c4>)
   816be:	4798      	blx	r3
		xReturn = errCOULD_NOT_ALLOCATE_REQUIRED_MEMORY;
   816c0:	f04f 30ff 	mov.w	r0, #4294967295
}
   816c4:	e8bd 8ff8 	ldmia.w	sp!, {r3, r4, r5, r6, r7, r8, r9, sl, fp, pc}
		portALIGNMENT_ASSERT_pxCurrentTCB( ( ( ( unsigned long ) pxNewTCB->pxTopOfStack & ( unsigned long ) portBYTE_ALIGNMENT_MASK ) == 0UL ) );
   816c8:	4b2c      	ldr	r3, [pc, #176]	; (8177c <xTaskGenericCreate+0x19c>)
   816ca:	4798      	blx	r3
   816cc:	bf00      	nop
   816ce:	e7fd      	b.n	816cc <xTaskGenericCreate+0xec>
				pxCurrentTCB =  pxNewTCB;
   816d0:	4b32      	ldr	r3, [pc, #200]	; (8179c <xTaskGenericCreate+0x1bc>)
   816d2:	601c      	str	r4, [r3, #0]
				if( uxCurrentNumberOfTasks == ( unsigned portBASE_TYPE ) 1 )
   816d4:	6813      	ldr	r3, [r2, #0]
   816d6:	2b01      	cmp	r3, #1
   816d8:	d121      	bne.n	8171e <xTaskGenericCreate+0x13e>
		vListInitialise( ( xList * ) &( pxReadyTasksLists[ uxPriority ] ) );
   816da:	4e33      	ldr	r6, [pc, #204]	; (817a8 <xTaskGenericCreate+0x1c8>)
   816dc:	4630      	mov	r0, r6
   816de:	4d33      	ldr	r5, [pc, #204]	; (817ac <xTaskGenericCreate+0x1cc>)
   816e0:	47a8      	blx	r5
   816e2:	f106 0014 	add.w	r0, r6, #20
   816e6:	47a8      	blx	r5
   816e8:	f106 0028 	add.w	r0, r6, #40	; 0x28
   816ec:	47a8      	blx	r5
   816ee:	f106 003c 	add.w	r0, r6, #60	; 0x3c
   816f2:	47a8      	blx	r5
   816f4:	f106 0050 	add.w	r0, r6, #80	; 0x50
   816f8:	47a8      	blx	r5
	vListInitialise( ( xList * ) &xDelayedTaskList1 );
   816fa:	f8df 90e4 	ldr.w	r9, [pc, #228]	; 817e0 <xTaskGenericCreate+0x200>
   816fe:	4648      	mov	r0, r9
   81700:	47a8      	blx	r5
	vListInitialise( ( xList * ) &xDelayedTaskList2 );
   81702:	4e2b      	ldr	r6, [pc, #172]	; (817b0 <xTaskGenericCreate+0x1d0>)
   81704:	4630      	mov	r0, r6
   81706:	47a8      	blx	r5
	vListInitialise( ( xList * ) &xPendingReadyList );
   81708:	482a      	ldr	r0, [pc, #168]	; (817b4 <xTaskGenericCreate+0x1d4>)
   8170a:	47a8      	blx	r5
		vListInitialise( ( xList * ) &xTasksWaitingTermination );
   8170c:	482a      	ldr	r0, [pc, #168]	; (817b8 <xTaskGenericCreate+0x1d8>)
   8170e:	47a8      	blx	r5
		vListInitialise( ( xList * ) &xSuspendedTaskList );
   81710:	482a      	ldr	r0, [pc, #168]	; (817bc <xTaskGenericCreate+0x1dc>)
   81712:	47a8      	blx	r5
	pxDelayedTaskList = &xDelayedTaskList1;
   81714:	4b2a      	ldr	r3, [pc, #168]	; (817c0 <xTaskGenericCreate+0x1e0>)
   81716:	f8c3 9000 	str.w	r9, [r3]
	pxOverflowDelayedTaskList = &xDelayedTaskList2;
   8171a:	4b2a      	ldr	r3, [pc, #168]	; (817c4 <xTaskGenericCreate+0x1e4>)
   8171c:	601e      	str	r6, [r3, #0]
			if( pxNewTCB->uxPriority > uxTopUsedPriority )
   8171e:	6ae0      	ldr	r0, [r4, #44]	; 0x2c
   81720:	4b29      	ldr	r3, [pc, #164]	; (817c8 <xTaskGenericCreate+0x1e8>)
   81722:	681b      	ldr	r3, [r3, #0]
   81724:	4298      	cmp	r0, r3
				uxTopUsedPriority = pxNewTCB->uxPriority;
   81726:	bf84      	itt	hi
   81728:	4b27      	ldrhi	r3, [pc, #156]	; (817c8 <xTaskGenericCreate+0x1e8>)
   8172a:	6018      	strhi	r0, [r3, #0]
				pxNewTCB->uxTCBNumber = uxTaskNumber;
   8172c:	4a27      	ldr	r2, [pc, #156]	; (817cc <xTaskGenericCreate+0x1ec>)
   8172e:	6813      	ldr	r3, [r2, #0]
   81730:	6423      	str	r3, [r4, #64]	; 0x40
			uxTaskNumber++;
   81732:	3301      	adds	r3, #1
   81734:	6013      	str	r3, [r2, #0]
			prvAddTaskToReadyQueue( pxNewTCB );
   81736:	4b26      	ldr	r3, [pc, #152]	; (817d0 <xTaskGenericCreate+0x1f0>)
   81738:	681b      	ldr	r3, [r3, #0]
   8173a:	4298      	cmp	r0, r3
   8173c:	bf84      	itt	hi
   8173e:	4b24      	ldrhi	r3, [pc, #144]	; (817d0 <xTaskGenericCreate+0x1f0>)
   81740:	6018      	strhi	r0, [r3, #0]
   81742:	eb00 0080 	add.w	r0, r0, r0, lsl #2
   81746:	4641      	mov	r1, r8
   81748:	4b17      	ldr	r3, [pc, #92]	; (817a8 <xTaskGenericCreate+0x1c8>)
   8174a:	eb03 0080 	add.w	r0, r3, r0, lsl #2
   8174e:	4b21      	ldr	r3, [pc, #132]	; (817d4 <xTaskGenericCreate+0x1f4>)
   81750:	4798      	blx	r3
		taskEXIT_CRITICAL();
   81752:	4b21      	ldr	r3, [pc, #132]	; (817d8 <xTaskGenericCreate+0x1f8>)
   81754:	4798      	blx	r3
		if( xSchedulerRunning != pdFALSE )
   81756:	4b12      	ldr	r3, [pc, #72]	; (817a0 <xTaskGenericCreate+0x1c0>)
   81758:	681b      	ldr	r3, [r3, #0]
   8175a:	b14b      	cbz	r3, 81770 <xTaskGenericCreate+0x190>
			if( pxCurrentTCB->uxPriority < uxPriority )
   8175c:	4b0f      	ldr	r3, [pc, #60]	; (8179c <xTaskGenericCreate+0x1bc>)
   8175e:	681b      	ldr	r3, [r3, #0]
   81760:	6adb      	ldr	r3, [r3, #44]	; 0x2c
   81762:	429f      	cmp	r7, r3
   81764:	d907      	bls.n	81776 <xTaskGenericCreate+0x196>
				portYIELD_WITHIN_API();
   81766:	4b1d      	ldr	r3, [pc, #116]	; (817dc <xTaskGenericCreate+0x1fc>)
   81768:	4798      	blx	r3
   8176a:	2001      	movs	r0, #1
   8176c:	e8bd 8ff8 	ldmia.w	sp!, {r3, r4, r5, r6, r7, r8, r9, sl, fp, pc}
   81770:	2001      	movs	r0, #1
   81772:	e8bd 8ff8 	ldmia.w	sp!, {r3, r4, r5, r6, r7, r8, r9, sl, fp, pc}
   81776:	2001      	movs	r0, #1
	return xReturn;
   81778:	e8bd 8ff8 	ldmia.w	sp!, {r3, r4, r5, r6, r7, r8, r9, sl, fp, pc}
   8177c:	00080dbd 	.word	0x00080dbd
   81780:	00080f1d 	.word	0x00080f1d
   81784:	00082b31 	.word	0x00082b31
   81788:	00082dc9 	.word	0x00082dc9
   8178c:	00080cdb 	.word	0x00080cdb
   81790:	00080d71 	.word	0x00080d71
   81794:	00080dcd 	.word	0x00080dcd
   81798:	2007ab90 	.word	0x2007ab90
   8179c:	2007ab20 	.word	0x2007ab20
   817a0:	2007abf0 	.word	0x2007abf0
   817a4:	00080fe9 	.word	0x00080fe9
   817a8:	2007ab2c 	.word	0x2007ab2c
   817ac:	00080cc5 	.word	0x00080cc5
   817b0:	2007abc0 	.word	0x2007abc0
   817b4:	2007abdc 	.word	0x2007abdc
   817b8:	2007ac08 	.word	0x2007ac08
   817bc:	2007abf4 	.word	0x2007abf4
   817c0:	2007ab24 	.word	0x2007ab24
   817c4:	2007ab28 	.word	0x2007ab28
   817c8:	2007aba8 	.word	0x2007aba8
   817cc:	2007ab9c 	.word	0x2007ab9c
   817d0:	2007aba4 	.word	0x2007aba4
   817d4:	00080ce1 	.word	0x00080ce1
   817d8:	00080ded 	.word	0x00080ded
   817dc:	00080dad 	.word	0x00080dad
   817e0:	2007abac 	.word	0x2007abac

000817e4 <vTaskStartScheduler>:
{
   817e4:	b510      	push	{r4, lr}
   817e6:	b084      	sub	sp, #16
		xReturn = xTaskCreate( prvIdleTask, ( signed char * ) "IDLE", tskIDLE_STACK_SIZE, ( void * ) NULL, ( tskIDLE_PRIORITY | portPRIVILEGE_BIT ), NULL );
   817e8:	2300      	movs	r3, #0
   817ea:	9303      	str	r3, [sp, #12]
   817ec:	9302      	str	r3, [sp, #8]
   817ee:	9301      	str	r3, [sp, #4]
   817f0:	9300      	str	r3, [sp, #0]
   817f2:	2282      	movs	r2, #130	; 0x82
   817f4:	490d      	ldr	r1, [pc, #52]	; (8182c <vTaskStartScheduler+0x48>)
   817f6:	480e      	ldr	r0, [pc, #56]	; (81830 <vTaskStartScheduler+0x4c>)
   817f8:	4c0e      	ldr	r4, [pc, #56]	; (81834 <vTaskStartScheduler+0x50>)
   817fa:	47a0      	blx	r4
		if( xReturn == pdPASS )
   817fc:	2801      	cmp	r0, #1
   817fe:	d002      	beq.n	81806 <vTaskStartScheduler+0x22>
	configASSERT( xReturn );
   81800:	b180      	cbz	r0, 81824 <vTaskStartScheduler+0x40>
}
   81802:	b004      	add	sp, #16
   81804:	bd10      	pop	{r4, pc}
			xReturn = xTimerCreateTimerTask();
   81806:	4b0c      	ldr	r3, [pc, #48]	; (81838 <vTaskStartScheduler+0x54>)
   81808:	4798      	blx	r3
	if( xReturn == pdPASS )
   8180a:	2801      	cmp	r0, #1
   8180c:	d1f8      	bne.n	81800 <vTaskStartScheduler+0x1c>
		portDISABLE_INTERRUPTS();
   8180e:	4b0b      	ldr	r3, [pc, #44]	; (8183c <vTaskStartScheduler+0x58>)
   81810:	4798      	blx	r3
		xSchedulerRunning = pdTRUE;
   81812:	2201      	movs	r2, #1
   81814:	4b0a      	ldr	r3, [pc, #40]	; (81840 <vTaskStartScheduler+0x5c>)
   81816:	601a      	str	r2, [r3, #0]
		xTickCount = ( portTickType ) 0U;
   81818:	2200      	movs	r2, #0
   8181a:	4b0a      	ldr	r3, [pc, #40]	; (81844 <vTaskStartScheduler+0x60>)
   8181c:	601a      	str	r2, [r3, #0]
		if( xPortStartScheduler() != pdFALSE )
   8181e:	4b0a      	ldr	r3, [pc, #40]	; (81848 <vTaskStartScheduler+0x64>)
   81820:	4798      	blx	r3
   81822:	e7ee      	b.n	81802 <vTaskStartScheduler+0x1e>
	configASSERT( xReturn );
   81824:	4b05      	ldr	r3, [pc, #20]	; (8183c <vTaskStartScheduler+0x58>)
   81826:	4798      	blx	r3
   81828:	bf00      	nop
   8182a:	e7fd      	b.n	81828 <vTaskStartScheduler+0x44>
   8182c:	00085b10 	.word	0x00085b10
   81830:	00081ac5 	.word	0x00081ac5
   81834:	000815e1 	.word	0x000815e1
   81838:	00081f71 	.word	0x00081f71
   8183c:	00080dbd 	.word	0x00080dbd
   81840:	2007abf0 	.word	0x2007abf0
   81844:	2007ac1c 	.word	0x2007ac1c
   81848:	00080e8d 	.word	0x00080e8d

0008184c <vTaskSuspendAll>:
	++uxSchedulerSuspended;
   8184c:	4a02      	ldr	r2, [pc, #8]	; (81858 <vTaskSuspendAll+0xc>)
   8184e:	6813      	ldr	r3, [r2, #0]
   81850:	3301      	adds	r3, #1
   81852:	6013      	str	r3, [r2, #0]
   81854:	4770      	bx	lr
   81856:	bf00      	nop
   81858:	2007ab98 	.word	0x2007ab98

0008185c <xTaskGetTickCount>:
{
   8185c:	b510      	push	{r4, lr}
	taskENTER_CRITICAL();
   8185e:	4b04      	ldr	r3, [pc, #16]	; (81870 <xTaskGetTickCount+0x14>)
   81860:	4798      	blx	r3
		xTicks = xTickCount;
   81862:	4b04      	ldr	r3, [pc, #16]	; (81874 <xTaskGetTickCount+0x18>)
   81864:	681c      	ldr	r4, [r3, #0]
	taskEXIT_CRITICAL();
   81866:	4b04      	ldr	r3, [pc, #16]	; (81878 <xTaskGetTickCount+0x1c>)
   81868:	4798      	blx	r3
}
   8186a:	4620      	mov	r0, r4
   8186c:	bd10      	pop	{r4, pc}
   8186e:	bf00      	nop
   81870:	00080dcd 	.word	0x00080dcd
   81874:	2007ac1c 	.word	0x2007ac1c
   81878:	00080ded 	.word	0x00080ded

0008187c <xTaskGetTickCountFromISR>:
{
   8187c:	b510      	push	{r4, lr}
	uxSavedInterruptStatus = portSET_INTERRUPT_MASK_FROM_ISR();
   8187e:	4b04      	ldr	r3, [pc, #16]	; (81890 <xTaskGetTickCountFromISR+0x14>)
   81880:	4798      	blx	r3
	xReturn = xTickCount;
   81882:	4b04      	ldr	r3, [pc, #16]	; (81894 <xTaskGetTickCountFromISR+0x18>)
   81884:	681c      	ldr	r4, [r3, #0]
	portCLEAR_INTERRUPT_MASK_FROM_ISR( uxSavedInterruptStatus );
   81886:	4b04      	ldr	r3, [pc, #16]	; (81898 <xTaskGetTickCountFromISR+0x1c>)
   81888:	4798      	blx	r3
}
   8188a:	4620      	mov	r0, r4
   8188c:	bd10      	pop	{r4, pc}
   8188e:	bf00      	nop
   81890:	00080dbd 	.word	0x00080dbd
   81894:	2007ac1c 	.word	0x2007ac1c
   81898:	00080de5 	.word	0x00080de5

0008189c <vTaskIncrementTick>:
	if( uxSchedulerSuspended == ( unsigned portBASE_TYPE ) pdFALSE )
   8189c:	4b3d      	ldr	r3, [pc, #244]	; (81994 <vTaskIncrementTick+0xf8>)
   8189e:	681b      	ldr	r3, [r3, #0]
   818a0:	2b00      	cmp	r3, #0
   818a2:	d16f      	bne.n	81984 <vTaskIncrementTick+0xe8>
{
   818a4:	e92d 41f0 	stmdb	sp!, {r4, r5, r6, r7, r8, lr}
		++xTickCount;
   818a8:	4b3b      	ldr	r3, [pc, #236]	; (81998 <vTaskIncrementTick+0xfc>)
   818aa:	681a      	ldr	r2, [r3, #0]
   818ac:	3201      	adds	r2, #1
   818ae:	601a      	str	r2, [r3, #0]
		if( xTickCount == ( portTickType ) 0U )
   818b0:	681b      	ldr	r3, [r3, #0]
   818b2:	b9ab      	cbnz	r3, 818e0 <vTaskIncrementTick+0x44>
			configASSERT( ( listLIST_IS_EMPTY( pxDelayedTaskList ) ) );
   818b4:	4b39      	ldr	r3, [pc, #228]	; (8199c <vTaskIncrementTick+0x100>)
   818b6:	681b      	ldr	r3, [r3, #0]
   818b8:	681b      	ldr	r3, [r3, #0]
   818ba:	2b00      	cmp	r3, #0
   818bc:	d128      	bne.n	81910 <vTaskIncrementTick+0x74>
			pxTemp = pxDelayedTaskList;
   818be:	4b37      	ldr	r3, [pc, #220]	; (8199c <vTaskIncrementTick+0x100>)
   818c0:	6819      	ldr	r1, [r3, #0]
			pxDelayedTaskList = pxOverflowDelayedTaskList;
   818c2:	4a37      	ldr	r2, [pc, #220]	; (819a0 <vTaskIncrementTick+0x104>)
   818c4:	6810      	ldr	r0, [r2, #0]
   818c6:	6018      	str	r0, [r3, #0]
			pxOverflowDelayedTaskList = pxTemp;
   818c8:	6011      	str	r1, [r2, #0]
			xNumOfOverflows++;
   818ca:	4936      	ldr	r1, [pc, #216]	; (819a4 <vTaskIncrementTick+0x108>)
   818cc:	680a      	ldr	r2, [r1, #0]
   818ce:	3201      	adds	r2, #1
   818d0:	600a      	str	r2, [r1, #0]
			if( listLIST_IS_EMPTY( pxDelayedTaskList ) != pdFALSE )
   818d2:	681b      	ldr	r3, [r3, #0]
   818d4:	681b      	ldr	r3, [r3, #0]
   818d6:	b9fb      	cbnz	r3, 81918 <vTaskIncrementTick+0x7c>
				xNextTaskUnblockTime = portMAX_DELAY;
   818d8:	f04f 32ff 	mov.w	r2, #4294967295
   818dc:	4b32      	ldr	r3, [pc, #200]	; (819a8 <vTaskIncrementTick+0x10c>)
   818de:	601a      	str	r2, [r3, #0]
		prvCheckDelayedTasks();
   818e0:	4b2d      	ldr	r3, [pc, #180]	; (81998 <vTaskIncrementTick+0xfc>)
   818e2:	681a      	ldr	r2, [r3, #0]
   818e4:	4b30      	ldr	r3, [pc, #192]	; (819a8 <vTaskIncrementTick+0x10c>)
   818e6:	681b      	ldr	r3, [r3, #0]
   818e8:	429a      	cmp	r2, r3
   818ea:	d350      	bcc.n	8198e <vTaskIncrementTick+0xf2>
   818ec:	4b2b      	ldr	r3, [pc, #172]	; (8199c <vTaskIncrementTick+0x100>)
   818ee:	681b      	ldr	r3, [r3, #0]
   818f0:	681b      	ldr	r3, [r3, #0]
   818f2:	b1cb      	cbz	r3, 81928 <vTaskIncrementTick+0x8c>
   818f4:	4b29      	ldr	r3, [pc, #164]	; (8199c <vTaskIncrementTick+0x100>)
   818f6:	681b      	ldr	r3, [r3, #0]
   818f8:	68db      	ldr	r3, [r3, #12]
   818fa:	68dc      	ldr	r4, [r3, #12]
   818fc:	6863      	ldr	r3, [r4, #4]
   818fe:	4a26      	ldr	r2, [pc, #152]	; (81998 <vTaskIncrementTick+0xfc>)
   81900:	6812      	ldr	r2, [r2, #0]
   81902:	4293      	cmp	r3, r2
   81904:	d816      	bhi.n	81934 <vTaskIncrementTick+0x98>
   81906:	4e29      	ldr	r6, [pc, #164]	; (819ac <vTaskIncrementTick+0x110>)
   81908:	4f29      	ldr	r7, [pc, #164]	; (819b0 <vTaskIncrementTick+0x114>)
   8190a:	f8df 80b4 	ldr.w	r8, [pc, #180]	; 819c0 <vTaskIncrementTick+0x124>
   8190e:	e02f      	b.n	81970 <vTaskIncrementTick+0xd4>
			configASSERT( ( listLIST_IS_EMPTY( pxDelayedTaskList ) ) );
   81910:	4b28      	ldr	r3, [pc, #160]	; (819b4 <vTaskIncrementTick+0x118>)
   81912:	4798      	blx	r3
   81914:	bf00      	nop
   81916:	e7fd      	b.n	81914 <vTaskIncrementTick+0x78>
				pxTCB = ( tskTCB * ) listGET_OWNER_OF_HEAD_ENTRY( pxDelayedTaskList );
   81918:	4b20      	ldr	r3, [pc, #128]	; (8199c <vTaskIncrementTick+0x100>)
   8191a:	681b      	ldr	r3, [r3, #0]
   8191c:	68db      	ldr	r3, [r3, #12]
   8191e:	68db      	ldr	r3, [r3, #12]
				xNextTaskUnblockTime = listGET_LIST_ITEM_VALUE( &( pxTCB->xGenericListItem ) );
   81920:	685a      	ldr	r2, [r3, #4]
   81922:	4b21      	ldr	r3, [pc, #132]	; (819a8 <vTaskIncrementTick+0x10c>)
   81924:	601a      	str	r2, [r3, #0]
   81926:	e7db      	b.n	818e0 <vTaskIncrementTick+0x44>
		prvCheckDelayedTasks();
   81928:	f04f 32ff 	mov.w	r2, #4294967295
   8192c:	4b1e      	ldr	r3, [pc, #120]	; (819a8 <vTaskIncrementTick+0x10c>)
   8192e:	601a      	str	r2, [r3, #0]
   81930:	e8bd 81f0 	ldmia.w	sp!, {r4, r5, r6, r7, r8, pc}
   81934:	4a1c      	ldr	r2, [pc, #112]	; (819a8 <vTaskIncrementTick+0x10c>)
   81936:	6013      	str	r3, [r2, #0]
   81938:	e8bd 81f0 	ldmia.w	sp!, {r4, r5, r6, r7, r8, pc}
   8193c:	6ae0      	ldr	r0, [r4, #44]	; 0x2c
   8193e:	683b      	ldr	r3, [r7, #0]
   81940:	4298      	cmp	r0, r3
   81942:	bf88      	it	hi
   81944:	6038      	strhi	r0, [r7, #0]
   81946:	eb00 0080 	add.w	r0, r0, r0, lsl #2
   8194a:	4629      	mov	r1, r5
   8194c:	eb08 0080 	add.w	r0, r8, r0, lsl #2
   81950:	4b19      	ldr	r3, [pc, #100]	; (819b8 <vTaskIncrementTick+0x11c>)
   81952:	4798      	blx	r3
   81954:	4b11      	ldr	r3, [pc, #68]	; (8199c <vTaskIncrementTick+0x100>)
   81956:	681b      	ldr	r3, [r3, #0]
   81958:	681b      	ldr	r3, [r3, #0]
   8195a:	2b00      	cmp	r3, #0
   8195c:	d0e4      	beq.n	81928 <vTaskIncrementTick+0x8c>
   8195e:	4b0f      	ldr	r3, [pc, #60]	; (8199c <vTaskIncrementTick+0x100>)
   81960:	681b      	ldr	r3, [r3, #0]
   81962:	68db      	ldr	r3, [r3, #12]
   81964:	68dc      	ldr	r4, [r3, #12]
   81966:	6863      	ldr	r3, [r4, #4]
   81968:	4a0b      	ldr	r2, [pc, #44]	; (81998 <vTaskIncrementTick+0xfc>)
   8196a:	6812      	ldr	r2, [r2, #0]
   8196c:	4293      	cmp	r3, r2
   8196e:	d8e1      	bhi.n	81934 <vTaskIncrementTick+0x98>
   81970:	1d25      	adds	r5, r4, #4
   81972:	4628      	mov	r0, r5
   81974:	47b0      	blx	r6
   81976:	6aa3      	ldr	r3, [r4, #40]	; 0x28
   81978:	2b00      	cmp	r3, #0
   8197a:	d0df      	beq.n	8193c <vTaskIncrementTick+0xa0>
   8197c:	f104 0018 	add.w	r0, r4, #24
   81980:	47b0      	blx	r6
   81982:	e7db      	b.n	8193c <vTaskIncrementTick+0xa0>
		++uxMissedTicks;
   81984:	4a0d      	ldr	r2, [pc, #52]	; (819bc <vTaskIncrementTick+0x120>)
   81986:	6813      	ldr	r3, [r2, #0]
   81988:	3301      	adds	r3, #1
   8198a:	6013      	str	r3, [r2, #0]
}
   8198c:	4770      	bx	lr
   8198e:	e8bd 81f0 	ldmia.w	sp!, {r4, r5, r6, r7, r8, pc}
   81992:	bf00      	nop
   81994:	2007ab98 	.word	0x2007ab98
   81998:	2007ac1c 	.word	0x2007ac1c
   8199c:	2007ab24 	.word	0x2007ab24
   819a0:	2007ab28 	.word	0x2007ab28
   819a4:	2007abd8 	.word	0x2007abd8
   819a8:	20070134 	.word	0x20070134
   819ac:	00080d37 	.word	0x00080d37
   819b0:	2007aba4 	.word	0x2007aba4
   819b4:	00080dbd 	.word	0x00080dbd
   819b8:	00080ce1 	.word	0x00080ce1
   819bc:	2007ab94 	.word	0x2007ab94
   819c0:	2007ab2c 	.word	0x2007ab2c

000819c4 <xTaskResumeAll>:
{
   819c4:	e92d 43f8 	stmdb	sp!, {r3, r4, r5, r6, r7, r8, r9, lr}
	configASSERT( uxSchedulerSuspended );
   819c8:	4b2f      	ldr	r3, [pc, #188]	; (81a88 <xTaskResumeAll+0xc4>)
   819ca:	681b      	ldr	r3, [r3, #0]
   819cc:	b91b      	cbnz	r3, 819d6 <xTaskResumeAll+0x12>
   819ce:	4b2f      	ldr	r3, [pc, #188]	; (81a8c <xTaskResumeAll+0xc8>)
   819d0:	4798      	blx	r3
   819d2:	bf00      	nop
   819d4:	e7fd      	b.n	819d2 <xTaskResumeAll+0xe>
	taskENTER_CRITICAL();
   819d6:	4b2e      	ldr	r3, [pc, #184]	; (81a90 <xTaskResumeAll+0xcc>)
   819d8:	4798      	blx	r3
		--uxSchedulerSuspended;
   819da:	4b2b      	ldr	r3, [pc, #172]	; (81a88 <xTaskResumeAll+0xc4>)
   819dc:	681a      	ldr	r2, [r3, #0]
   819de:	3a01      	subs	r2, #1
   819e0:	601a      	str	r2, [r3, #0]
		if( uxSchedulerSuspended == ( unsigned portBASE_TYPE ) pdFALSE )
   819e2:	681b      	ldr	r3, [r3, #0]
   819e4:	2b00      	cmp	r3, #0
   819e6:	d14d      	bne.n	81a84 <xTaskResumeAll+0xc0>
			if( uxCurrentNumberOfTasks > ( unsigned portBASE_TYPE ) 0U )
   819e8:	4b2a      	ldr	r3, [pc, #168]	; (81a94 <xTaskResumeAll+0xd0>)
   819ea:	681b      	ldr	r3, [r3, #0]
   819ec:	b12b      	cbz	r3, 819fa <xTaskResumeAll+0x36>
   819ee:	2400      	movs	r4, #0
				while( listLIST_IS_EMPTY( ( xList * ) &xPendingReadyList ) == pdFALSE )
   819f0:	f8df 80cc 	ldr.w	r8, [pc, #204]	; 81ac0 <xTaskResumeAll+0xfc>
					uxListRemove( &( pxTCB->xEventListItem ) );
   819f4:	4f28      	ldr	r7, [pc, #160]	; (81a98 <xTaskResumeAll+0xd4>)
					prvAddTaskToReadyQueue( pxTCB );
   819f6:	4e29      	ldr	r6, [pc, #164]	; (81a9c <xTaskResumeAll+0xd8>)
   819f8:	e023      	b.n	81a42 <xTaskResumeAll+0x7e>
signed portBASE_TYPE xAlreadyYielded = pdFALSE;
   819fa:	2400      	movs	r4, #0
	taskEXIT_CRITICAL();
   819fc:	4b28      	ldr	r3, [pc, #160]	; (81aa0 <xTaskResumeAll+0xdc>)
   819fe:	4798      	blx	r3
}
   81a00:	4620      	mov	r0, r4
   81a02:	e8bd 83f8 	ldmia.w	sp!, {r3, r4, r5, r6, r7, r8, r9, pc}
					pxTCB = ( tskTCB * ) listGET_OWNER_OF_HEAD_ENTRY(  ( ( xList * ) &xPendingReadyList ) );
   81a06:	f8d8 300c 	ldr.w	r3, [r8, #12]
   81a0a:	68dd      	ldr	r5, [r3, #12]
					uxListRemove( &( pxTCB->xEventListItem ) );
   81a0c:	f105 0018 	add.w	r0, r5, #24
   81a10:	47b8      	blx	r7
					uxListRemove( &( pxTCB->xGenericListItem ) );
   81a12:	f105 0904 	add.w	r9, r5, #4
   81a16:	4648      	mov	r0, r9
   81a18:	47b8      	blx	r7
					prvAddTaskToReadyQueue( pxTCB );
   81a1a:	6ae8      	ldr	r0, [r5, #44]	; 0x2c
   81a1c:	6833      	ldr	r3, [r6, #0]
   81a1e:	4298      	cmp	r0, r3
   81a20:	bf88      	it	hi
   81a22:	6030      	strhi	r0, [r6, #0]
   81a24:	eb00 0080 	add.w	r0, r0, r0, lsl #2
   81a28:	4649      	mov	r1, r9
   81a2a:	4b1e      	ldr	r3, [pc, #120]	; (81aa4 <xTaskResumeAll+0xe0>)
   81a2c:	eb03 0080 	add.w	r0, r3, r0, lsl #2
   81a30:	4b1d      	ldr	r3, [pc, #116]	; (81aa8 <xTaskResumeAll+0xe4>)
   81a32:	4798      	blx	r3
					if( pxTCB->uxPriority >= pxCurrentTCB->uxPriority )
   81a34:	4b1d      	ldr	r3, [pc, #116]	; (81aac <xTaskResumeAll+0xe8>)
   81a36:	681b      	ldr	r3, [r3, #0]
   81a38:	6aea      	ldr	r2, [r5, #44]	; 0x2c
   81a3a:	6adb      	ldr	r3, [r3, #44]	; 0x2c
						xYieldRequired = pdTRUE;
   81a3c:	429a      	cmp	r2, r3
   81a3e:	bf28      	it	cs
   81a40:	2401      	movcs	r4, #1
				while( listLIST_IS_EMPTY( ( xList * ) &xPendingReadyList ) == pdFALSE )
   81a42:	f8d8 3000 	ldr.w	r3, [r8]
   81a46:	2b00      	cmp	r3, #0
   81a48:	d1dd      	bne.n	81a06 <xTaskResumeAll+0x42>
				if( uxMissedTicks > ( unsigned portBASE_TYPE ) 0U )
   81a4a:	4b19      	ldr	r3, [pc, #100]	; (81ab0 <xTaskResumeAll+0xec>)
   81a4c:	681b      	ldr	r3, [r3, #0]
   81a4e:	b193      	cbz	r3, 81a76 <xTaskResumeAll+0xb2>
					while( uxMissedTicks > ( unsigned portBASE_TYPE ) 0U )
   81a50:	4b17      	ldr	r3, [pc, #92]	; (81ab0 <xTaskResumeAll+0xec>)
   81a52:	681b      	ldr	r3, [r3, #0]
   81a54:	b143      	cbz	r3, 81a68 <xTaskResumeAll+0xa4>
						vTaskIncrementTick();
   81a56:	4d17      	ldr	r5, [pc, #92]	; (81ab4 <xTaskResumeAll+0xf0>)
						--uxMissedTicks;
   81a58:	4c15      	ldr	r4, [pc, #84]	; (81ab0 <xTaskResumeAll+0xec>)
						vTaskIncrementTick();
   81a5a:	47a8      	blx	r5
						--uxMissedTicks;
   81a5c:	6823      	ldr	r3, [r4, #0]
   81a5e:	3b01      	subs	r3, #1
   81a60:	6023      	str	r3, [r4, #0]
					while( uxMissedTicks > ( unsigned portBASE_TYPE ) 0U )
   81a62:	6823      	ldr	r3, [r4, #0]
   81a64:	2b00      	cmp	r3, #0
   81a66:	d1f8      	bne.n	81a5a <xTaskResumeAll+0x96>
					xMissedYield = pdFALSE;
   81a68:	2200      	movs	r2, #0
   81a6a:	4b13      	ldr	r3, [pc, #76]	; (81ab8 <xTaskResumeAll+0xf4>)
   81a6c:	601a      	str	r2, [r3, #0]
					portYIELD_WITHIN_API();
   81a6e:	4b13      	ldr	r3, [pc, #76]	; (81abc <xTaskResumeAll+0xf8>)
   81a70:	4798      	blx	r3
					xAlreadyYielded = pdTRUE;
   81a72:	2401      	movs	r4, #1
   81a74:	e7c2      	b.n	819fc <xTaskResumeAll+0x38>
				if( ( xYieldRequired == pdTRUE ) || ( xMissedYield == pdTRUE ) )
   81a76:	2c01      	cmp	r4, #1
   81a78:	d0f6      	beq.n	81a68 <xTaskResumeAll+0xa4>
   81a7a:	4b0f      	ldr	r3, [pc, #60]	; (81ab8 <xTaskResumeAll+0xf4>)
   81a7c:	681b      	ldr	r3, [r3, #0]
   81a7e:	2b01      	cmp	r3, #1
   81a80:	d1bc      	bne.n	819fc <xTaskResumeAll+0x38>
   81a82:	e7f1      	b.n	81a68 <xTaskResumeAll+0xa4>
signed portBASE_TYPE xAlreadyYielded = pdFALSE;
   81a84:	2400      	movs	r4, #0
   81a86:	e7b9      	b.n	819fc <xTaskResumeAll+0x38>
   81a88:	2007ab98 	.word	0x2007ab98
   81a8c:	00080dbd 	.word	0x00080dbd
   81a90:	00080dcd 	.word	0x00080dcd
   81a94:	2007ab90 	.word	0x2007ab90
   81a98:	00080d37 	.word	0x00080d37
   81a9c:	2007aba4 	.word	0x2007aba4
   81aa0:	00080ded 	.word	0x00080ded
   81aa4:	2007ab2c 	.word	0x2007ab2c
   81aa8:	00080ce1 	.word	0x00080ce1
   81aac:	2007ab20 	.word	0x2007ab20
   81ab0:	2007ab94 	.word	0x2007ab94
   81ab4:	0008189d 	.word	0x0008189d
   81ab8:	2007abd4 	.word	0x2007abd4
   81abc:	00080dad 	.word	0x00080dad
   81ac0:	2007abdc 	.word	0x2007abdc

00081ac4 <prvIdleTask>:
{
   81ac4:	b580      	push	{r7, lr}
		while( uxTasksDeleted > ( unsigned portBASE_TYPE ) 0U )
   81ac6:	4d16      	ldr	r5, [pc, #88]	; (81b20 <prvIdleTask+0x5c>)
			vTaskSuspendAll();
   81ac8:	f8df 8078 	ldr.w	r8, [pc, #120]	; 81b44 <prvIdleTask+0x80>
				xListIsEmpty = listLIST_IS_EMPTY( &xTasksWaitingTermination );
   81acc:	4e15      	ldr	r6, [pc, #84]	; (81b24 <prvIdleTask+0x60>)
   81ace:	e024      	b.n	81b1a <prvIdleTask+0x56>
			if( listCURRENT_LIST_LENGTH( &( pxReadyTasksLists[ tskIDLE_PRIORITY ] ) ) > ( unsigned portBASE_TYPE ) 1 )
   81ad0:	4b15      	ldr	r3, [pc, #84]	; (81b28 <prvIdleTask+0x64>)
   81ad2:	681b      	ldr	r3, [r3, #0]
   81ad4:	2b01      	cmp	r3, #1
   81ad6:	d81e      	bhi.n	81b16 <prvIdleTask+0x52>
		while( uxTasksDeleted > ( unsigned portBASE_TYPE ) 0U )
   81ad8:	682b      	ldr	r3, [r5, #0]
   81ada:	2b00      	cmp	r3, #0
   81adc:	d0f8      	beq.n	81ad0 <prvIdleTask+0xc>
			vTaskSuspendAll();
   81ade:	47c0      	blx	r8
				xListIsEmpty = listLIST_IS_EMPTY( &xTasksWaitingTermination );
   81ae0:	6834      	ldr	r4, [r6, #0]
			xTaskResumeAll();
   81ae2:	47b8      	blx	r7
			if( xListIsEmpty == pdFALSE )
   81ae4:	2c00      	cmp	r4, #0
   81ae6:	d0f7      	beq.n	81ad8 <prvIdleTask+0x14>
				taskENTER_CRITICAL();
   81ae8:	4b10      	ldr	r3, [pc, #64]	; (81b2c <prvIdleTask+0x68>)
   81aea:	4798      	blx	r3
					pxTCB = ( tskTCB * ) listGET_OWNER_OF_HEAD_ENTRY( ( ( xList * ) &xTasksWaitingTermination ) );
   81aec:	68f3      	ldr	r3, [r6, #12]
   81aee:	68dc      	ldr	r4, [r3, #12]
					uxListRemove( &( pxTCB->xGenericListItem ) );
   81af0:	1d20      	adds	r0, r4, #4
   81af2:	4b0f      	ldr	r3, [pc, #60]	; (81b30 <prvIdleTask+0x6c>)
   81af4:	4798      	blx	r3
					--uxCurrentNumberOfTasks;
   81af6:	4a0f      	ldr	r2, [pc, #60]	; (81b34 <prvIdleTask+0x70>)
   81af8:	6813      	ldr	r3, [r2, #0]
   81afa:	3b01      	subs	r3, #1
   81afc:	6013      	str	r3, [r2, #0]
					--uxTasksDeleted;
   81afe:	682b      	ldr	r3, [r5, #0]
   81b00:	3b01      	subs	r3, #1
   81b02:	602b      	str	r3, [r5, #0]
				taskEXIT_CRITICAL();
   81b04:	4b0c      	ldr	r3, [pc, #48]	; (81b38 <prvIdleTask+0x74>)
   81b06:	4798      	blx	r3
		want to allocate and clean RAM statically. */
		portCLEAN_UP_TCB( pxTCB );

		/* Free up the memory allocated by the scheduler for the task.  It is up to
		the task to free any memory allocated at the application level. */
		vPortFreeAligned( pxTCB->pxStack );
   81b08:	6b20      	ldr	r0, [r4, #48]	; 0x30
   81b0a:	f8df 903c 	ldr.w	r9, [pc, #60]	; 81b48 <prvIdleTask+0x84>
   81b0e:	47c8      	blx	r9
		vPortFree( pxTCB );
   81b10:	4620      	mov	r0, r4
   81b12:	47c8      	blx	r9
   81b14:	e7e0      	b.n	81ad8 <prvIdleTask+0x14>
				taskYIELD();
   81b16:	4b09      	ldr	r3, [pc, #36]	; (81b3c <prvIdleTask+0x78>)
   81b18:	4798      	blx	r3
			xTaskResumeAll();
   81b1a:	4f09      	ldr	r7, [pc, #36]	; (81b40 <prvIdleTask+0x7c>)
   81b1c:	e7dc      	b.n	81ad8 <prvIdleTask+0x14>
   81b1e:	bf00      	nop
   81b20:	2007aba0 	.word	0x2007aba0
   81b24:	2007ac08 	.word	0x2007ac08
   81b28:	2007ab2c 	.word	0x2007ab2c
   81b2c:	00080dcd 	.word	0x00080dcd
   81b30:	00080d37 	.word	0x00080d37
   81b34:	2007ab90 	.word	0x2007ab90
   81b38:	00080ded 	.word	0x00080ded
   81b3c:	00080dad 	.word	0x00080dad
   81b40:	000819c5 	.word	0x000819c5
   81b44:	0008184d 	.word	0x0008184d
   81b48:	00080fe9 	.word	0x00080fe9

00081b4c <vTaskSwitchContext>:
	if( uxSchedulerSuspended != ( unsigned portBASE_TYPE ) pdFALSE )
   81b4c:	4b21      	ldr	r3, [pc, #132]	; (81bd4 <vTaskSwitchContext+0x88>)
   81b4e:	681b      	ldr	r3, [r3, #0]
   81b50:	b9eb      	cbnz	r3, 81b8e <vTaskSwitchContext+0x42>
{
   81b52:	b510      	push	{r4, lr}
		taskSELECT_HIGHEST_PRIORITY_TASK();
   81b54:	4b20      	ldr	r3, [pc, #128]	; (81bd8 <vTaskSwitchContext+0x8c>)
   81b56:	681b      	ldr	r3, [r3, #0]
   81b58:	eb03 0383 	add.w	r3, r3, r3, lsl #2
   81b5c:	009b      	lsls	r3, r3, #2
   81b5e:	4a1f      	ldr	r2, [pc, #124]	; (81bdc <vTaskSwitchContext+0x90>)
   81b60:	58d3      	ldr	r3, [r2, r3]
   81b62:	b9c3      	cbnz	r3, 81b96 <vTaskSwitchContext+0x4a>
   81b64:	4b1c      	ldr	r3, [pc, #112]	; (81bd8 <vTaskSwitchContext+0x8c>)
   81b66:	681b      	ldr	r3, [r3, #0]
   81b68:	b16b      	cbz	r3, 81b86 <vTaskSwitchContext+0x3a>
   81b6a:	4a1b      	ldr	r2, [pc, #108]	; (81bd8 <vTaskSwitchContext+0x8c>)
   81b6c:	491b      	ldr	r1, [pc, #108]	; (81bdc <vTaskSwitchContext+0x90>)
   81b6e:	6813      	ldr	r3, [r2, #0]
   81b70:	3b01      	subs	r3, #1
   81b72:	6013      	str	r3, [r2, #0]
   81b74:	6813      	ldr	r3, [r2, #0]
   81b76:	eb03 0383 	add.w	r3, r3, r3, lsl #2
   81b7a:	f851 3023 	ldr.w	r3, [r1, r3, lsl #2]
   81b7e:	b953      	cbnz	r3, 81b96 <vTaskSwitchContext+0x4a>
   81b80:	6813      	ldr	r3, [r2, #0]
   81b82:	2b00      	cmp	r3, #0
   81b84:	d1f3      	bne.n	81b6e <vTaskSwitchContext+0x22>
   81b86:	4b16      	ldr	r3, [pc, #88]	; (81be0 <vTaskSwitchContext+0x94>)
   81b88:	4798      	blx	r3
   81b8a:	bf00      	nop
   81b8c:	e7fd      	b.n	81b8a <vTaskSwitchContext+0x3e>
		xMissedYield = pdTRUE;
   81b8e:	2201      	movs	r2, #1
   81b90:	4b14      	ldr	r3, [pc, #80]	; (81be4 <vTaskSwitchContext+0x98>)
   81b92:	601a      	str	r2, [r3, #0]
   81b94:	4770      	bx	lr
		taskSELECT_HIGHEST_PRIORITY_TASK();
   81b96:	4b10      	ldr	r3, [pc, #64]	; (81bd8 <vTaskSwitchContext+0x8c>)
   81b98:	681b      	ldr	r3, [r3, #0]
   81b9a:	4a10      	ldr	r2, [pc, #64]	; (81bdc <vTaskSwitchContext+0x90>)
   81b9c:	0099      	lsls	r1, r3, #2
   81b9e:	18c8      	adds	r0, r1, r3
   81ba0:	eb02 0080 	add.w	r0, r2, r0, lsl #2
   81ba4:	6844      	ldr	r4, [r0, #4]
   81ba6:	6864      	ldr	r4, [r4, #4]
   81ba8:	6044      	str	r4, [r0, #4]
   81baa:	4419      	add	r1, r3
   81bac:	4602      	mov	r2, r0
   81bae:	3208      	adds	r2, #8
   81bb0:	4294      	cmp	r4, r2
   81bb2:	d009      	beq.n	81bc8 <vTaskSwitchContext+0x7c>
   81bb4:	eb03 0383 	add.w	r3, r3, r3, lsl #2
   81bb8:	4a08      	ldr	r2, [pc, #32]	; (81bdc <vTaskSwitchContext+0x90>)
   81bba:	eb02 0383 	add.w	r3, r2, r3, lsl #2
   81bbe:	685b      	ldr	r3, [r3, #4]
   81bc0:	68da      	ldr	r2, [r3, #12]
   81bc2:	4b09      	ldr	r3, [pc, #36]	; (81be8 <vTaskSwitchContext+0x9c>)
   81bc4:	601a      	str	r2, [r3, #0]
   81bc6:	bd10      	pop	{r4, pc}
   81bc8:	6860      	ldr	r0, [r4, #4]
   81bca:	4a04      	ldr	r2, [pc, #16]	; (81bdc <vTaskSwitchContext+0x90>)
   81bcc:	eb02 0281 	add.w	r2, r2, r1, lsl #2
   81bd0:	6050      	str	r0, [r2, #4]
   81bd2:	e7ef      	b.n	81bb4 <vTaskSwitchContext+0x68>
   81bd4:	2007ab98 	.word	0x2007ab98
   81bd8:	2007aba4 	.word	0x2007aba4
   81bdc:	2007ab2c 	.word	0x2007ab2c
   81be0:	00080dbd 	.word	0x00080dbd
   81be4:	2007abd4 	.word	0x2007abd4
   81be8:	2007ab20 	.word	0x2007ab20

00081bec <vTaskPlaceOnEventList>:
{
   81bec:	b538      	push	{r3, r4, r5, lr}
	configASSERT( pxEventList );
   81bee:	b190      	cbz	r0, 81c16 <vTaskPlaceOnEventList+0x2a>
   81bf0:	460c      	mov	r4, r1
	vListInsert( ( xList * ) pxEventList, ( xListItem * ) &( pxCurrentTCB->xEventListItem ) );
   81bf2:	4d0e      	ldr	r5, [pc, #56]	; (81c2c <vTaskPlaceOnEventList+0x40>)
   81bf4:	6829      	ldr	r1, [r5, #0]
   81bf6:	3118      	adds	r1, #24
   81bf8:	4b0d      	ldr	r3, [pc, #52]	; (81c30 <vTaskPlaceOnEventList+0x44>)
   81bfa:	4798      	blx	r3
	if( uxListRemove( ( xListItem * ) &( pxCurrentTCB->xGenericListItem ) ) == 0 )
   81bfc:	6828      	ldr	r0, [r5, #0]
   81bfe:	3004      	adds	r0, #4
   81c00:	4b0c      	ldr	r3, [pc, #48]	; (81c34 <vTaskPlaceOnEventList+0x48>)
   81c02:	4798      	blx	r3
		if( xTicksToWait == portMAX_DELAY )
   81c04:	f1b4 3fff 	cmp.w	r4, #4294967295
   81c08:	d009      	beq.n	81c1e <vTaskPlaceOnEventList+0x32>
			xTimeToWake = xTickCount + xTicksToWait;
   81c0a:	4b0b      	ldr	r3, [pc, #44]	; (81c38 <vTaskPlaceOnEventList+0x4c>)
   81c0c:	6818      	ldr	r0, [r3, #0]
			prvAddCurrentTaskToDelayedList( xTimeToWake );
   81c0e:	4420      	add	r0, r4
   81c10:	4b0a      	ldr	r3, [pc, #40]	; (81c3c <vTaskPlaceOnEventList+0x50>)
   81c12:	4798      	blx	r3
   81c14:	bd38      	pop	{r3, r4, r5, pc}
	configASSERT( pxEventList );
   81c16:	4b0a      	ldr	r3, [pc, #40]	; (81c40 <vTaskPlaceOnEventList+0x54>)
   81c18:	4798      	blx	r3
   81c1a:	bf00      	nop
   81c1c:	e7fd      	b.n	81c1a <vTaskPlaceOnEventList+0x2e>
			vListInsertEnd( ( xList * ) &xSuspendedTaskList, ( xListItem * ) &( pxCurrentTCB->xGenericListItem ) );
   81c1e:	6829      	ldr	r1, [r5, #0]
   81c20:	3104      	adds	r1, #4
   81c22:	4808      	ldr	r0, [pc, #32]	; (81c44 <vTaskPlaceOnEventList+0x58>)
   81c24:	4b08      	ldr	r3, [pc, #32]	; (81c48 <vTaskPlaceOnEventList+0x5c>)
   81c26:	4798      	blx	r3
   81c28:	bd38      	pop	{r3, r4, r5, pc}
   81c2a:	bf00      	nop
   81c2c:	2007ab20 	.word	0x2007ab20
   81c30:	00080cfd 	.word	0x00080cfd
   81c34:	00080d37 	.word	0x00080d37
   81c38:	2007ac1c 	.word	0x2007ac1c
   81c3c:	00081589 	.word	0x00081589
   81c40:	00080dbd 	.word	0x00080dbd
   81c44:	2007abf4 	.word	0x2007abf4
   81c48:	00080ce1 	.word	0x00080ce1

00081c4c <vTaskPlaceOnEventListRestricted>:
	{
   81c4c:	b538      	push	{r3, r4, r5, lr}
		configASSERT( pxEventList );
   81c4e:	b178      	cbz	r0, 81c70 <vTaskPlaceOnEventListRestricted+0x24>
   81c50:	460d      	mov	r5, r1
		vListInsertEnd( ( xList * ) pxEventList, ( xListItem * ) &( pxCurrentTCB->xEventListItem ) );
   81c52:	4c09      	ldr	r4, [pc, #36]	; (81c78 <vTaskPlaceOnEventListRestricted+0x2c>)
   81c54:	6821      	ldr	r1, [r4, #0]
   81c56:	3118      	adds	r1, #24
   81c58:	4b08      	ldr	r3, [pc, #32]	; (81c7c <vTaskPlaceOnEventListRestricted+0x30>)
   81c5a:	4798      	blx	r3
		if( uxListRemove( ( xListItem * ) &( pxCurrentTCB->xGenericListItem ) ) == 0 )
   81c5c:	6820      	ldr	r0, [r4, #0]
   81c5e:	3004      	adds	r0, #4
   81c60:	4b07      	ldr	r3, [pc, #28]	; (81c80 <vTaskPlaceOnEventListRestricted+0x34>)
   81c62:	4798      	blx	r3
		xTimeToWake = xTickCount + xTicksToWait;
   81c64:	4b07      	ldr	r3, [pc, #28]	; (81c84 <vTaskPlaceOnEventListRestricted+0x38>)
   81c66:	6818      	ldr	r0, [r3, #0]
		prvAddCurrentTaskToDelayedList( xTimeToWake );
   81c68:	4428      	add	r0, r5
   81c6a:	4b07      	ldr	r3, [pc, #28]	; (81c88 <vTaskPlaceOnEventListRestricted+0x3c>)
   81c6c:	4798      	blx	r3
   81c6e:	bd38      	pop	{r3, r4, r5, pc}
		configASSERT( pxEventList );
   81c70:	4b06      	ldr	r3, [pc, #24]	; (81c8c <vTaskPlaceOnEventListRestricted+0x40>)
   81c72:	4798      	blx	r3
   81c74:	bf00      	nop
   81c76:	e7fd      	b.n	81c74 <vTaskPlaceOnEventListRestricted+0x28>
   81c78:	2007ab20 	.word	0x2007ab20
   81c7c:	00080ce1 	.word	0x00080ce1
   81c80:	00080d37 	.word	0x00080d37
   81c84:	2007ac1c 	.word	0x2007ac1c
   81c88:	00081589 	.word	0x00081589
   81c8c:	00080dbd 	.word	0x00080dbd

00081c90 <xTaskRemoveFromEventList>:
{
   81c90:	b538      	push	{r3, r4, r5, lr}
	pxUnblockedTCB = ( tskTCB * ) listGET_OWNER_OF_HEAD_ENTRY( pxEventList );
   81c92:	68c3      	ldr	r3, [r0, #12]
   81c94:	68dc      	ldr	r4, [r3, #12]
	configASSERT( pxUnblockedTCB );
   81c96:	b31c      	cbz	r4, 81ce0 <xTaskRemoveFromEventList+0x50>
	uxListRemove( &( pxUnblockedTCB->xEventListItem ) );
   81c98:	f104 0518 	add.w	r5, r4, #24
   81c9c:	4628      	mov	r0, r5
   81c9e:	4b15      	ldr	r3, [pc, #84]	; (81cf4 <xTaskRemoveFromEventList+0x64>)
   81ca0:	4798      	blx	r3
	if( uxSchedulerSuspended == ( unsigned portBASE_TYPE ) pdFALSE )
   81ca2:	4b15      	ldr	r3, [pc, #84]	; (81cf8 <xTaskRemoveFromEventList+0x68>)
   81ca4:	681b      	ldr	r3, [r3, #0]
   81ca6:	b9fb      	cbnz	r3, 81ce8 <xTaskRemoveFromEventList+0x58>
		uxListRemove( &( pxUnblockedTCB->xGenericListItem ) );
   81ca8:	1d25      	adds	r5, r4, #4
   81caa:	4628      	mov	r0, r5
   81cac:	4b11      	ldr	r3, [pc, #68]	; (81cf4 <xTaskRemoveFromEventList+0x64>)
   81cae:	4798      	blx	r3
		prvAddTaskToReadyQueue( pxUnblockedTCB );
   81cb0:	6ae0      	ldr	r0, [r4, #44]	; 0x2c
   81cb2:	4b12      	ldr	r3, [pc, #72]	; (81cfc <xTaskRemoveFromEventList+0x6c>)
   81cb4:	681b      	ldr	r3, [r3, #0]
   81cb6:	4298      	cmp	r0, r3
   81cb8:	bf84      	itt	hi
   81cba:	4b10      	ldrhi	r3, [pc, #64]	; (81cfc <xTaskRemoveFromEventList+0x6c>)
   81cbc:	6018      	strhi	r0, [r3, #0]
   81cbe:	eb00 0080 	add.w	r0, r0, r0, lsl #2
   81cc2:	4629      	mov	r1, r5
   81cc4:	4b0e      	ldr	r3, [pc, #56]	; (81d00 <xTaskRemoveFromEventList+0x70>)
   81cc6:	eb03 0080 	add.w	r0, r3, r0, lsl #2
   81cca:	4b0e      	ldr	r3, [pc, #56]	; (81d04 <xTaskRemoveFromEventList+0x74>)
   81ccc:	4798      	blx	r3
	if( pxUnblockedTCB->uxPriority >= pxCurrentTCB->uxPriority )
   81cce:	4b0e      	ldr	r3, [pc, #56]	; (81d08 <xTaskRemoveFromEventList+0x78>)
   81cd0:	681b      	ldr	r3, [r3, #0]
   81cd2:	6ae0      	ldr	r0, [r4, #44]	; 0x2c
   81cd4:	6adb      	ldr	r3, [r3, #44]	; 0x2c
}
   81cd6:	4298      	cmp	r0, r3
   81cd8:	bf34      	ite	cc
   81cda:	2000      	movcc	r0, #0
   81cdc:	2001      	movcs	r0, #1
   81cde:	bd38      	pop	{r3, r4, r5, pc}
	configASSERT( pxUnblockedTCB );
   81ce0:	4b0a      	ldr	r3, [pc, #40]	; (81d0c <xTaskRemoveFromEventList+0x7c>)
   81ce2:	4798      	blx	r3
   81ce4:	bf00      	nop
   81ce6:	e7fd      	b.n	81ce4 <xTaskRemoveFromEventList+0x54>
		vListInsertEnd( ( xList * ) &( xPendingReadyList ), &( pxUnblockedTCB->xEventListItem ) );
   81ce8:	4629      	mov	r1, r5
   81cea:	4809      	ldr	r0, [pc, #36]	; (81d10 <xTaskRemoveFromEventList+0x80>)
   81cec:	4b05      	ldr	r3, [pc, #20]	; (81d04 <xTaskRemoveFromEventList+0x74>)
   81cee:	4798      	blx	r3
   81cf0:	e7ed      	b.n	81cce <xTaskRemoveFromEventList+0x3e>
   81cf2:	bf00      	nop
   81cf4:	00080d37 	.word	0x00080d37
   81cf8:	2007ab98 	.word	0x2007ab98
   81cfc:	2007aba4 	.word	0x2007aba4
   81d00:	2007ab2c 	.word	0x2007ab2c
   81d04:	00080ce1 	.word	0x00080ce1
   81d08:	2007ab20 	.word	0x2007ab20
   81d0c:	00080dbd 	.word	0x00080dbd
   81d10:	2007abdc 	.word	0x2007abdc

00081d14 <vTaskSetTimeOutState>:
{
   81d14:	b508      	push	{r3, lr}
	configASSERT( pxTimeOut );
   81d16:	b130      	cbz	r0, 81d26 <vTaskSetTimeOutState+0x12>
	pxTimeOut->xOverflowCount = xNumOfOverflows;
   81d18:	4a05      	ldr	r2, [pc, #20]	; (81d30 <vTaskSetTimeOutState+0x1c>)
   81d1a:	6812      	ldr	r2, [r2, #0]
   81d1c:	6002      	str	r2, [r0, #0]
	pxTimeOut->xTimeOnEntering = xTickCount;
   81d1e:	4a05      	ldr	r2, [pc, #20]	; (81d34 <vTaskSetTimeOutState+0x20>)
   81d20:	6812      	ldr	r2, [r2, #0]
   81d22:	6042      	str	r2, [r0, #4]
   81d24:	bd08      	pop	{r3, pc}
	configASSERT( pxTimeOut );
   81d26:	4b04      	ldr	r3, [pc, #16]	; (81d38 <vTaskSetTimeOutState+0x24>)
   81d28:	4798      	blx	r3
   81d2a:	bf00      	nop
   81d2c:	e7fd      	b.n	81d2a <vTaskSetTimeOutState+0x16>
   81d2e:	bf00      	nop
   81d30:	2007abd8 	.word	0x2007abd8
   81d34:	2007ac1c 	.word	0x2007ac1c
   81d38:	00080dbd 	.word	0x00080dbd

00081d3c <xTaskCheckForTimeOut>:
{
   81d3c:	b538      	push	{r3, r4, r5, lr}
	configASSERT( pxTimeOut );
   81d3e:	b1e8      	cbz	r0, 81d7c <xTaskCheckForTimeOut+0x40>
   81d40:	460d      	mov	r5, r1
   81d42:	4604      	mov	r4, r0
	configASSERT( pxTicksToWait );
   81d44:	b1f1      	cbz	r1, 81d84 <xTaskCheckForTimeOut+0x48>
	taskENTER_CRITICAL();
   81d46:	4b18      	ldr	r3, [pc, #96]	; (81da8 <xTaskCheckForTimeOut+0x6c>)
   81d48:	4798      	blx	r3
			if( *pxTicksToWait == portMAX_DELAY )
   81d4a:	682b      	ldr	r3, [r5, #0]
   81d4c:	f1b3 3fff 	cmp.w	r3, #4294967295
   81d50:	d026      	beq.n	81da0 <xTaskCheckForTimeOut+0x64>
		if( ( xNumOfOverflows != pxTimeOut->xOverflowCount ) && ( ( portTickType ) xTickCount >= ( portTickType ) pxTimeOut->xTimeOnEntering ) )
   81d52:	4a16      	ldr	r2, [pc, #88]	; (81dac <xTaskCheckForTimeOut+0x70>)
   81d54:	6812      	ldr	r2, [r2, #0]
   81d56:	6821      	ldr	r1, [r4, #0]
   81d58:	4291      	cmp	r1, r2
   81d5a:	d004      	beq.n	81d66 <xTaskCheckForTimeOut+0x2a>
   81d5c:	4a14      	ldr	r2, [pc, #80]	; (81db0 <xTaskCheckForTimeOut+0x74>)
   81d5e:	6812      	ldr	r2, [r2, #0]
   81d60:	6861      	ldr	r1, [r4, #4]
   81d62:	4291      	cmp	r1, r2
   81d64:	d91e      	bls.n	81da4 <xTaskCheckForTimeOut+0x68>
		else if( ( ( portTickType ) ( ( portTickType ) xTickCount - ( portTickType ) pxTimeOut->xTimeOnEntering ) ) < ( portTickType ) *pxTicksToWait )
   81d66:	4a12      	ldr	r2, [pc, #72]	; (81db0 <xTaskCheckForTimeOut+0x74>)
   81d68:	6812      	ldr	r2, [r2, #0]
   81d6a:	6861      	ldr	r1, [r4, #4]
   81d6c:	1a52      	subs	r2, r2, r1
   81d6e:	4293      	cmp	r3, r2
   81d70:	d80c      	bhi.n	81d8c <xTaskCheckForTimeOut+0x50>
			xReturn = pdTRUE;
   81d72:	2401      	movs	r4, #1
	taskEXIT_CRITICAL();
   81d74:	4b0f      	ldr	r3, [pc, #60]	; (81db4 <xTaskCheckForTimeOut+0x78>)
   81d76:	4798      	blx	r3
}
   81d78:	4620      	mov	r0, r4
   81d7a:	bd38      	pop	{r3, r4, r5, pc}
	configASSERT( pxTimeOut );
   81d7c:	4b0e      	ldr	r3, [pc, #56]	; (81db8 <xTaskCheckForTimeOut+0x7c>)
   81d7e:	4798      	blx	r3
   81d80:	bf00      	nop
   81d82:	e7fd      	b.n	81d80 <xTaskCheckForTimeOut+0x44>
	configASSERT( pxTicksToWait );
   81d84:	4b0c      	ldr	r3, [pc, #48]	; (81db8 <xTaskCheckForTimeOut+0x7c>)
   81d86:	4798      	blx	r3
   81d88:	bf00      	nop
   81d8a:	e7fd      	b.n	81d88 <xTaskCheckForTimeOut+0x4c>
			*pxTicksToWait -= ( ( portTickType ) xTickCount - ( portTickType ) pxTimeOut->xTimeOnEntering );
   81d8c:	4a08      	ldr	r2, [pc, #32]	; (81db0 <xTaskCheckForTimeOut+0x74>)
   81d8e:	6812      	ldr	r2, [r2, #0]
   81d90:	1a52      	subs	r2, r2, r1
   81d92:	1a9b      	subs	r3, r3, r2
   81d94:	602b      	str	r3, [r5, #0]
			vTaskSetTimeOutState( pxTimeOut );
   81d96:	4620      	mov	r0, r4
   81d98:	4b08      	ldr	r3, [pc, #32]	; (81dbc <xTaskCheckForTimeOut+0x80>)
   81d9a:	4798      	blx	r3
			xReturn = pdFALSE;
   81d9c:	2400      	movs	r4, #0
   81d9e:	e7e9      	b.n	81d74 <xTaskCheckForTimeOut+0x38>
				xReturn = pdFALSE;
   81da0:	2400      	movs	r4, #0
   81da2:	e7e7      	b.n	81d74 <xTaskCheckForTimeOut+0x38>
			xReturn = pdTRUE;
   81da4:	2401      	movs	r4, #1
   81da6:	e7e5      	b.n	81d74 <xTaskCheckForTimeOut+0x38>
   81da8:	00080dcd 	.word	0x00080dcd
   81dac:	2007abd8 	.word	0x2007abd8
   81db0:	2007ac1c 	.word	0x2007ac1c
   81db4:	00080ded 	.word	0x00080ded
   81db8:	00080dbd 	.word	0x00080dbd
   81dbc:	00081d15 	.word	0x00081d15

00081dc0 <vTaskMissedYield>:
	xMissedYield = pdTRUE;
   81dc0:	2201      	movs	r2, #1
   81dc2:	4b01      	ldr	r3, [pc, #4]	; (81dc8 <vTaskMissedYield+0x8>)
   81dc4:	601a      	str	r2, [r3, #0]
   81dc6:	4770      	bx	lr
   81dc8:	2007abd4 	.word	0x2007abd4

00081dcc <xTaskGetCurrentTaskHandle>:
	xTaskHandle xReturn;

		/* A critical section is not required as this is not called from
		an interrupt and the current TCB will always be the same for any
		individual execution thread. */
		xReturn = pxCurrentTCB;
   81dcc:	4b01      	ldr	r3, [pc, #4]	; (81dd4 <xTaskGetCurrentTaskHandle+0x8>)
   81dce:	6818      	ldr	r0, [r3, #0]

		return xReturn;
	}
   81dd0:	4770      	bx	lr
   81dd2:	bf00      	nop
   81dd4:	2007ab20 	.word	0x2007ab20

00081dd8 <xTaskGetSchedulerState>:

	portBASE_TYPE xTaskGetSchedulerState( void )
	{
	portBASE_TYPE xReturn;

		if( xSchedulerRunning == pdFALSE )
   81dd8:	4b05      	ldr	r3, [pc, #20]	; (81df0 <xTaskGetSchedulerState+0x18>)
   81dda:	681b      	ldr	r3, [r3, #0]
   81ddc:	b133      	cbz	r3, 81dec <xTaskGetSchedulerState+0x14>
		{
			xReturn = taskSCHEDULER_NOT_STARTED;
		}
		else
		{
			if( uxSchedulerSuspended == ( unsigned portBASE_TYPE ) pdFALSE )
   81dde:	4b05      	ldr	r3, [pc, #20]	; (81df4 <xTaskGetSchedulerState+0x1c>)
   81de0:	681b      	ldr	r3, [r3, #0]
			{
				xReturn = taskSCHEDULER_RUNNING;
			}
			else
			{
				xReturn = taskSCHEDULER_SUSPENDED;
   81de2:	2b00      	cmp	r3, #0
   81de4:	bf0c      	ite	eq
   81de6:	2001      	moveq	r0, #1
   81de8:	2002      	movne	r0, #2
   81dea:	4770      	bx	lr
			xReturn = taskSCHEDULER_NOT_STARTED;
   81dec:	2000      	movs	r0, #0
			}
		}

		return xReturn;
	}
   81dee:	4770      	bx	lr
   81df0:	2007abf0 	.word	0x2007abf0
   81df4:	2007ab98 	.word	0x2007ab98

00081df8 <vTaskPriorityInherit>:
	{
	tskTCB * const pxTCB = ( tskTCB * ) pxMutexHolder;

		/* If the mutex was given back by an interrupt while the queue was
		locked then the mutex holder might now be NULL. */
		if( pxMutexHolder != NULL )
   81df8:	2800      	cmp	r0, #0
   81dfa:	d031      	beq.n	81e60 <vTaskPriorityInherit+0x68>
	{
   81dfc:	b538      	push	{r3, r4, r5, lr}
   81dfe:	4605      	mov	r5, r0
		{
			if( pxTCB->uxPriority < pxCurrentTCB->uxPriority )
   81e00:	6ac3      	ldr	r3, [r0, #44]	; 0x2c
   81e02:	4918      	ldr	r1, [pc, #96]	; (81e64 <vTaskPriorityInherit+0x6c>)
   81e04:	6809      	ldr	r1, [r1, #0]
   81e06:	6ac9      	ldr	r1, [r1, #44]	; 0x2c
   81e08:	428b      	cmp	r3, r1
   81e0a:	d211      	bcs.n	81e30 <vTaskPriorityInherit+0x38>
			{
				/* Adjust the mutex holder state to account for its new priority. */
				listSET_LIST_ITEM_VALUE( &( pxTCB->xEventListItem ), configMAX_PRIORITIES - ( portTickType ) pxCurrentTCB->uxPriority );
   81e0c:	4915      	ldr	r1, [pc, #84]	; (81e64 <vTaskPriorityInherit+0x6c>)
   81e0e:	6809      	ldr	r1, [r1, #0]
   81e10:	6ac9      	ldr	r1, [r1, #44]	; 0x2c
   81e12:	f1c1 0105 	rsb	r1, r1, #5
   81e16:	6181      	str	r1, [r0, #24]

				/* If the task being modified is in the ready state it will need to
				be moved into a new list. */
				if( listIS_CONTAINED_WITHIN( &( pxReadyTasksLists[ pxTCB->uxPriority ] ), &( pxTCB->xGenericListItem ) ) != pdFALSE )
   81e18:	eb03 0383 	add.w	r3, r3, r3, lsl #2
   81e1c:	4912      	ldr	r1, [pc, #72]	; (81e68 <vTaskPriorityInherit+0x70>)
   81e1e:	eb01 0383 	add.w	r3, r1, r3, lsl #2
   81e22:	6941      	ldr	r1, [r0, #20]
   81e24:	4299      	cmp	r1, r3
   81e26:	d004      	beq.n	81e32 <vTaskPriorityInherit+0x3a>
					prvAddTaskToReadyQueue( pxTCB );
				}
				else
				{
					/* Just inherit the priority. */
					pxTCB->uxPriority = pxCurrentTCB->uxPriority;
   81e28:	4b0e      	ldr	r3, [pc, #56]	; (81e64 <vTaskPriorityInherit+0x6c>)
   81e2a:	681b      	ldr	r3, [r3, #0]
   81e2c:	6adb      	ldr	r3, [r3, #44]	; 0x2c
   81e2e:	62c3      	str	r3, [r0, #44]	; 0x2c
   81e30:	bd38      	pop	{r3, r4, r5, pc}
					if( uxListRemove( ( xListItem * ) &( pxTCB->xGenericListItem ) ) == 0 )
   81e32:	1d04      	adds	r4, r0, #4
   81e34:	4620      	mov	r0, r4
   81e36:	4b0d      	ldr	r3, [pc, #52]	; (81e6c <vTaskPriorityInherit+0x74>)
   81e38:	4798      	blx	r3
					pxTCB->uxPriority = pxCurrentTCB->uxPriority;
   81e3a:	4b0a      	ldr	r3, [pc, #40]	; (81e64 <vTaskPriorityInherit+0x6c>)
   81e3c:	681b      	ldr	r3, [r3, #0]
   81e3e:	6ad8      	ldr	r0, [r3, #44]	; 0x2c
   81e40:	62e8      	str	r0, [r5, #44]	; 0x2c
					prvAddTaskToReadyQueue( pxTCB );
   81e42:	4b0b      	ldr	r3, [pc, #44]	; (81e70 <vTaskPriorityInherit+0x78>)
   81e44:	681b      	ldr	r3, [r3, #0]
   81e46:	4298      	cmp	r0, r3
   81e48:	bf84      	itt	hi
   81e4a:	4b09      	ldrhi	r3, [pc, #36]	; (81e70 <vTaskPriorityInherit+0x78>)
   81e4c:	6018      	strhi	r0, [r3, #0]
   81e4e:	eb00 0080 	add.w	r0, r0, r0, lsl #2
   81e52:	4621      	mov	r1, r4
   81e54:	4b04      	ldr	r3, [pc, #16]	; (81e68 <vTaskPriorityInherit+0x70>)
   81e56:	eb03 0080 	add.w	r0, r3, r0, lsl #2
   81e5a:	4b06      	ldr	r3, [pc, #24]	; (81e74 <vTaskPriorityInherit+0x7c>)
   81e5c:	4798      	blx	r3
   81e5e:	bd38      	pop	{r3, r4, r5, pc}
   81e60:	4770      	bx	lr
   81e62:	bf00      	nop
   81e64:	2007ab20 	.word	0x2007ab20
   81e68:	2007ab2c 	.word	0x2007ab2c
   81e6c:	00080d37 	.word	0x00080d37
   81e70:	2007aba4 	.word	0x2007aba4
   81e74:	00080ce1 	.word	0x00080ce1

00081e78 <vTaskPriorityDisinherit>:

	void vTaskPriorityDisinherit( xTaskHandle * const pxMutexHolder )
	{
	tskTCB * const pxTCB = ( tskTCB * ) pxMutexHolder;

		if( pxMutexHolder != NULL )
   81e78:	b1e8      	cbz	r0, 81eb6 <vTaskPriorityDisinherit+0x3e>
	{
   81e7a:	b538      	push	{r3, r4, r5, lr}
   81e7c:	4604      	mov	r4, r0
		{
			if( pxTCB->uxPriority != pxTCB->uxBasePriority )
   81e7e:	6ac1      	ldr	r1, [r0, #44]	; 0x2c
   81e80:	6c82      	ldr	r2, [r0, #72]	; 0x48
   81e82:	4291      	cmp	r1, r2
   81e84:	d016      	beq.n	81eb4 <vTaskPriorityDisinherit+0x3c>
			{
				/* We must be the running task to be able to give the mutex back.
				Remove ourselves from the ready list we currently appear in. */
				if( uxListRemove( ( xListItem * ) &( pxTCB->xGenericListItem ) ) == 0 )
   81e86:	1d05      	adds	r5, r0, #4
   81e88:	4628      	mov	r0, r5
   81e8a:	4b0b      	ldr	r3, [pc, #44]	; (81eb8 <vTaskPriorityDisinherit+0x40>)
   81e8c:	4798      	blx	r3
				}

				/* Disinherit the priority before adding the task into the new
				ready list. */
				traceTASK_PRIORITY_DISINHERIT( pxTCB, pxTCB->uxBasePriority );
				pxTCB->uxPriority = pxTCB->uxBasePriority;
   81e8e:	6ca0      	ldr	r0, [r4, #72]	; 0x48
   81e90:	62e0      	str	r0, [r4, #44]	; 0x2c
				listSET_LIST_ITEM_VALUE( &( pxTCB->xEventListItem ), configMAX_PRIORITIES - ( portTickType ) pxTCB->uxPriority );
   81e92:	f1c0 0305 	rsb	r3, r0, #5
   81e96:	61a3      	str	r3, [r4, #24]
				prvAddTaskToReadyQueue( pxTCB );
   81e98:	4b08      	ldr	r3, [pc, #32]	; (81ebc <vTaskPriorityDisinherit+0x44>)
   81e9a:	681b      	ldr	r3, [r3, #0]
   81e9c:	4298      	cmp	r0, r3
   81e9e:	bf84      	itt	hi
   81ea0:	4b06      	ldrhi	r3, [pc, #24]	; (81ebc <vTaskPriorityDisinherit+0x44>)
   81ea2:	6018      	strhi	r0, [r3, #0]
   81ea4:	eb00 0080 	add.w	r0, r0, r0, lsl #2
   81ea8:	4629      	mov	r1, r5
   81eaa:	4b05      	ldr	r3, [pc, #20]	; (81ec0 <vTaskPriorityDisinherit+0x48>)
   81eac:	eb03 0080 	add.w	r0, r3, r0, lsl #2
   81eb0:	4b04      	ldr	r3, [pc, #16]	; (81ec4 <vTaskPriorityDisinherit+0x4c>)
   81eb2:	4798      	blx	r3
   81eb4:	bd38      	pop	{r3, r4, r5, pc}
   81eb6:	4770      	bx	lr
   81eb8:	00080d37 	.word	0x00080d37
   81ebc:	2007aba4 	.word	0x2007aba4
   81ec0:	2007ab2c 	.word	0x2007ab2c
   81ec4:	00080ce1 	.word	0x00080ce1

00081ec8 <prvInsertTimerInActiveList>:
	return xTimeNow;
}
/*-----------------------------------------------------------*/

static portBASE_TYPE prvInsertTimerInActiveList( xTIMER *pxTimer, portTickType xNextExpiryTime, portTickType xTimeNow, portTickType xCommandTime )
{
   81ec8:	b508      	push	{r3, lr}
portBASE_TYPE xProcessTimerNow = pdFALSE;

	listSET_LIST_ITEM_VALUE( &( pxTimer->xTimerListItem ), xNextExpiryTime );
   81eca:	6041      	str	r1, [r0, #4]
	listSET_LIST_ITEM_OWNER( &( pxTimer->xTimerListItem ), pxTimer );
   81ecc:	6100      	str	r0, [r0, #16]

	if( xNextExpiryTime <= xTimeNow )
   81ece:	4291      	cmp	r1, r2
   81ed0:	d80c      	bhi.n	81eec <prvInsertTimerInActiveList+0x24>
	{
		/* Has the expiry time elapsed between the command to start/reset a
		timer was issued, and the time the command was processed? */
		if( ( ( portTickType ) ( xTimeNow - xCommandTime ) ) >= pxTimer->xTimerPeriodInTicks )
   81ed2:	1ad2      	subs	r2, r2, r3
   81ed4:	6983      	ldr	r3, [r0, #24]
   81ed6:	429a      	cmp	r2, r3
   81ed8:	d301      	bcc.n	81ede <prvInsertTimerInActiveList+0x16>
		{
			/* The time between a command being issued and the command being
			processed actually exceeds the timers period.  */
			xProcessTimerNow = pdTRUE;
   81eda:	2001      	movs	r0, #1
   81edc:	bd08      	pop	{r3, pc}
		}
		else
		{
			vListInsert( pxOverflowTimerList, &( pxTimer->xTimerListItem ) );
   81ede:	1d01      	adds	r1, r0, #4
   81ee0:	4b09      	ldr	r3, [pc, #36]	; (81f08 <prvInsertTimerInActiveList+0x40>)
   81ee2:	6818      	ldr	r0, [r3, #0]
   81ee4:	4b09      	ldr	r3, [pc, #36]	; (81f0c <prvInsertTimerInActiveList+0x44>)
   81ee6:	4798      	blx	r3
portBASE_TYPE xProcessTimerNow = pdFALSE;
   81ee8:	2000      	movs	r0, #0
   81eea:	bd08      	pop	{r3, pc}
		}
	}
	else
	{
		if( ( xTimeNow < xCommandTime ) && ( xNextExpiryTime >= xCommandTime ) )
   81eec:	429a      	cmp	r2, r3
   81eee:	d201      	bcs.n	81ef4 <prvInsertTimerInActiveList+0x2c>
   81ef0:	4299      	cmp	r1, r3
   81ef2:	d206      	bcs.n	81f02 <prvInsertTimerInActiveList+0x3a>
			its expiry time and should be processed immediately. */
			xProcessTimerNow = pdTRUE;
		}
		else
		{
			vListInsert( pxCurrentTimerList, &( pxTimer->xTimerListItem ) );
   81ef4:	1d01      	adds	r1, r0, #4
   81ef6:	4b06      	ldr	r3, [pc, #24]	; (81f10 <prvInsertTimerInActiveList+0x48>)
   81ef8:	6818      	ldr	r0, [r3, #0]
   81efa:	4b04      	ldr	r3, [pc, #16]	; (81f0c <prvInsertTimerInActiveList+0x44>)
   81efc:	4798      	blx	r3
portBASE_TYPE xProcessTimerNow = pdFALSE;
   81efe:	2000      	movs	r0, #0
   81f00:	bd08      	pop	{r3, pc}
			xProcessTimerNow = pdTRUE;
   81f02:	2001      	movs	r0, #1
		}
	}

	return xProcessTimerNow;
}
   81f04:	bd08      	pop	{r3, pc}
   81f06:	bf00      	nop
   81f08:	2007ac24 	.word	0x2007ac24
   81f0c:	00080cfd 	.word	0x00080cfd
   81f10:	2007ac20 	.word	0x2007ac20

00081f14 <prvCheckForValidListAndQueue>:
	pxOverflowTimerList = pxTemp;
}
/*-----------------------------------------------------------*/

static void prvCheckForValidListAndQueue( void )
{
   81f14:	b570      	push	{r4, r5, r6, lr}
	/* Check that the list from which active timers are referenced, and the
	queue used to communicate with the timer service, have been
	initialised. */
	taskENTER_CRITICAL();
   81f16:	4b0d      	ldr	r3, [pc, #52]	; (81f4c <prvCheckForValidListAndQueue+0x38>)
   81f18:	4798      	blx	r3
	{
		if( xTimerQueue == NULL )
   81f1a:	4b0d      	ldr	r3, [pc, #52]	; (81f50 <prvCheckForValidListAndQueue+0x3c>)
   81f1c:	681b      	ldr	r3, [r3, #0]
   81f1e:	b113      	cbz	r3, 81f26 <prvCheckForValidListAndQueue+0x12>
			pxCurrentTimerList = &xActiveTimerList1;
			pxOverflowTimerList = &xActiveTimerList2;
			xTimerQueue = xQueueCreate( ( unsigned portBASE_TYPE ) configTIMER_QUEUE_LENGTH, sizeof( xTIMER_MESSAGE ) );
		}
	}
	taskEXIT_CRITICAL();
   81f20:	4b0c      	ldr	r3, [pc, #48]	; (81f54 <prvCheckForValidListAndQueue+0x40>)
   81f22:	4798      	blx	r3
   81f24:	bd70      	pop	{r4, r5, r6, pc}
			vListInitialise( &xActiveTimerList1 );
   81f26:	4d0c      	ldr	r5, [pc, #48]	; (81f58 <prvCheckForValidListAndQueue+0x44>)
   81f28:	4628      	mov	r0, r5
   81f2a:	4e0c      	ldr	r6, [pc, #48]	; (81f5c <prvCheckForValidListAndQueue+0x48>)
   81f2c:	47b0      	blx	r6
			vListInitialise( &xActiveTimerList2 );
   81f2e:	4c0c      	ldr	r4, [pc, #48]	; (81f60 <prvCheckForValidListAndQueue+0x4c>)
   81f30:	4620      	mov	r0, r4
   81f32:	47b0      	blx	r6
			pxCurrentTimerList = &xActiveTimerList1;
   81f34:	4b0b      	ldr	r3, [pc, #44]	; (81f64 <prvCheckForValidListAndQueue+0x50>)
   81f36:	601d      	str	r5, [r3, #0]
			pxOverflowTimerList = &xActiveTimerList2;
   81f38:	4b0b      	ldr	r3, [pc, #44]	; (81f68 <prvCheckForValidListAndQueue+0x54>)
   81f3a:	601c      	str	r4, [r3, #0]
			xTimerQueue = xQueueCreate( ( unsigned portBASE_TYPE ) configTIMER_QUEUE_LENGTH, sizeof( xTIMER_MESSAGE ) );
   81f3c:	2200      	movs	r2, #0
   81f3e:	210c      	movs	r1, #12
   81f40:	2005      	movs	r0, #5
   81f42:	4b0a      	ldr	r3, [pc, #40]	; (81f6c <prvCheckForValidListAndQueue+0x58>)
   81f44:	4798      	blx	r3
   81f46:	4b02      	ldr	r3, [pc, #8]	; (81f50 <prvCheckForValidListAndQueue+0x3c>)
   81f48:	6018      	str	r0, [r3, #0]
   81f4a:	e7e9      	b.n	81f20 <prvCheckForValidListAndQueue+0xc>
   81f4c:	00080dcd 	.word	0x00080dcd
   81f50:	2007ac54 	.word	0x2007ac54
   81f54:	00080ded 	.word	0x00080ded
   81f58:	2007ac28 	.word	0x2007ac28
   81f5c:	00080cc5 	.word	0x00080cc5
   81f60:	2007ac3c 	.word	0x2007ac3c
   81f64:	2007ac20 	.word	0x2007ac20
   81f68:	2007ac24 	.word	0x2007ac24
   81f6c:	000811c5 	.word	0x000811c5

00081f70 <xTimerCreateTimerTask>:
{
   81f70:	b510      	push	{r4, lr}
   81f72:	b084      	sub	sp, #16
	prvCheckForValidListAndQueue();
   81f74:	4b0b      	ldr	r3, [pc, #44]	; (81fa4 <xTimerCreateTimerTask+0x34>)
   81f76:	4798      	blx	r3
	if( xTimerQueue != NULL )
   81f78:	4b0b      	ldr	r3, [pc, #44]	; (81fa8 <xTimerCreateTimerTask+0x38>)
   81f7a:	681b      	ldr	r3, [r3, #0]
   81f7c:	b173      	cbz	r3, 81f9c <xTimerCreateTimerTask+0x2c>
			xReturn = xTaskCreate( prvTimerTask, ( const signed char * ) "Tmr Svc", ( unsigned short ) configTIMER_TASK_STACK_DEPTH, NULL, ( ( unsigned portBASE_TYPE ) configTIMER_TASK_PRIORITY ) | portPRIVILEGE_BIT, NULL);
   81f7e:	2300      	movs	r3, #0
   81f80:	9303      	str	r3, [sp, #12]
   81f82:	9302      	str	r3, [sp, #8]
   81f84:	9301      	str	r3, [sp, #4]
   81f86:	2204      	movs	r2, #4
   81f88:	9200      	str	r2, [sp, #0]
   81f8a:	f44f 7282 	mov.w	r2, #260	; 0x104
   81f8e:	4907      	ldr	r1, [pc, #28]	; (81fac <xTimerCreateTimerTask+0x3c>)
   81f90:	4807      	ldr	r0, [pc, #28]	; (81fb0 <xTimerCreateTimerTask+0x40>)
   81f92:	4c08      	ldr	r4, [pc, #32]	; (81fb4 <xTimerCreateTimerTask+0x44>)
   81f94:	47a0      	blx	r4
	configASSERT( xReturn );
   81f96:	b108      	cbz	r0, 81f9c <xTimerCreateTimerTask+0x2c>
}
   81f98:	b004      	add	sp, #16
   81f9a:	bd10      	pop	{r4, pc}
	configASSERT( xReturn );
   81f9c:	4b06      	ldr	r3, [pc, #24]	; (81fb8 <xTimerCreateTimerTask+0x48>)
   81f9e:	4798      	blx	r3
   81fa0:	bf00      	nop
   81fa2:	e7fd      	b.n	81fa0 <xTimerCreateTimerTask+0x30>
   81fa4:	00081f15 	.word	0x00081f15
   81fa8:	2007ac54 	.word	0x2007ac54
   81fac:	00085b18 	.word	0x00085b18
   81fb0:	000820c1 	.word	0x000820c1
   81fb4:	000815e1 	.word	0x000815e1
   81fb8:	00080dbd 	.word	0x00080dbd

00081fbc <xTimerGenericCommand>:
{
   81fbc:	b530      	push	{r4, r5, lr}
   81fbe:	b085      	sub	sp, #20
	if( xTimerQueue != NULL )
   81fc0:	4c0f      	ldr	r4, [pc, #60]	; (82000 <xTimerGenericCommand+0x44>)
   81fc2:	6825      	ldr	r5, [r4, #0]
   81fc4:	b1d5      	cbz	r5, 81ffc <xTimerGenericCommand+0x40>
   81fc6:	461c      	mov	r4, r3
		xMessage.xMessageID = xCommandID;
   81fc8:	9101      	str	r1, [sp, #4]
		xMessage.xMessageValue = xOptionalValue;
   81fca:	9202      	str	r2, [sp, #8]
		xMessage.pxTimer = ( xTIMER * ) xTimer;
   81fcc:	9003      	str	r0, [sp, #12]
		if( pxHigherPriorityTaskWoken == NULL )
   81fce:	b13b      	cbz	r3, 81fe0 <xTimerGenericCommand+0x24>
			xReturn = xQueueSendToBackFromISR( xTimerQueue, &xMessage, pxHigherPriorityTaskWoken );
   81fd0:	2300      	movs	r3, #0
   81fd2:	4622      	mov	r2, r4
   81fd4:	a901      	add	r1, sp, #4
   81fd6:	4628      	mov	r0, r5
   81fd8:	4c0a      	ldr	r4, [pc, #40]	; (82004 <xTimerGenericCommand+0x48>)
   81fda:	47a0      	blx	r4
}
   81fdc:	b005      	add	sp, #20
   81fde:	bd30      	pop	{r4, r5, pc}
			if( xTaskGetSchedulerState() == taskSCHEDULER_RUNNING )
   81fe0:	4b09      	ldr	r3, [pc, #36]	; (82008 <xTimerGenericCommand+0x4c>)
   81fe2:	4798      	blx	r3
   81fe4:	2801      	cmp	r0, #1
				xReturn = xQueueSendToBack( xTimerQueue, &xMessage, xBlockTime );
   81fe6:	f04f 0300 	mov.w	r3, #0
   81fea:	bf0c      	ite	eq
   81fec:	9a08      	ldreq	r2, [sp, #32]
				xReturn = xQueueSendToBack( xTimerQueue, &xMessage, tmrNO_DELAY );
   81fee:	461a      	movne	r2, r3
   81ff0:	a901      	add	r1, sp, #4
   81ff2:	4803      	ldr	r0, [pc, #12]	; (82000 <xTimerGenericCommand+0x44>)
   81ff4:	6800      	ldr	r0, [r0, #0]
   81ff6:	4c05      	ldr	r4, [pc, #20]	; (8200c <xTimerGenericCommand+0x50>)
   81ff8:	47a0      	blx	r4
   81ffa:	e7ef      	b.n	81fdc <xTimerGenericCommand+0x20>
portBASE_TYPE xReturn = pdFAIL;
   81ffc:	2000      	movs	r0, #0
	return xReturn;
   81ffe:	e7ed      	b.n	81fdc <xTimerGenericCommand+0x20>
   82000:	2007ac54 	.word	0x2007ac54
   82004:	00081341 	.word	0x00081341
   82008:	00081dd9 	.word	0x00081dd9
   8200c:	00081219 	.word	0x00081219

00082010 <prvSampleTimeNow>:
{
   82010:	e92d 47f0 	stmdb	sp!, {r4, r5, r6, r7, r8, r9, sl, lr}
   82014:	b082      	sub	sp, #8
   82016:	4681      	mov	r9, r0
	xTimeNow = xTaskGetTickCount();
   82018:	4b21      	ldr	r3, [pc, #132]	; (820a0 <prvSampleTimeNow+0x90>)
   8201a:	4798      	blx	r3
   8201c:	4680      	mov	r8, r0
	if( xTimeNow < xLastTime )
   8201e:	4b21      	ldr	r3, [pc, #132]	; (820a4 <prvSampleTimeNow+0x94>)
   82020:	681b      	ldr	r3, [r3, #0]
   82022:	4298      	cmp	r0, r3
   82024:	d315      	bcc.n	82052 <prvSampleTimeNow+0x42>
		*pxTimerListsWereSwitched = pdFALSE;
   82026:	2300      	movs	r3, #0
   82028:	f8c9 3000 	str.w	r3, [r9]
	xLastTime = xTimeNow;
   8202c:	4b1d      	ldr	r3, [pc, #116]	; (820a4 <prvSampleTimeNow+0x94>)
   8202e:	f8c3 8000 	str.w	r8, [r3]
}
   82032:	4640      	mov	r0, r8
   82034:	b002      	add	sp, #8
   82036:	e8bd 87f0 	ldmia.w	sp!, {r4, r5, r6, r7, r8, r9, sl, pc}
				xResult = xTimerGenericCommand( pxTimer, tmrCOMMAND_START, xNextExpireTime, NULL, tmrNO_DELAY );
   8203a:	2100      	movs	r1, #0
   8203c:	9100      	str	r1, [sp, #0]
   8203e:	460b      	mov	r3, r1
   82040:	4652      	mov	r2, sl
   82042:	4620      	mov	r0, r4
   82044:	4c18      	ldr	r4, [pc, #96]	; (820a8 <prvSampleTimeNow+0x98>)
   82046:	47a0      	blx	r4
				configASSERT( xResult );
   82048:	b928      	cbnz	r0, 82056 <prvSampleTimeNow+0x46>
   8204a:	4b18      	ldr	r3, [pc, #96]	; (820ac <prvSampleTimeNow+0x9c>)
   8204c:	4798      	blx	r3
   8204e:	bf00      	nop
   82050:	e7fd      	b.n	8204e <prvSampleTimeNow+0x3e>
	while( listLIST_IS_EMPTY( pxCurrentTimerList ) == pdFALSE )
   82052:	4e17      	ldr	r6, [pc, #92]	; (820b0 <prvSampleTimeNow+0xa0>)
		uxListRemove( &( pxTimer->xTimerListItem ) );
   82054:	4f17      	ldr	r7, [pc, #92]	; (820b4 <prvSampleTimeNow+0xa4>)
	while( listLIST_IS_EMPTY( pxCurrentTimerList ) == pdFALSE )
   82056:	6833      	ldr	r3, [r6, #0]
   82058:	681a      	ldr	r2, [r3, #0]
   8205a:	b1c2      	cbz	r2, 8208e <prvSampleTimeNow+0x7e>
		xNextExpireTime = listGET_ITEM_VALUE_OF_HEAD_ENTRY( pxCurrentTimerList );
   8205c:	68da      	ldr	r2, [r3, #12]
   8205e:	f8d2 a000 	ldr.w	sl, [r2]
		pxTimer = ( xTIMER * ) listGET_OWNER_OF_HEAD_ENTRY( pxCurrentTimerList );
   82062:	68db      	ldr	r3, [r3, #12]
   82064:	68dc      	ldr	r4, [r3, #12]
		uxListRemove( &( pxTimer->xTimerListItem ) );
   82066:	1d25      	adds	r5, r4, #4
   82068:	4628      	mov	r0, r5
   8206a:	47b8      	blx	r7
		pxTimer->pxCallbackFunction( ( xTimerHandle ) pxTimer );
   8206c:	6a63      	ldr	r3, [r4, #36]	; 0x24
   8206e:	4620      	mov	r0, r4
   82070:	4798      	blx	r3
		if( pxTimer->uxAutoReload == ( unsigned portBASE_TYPE ) pdTRUE )
   82072:	69e3      	ldr	r3, [r4, #28]
   82074:	2b01      	cmp	r3, #1
   82076:	d1ee      	bne.n	82056 <prvSampleTimeNow+0x46>
			xReloadTime = ( xNextExpireTime + pxTimer->xTimerPeriodInTicks );
   82078:	69a3      	ldr	r3, [r4, #24]
   8207a:	4453      	add	r3, sl
			if( xReloadTime > xNextExpireTime )
   8207c:	459a      	cmp	sl, r3
   8207e:	d2dc      	bcs.n	8203a <prvSampleTimeNow+0x2a>
				listSET_LIST_ITEM_VALUE( &( pxTimer->xTimerListItem ), xReloadTime );
   82080:	6063      	str	r3, [r4, #4]
				listSET_LIST_ITEM_OWNER( &( pxTimer->xTimerListItem ), pxTimer );
   82082:	6124      	str	r4, [r4, #16]
				vListInsert( pxCurrentTimerList, &( pxTimer->xTimerListItem ) );
   82084:	4629      	mov	r1, r5
   82086:	6830      	ldr	r0, [r6, #0]
   82088:	4b0b      	ldr	r3, [pc, #44]	; (820b8 <prvSampleTimeNow+0xa8>)
   8208a:	4798      	blx	r3
   8208c:	e7e3      	b.n	82056 <prvSampleTimeNow+0x46>
	pxCurrentTimerList = pxOverflowTimerList;
   8208e:	4a0b      	ldr	r2, [pc, #44]	; (820bc <prvSampleTimeNow+0xac>)
   82090:	6810      	ldr	r0, [r2, #0]
   82092:	4907      	ldr	r1, [pc, #28]	; (820b0 <prvSampleTimeNow+0xa0>)
   82094:	6008      	str	r0, [r1, #0]
	pxOverflowTimerList = pxTemp;
   82096:	6013      	str	r3, [r2, #0]
		*pxTimerListsWereSwitched = pdTRUE;
   82098:	2301      	movs	r3, #1
   8209a:	f8c9 3000 	str.w	r3, [r9]
   8209e:	e7c5      	b.n	8202c <prvSampleTimeNow+0x1c>
   820a0:	0008185d 	.word	0x0008185d
   820a4:	2007ac50 	.word	0x2007ac50
   820a8:	00081fbd 	.word	0x00081fbd
   820ac:	00080dbd 	.word	0x00080dbd
   820b0:	2007ac20 	.word	0x2007ac20
   820b4:	00080d37 	.word	0x00080d37
   820b8:	00080cfd 	.word	0x00080cfd
   820bc:	2007ac24 	.word	0x2007ac24

000820c0 <prvTimerTask>:
{
   820c0:	e92d 41f0 	stmdb	sp!, {r4, r5, r6, r7, r8, lr}
   820c4:	b086      	sub	sp, #24
	uxListRemove( &( pxTimer->xTimerListItem ) );
   820c6:	f8df 8168 	ldr.w	r8, [pc, #360]	; 82230 <prvTimerTask+0x170>
	*pxListWasEmpty = listLIST_IS_EMPTY( pxCurrentTimerList );
   820ca:	4b4d      	ldr	r3, [pc, #308]	; (82200 <prvTimerTask+0x140>)
   820cc:	681b      	ldr	r3, [r3, #0]
   820ce:	681a      	ldr	r2, [r3, #0]
	if( *pxListWasEmpty == pdFALSE )
   820d0:	2a00      	cmp	r2, #0
   820d2:	f000 8089 	beq.w	821e8 <prvTimerTask+0x128>
		xNextExpireTime = listGET_ITEM_VALUE_OF_HEAD_ENTRY( pxCurrentTimerList );
   820d6:	68db      	ldr	r3, [r3, #12]
   820d8:	681d      	ldr	r5, [r3, #0]
	vTaskSuspendAll();
   820da:	4b4a      	ldr	r3, [pc, #296]	; (82204 <prvTimerTask+0x144>)
   820dc:	4798      	blx	r3
		xTimeNow = prvSampleTimeNow( &xTimerListsWereSwitched );
   820de:	a803      	add	r0, sp, #12
   820e0:	4b49      	ldr	r3, [pc, #292]	; (82208 <prvTimerTask+0x148>)
   820e2:	4798      	blx	r3
   820e4:	4606      	mov	r6, r0
		if( xTimerListsWereSwitched == pdFALSE )
   820e6:	9b03      	ldr	r3, [sp, #12]
   820e8:	2b00      	cmp	r3, #0
   820ea:	f040 8086 	bne.w	821fa <prvTimerTask+0x13a>
			if( ( xListWasEmpty == pdFALSE ) && ( xNextExpireTime <= xTimeNow ) )
   820ee:	42a8      	cmp	r0, r5
   820f0:	d20f      	bcs.n	82112 <prvTimerTask+0x52>
				vQueueWaitForMessageRestricted( xTimerQueue, ( xNextExpireTime - xTimeNow ) );
   820f2:	1ba9      	subs	r1, r5, r6
   820f4:	4b45      	ldr	r3, [pc, #276]	; (8220c <prvTimerTask+0x14c>)
   820f6:	6818      	ldr	r0, [r3, #0]
   820f8:	4b45      	ldr	r3, [pc, #276]	; (82210 <prvTimerTask+0x150>)
   820fa:	4798      	blx	r3
				if( xTaskResumeAll() == pdFALSE )
   820fc:	4b45      	ldr	r3, [pc, #276]	; (82214 <prvTimerTask+0x154>)
   820fe:	4798      	blx	r3
   82100:	b908      	cbnz	r0, 82106 <prvTimerTask+0x46>
					portYIELD_WITHIN_API();
   82102:	4b45      	ldr	r3, [pc, #276]	; (82218 <prvTimerTask+0x158>)
   82104:	4798      	blx	r3
	xTimeNow = prvSampleTimeNow( &xTimerListsWereSwitched );
   82106:	a802      	add	r0, sp, #8
   82108:	4b3f      	ldr	r3, [pc, #252]	; (82208 <prvTimerTask+0x148>)
   8210a:	4798      	blx	r3
   8210c:	4607      	mov	r7, r0
	while( xQueueReceive( xTimerQueue, &xMessage, tmrNO_DELAY ) != pdFAIL )
   8210e:	4e3f      	ldr	r6, [pc, #252]	; (8220c <prvTimerTask+0x14c>)
   82110:	e036      	b.n	82180 <prvTimerTask+0xc0>
				xTaskResumeAll();
   82112:	4b40      	ldr	r3, [pc, #256]	; (82214 <prvTimerTask+0x154>)
   82114:	4798      	blx	r3
	pxTimer = ( xTIMER * ) listGET_OWNER_OF_HEAD_ENTRY( pxCurrentTimerList );
   82116:	4b3a      	ldr	r3, [pc, #232]	; (82200 <prvTimerTask+0x140>)
   82118:	681b      	ldr	r3, [r3, #0]
   8211a:	68db      	ldr	r3, [r3, #12]
   8211c:	68dc      	ldr	r4, [r3, #12]
	uxListRemove( &( pxTimer->xTimerListItem ) );
   8211e:	1d20      	adds	r0, r4, #4
   82120:	47c0      	blx	r8
	if( pxTimer->uxAutoReload == ( unsigned portBASE_TYPE ) pdTRUE )
   82122:	69e3      	ldr	r3, [r4, #28]
   82124:	2b01      	cmp	r3, #1
   82126:	d114      	bne.n	82152 <prvTimerTask+0x92>
		if( prvInsertTimerInActiveList( pxTimer, ( xNextExpireTime + pxTimer->xTimerPeriodInTicks ), xTimeNow, xNextExpireTime ) == pdTRUE )
   82128:	69a1      	ldr	r1, [r4, #24]
   8212a:	462b      	mov	r3, r5
   8212c:	4632      	mov	r2, r6
   8212e:	4429      	add	r1, r5
   82130:	4620      	mov	r0, r4
   82132:	4e3a      	ldr	r6, [pc, #232]	; (8221c <prvTimerTask+0x15c>)
   82134:	47b0      	blx	r6
   82136:	2801      	cmp	r0, #1
   82138:	d10b      	bne.n	82152 <prvTimerTask+0x92>
			xResult = xTimerGenericCommand( pxTimer, tmrCOMMAND_START, xNextExpireTime, NULL, tmrNO_DELAY );
   8213a:	2100      	movs	r1, #0
   8213c:	9100      	str	r1, [sp, #0]
   8213e:	460b      	mov	r3, r1
   82140:	462a      	mov	r2, r5
   82142:	4620      	mov	r0, r4
   82144:	4d36      	ldr	r5, [pc, #216]	; (82220 <prvTimerTask+0x160>)
   82146:	47a8      	blx	r5
			configASSERT( xResult );
   82148:	b918      	cbnz	r0, 82152 <prvTimerTask+0x92>
   8214a:	4b36      	ldr	r3, [pc, #216]	; (82224 <prvTimerTask+0x164>)
   8214c:	4798      	blx	r3
   8214e:	bf00      	nop
   82150:	e7fd      	b.n	8214e <prvTimerTask+0x8e>
	pxTimer->pxCallbackFunction( ( xTimerHandle ) pxTimer );
   82152:	6a63      	ldr	r3, [r4, #36]	; 0x24
   82154:	4620      	mov	r0, r4
   82156:	4798      	blx	r3
   82158:	e7d5      	b.n	82106 <prvTimerTask+0x46>
		xNextExpireTime = ( portTickType ) 0U;
   8215a:	2500      	movs	r5, #0
   8215c:	e7c9      	b.n	820f2 <prvTimerTask+0x32>
				pxTimer->xTimerPeriodInTicks = xMessage.xMessageValue;
   8215e:	9904      	ldr	r1, [sp, #16]
   82160:	61a1      	str	r1, [r4, #24]
				configASSERT( ( pxTimer->xTimerPeriodInTicks > 0 ) );
   82162:	b131      	cbz	r1, 82172 <prvTimerTask+0xb2>
				prvInsertTimerInActiveList( pxTimer, ( xTimeNow + pxTimer->xTimerPeriodInTicks ), xTimeNow, xTimeNow );
   82164:	463b      	mov	r3, r7
   82166:	463a      	mov	r2, r7
   82168:	4439      	add	r1, r7
   8216a:	4620      	mov	r0, r4
   8216c:	4c2b      	ldr	r4, [pc, #172]	; (8221c <prvTimerTask+0x15c>)
   8216e:	47a0      	blx	r4
   82170:	e006      	b.n	82180 <prvTimerTask+0xc0>
				configASSERT( ( pxTimer->xTimerPeriodInTicks > 0 ) );
   82172:	4b2c      	ldr	r3, [pc, #176]	; (82224 <prvTimerTask+0x164>)
   82174:	4798      	blx	r3
   82176:	bf00      	nop
   82178:	e7fd      	b.n	82176 <prvTimerTask+0xb6>
				vPortFree( pxTimer );
   8217a:	4620      	mov	r0, r4
   8217c:	4b2a      	ldr	r3, [pc, #168]	; (82228 <prvTimerTask+0x168>)
   8217e:	4798      	blx	r3
	while( xQueueReceive( xTimerQueue, &xMessage, tmrNO_DELAY ) != pdFAIL )
   82180:	4d2a      	ldr	r5, [pc, #168]	; (8222c <prvTimerTask+0x16c>)
   82182:	2300      	movs	r3, #0
   82184:	461a      	mov	r2, r3
   82186:	a903      	add	r1, sp, #12
   82188:	6830      	ldr	r0, [r6, #0]
   8218a:	47a8      	blx	r5
   8218c:	2800      	cmp	r0, #0
   8218e:	d09c      	beq.n	820ca <prvTimerTask+0xa>
		pxTimer = xMessage.pxTimer;
   82190:	9c05      	ldr	r4, [sp, #20]
		if( pxTimer != NULL )
   82192:	b11c      	cbz	r4, 8219c <prvTimerTask+0xdc>
			if( listIS_CONTAINED_WITHIN( NULL, &( pxTimer->xTimerListItem ) ) == pdFALSE )
   82194:	6963      	ldr	r3, [r4, #20]
   82196:	b10b      	cbz	r3, 8219c <prvTimerTask+0xdc>
				uxListRemove( &( pxTimer->xTimerListItem ) );
   82198:	1d20      	adds	r0, r4, #4
   8219a:	47c0      	blx	r8
		switch( xMessage.xMessageID )
   8219c:	9b03      	ldr	r3, [sp, #12]
   8219e:	2b02      	cmp	r3, #2
   821a0:	d0dd      	beq.n	8215e <prvTimerTask+0x9e>
   821a2:	2b03      	cmp	r3, #3
   821a4:	d0e9      	beq.n	8217a <prvTimerTask+0xba>
   821a6:	2b00      	cmp	r3, #0
   821a8:	d1eb      	bne.n	82182 <prvTimerTask+0xc2>
				if( prvInsertTimerInActiveList( pxTimer,  xMessage.xMessageValue + pxTimer->xTimerPeriodInTicks, xTimeNow, xMessage.xMessageValue ) == pdTRUE )
   821aa:	9904      	ldr	r1, [sp, #16]
   821ac:	69a0      	ldr	r0, [r4, #24]
   821ae:	460b      	mov	r3, r1
   821b0:	463a      	mov	r2, r7
   821b2:	4401      	add	r1, r0
   821b4:	4620      	mov	r0, r4
   821b6:	4d19      	ldr	r5, [pc, #100]	; (8221c <prvTimerTask+0x15c>)
   821b8:	47a8      	blx	r5
   821ba:	2801      	cmp	r0, #1
   821bc:	d1e0      	bne.n	82180 <prvTimerTask+0xc0>
					pxTimer->pxCallbackFunction( ( xTimerHandle ) pxTimer );
   821be:	6a63      	ldr	r3, [r4, #36]	; 0x24
   821c0:	4620      	mov	r0, r4
   821c2:	4798      	blx	r3
					if( pxTimer->uxAutoReload == ( unsigned portBASE_TYPE ) pdTRUE )
   821c4:	69e3      	ldr	r3, [r4, #28]
   821c6:	2b01      	cmp	r3, #1
   821c8:	d1da      	bne.n	82180 <prvTimerTask+0xc0>
						xResult = xTimerGenericCommand( pxTimer, tmrCOMMAND_START, xMessage.xMessageValue + pxTimer->xTimerPeriodInTicks, NULL, tmrNO_DELAY );
   821ca:	69a2      	ldr	r2, [r4, #24]
   821cc:	2100      	movs	r1, #0
   821ce:	9100      	str	r1, [sp, #0]
   821d0:	460b      	mov	r3, r1
   821d2:	9804      	ldr	r0, [sp, #16]
   821d4:	4402      	add	r2, r0
   821d6:	4620      	mov	r0, r4
   821d8:	4c11      	ldr	r4, [pc, #68]	; (82220 <prvTimerTask+0x160>)
   821da:	47a0      	blx	r4
						configASSERT( xResult );
   821dc:	2800      	cmp	r0, #0
   821de:	d1cf      	bne.n	82180 <prvTimerTask+0xc0>
   821e0:	4b10      	ldr	r3, [pc, #64]	; (82224 <prvTimerTask+0x164>)
   821e2:	4798      	blx	r3
   821e4:	bf00      	nop
   821e6:	e7fd      	b.n	821e4 <prvTimerTask+0x124>
	vTaskSuspendAll();
   821e8:	4b06      	ldr	r3, [pc, #24]	; (82204 <prvTimerTask+0x144>)
   821ea:	4798      	blx	r3
		xTimeNow = prvSampleTimeNow( &xTimerListsWereSwitched );
   821ec:	a803      	add	r0, sp, #12
   821ee:	4b06      	ldr	r3, [pc, #24]	; (82208 <prvTimerTask+0x148>)
   821f0:	4798      	blx	r3
   821f2:	4606      	mov	r6, r0
		if( xTimerListsWereSwitched == pdFALSE )
   821f4:	9b03      	ldr	r3, [sp, #12]
   821f6:	2b00      	cmp	r3, #0
   821f8:	d0af      	beq.n	8215a <prvTimerTask+0x9a>
			xTaskResumeAll();
   821fa:	4b06      	ldr	r3, [pc, #24]	; (82214 <prvTimerTask+0x154>)
   821fc:	4798      	blx	r3
   821fe:	e782      	b.n	82106 <prvTimerTask+0x46>
   82200:	2007ac20 	.word	0x2007ac20
   82204:	0008184d 	.word	0x0008184d
   82208:	00082011 	.word	0x00082011
   8220c:	2007ac54 	.word	0x2007ac54
   82210:	00081539 	.word	0x00081539
   82214:	000819c5 	.word	0x000819c5
   82218:	00080dad 	.word	0x00080dad
   8221c:	00081ec9 	.word	0x00081ec9
   82220:	00081fbd 	.word	0x00081fbd
   82224:	00080dbd 	.word	0x00080dbd
   82228:	00080fe9 	.word	0x00080fe9
   8222c:	000813d1 	.word	0x000813d1
   82230:	00080d37 	.word	0x00080d37

00082234 <sysclk_init>:
	pmc_disable_udpck();
}
#endif // CONFIG_USBCLK_SOURCE

void sysclk_init(void)
{
   82234:	b510      	push	{r4, lr}
	struct pll_config pllcfg;

	/* Set flash wait state to max in case the below clock switching. */
	system_init_flash(CHIP_FREQ_CPU_MAX);
   82236:	480e      	ldr	r0, [pc, #56]	; (82270 <sysclk_init+0x3c>)
   82238:	4b0e      	ldr	r3, [pc, #56]	; (82274 <sysclk_init+0x40>)
   8223a:	4798      	blx	r3
		pmc_switch_mainck_to_fastrc(CKGR_MOR_MOSCRCF_12_MHz);
		break;


	case OSC_MAINCK_XTAL:
		pmc_switch_mainck_to_xtal(PMC_OSC_XTAL,
   8223c:	213e      	movs	r1, #62	; 0x3e
   8223e:	2000      	movs	r0, #0
   82240:	4b0d      	ldr	r3, [pc, #52]	; (82278 <sysclk_init+0x44>)
   82242:	4798      	blx	r3
	case OSC_MAINCK_4M_RC:
	case OSC_MAINCK_8M_RC:
	case OSC_MAINCK_12M_RC:
	case OSC_MAINCK_XTAL:
	case OSC_MAINCK_BYPASS:
		return pmc_osc_is_ready_mainck();
   82244:	4c0d      	ldr	r4, [pc, #52]	; (8227c <sysclk_init+0x48>)
   82246:	47a0      	blx	r4
 *
 * \param id A number identifying the oscillator to wait for.
 */
static inline void osc_wait_ready(uint8_t id)
{
	while (!osc_is_ready(id)) {
   82248:	2800      	cmp	r0, #0
   8224a:	d0fc      	beq.n	82246 <sysclk_init+0x12>
static inline void pll_enable(const struct pll_config *p_cfg, uint32_t ul_pll_id)
{
	Assert(ul_pll_id < NR_PLLS);

	if (ul_pll_id == PLLA_ID) {
		pmc_disable_pllack(); // Always stop PLL first!
   8224c:	4b0c      	ldr	r3, [pc, #48]	; (82280 <sysclk_init+0x4c>)
   8224e:	4798      	blx	r3
		PMC->CKGR_PLLAR = CKGR_PLLAR_ONE | p_cfg->ctrl;
   82250:	4a0c      	ldr	r2, [pc, #48]	; (82284 <sysclk_init+0x50>)
   82252:	4b0d      	ldr	r3, [pc, #52]	; (82288 <sysclk_init+0x54>)
   82254:	629a      	str	r2, [r3, #40]	; 0x28
static inline uint32_t pll_is_locked(uint32_t ul_pll_id)
{
	Assert(ul_pll_id < NR_PLLS);

	if (ul_pll_id == PLLA_ID) {
		return pmc_is_locked_pllack();
   82256:	4c0d      	ldr	r4, [pc, #52]	; (8228c <sysclk_init+0x58>)
   82258:	47a0      	blx	r4
 */
static inline int pll_wait_for_lock(unsigned int pll_id)
{
	Assert(pll_id < NR_PLLS);

	while (!pll_is_locked(pll_id)) {
   8225a:	2800      	cmp	r0, #0
   8225c:	d0fc      	beq.n	82258 <sysclk_init+0x24>
	else if (CONFIG_SYSCLK_SOURCE == SYSCLK_SRC_PLLACK) {
		pll_enable_source(CONFIG_PLL0_SOURCE);
		pll_config_defaults(&pllcfg, 0);
		pll_enable(&pllcfg, 0);
		pll_wait_for_lock(0);
		pmc_switch_mck_to_pllack(CONFIG_SYSCLK_PRES);
   8225e:	2010      	movs	r0, #16
   82260:	4b0b      	ldr	r3, [pc, #44]	; (82290 <sysclk_init+0x5c>)
   82262:	4798      	blx	r3
		pll_wait_for_lock(1);
		pmc_switch_mck_to_upllck(CONFIG_SYSCLK_PRES);
	}

	/* Update the SystemFrequency variable */
	SystemCoreClockUpdate();
   82264:	4b0b      	ldr	r3, [pc, #44]	; (82294 <sysclk_init+0x60>)
   82266:	4798      	blx	r3

	/* Set a flash wait state depending on the new cpu frequency */
	system_init_flash(sysclk_get_cpu_hz());
   82268:	4801      	ldr	r0, [pc, #4]	; (82270 <sysclk_init+0x3c>)
   8226a:	4b02      	ldr	r3, [pc, #8]	; (82274 <sysclk_init+0x40>)
   8226c:	4798      	blx	r3
   8226e:	bd10      	pop	{r4, pc}
   82270:	0501bd00 	.word	0x0501bd00
   82274:	200700a5 	.word	0x200700a5
   82278:	000826c9 	.word	0x000826c9
   8227c:	0008271d 	.word	0x0008271d
   82280:	0008272d 	.word	0x0008272d
   82284:	200d3f01 	.word	0x200d3f01
   82288:	400e0600 	.word	0x400e0600
   8228c:	0008273d 	.word	0x0008273d
   82290:	00082665 	.word	0x00082665
   82294:	0008283d 	.word	0x0008283d

00082298 <board_init>:
#include "conf_board.h"
#include "gpio.h"
#include "ioport.h"

void board_init(void)
{
   82298:	b510      	push	{r4, lr}
#ifndef CONF_BOARD_KEEP_WATCHDOG_AT_INIT
	/* Disable the watchdog */
	WDT->WDT_MR = WDT_MR_WDDIS;
   8229a:	f44f 4200 	mov.w	r2, #32768	; 0x8000
   8229e:	4b16      	ldr	r3, [pc, #88]	; (822f8 <board_init+0x60>)
   822a0:	605a      	str	r2, [r3, #4]
   822a2:	200b      	movs	r0, #11
   822a4:	4c15      	ldr	r4, [pc, #84]	; (822fc <board_init+0x64>)
   822a6:	47a0      	blx	r4
   822a8:	200c      	movs	r0, #12
   822aa:	47a0      	blx	r4
   822ac:	200d      	movs	r0, #13
   822ae:	47a0      	blx	r4
   822b0:	200e      	movs	r0, #14
   822b2:	47a0      	blx	r4
	 * In new designs IOPORT is used instead.
	 * Here IOPORT must be initialized for others to use before setting up IO.
	 */
	ioport_init();
	/* Configure LED pins */
	gpio_configure_pin(LED0_GPIO, LED0_FLAGS);
   822b4:	f04f 5160 	mov.w	r1, #939524096	; 0x38000000
   822b8:	203b      	movs	r0, #59	; 0x3b
   822ba:	4c11      	ldr	r4, [pc, #68]	; (82300 <board_init+0x68>)
   822bc:	47a0      	blx	r4
	gpio_configure_pin(LED1_GPIO, LED1_FLAGS);
   822be:	f04f 5160 	mov.w	r1, #939524096	; 0x38000000
   822c2:	2055      	movs	r0, #85	; 0x55
   822c4:	47a0      	blx	r4
	gpio_configure_pin(LED2_GPIO, LED2_FLAGS);
   822c6:	f04f 5160 	mov.w	r1, #939524096	; 0x38000000
   822ca:	2056      	movs	r0, #86	; 0x56
   822cc:	47a0      	blx	r4

	/* Configure Push Button pins */
	gpio_configure_pin(GPIO_PUSH_BUTTON_1, GPIO_PUSH_BUTTON_1_FLAGS);
   822ce:	490d      	ldr	r1, [pc, #52]	; (82304 <board_init+0x6c>)
   822d0:	2068      	movs	r0, #104	; 0x68
   822d2:	47a0      	blx	r4
	gpio_configure_pin(GPIO_PUSH_BUTTON_2, GPIO_PUSH_BUTTON_2_FLAGS);
   822d4:	490c      	ldr	r1, [pc, #48]	; (82308 <board_init+0x70>)
   822d6:	205c      	movs	r0, #92	; 0x5c
   822d8:	47a0      	blx	r4

#ifdef CONF_BOARD_UART_CONSOLE
	/* Configure UART pins */
	gpio_configure_group(PINS_UART_PIO, PINS_UART, PINS_UART_FLAGS);
   822da:	4a0c      	ldr	r2, [pc, #48]	; (8230c <board_init+0x74>)
   822dc:	f44f 7140 	mov.w	r1, #768	; 0x300
   822e0:	480b      	ldr	r0, [pc, #44]	; (82310 <board_init+0x78>)
   822e2:	4b0c      	ldr	r3, [pc, #48]	; (82314 <board_init+0x7c>)
   822e4:	4798      	blx	r3
	gpio_configure_pin(PIN_USART0_TXD_IDX, PIN_USART0_TXD_FLAGS);
#endif

#ifdef CONF_BOARD_USB_PORT
	/* Configure USB_ID (UOTGID) pin */
	gpio_configure_pin(USB_ID_GPIO, USB_ID_FLAGS);
   822e6:	f04f 6100 	mov.w	r1, #134217728	; 0x8000000
   822ea:	202b      	movs	r0, #43	; 0x2b
   822ec:	47a0      	blx	r4
	/* Configure USB_VBOF (UOTGVBOF) pin */
	gpio_configure_pin(USB_VBOF_GPIO, USB_VBOF_FLAGS);
   822ee:	f04f 6100 	mov.w	r1, #134217728	; 0x8000000
   822f2:	202a      	movs	r0, #42	; 0x2a
   822f4:	47a0      	blx	r4
   822f6:	bd10      	pop	{r4, pc}
   822f8:	400e1a50 	.word	0x400e1a50
   822fc:	0008274d 	.word	0x0008274d
   82300:	000823e9 	.word	0x000823e9
   82304:	28000079 	.word	0x28000079
   82308:	28000001 	.word	0x28000001
   8230c:	08000001 	.word	0x08000001
   82310:	400e0e00 	.word	0x400e0e00
   82314:	000824b9 	.word	0x000824b9

00082318 <pio_set_peripheral>:
		const uint32_t ul_mask)
{
	uint32_t ul_sr;

	/* Disable interrupts on the pin(s) */
	p_pio->PIO_IDR = ul_mask;
   82318:	6442      	str	r2, [r0, #68]	; 0x44
	case PIO_OUTPUT_1:
	case PIO_NOT_A_PIN:
		return;
	}
#elif (SAM3XA|| SAM3U)
	switch (ul_type) {
   8231a:	f1b1 5f80 	cmp.w	r1, #268435456	; 0x10000000
   8231e:	d016      	beq.n	8234e <pio_set_peripheral+0x36>
   82320:	d80b      	bhi.n	8233a <pio_set_peripheral+0x22>
   82322:	b149      	cbz	r1, 82338 <pio_set_peripheral+0x20>
   82324:	f1b1 6f00 	cmp.w	r1, #134217728	; 0x8000000
   82328:	d105      	bne.n	82336 <pio_set_peripheral+0x1e>
	case PIO_PERIPH_A:
		ul_sr = p_pio->PIO_ABSR;
   8232a:	6f03      	ldr	r3, [r0, #112]	; 0x70
		p_pio->PIO_ABSR &= (~ul_mask & ul_sr);
   8232c:	6f01      	ldr	r1, [r0, #112]	; 0x70
   8232e:	400b      	ands	r3, r1
   82330:	ea23 0302 	bic.w	r3, r3, r2
   82334:	6703      	str	r3, [r0, #112]	; 0x70
#else
#error "Unsupported device"
#endif

	/* Remove the pins from under the control of PIO */
	p_pio->PIO_PDR = ul_mask;
   82336:	6042      	str	r2, [r0, #4]
   82338:	4770      	bx	lr
	switch (ul_type) {
   8233a:	f1b1 5f40 	cmp.w	r1, #805306368	; 0x30000000
   8233e:	d0fb      	beq.n	82338 <pio_set_peripheral+0x20>
   82340:	f1b1 5f60 	cmp.w	r1, #939524096	; 0x38000000
   82344:	d0f8      	beq.n	82338 <pio_set_peripheral+0x20>
   82346:	f1b1 5f20 	cmp.w	r1, #671088640	; 0x28000000
   8234a:	d1f4      	bne.n	82336 <pio_set_peripheral+0x1e>
   8234c:	4770      	bx	lr
		ul_sr = p_pio->PIO_ABSR;
   8234e:	6f03      	ldr	r3, [r0, #112]	; 0x70
		p_pio->PIO_ABSR = (ul_mask | ul_sr);
   82350:	4313      	orrs	r3, r2
   82352:	6703      	str	r3, [r0, #112]	; 0x70
		break;
   82354:	e7ef      	b.n	82336 <pio_set_peripheral+0x1e>

00082356 <pio_set_input>:
 * \param p_pio Pointer to a PIO instance.
 * \param ul_mask Interrupt sources bit map.
 */
void pio_disable_interrupt(Pio *p_pio, const uint32_t ul_mask)
{
	p_pio->PIO_IDR = ul_mask;
   82356:	6441      	str	r1, [r0, #68]	; 0x44
	if (ul_pull_up_enable) {
   82358:	f012 0f01 	tst.w	r2, #1
		p_pio->PIO_PUER = ul_mask;
   8235c:	bf14      	ite	ne
   8235e:	6641      	strne	r1, [r0, #100]	; 0x64
		p_pio->PIO_PUDR = ul_mask;
   82360:	6601      	streq	r1, [r0, #96]	; 0x60
	if (ul_attribute & (PIO_DEGLITCH | PIO_DEBOUNCE)) {
   82362:	f012 0f0a 	tst.w	r2, #10
		p_pio->PIO_IFER = ul_mask;
   82366:	bf14      	ite	ne
   82368:	6201      	strne	r1, [r0, #32]
		p_pio->PIO_IFDR = ul_mask;
   8236a:	6241      	streq	r1, [r0, #36]	; 0x24
	if (ul_attribute & PIO_DEGLITCH) {
   8236c:	f012 0f02 	tst.w	r2, #2
   82370:	d107      	bne.n	82382 <pio_set_input+0x2c>
		if (ul_attribute & PIO_DEBOUNCE) {
   82372:	f012 0f08 	tst.w	r2, #8
			p_pio->PIO_DIFSR = ul_mask;
   82376:	bf18      	it	ne
   82378:	f8c0 1084 	strne.w	r1, [r0, #132]	; 0x84
	p_pio->PIO_ODR = ul_mask;
   8237c:	6141      	str	r1, [r0, #20]
	p_pio->PIO_PER = ul_mask;
   8237e:	6001      	str	r1, [r0, #0]
   82380:	4770      	bx	lr
		p_pio->PIO_SCIFSR = ul_mask;
   82382:	f8c0 1080 	str.w	r1, [r0, #128]	; 0x80
   82386:	e7f9      	b.n	8237c <pio_set_input+0x26>

00082388 <pio_set_output>:
{
   82388:	b410      	push	{r4}
   8238a:	9c01      	ldr	r4, [sp, #4]
	p_pio->PIO_IDR = ul_mask;
   8238c:	6441      	str	r1, [r0, #68]	; 0x44
	if (ul_pull_up_enable) {
   8238e:	b944      	cbnz	r4, 823a2 <pio_set_output+0x1a>
		p_pio->PIO_PUDR = ul_mask;
   82390:	6601      	str	r1, [r0, #96]	; 0x60
	if (ul_multidrive_enable) {
   82392:	b143      	cbz	r3, 823a6 <pio_set_output+0x1e>
		p_pio->PIO_MDER = ul_mask;
   82394:	6501      	str	r1, [r0, #80]	; 0x50
	if (ul_default_level) {
   82396:	b942      	cbnz	r2, 823aa <pio_set_output+0x22>
		p_pio->PIO_CODR = ul_mask;
   82398:	6341      	str	r1, [r0, #52]	; 0x34
	p_pio->PIO_OER = ul_mask;
   8239a:	6101      	str	r1, [r0, #16]
	p_pio->PIO_PER = ul_mask;
   8239c:	6001      	str	r1, [r0, #0]
}
   8239e:	bc10      	pop	{r4}
   823a0:	4770      	bx	lr
		p_pio->PIO_PUER = ul_mask;
   823a2:	6641      	str	r1, [r0, #100]	; 0x64
   823a4:	e7f5      	b.n	82392 <pio_set_output+0xa>
		p_pio->PIO_MDDR = ul_mask;
   823a6:	6541      	str	r1, [r0, #84]	; 0x54
   823a8:	e7f5      	b.n	82396 <pio_set_output+0xe>
		p_pio->PIO_SODR = ul_mask;
   823aa:	6301      	str	r1, [r0, #48]	; 0x30
   823ac:	e7f5      	b.n	8239a <pio_set_output+0x12>

000823ae <pio_configure_interrupt>:
	if (ul_attr & PIO_IT_AIME) {
   823ae:	f012 0f10 	tst.w	r2, #16
   823b2:	d010      	beq.n	823d6 <pio_configure_interrupt+0x28>
		p_pio->PIO_AIMER = ul_mask;
   823b4:	f8c0 10b0 	str.w	r1, [r0, #176]	; 0xb0
		if (ul_attr & PIO_IT_RE_OR_HL) {
   823b8:	f012 0f20 	tst.w	r2, #32
			p_pio->PIO_REHLSR = ul_mask;
   823bc:	bf14      	ite	ne
   823be:	f8c0 10d4 	strne.w	r1, [r0, #212]	; 0xd4
			p_pio->PIO_FELLSR = ul_mask;
   823c2:	f8c0 10d0 	streq.w	r1, [r0, #208]	; 0xd0
		if (ul_attr & PIO_IT_EDGE) {
   823c6:	f012 0f40 	tst.w	r2, #64	; 0x40
			p_pio->PIO_ESR = ul_mask;
   823ca:	bf14      	ite	ne
   823cc:	f8c0 10c0 	strne.w	r1, [r0, #192]	; 0xc0
			p_pio->PIO_LSR = ul_mask;
   823d0:	f8c0 10c4 	streq.w	r1, [r0, #196]	; 0xc4
   823d4:	4770      	bx	lr
		p_pio->PIO_AIMDR = ul_mask;
   823d6:	f8c0 10b4 	str.w	r1, [r0, #180]	; 0xb4
   823da:	4770      	bx	lr

000823dc <pio_enable_interrupt>:
	p_pio->PIO_IER = ul_mask;
   823dc:	6401      	str	r1, [r0, #64]	; 0x40
   823de:	4770      	bx	lr

000823e0 <pio_get_interrupt_status>:
 *
 * \return The interrupt status value.
 */
uint32_t pio_get_interrupt_status(const Pio *p_pio)
{
	return p_pio->PIO_ISR;
   823e0:	6cc0      	ldr	r0, [r0, #76]	; 0x4c
}
   823e2:	4770      	bx	lr

000823e4 <pio_get_interrupt_mask>:
 *
 * \return The interrupt mask value.
 */
uint32_t pio_get_interrupt_mask(const Pio *p_pio)
{
	return p_pio->PIO_IMR;
   823e4:	6c80      	ldr	r0, [r0, #72]	; 0x48
}
   823e6:	4770      	bx	lr

000823e8 <pio_configure_pin>:
 * \param ul_flags Pins attributes.
 *
 * \return Whether the pin(s) have been configured properly.
 */
uint32_t pio_configure_pin(uint32_t ul_pin, const uint32_t ul_flags)
{
   823e8:	b570      	push	{r4, r5, r6, lr}
   823ea:	b082      	sub	sp, #8
   823ec:	460d      	mov	r5, r1
		p_pio = PIOC;
	} else {
		p_pio = (Pio *)((uint32_t)PIOA + (PIO_DELTA * (ul_pin >> 5)));
	}
#else
	p_pio = (Pio *)((uint32_t)PIOA + (PIO_DELTA * (ul_pin >> 5)));
   823ee:	0943      	lsrs	r3, r0, #5
   823f0:	f503 1300 	add.w	r3, r3, #2097152	; 0x200000
   823f4:	f203 7307 	addw	r3, r3, #1799	; 0x707
   823f8:	025c      	lsls	r4, r3, #9
	switch (ul_flags & PIO_TYPE_Msk) {
   823fa:	f001 43f0 	and.w	r3, r1, #2013265920	; 0x78000000
   823fe:	f1b3 5f20 	cmp.w	r3, #671088640	; 0x28000000
   82402:	d031      	beq.n	82468 <pio_configure_pin+0x80>
   82404:	d816      	bhi.n	82434 <pio_configure_pin+0x4c>
   82406:	f1b3 6f00 	cmp.w	r3, #134217728	; 0x8000000
   8240a:	d01b      	beq.n	82444 <pio_configure_pin+0x5c>
   8240c:	f1b3 5f80 	cmp.w	r3, #268435456	; 0x10000000
   82410:	d116      	bne.n	82440 <pio_configure_pin+0x58>
		pio_set_peripheral(p_pio, PIO_PERIPH_B, (1 << (ul_pin & 0x1F)));
   82412:	f000 001f 	and.w	r0, r0, #31
   82416:	2601      	movs	r6, #1
   82418:	4086      	lsls	r6, r0
   8241a:	4632      	mov	r2, r6
   8241c:	f04f 5180 	mov.w	r1, #268435456	; 0x10000000
   82420:	4620      	mov	r0, r4
   82422:	4b22      	ldr	r3, [pc, #136]	; (824ac <pio_configure_pin+0xc4>)
   82424:	4798      	blx	r3
	if (ul_pull_up_enable) {
   82426:	f015 0f01 	tst.w	r5, #1
		p_pio->PIO_PUER = ul_mask;
   8242a:	bf14      	ite	ne
   8242c:	6666      	strne	r6, [r4, #100]	; 0x64
		p_pio->PIO_PUDR = ul_mask;
   8242e:	6626      	streq	r6, [r4, #96]	; 0x60
	return 1;
   82430:	2001      	movs	r0, #1
   82432:	e017      	b.n	82464 <pio_configure_pin+0x7c>
	switch (ul_flags & PIO_TYPE_Msk) {
   82434:	f1b3 5f40 	cmp.w	r3, #805306368	; 0x30000000
   82438:	d021      	beq.n	8247e <pio_configure_pin+0x96>
   8243a:	f1b3 5f60 	cmp.w	r3, #939524096	; 0x38000000
   8243e:	d01e      	beq.n	8247e <pio_configure_pin+0x96>
		return 0;
   82440:	2000      	movs	r0, #0
   82442:	e00f      	b.n	82464 <pio_configure_pin+0x7c>
		pio_set_peripheral(p_pio, PIO_PERIPH_A, (1 << (ul_pin & 0x1F)));
   82444:	f000 001f 	and.w	r0, r0, #31
   82448:	2601      	movs	r6, #1
   8244a:	4086      	lsls	r6, r0
   8244c:	4632      	mov	r2, r6
   8244e:	f04f 6100 	mov.w	r1, #134217728	; 0x8000000
   82452:	4620      	mov	r0, r4
   82454:	4b15      	ldr	r3, [pc, #84]	; (824ac <pio_configure_pin+0xc4>)
   82456:	4798      	blx	r3
	if (ul_pull_up_enable) {
   82458:	f015 0f01 	tst.w	r5, #1
		p_pio->PIO_PUER = ul_mask;
   8245c:	bf14      	ite	ne
   8245e:	6666      	strne	r6, [r4, #100]	; 0x64
		p_pio->PIO_PUDR = ul_mask;
   82460:	6626      	streq	r6, [r4, #96]	; 0x60
	return 1;
   82462:	2001      	movs	r0, #1
}
   82464:	b002      	add	sp, #8
   82466:	bd70      	pop	{r4, r5, r6, pc}
		pio_set_input(p_pio, (1 << (ul_pin & 0x1F)), ul_flags);
   82468:	f000 011f 	and.w	r1, r0, #31
   8246c:	2601      	movs	r6, #1
   8246e:	462a      	mov	r2, r5
   82470:	fa06 f101 	lsl.w	r1, r6, r1
   82474:	4620      	mov	r0, r4
   82476:	4b0e      	ldr	r3, [pc, #56]	; (824b0 <pio_configure_pin+0xc8>)
   82478:	4798      	blx	r3
	return 1;
   8247a:	4630      	mov	r0, r6
		break;
   8247c:	e7f2      	b.n	82464 <pio_configure_pin+0x7c>
				((ul_flags & PIO_TYPE_PIO_OUTPUT_1)
   8247e:	f005 5260 	and.w	r2, r5, #939524096	; 0x38000000
		pio_set_output(p_pio, (1 << (ul_pin & 0x1F)),
   82482:	f000 011f 	and.w	r1, r0, #31
   82486:	2601      	movs	r6, #1
   82488:	ea05 0306 	and.w	r3, r5, r6
   8248c:	9300      	str	r3, [sp, #0]
   8248e:	f3c5 0380 	ubfx	r3, r5, #2, #1
   82492:	f1b2 5f60 	cmp.w	r2, #939524096	; 0x38000000
   82496:	bf14      	ite	ne
   82498:	2200      	movne	r2, #0
   8249a:	2201      	moveq	r2, #1
   8249c:	fa06 f101 	lsl.w	r1, r6, r1
   824a0:	4620      	mov	r0, r4
   824a2:	4c04      	ldr	r4, [pc, #16]	; (824b4 <pio_configure_pin+0xcc>)
   824a4:	47a0      	blx	r4
	return 1;
   824a6:	4630      	mov	r0, r6
		break;
   824a8:	e7dc      	b.n	82464 <pio_configure_pin+0x7c>
   824aa:	bf00      	nop
   824ac:	00082319 	.word	0x00082319
   824b0:	00082357 	.word	0x00082357
   824b4:	00082389 	.word	0x00082389

000824b8 <pio_configure_pin_group>:
{
   824b8:	b570      	push	{r4, r5, r6, lr}
   824ba:	b082      	sub	sp, #8
   824bc:	4605      	mov	r5, r0
   824be:	460e      	mov	r6, r1
   824c0:	4614      	mov	r4, r2
	switch (ul_flags & PIO_TYPE_Msk) {
   824c2:	f002 43f0 	and.w	r3, r2, #2013265920	; 0x78000000
   824c6:	f1b3 5f20 	cmp.w	r3, #671088640	; 0x28000000
   824ca:	d027      	beq.n	8251c <pio_configure_pin_group+0x64>
   824cc:	d811      	bhi.n	824f2 <pio_configure_pin_group+0x3a>
   824ce:	f1b3 6f00 	cmp.w	r3, #134217728	; 0x8000000
   824d2:	d016      	beq.n	82502 <pio_configure_pin_group+0x4a>
   824d4:	f1b3 5f80 	cmp.w	r3, #268435456	; 0x10000000
   824d8:	d111      	bne.n	824fe <pio_configure_pin_group+0x46>
		pio_set_peripheral(p_pio, PIO_PERIPH_B, ul_mask);
   824da:	460a      	mov	r2, r1
   824dc:	f04f 5180 	mov.w	r1, #268435456	; 0x10000000
   824e0:	4b19      	ldr	r3, [pc, #100]	; (82548 <pio_configure_pin_group+0x90>)
   824e2:	4798      	blx	r3
	if (ul_pull_up_enable) {
   824e4:	f014 0f01 	tst.w	r4, #1
		p_pio->PIO_PUER = ul_mask;
   824e8:	bf14      	ite	ne
   824ea:	666e      	strne	r6, [r5, #100]	; 0x64
		p_pio->PIO_PUDR = ul_mask;
   824ec:	662e      	streq	r6, [r5, #96]	; 0x60
	return 1;
   824ee:	2001      	movs	r0, #1
   824f0:	e012      	b.n	82518 <pio_configure_pin_group+0x60>
	switch (ul_flags & PIO_TYPE_Msk) {
   824f2:	f1b3 5f40 	cmp.w	r3, #805306368	; 0x30000000
   824f6:	d015      	beq.n	82524 <pio_configure_pin_group+0x6c>
   824f8:	f1b3 5f60 	cmp.w	r3, #939524096	; 0x38000000
   824fc:	d012      	beq.n	82524 <pio_configure_pin_group+0x6c>
		return 0;
   824fe:	2000      	movs	r0, #0
   82500:	e00a      	b.n	82518 <pio_configure_pin_group+0x60>
		pio_set_peripheral(p_pio, PIO_PERIPH_A, ul_mask);
   82502:	460a      	mov	r2, r1
   82504:	f04f 6100 	mov.w	r1, #134217728	; 0x8000000
   82508:	4b0f      	ldr	r3, [pc, #60]	; (82548 <pio_configure_pin_group+0x90>)
   8250a:	4798      	blx	r3
	if (ul_pull_up_enable) {
   8250c:	f014 0f01 	tst.w	r4, #1
		p_pio->PIO_PUER = ul_mask;
   82510:	bf14      	ite	ne
   82512:	666e      	strne	r6, [r5, #100]	; 0x64
		p_pio->PIO_PUDR = ul_mask;
   82514:	662e      	streq	r6, [r5, #96]	; 0x60
	return 1;
   82516:	2001      	movs	r0, #1
}
   82518:	b002      	add	sp, #8
   8251a:	bd70      	pop	{r4, r5, r6, pc}
		pio_set_input(p_pio, ul_mask, ul_flags);
   8251c:	4b0b      	ldr	r3, [pc, #44]	; (8254c <pio_configure_pin_group+0x94>)
   8251e:	4798      	blx	r3
	return 1;
   82520:	2001      	movs	r0, #1
		break;
   82522:	e7f9      	b.n	82518 <pio_configure_pin_group+0x60>
				((ul_flags & PIO_TYPE_PIO_OUTPUT_1)
   82524:	f004 5260 	and.w	r2, r4, #939524096	; 0x38000000
		pio_set_output(p_pio, ul_mask,
   82528:	f004 0301 	and.w	r3, r4, #1
   8252c:	9300      	str	r3, [sp, #0]
   8252e:	f3c4 0380 	ubfx	r3, r4, #2, #1
   82532:	f1b2 5f60 	cmp.w	r2, #939524096	; 0x38000000
   82536:	bf14      	ite	ne
   82538:	2200      	movne	r2, #0
   8253a:	2201      	moveq	r2, #1
   8253c:	4631      	mov	r1, r6
   8253e:	4628      	mov	r0, r5
   82540:	4c03      	ldr	r4, [pc, #12]	; (82550 <pio_configure_pin_group+0x98>)
   82542:	47a0      	blx	r4
	return 1;
   82544:	2001      	movs	r0, #1
		break;
   82546:	e7e7      	b.n	82518 <pio_configure_pin_group+0x60>
   82548:	00082319 	.word	0x00082319
   8254c:	00082357 	.word	0x00082357
   82550:	00082389 	.word	0x00082389

00082554 <pio_handler_process>:
 *
 * \param p_pio PIO controller base address.
 * \param ul_id PIO controller ID.
 */
void pio_handler_process(Pio *p_pio, uint32_t ul_id)
{
   82554:	e92d 41f0 	stmdb	sp!, {r4, r5, r6, r7, r8, lr}
   82558:	4604      	mov	r4, r0
   8255a:	4688      	mov	r8, r1
	uint32_t status;
	uint32_t i;

	/* Read PIO controller status */
	status = pio_get_interrupt_status(p_pio);
   8255c:	4b0e      	ldr	r3, [pc, #56]	; (82598 <pio_handler_process+0x44>)
   8255e:	4798      	blx	r3
   82560:	4605      	mov	r5, r0
	status &= pio_get_interrupt_mask(p_pio);
   82562:	4620      	mov	r0, r4
   82564:	4b0d      	ldr	r3, [pc, #52]	; (8259c <pio_handler_process+0x48>)
   82566:	4798      	blx	r3

	/* Check pending events */
	if (status != 0) {
   82568:	4005      	ands	r5, r0
   8256a:	d013      	beq.n	82594 <pio_handler_process+0x40>
   8256c:	4c0c      	ldr	r4, [pc, #48]	; (825a0 <pio_handler_process+0x4c>)
   8256e:	f104 0660 	add.w	r6, r4, #96	; 0x60
   82572:	e003      	b.n	8257c <pio_handler_process+0x28>
							gs_interrupt_sources[i].mask);
					status &= ~(gs_interrupt_sources[i].mask);
				}
			}
			i++;
			if (i >= MAX_INTERRUPT_SOURCES) {
   82574:	42b4      	cmp	r4, r6
   82576:	d00d      	beq.n	82594 <pio_handler_process+0x40>
   82578:	3410      	adds	r4, #16
		while (status != 0) {
   8257a:	b15d      	cbz	r5, 82594 <pio_handler_process+0x40>
			if (gs_interrupt_sources[i].id == ul_id) {
   8257c:	6820      	ldr	r0, [r4, #0]
   8257e:	4540      	cmp	r0, r8
   82580:	d1f8      	bne.n	82574 <pio_handler_process+0x20>
				if ((status & gs_interrupt_sources[i].mask) != 0) {
   82582:	6861      	ldr	r1, [r4, #4]
   82584:	4229      	tst	r1, r5
   82586:	d0f5      	beq.n	82574 <pio_handler_process+0x20>
					gs_interrupt_sources[i].handler(gs_interrupt_sources[i].id,
   82588:	68e3      	ldr	r3, [r4, #12]
   8258a:	4798      	blx	r3
					status &= ~(gs_interrupt_sources[i].mask);
   8258c:	6863      	ldr	r3, [r4, #4]
   8258e:	ea25 0503 	bic.w	r5, r5, r3
   82592:	e7ef      	b.n	82574 <pio_handler_process+0x20>
   82594:	e8bd 81f0 	ldmia.w	sp!, {r4, r5, r6, r7, r8, pc}
   82598:	000823e1 	.word	0x000823e1
   8259c:	000823e5 	.word	0x000823e5
   825a0:	2007ac58 	.word	0x2007ac58

000825a4 <pio_handler_set>:
 *
 * \return 0 if successful, 1 if the maximum number of sources has been defined.
 */
uint32_t pio_handler_set(Pio *p_pio, uint32_t ul_id, uint32_t ul_mask,
		uint32_t ul_attr, void (*p_handler) (uint32_t, uint32_t))
{
   825a4:	b5f8      	push	{r3, r4, r5, r6, r7, lr}
    uint8_t i;
	struct s_interrupt_source *pSource;

	if (gs_ul_nb_sources >= MAX_INTERRUPT_SOURCES)
   825a6:	4c18      	ldr	r4, [pc, #96]	; (82608 <pio_handler_set+0x64>)
   825a8:	6826      	ldr	r6, [r4, #0]
   825aa:	2e06      	cmp	r6, #6
   825ac:	d829      	bhi.n	82602 <pio_handler_set+0x5e>
   825ae:	f04f 0c00 	mov.w	ip, #0
   825b2:	4664      	mov	r4, ip
		return 1;

    /* Check interrupt for this pin, if already defined, redefine it. */
	for (i = 0; i <= gs_ul_nb_sources; i++) {
		pSource = &(gs_interrupt_sources[i]);
		if (pSource->id == ul_id && pSource->mask == ul_mask) {
   825b4:	4f15      	ldr	r7, [pc, #84]	; (8260c <pio_handler_set+0x68>)
   825b6:	e004      	b.n	825c2 <pio_handler_set+0x1e>
	for (i = 0; i <= gs_ul_nb_sources; i++) {
   825b8:	3401      	adds	r4, #1
   825ba:	b2e4      	uxtb	r4, r4
   825bc:	46a4      	mov	ip, r4
   825be:	42a6      	cmp	r6, r4
   825c0:	d309      	bcc.n	825d6 <pio_handler_set+0x32>
		pSource = &(gs_interrupt_sources[i]);
   825c2:	46a6      	mov	lr, r4
		if (pSource->id == ul_id && pSource->mask == ul_mask) {
   825c4:	0125      	lsls	r5, r4, #4
   825c6:	597d      	ldr	r5, [r7, r5]
   825c8:	428d      	cmp	r5, r1
   825ca:	d1f5      	bne.n	825b8 <pio_handler_set+0x14>
   825cc:	eb07 1504 	add.w	r5, r7, r4, lsl #4
   825d0:	686d      	ldr	r5, [r5, #4]
   825d2:	4295      	cmp	r5, r2
   825d4:	d1f0      	bne.n	825b8 <pio_handler_set+0x14>
			break;
		}
	}

	/* Define new source */
	pSource->id = ul_id;
   825d6:	4d0d      	ldr	r5, [pc, #52]	; (8260c <pio_handler_set+0x68>)
   825d8:	ea4f 1e0e 	mov.w	lr, lr, lsl #4
   825dc:	eb05 040e 	add.w	r4, r5, lr
   825e0:	f845 100e 	str.w	r1, [r5, lr]
	pSource->mask = ul_mask;
   825e4:	6062      	str	r2, [r4, #4]
	pSource->attr = ul_attr;
   825e6:	60a3      	str	r3, [r4, #8]
	pSource->handler = p_handler;
   825e8:	9906      	ldr	r1, [sp, #24]
   825ea:	60e1      	str	r1, [r4, #12]
	if (i == gs_ul_nb_sources + 1) {
   825ec:	3601      	adds	r6, #1
   825ee:	4566      	cmp	r6, ip
		gs_ul_nb_sources++;
   825f0:	bf04      	itt	eq
   825f2:	4905      	ldreq	r1, [pc, #20]	; (82608 <pio_handler_set+0x64>)
   825f4:	600e      	streq	r6, [r1, #0]
   825f6:	4611      	mov	r1, r2
	}

	/* Configure interrupt mode */
	pio_configure_interrupt(p_pio, ul_mask, ul_attr);
   825f8:	461a      	mov	r2, r3
   825fa:	4b05      	ldr	r3, [pc, #20]	; (82610 <pio_handler_set+0x6c>)
   825fc:	4798      	blx	r3

	return 0;
   825fe:	2000      	movs	r0, #0
   82600:	bdf8      	pop	{r3, r4, r5, r6, r7, pc}
		return 1;
   82602:	2001      	movs	r0, #1
}
   82604:	bdf8      	pop	{r3, r4, r5, r6, r7, pc}
   82606:	bf00      	nop
   82608:	2007acc8 	.word	0x2007acc8
   8260c:	2007ac58 	.word	0x2007ac58
   82610:	000823af 	.word	0x000823af

00082614 <PIOA_Handler>:
/**
 * \brief Parallel IO Controller A interrupt handler.
 * Redefined PIOA interrupt handler for NVIC interrupt table.
 */
void PIOA_Handler(void)
{
   82614:	b508      	push	{r3, lr}
	pio_handler_process(PIOA, ID_PIOA);
   82616:	210b      	movs	r1, #11
   82618:	4801      	ldr	r0, [pc, #4]	; (82620 <PIOA_Handler+0xc>)
   8261a:	4b02      	ldr	r3, [pc, #8]	; (82624 <PIOA_Handler+0x10>)
   8261c:	4798      	blx	r3
   8261e:	bd08      	pop	{r3, pc}
   82620:	400e0e00 	.word	0x400e0e00
   82624:	00082555 	.word	0x00082555

00082628 <PIOB_Handler>:
/**
 * \brief Parallel IO Controller B interrupt handler
 * Redefined PIOB interrupt handler for NVIC interrupt table.
 */
void PIOB_Handler(void)
{
   82628:	b508      	push	{r3, lr}
    pio_handler_process(PIOB, ID_PIOB);
   8262a:	210c      	movs	r1, #12
   8262c:	4801      	ldr	r0, [pc, #4]	; (82634 <PIOB_Handler+0xc>)
   8262e:	4b02      	ldr	r3, [pc, #8]	; (82638 <PIOB_Handler+0x10>)
   82630:	4798      	blx	r3
   82632:	bd08      	pop	{r3, pc}
   82634:	400e1000 	.word	0x400e1000
   82638:	00082555 	.word	0x00082555

0008263c <PIOC_Handler>:
/**
 * \brief Parallel IO Controller C interrupt handler.
 * Redefined PIOC interrupt handler for NVIC interrupt table.
 */
void PIOC_Handler(void)
{
   8263c:	b508      	push	{r3, lr}
	pio_handler_process(PIOC, ID_PIOC);
   8263e:	210d      	movs	r1, #13
   82640:	4801      	ldr	r0, [pc, #4]	; (82648 <PIOC_Handler+0xc>)
   82642:	4b02      	ldr	r3, [pc, #8]	; (8264c <PIOC_Handler+0x10>)
   82644:	4798      	blx	r3
   82646:	bd08      	pop	{r3, pc}
   82648:	400e1200 	.word	0x400e1200
   8264c:	00082555 	.word	0x00082555

00082650 <PIOD_Handler>:
/**
 * \brief Parallel IO Controller D interrupt handler.
 * Redefined PIOD interrupt handler for NVIC interrupt table.
 */
void PIOD_Handler(void)
{
   82650:	b508      	push	{r3, lr}
	pio_handler_process(PIOD, ID_PIOD);
   82652:	210e      	movs	r1, #14
   82654:	4801      	ldr	r0, [pc, #4]	; (8265c <PIOD_Handler+0xc>)
   82656:	4b02      	ldr	r3, [pc, #8]	; (82660 <PIOD_Handler+0x10>)
   82658:	4798      	blx	r3
   8265a:	bd08      	pop	{r3, pc}
   8265c:	400e1400 	.word	0x400e1400
   82660:	00082555 	.word	0x00082555

00082664 <pmc_switch_mck_to_pllack>:
 */
uint32_t pmc_switch_mck_to_pllack(uint32_t ul_pres)
{
	uint32_t ul_timeout;

	PMC->PMC_MCKR = (PMC->PMC_MCKR & (~PMC_MCKR_PRES_Msk)) | ul_pres;
   82664:	4a17      	ldr	r2, [pc, #92]	; (826c4 <pmc_switch_mck_to_pllack+0x60>)
   82666:	6b13      	ldr	r3, [r2, #48]	; 0x30
   82668:	f023 0370 	bic.w	r3, r3, #112	; 0x70
   8266c:	4318      	orrs	r0, r3
   8266e:	6310      	str	r0, [r2, #48]	; 0x30
	for (ul_timeout = PMC_TIMEOUT; !(PMC->PMC_SR & PMC_SR_MCKRDY);
   82670:	6e93      	ldr	r3, [r2, #104]	; 0x68
   82672:	f013 0f08 	tst.w	r3, #8
   82676:	d10a      	bne.n	8268e <pmc_switch_mck_to_pllack+0x2a>
   82678:	f44f 6300 	mov.w	r3, #2048	; 0x800
   8267c:	4911      	ldr	r1, [pc, #68]	; (826c4 <pmc_switch_mck_to_pllack+0x60>)
   8267e:	6e8a      	ldr	r2, [r1, #104]	; 0x68
   82680:	f012 0f08 	tst.w	r2, #8
   82684:	d103      	bne.n	8268e <pmc_switch_mck_to_pllack+0x2a>
			--ul_timeout) {
		if (ul_timeout == 0) {
   82686:	3b01      	subs	r3, #1
   82688:	d1f9      	bne.n	8267e <pmc_switch_mck_to_pllack+0x1a>
			return 1;
   8268a:	2001      	movs	r0, #1
   8268c:	4770      	bx	lr
		}
	}

	PMC->PMC_MCKR = (PMC->PMC_MCKR & (~PMC_MCKR_CSS_Msk)) |
   8268e:	4a0d      	ldr	r2, [pc, #52]	; (826c4 <pmc_switch_mck_to_pllack+0x60>)
   82690:	6b13      	ldr	r3, [r2, #48]	; 0x30
   82692:	f023 0303 	bic.w	r3, r3, #3
   82696:	f043 0302 	orr.w	r3, r3, #2
   8269a:	6313      	str	r3, [r2, #48]	; 0x30
			PMC_MCKR_CSS_PLLA_CLK;

	for (ul_timeout = PMC_TIMEOUT; !(PMC->PMC_SR & PMC_SR_MCKRDY);
   8269c:	6e93      	ldr	r3, [r2, #104]	; 0x68
   8269e:	f013 0f08 	tst.w	r3, #8
   826a2:	d10a      	bne.n	826ba <pmc_switch_mck_to_pllack+0x56>
   826a4:	f44f 6300 	mov.w	r3, #2048	; 0x800
   826a8:	4906      	ldr	r1, [pc, #24]	; (826c4 <pmc_switch_mck_to_pllack+0x60>)
   826aa:	6e8a      	ldr	r2, [r1, #104]	; 0x68
   826ac:	f012 0f08 	tst.w	r2, #8
   826b0:	d105      	bne.n	826be <pmc_switch_mck_to_pllack+0x5a>
			--ul_timeout) {
		if (ul_timeout == 0) {
   826b2:	3b01      	subs	r3, #1
   826b4:	d1f9      	bne.n	826aa <pmc_switch_mck_to_pllack+0x46>
			return 1;
   826b6:	2001      	movs	r0, #1
		}
	}

	return 0;
}
   826b8:	4770      	bx	lr
	return 0;
   826ba:	2000      	movs	r0, #0
   826bc:	4770      	bx	lr
   826be:	2000      	movs	r0, #0
   826c0:	4770      	bx	lr
   826c2:	bf00      	nop
   826c4:	400e0600 	.word	0x400e0600

000826c8 <pmc_switch_mainck_to_xtal>:
 */
void pmc_switch_mainck_to_xtal(uint32_t ul_bypass,
		uint32_t ul_xtal_startup_time)
{
	/* Enable Main Xtal oscillator */
	if (ul_bypass) {
   826c8:	b9c8      	cbnz	r0, 826fe <pmc_switch_mainck_to_xtal+0x36>
		PMC->CKGR_MOR = (PMC->CKGR_MOR & ~CKGR_MOR_MOSCXTEN) |
				CKGR_MOR_KEY_PASSWD | CKGR_MOR_MOSCXTBY |
				CKGR_MOR_MOSCSEL;
	} else {
		PMC->CKGR_MOR = (PMC->CKGR_MOR & ~CKGR_MOR_MOSCXTBY) |
   826ca:	4a11      	ldr	r2, [pc, #68]	; (82710 <pmc_switch_mainck_to_xtal+0x48>)
   826cc:	6a13      	ldr	r3, [r2, #32]
				CKGR_MOR_KEY_PASSWD | CKGR_MOR_MOSCXTEN |
				CKGR_MOR_MOSCXTST(ul_xtal_startup_time);
   826ce:	0209      	lsls	r1, r1, #8
   826d0:	b289      	uxth	r1, r1
				CKGR_MOR_KEY_PASSWD | CKGR_MOR_MOSCXTEN |
   826d2:	f423 135c 	bic.w	r3, r3, #3604480	; 0x370000
   826d6:	f023 0303 	bic.w	r3, r3, #3
   826da:	f443 135c 	orr.w	r3, r3, #3604480	; 0x370000
   826de:	f043 0301 	orr.w	r3, r3, #1
   826e2:	430b      	orrs	r3, r1
		PMC->CKGR_MOR = (PMC->CKGR_MOR & ~CKGR_MOR_MOSCXTBY) |
   826e4:	6213      	str	r3, [r2, #32]
		/* Wait the Xtal to stabilize */
		while (!(PMC->PMC_SR & PMC_SR_MOSCXTS));
   826e6:	6e93      	ldr	r3, [r2, #104]	; 0x68
   826e8:	f013 0f01 	tst.w	r3, #1
   826ec:	d0fb      	beq.n	826e6 <pmc_switch_mainck_to_xtal+0x1e>

		PMC->CKGR_MOR |= CKGR_MOR_KEY_PASSWD | CKGR_MOR_MOSCSEL;
   826ee:	4a08      	ldr	r2, [pc, #32]	; (82710 <pmc_switch_mainck_to_xtal+0x48>)
   826f0:	6a13      	ldr	r3, [r2, #32]
   826f2:	f043 739b 	orr.w	r3, r3, #20316160	; 0x1360000
   826f6:	f443 3380 	orr.w	r3, r3, #65536	; 0x10000
   826fa:	6213      	str	r3, [r2, #32]
   826fc:	4770      	bx	lr
		PMC->CKGR_MOR = (PMC->CKGR_MOR & ~CKGR_MOR_MOSCXTEN) |
   826fe:	4904      	ldr	r1, [pc, #16]	; (82710 <pmc_switch_mainck_to_xtal+0x48>)
   82700:	6a0b      	ldr	r3, [r1, #32]
				CKGR_MOR_KEY_PASSWD | CKGR_MOR_MOSCXTBY |
   82702:	4a04      	ldr	r2, [pc, #16]	; (82714 <pmc_switch_mainck_to_xtal+0x4c>)
   82704:	401a      	ands	r2, r3
   82706:	4b04      	ldr	r3, [pc, #16]	; (82718 <pmc_switch_mainck_to_xtal+0x50>)
   82708:	4313      	orrs	r3, r2
		PMC->CKGR_MOR = (PMC->CKGR_MOR & ~CKGR_MOR_MOSCXTEN) |
   8270a:	620b      	str	r3, [r1, #32]
   8270c:	4770      	bx	lr
   8270e:	bf00      	nop
   82710:	400e0600 	.word	0x400e0600
   82714:	fec8fffc 	.word	0xfec8fffc
   82718:	01370002 	.word	0x01370002

0008271c <pmc_osc_is_ready_mainck>:
 * \retval 1 Xtal is ready.
 * \retval 0 Xtal is not ready.
 */
uint32_t pmc_osc_is_ready_mainck(void)
{
	return PMC->PMC_SR & PMC_SR_MOSCSELS;
   8271c:	4b02      	ldr	r3, [pc, #8]	; (82728 <pmc_osc_is_ready_mainck+0xc>)
   8271e:	6e98      	ldr	r0, [r3, #104]	; 0x68
}
   82720:	f400 3080 	and.w	r0, r0, #65536	; 0x10000
   82724:	4770      	bx	lr
   82726:	bf00      	nop
   82728:	400e0600 	.word	0x400e0600

0008272c <pmc_disable_pllack>:
void pmc_disable_pllack(void)
{
#if (SAM4C || SAM4CM || SAM4CP || SAMG)
	PMC->CKGR_PLLAR = CKGR_PLLAR_MULA(0);
#else
	PMC->CKGR_PLLAR = CKGR_PLLAR_ONE | CKGR_PLLAR_MULA(0);
   8272c:	f04f 5200 	mov.w	r2, #536870912	; 0x20000000
   82730:	4b01      	ldr	r3, [pc, #4]	; (82738 <pmc_disable_pllack+0xc>)
   82732:	629a      	str	r2, [r3, #40]	; 0x28
   82734:	4770      	bx	lr
   82736:	bf00      	nop
   82738:	400e0600 	.word	0x400e0600

0008273c <pmc_is_locked_pllack>:
 * \retval 0 Not locked.
 * \retval 1 Locked.
 */
uint32_t pmc_is_locked_pllack(void)
{
	return (PMC->PMC_SR & PMC_SR_LOCKA);
   8273c:	4b02      	ldr	r3, [pc, #8]	; (82748 <pmc_is_locked_pllack+0xc>)
   8273e:	6e98      	ldr	r0, [r3, #104]	; 0x68
}
   82740:	f000 0002 	and.w	r0, r0, #2
   82744:	4770      	bx	lr
   82746:	bf00      	nop
   82748:	400e0600 	.word	0x400e0600

0008274c <pmc_enable_periph_clk>:
 * \retval 0 Success.
 * \retval 1 Invalid parameter.
 */
uint32_t pmc_enable_periph_clk(uint32_t ul_id)
{
	if (ul_id > MAX_PERIPH_ID) {
   8274c:	282c      	cmp	r0, #44	; 0x2c
   8274e:	d81e      	bhi.n	8278e <pmc_enable_periph_clk+0x42>
		return 1;
	}

	if (ul_id < 32) {
   82750:	281f      	cmp	r0, #31
   82752:	d80c      	bhi.n	8276e <pmc_enable_periph_clk+0x22>
		if ((PMC->PMC_PCSR0 & (1u << ul_id)) != (1u << ul_id)) {
   82754:	4b11      	ldr	r3, [pc, #68]	; (8279c <pmc_enable_periph_clk+0x50>)
   82756:	699a      	ldr	r2, [r3, #24]
   82758:	2301      	movs	r3, #1
   8275a:	4083      	lsls	r3, r0
   8275c:	4393      	bics	r3, r2
   8275e:	d018      	beq.n	82792 <pmc_enable_periph_clk+0x46>
			PMC->PMC_PCER0 = 1 << ul_id;
   82760:	2301      	movs	r3, #1
   82762:	fa03 f000 	lsl.w	r0, r3, r0
   82766:	4b0d      	ldr	r3, [pc, #52]	; (8279c <pmc_enable_periph_clk+0x50>)
   82768:	6118      	str	r0, [r3, #16]
			PMC->PMC_PCER1 = 1 << ul_id;
		}
#endif
	}

	return 0;
   8276a:	2000      	movs	r0, #0
   8276c:	4770      	bx	lr
		ul_id -= 32;
   8276e:	3820      	subs	r0, #32
		if ((PMC->PMC_PCSR1 & (1u << ul_id)) != (1u << ul_id)) {
   82770:	4b0a      	ldr	r3, [pc, #40]	; (8279c <pmc_enable_periph_clk+0x50>)
   82772:	f8d3 2108 	ldr.w	r2, [r3, #264]	; 0x108
   82776:	2301      	movs	r3, #1
   82778:	4083      	lsls	r3, r0
   8277a:	4393      	bics	r3, r2
   8277c:	d00b      	beq.n	82796 <pmc_enable_periph_clk+0x4a>
			PMC->PMC_PCER1 = 1 << ul_id;
   8277e:	2301      	movs	r3, #1
   82780:	fa03 f000 	lsl.w	r0, r3, r0
   82784:	4b05      	ldr	r3, [pc, #20]	; (8279c <pmc_enable_periph_clk+0x50>)
   82786:	f8c3 0100 	str.w	r0, [r3, #256]	; 0x100
	return 0;
   8278a:	2000      	movs	r0, #0
   8278c:	4770      	bx	lr
		return 1;
   8278e:	2001      	movs	r0, #1
   82790:	4770      	bx	lr
	return 0;
   82792:	2000      	movs	r0, #0
   82794:	4770      	bx	lr
   82796:	2000      	movs	r0, #0
}
   82798:	4770      	bx	lr
   8279a:	bf00      	nop
   8279c:	400e0600 	.word	0x400e0600

000827a0 <Dummy_Handler>:

/**
 * \brief Default interrupt handler for unused IRQs.
 */
void Dummy_Handler(void)
{
   827a0:	e7fe      	b.n	827a0 <Dummy_Handler>
	...

000827a4 <Reset_Handler>:
/**
 * \brief This is the code that gets called on processor reset.
 * To initialize the device, and call the main() routine.
 */
void Reset_Handler(void)
{
   827a4:	b508      	push	{r3, lr}

	/* Initialize the relocate segment */
	pSrc = &_etext;
	pDest = &_srelocate;

	if (pSrc != pDest) {
   827a6:	4b1c      	ldr	r3, [pc, #112]	; (82818 <Reset_Handler+0x74>)
   827a8:	4a1c      	ldr	r2, [pc, #112]	; (8281c <Reset_Handler+0x78>)
   827aa:	429a      	cmp	r2, r3
   827ac:	d010      	beq.n	827d0 <Reset_Handler+0x2c>
		for (; pDest < &_erelocate;) {
   827ae:	4b1c      	ldr	r3, [pc, #112]	; (82820 <Reset_Handler+0x7c>)
   827b0:	4a19      	ldr	r2, [pc, #100]	; (82818 <Reset_Handler+0x74>)
   827b2:	429a      	cmp	r2, r3
   827b4:	d20c      	bcs.n	827d0 <Reset_Handler+0x2c>
   827b6:	3b01      	subs	r3, #1
   827b8:	1a9b      	subs	r3, r3, r2
   827ba:	f023 0303 	bic.w	r3, r3, #3
   827be:	3304      	adds	r3, #4
   827c0:	4413      	add	r3, r2
   827c2:	4916      	ldr	r1, [pc, #88]	; (8281c <Reset_Handler+0x78>)
			*pDest++ = *pSrc++;
   827c4:	f851 0b04 	ldr.w	r0, [r1], #4
   827c8:	f842 0b04 	str.w	r0, [r2], #4
		for (; pDest < &_erelocate;) {
   827cc:	429a      	cmp	r2, r3
   827ce:	d1f9      	bne.n	827c4 <Reset_Handler+0x20>
		}
	}

	/* Clear the zero segment */
	for (pDest = &_szero; pDest < &_ezero;) {
   827d0:	4b14      	ldr	r3, [pc, #80]	; (82824 <Reset_Handler+0x80>)
   827d2:	4a15      	ldr	r2, [pc, #84]	; (82828 <Reset_Handler+0x84>)
   827d4:	429a      	cmp	r2, r3
   827d6:	d20a      	bcs.n	827ee <Reset_Handler+0x4a>
   827d8:	3b01      	subs	r3, #1
   827da:	1a9b      	subs	r3, r3, r2
   827dc:	f023 0303 	bic.w	r3, r3, #3
   827e0:	3304      	adds	r3, #4
   827e2:	4413      	add	r3, r2
		*pDest++ = 0;
   827e4:	2100      	movs	r1, #0
   827e6:	f842 1b04 	str.w	r1, [r2], #4
	for (pDest = &_szero; pDest < &_ezero;) {
   827ea:	4293      	cmp	r3, r2
   827ec:	d1fb      	bne.n	827e6 <Reset_Handler+0x42>
	}

	/* Set the vector table base address */
	pSrc = (uint32_t *) & _sfixed;
	SCB->VTOR = ((uint32_t) pSrc & SCB_VTOR_TBLOFF_Msk);
   827ee:	4b0f      	ldr	r3, [pc, #60]	; (8282c <Reset_Handler+0x88>)
   827f0:	f023 4260 	bic.w	r2, r3, #3758096384	; 0xe0000000
   827f4:	f022 027f 	bic.w	r2, r2, #127	; 0x7f
   827f8:	490d      	ldr	r1, [pc, #52]	; (82830 <Reset_Handler+0x8c>)
   827fa:	608a      	str	r2, [r1, #8]

	if (((uint32_t) pSrc >= IRAM0_ADDR) && ((uint32_t) pSrc < NFC_RAM_ADDR)) {
   827fc:	f103 4360 	add.w	r3, r3, #3758096384	; 0xe0000000
   82800:	f5b3 1f80 	cmp.w	r3, #1048576	; 0x100000
   82804:	d203      	bcs.n	8280e <Reset_Handler+0x6a>
		SCB->VTOR |= 1 << SCB_VTOR_TBLBASE_Pos;
   82806:	688b      	ldr	r3, [r1, #8]
   82808:	f043 5300 	orr.w	r3, r3, #536870912	; 0x20000000
   8280c:	608b      	str	r3, [r1, #8]
	}

	/* Initialize the C library */
	__libc_init_array();
   8280e:	4b09      	ldr	r3, [pc, #36]	; (82834 <Reset_Handler+0x90>)
   82810:	4798      	blx	r3

	/* Branch to main function */
	main();
   82812:	4b09      	ldr	r3, [pc, #36]	; (82838 <Reset_Handler+0x94>)
   82814:	4798      	blx	r3
   82816:	e7fe      	b.n	82816 <Reset_Handler+0x72>
   82818:	20070000 	.word	0x20070000
   8281c:	00085cb4 	.word	0x00085cb4
   82820:	20070ae8 	.word	0x20070ae8
   82824:	2007ada4 	.word	0x2007ada4
   82828:	20070ae8 	.word	0x20070ae8
   8282c:	00080000 	.word	0x00080000
   82830:	e000ed00 	.word	0xe000ed00
   82834:	000829cd 	.word	0x000829cd
   82838:	000829a5 	.word	0x000829a5

0008283c <SystemCoreClockUpdate>:
}

void SystemCoreClockUpdate(void)
{
	/* Determine clock frequency according to clock register values */
	switch (PMC->PMC_MCKR & PMC_MCKR_CSS_Msk) {
   8283c:	4b3d      	ldr	r3, [pc, #244]	; (82934 <SystemCoreClockUpdate+0xf8>)
   8283e:	6b1b      	ldr	r3, [r3, #48]	; 0x30
   82840:	f003 0303 	and.w	r3, r3, #3
   82844:	2b03      	cmp	r3, #3
   82846:	d80e      	bhi.n	82866 <SystemCoreClockUpdate+0x2a>
   82848:	e8df f003 	tbb	[pc, r3]
   8284c:	38381c02 	.word	0x38381c02
	case PMC_MCKR_CSS_SLOW_CLK:	/* Slow clock */
		if (SUPC->SUPC_SR & SUPC_SR_OSCSEL) {
   82850:	4b39      	ldr	r3, [pc, #228]	; (82938 <SystemCoreClockUpdate+0xfc>)
   82852:	695b      	ldr	r3, [r3, #20]
   82854:	f013 0f80 	tst.w	r3, #128	; 0x80
			SystemCoreClock = CHIP_FREQ_XTAL_32K;
   82858:	bf14      	ite	ne
   8285a:	f44f 4200 	movne.w	r2, #32768	; 0x8000
		} else {
			SystemCoreClock = CHIP_FREQ_SLCK_RC;
   8285e:	f44f 42fa 	moveq.w	r2, #32000	; 0x7d00
   82862:	4b36      	ldr	r3, [pc, #216]	; (8293c <SystemCoreClockUpdate+0x100>)
   82864:	601a      	str	r2, [r3, #0]
			SystemCoreClock = SYS_UTMIPLL / 2U;
		}
		break;
	}

	if ((PMC->PMC_MCKR & PMC_MCKR_PRES_Msk) == PMC_MCKR_PRES_CLK_3) {
   82866:	4b33      	ldr	r3, [pc, #204]	; (82934 <SystemCoreClockUpdate+0xf8>)
   82868:	6b1b      	ldr	r3, [r3, #48]	; 0x30
   8286a:	f003 0370 	and.w	r3, r3, #112	; 0x70
   8286e:	2b70      	cmp	r3, #112	; 0x70
   82870:	d057      	beq.n	82922 <SystemCoreClockUpdate+0xe6>
		SystemCoreClock /= 3U;
	} else {
		SystemCoreClock >>= ((PMC->PMC_MCKR & PMC_MCKR_PRES_Msk) >> 
   82872:	4b30      	ldr	r3, [pc, #192]	; (82934 <SystemCoreClockUpdate+0xf8>)
   82874:	6b1a      	ldr	r2, [r3, #48]	; 0x30
   82876:	4931      	ldr	r1, [pc, #196]	; (8293c <SystemCoreClockUpdate+0x100>)
   82878:	f3c2 1202 	ubfx	r2, r2, #4, #3
   8287c:	680b      	ldr	r3, [r1, #0]
   8287e:	40d3      	lsrs	r3, r2
   82880:	600b      	str	r3, [r1, #0]
   82882:	4770      	bx	lr
		if (PMC->CKGR_MOR & CKGR_MOR_MOSCSEL) {
   82884:	4b2b      	ldr	r3, [pc, #172]	; (82934 <SystemCoreClockUpdate+0xf8>)
   82886:	6a1b      	ldr	r3, [r3, #32]
   82888:	f013 7f80 	tst.w	r3, #16777216	; 0x1000000
   8288c:	d003      	beq.n	82896 <SystemCoreClockUpdate+0x5a>
			SystemCoreClock = CHIP_FREQ_XTAL_12M;
   8288e:	4a2c      	ldr	r2, [pc, #176]	; (82940 <SystemCoreClockUpdate+0x104>)
   82890:	4b2a      	ldr	r3, [pc, #168]	; (8293c <SystemCoreClockUpdate+0x100>)
   82892:	601a      	str	r2, [r3, #0]
   82894:	e7e7      	b.n	82866 <SystemCoreClockUpdate+0x2a>
			SystemCoreClock = CHIP_FREQ_MAINCK_RC_4MHZ;
   82896:	4a2b      	ldr	r2, [pc, #172]	; (82944 <SystemCoreClockUpdate+0x108>)
   82898:	4b28      	ldr	r3, [pc, #160]	; (8293c <SystemCoreClockUpdate+0x100>)
   8289a:	601a      	str	r2, [r3, #0]
			switch (PMC->CKGR_MOR & CKGR_MOR_MOSCRCF_Msk) {
   8289c:	4b25      	ldr	r3, [pc, #148]	; (82934 <SystemCoreClockUpdate+0xf8>)
   8289e:	6a1b      	ldr	r3, [r3, #32]
   828a0:	f003 0370 	and.w	r3, r3, #112	; 0x70
   828a4:	2b10      	cmp	r3, #16
   828a6:	d005      	beq.n	828b4 <SystemCoreClockUpdate+0x78>
   828a8:	2b20      	cmp	r3, #32
   828aa:	d1dc      	bne.n	82866 <SystemCoreClockUpdate+0x2a>
				SystemCoreClock *= 3U;
   828ac:	4a24      	ldr	r2, [pc, #144]	; (82940 <SystemCoreClockUpdate+0x104>)
   828ae:	4b23      	ldr	r3, [pc, #140]	; (8293c <SystemCoreClockUpdate+0x100>)
   828b0:	601a      	str	r2, [r3, #0]
				break;
   828b2:	e7d8      	b.n	82866 <SystemCoreClockUpdate+0x2a>
				SystemCoreClock *= 2U;
   828b4:	4a24      	ldr	r2, [pc, #144]	; (82948 <SystemCoreClockUpdate+0x10c>)
   828b6:	4b21      	ldr	r3, [pc, #132]	; (8293c <SystemCoreClockUpdate+0x100>)
   828b8:	601a      	str	r2, [r3, #0]
				break;
   828ba:	e7d4      	b.n	82866 <SystemCoreClockUpdate+0x2a>
		if (PMC->CKGR_MOR & CKGR_MOR_MOSCSEL) {
   828bc:	4b1d      	ldr	r3, [pc, #116]	; (82934 <SystemCoreClockUpdate+0xf8>)
   828be:	6a1b      	ldr	r3, [r3, #32]
   828c0:	f013 7f80 	tst.w	r3, #16777216	; 0x1000000
   828c4:	d00c      	beq.n	828e0 <SystemCoreClockUpdate+0xa4>
			SystemCoreClock = CHIP_FREQ_XTAL_12M;
   828c6:	4a1e      	ldr	r2, [pc, #120]	; (82940 <SystemCoreClockUpdate+0x104>)
   828c8:	4b1c      	ldr	r3, [pc, #112]	; (8293c <SystemCoreClockUpdate+0x100>)
   828ca:	601a      	str	r2, [r3, #0]
		if ((PMC->PMC_MCKR & PMC_MCKR_CSS_Msk) == PMC_MCKR_CSS_PLLA_CLK) {
   828cc:	4b19      	ldr	r3, [pc, #100]	; (82934 <SystemCoreClockUpdate+0xf8>)
   828ce:	6b1b      	ldr	r3, [r3, #48]	; 0x30
   828d0:	f003 0303 	and.w	r3, r3, #3
   828d4:	2b02      	cmp	r3, #2
   828d6:	d016      	beq.n	82906 <SystemCoreClockUpdate+0xca>
			SystemCoreClock = SYS_UTMIPLL / 2U;
   828d8:	4a1c      	ldr	r2, [pc, #112]	; (8294c <SystemCoreClockUpdate+0x110>)
   828da:	4b18      	ldr	r3, [pc, #96]	; (8293c <SystemCoreClockUpdate+0x100>)
   828dc:	601a      	str	r2, [r3, #0]
   828de:	e7c2      	b.n	82866 <SystemCoreClockUpdate+0x2a>
			SystemCoreClock = CHIP_FREQ_MAINCK_RC_4MHZ;
   828e0:	4a18      	ldr	r2, [pc, #96]	; (82944 <SystemCoreClockUpdate+0x108>)
   828e2:	4b16      	ldr	r3, [pc, #88]	; (8293c <SystemCoreClockUpdate+0x100>)
   828e4:	601a      	str	r2, [r3, #0]
			switch (PMC->CKGR_MOR & CKGR_MOR_MOSCRCF_Msk) {
   828e6:	4b13      	ldr	r3, [pc, #76]	; (82934 <SystemCoreClockUpdate+0xf8>)
   828e8:	6a1b      	ldr	r3, [r3, #32]
   828ea:	f003 0370 	and.w	r3, r3, #112	; 0x70
   828ee:	2b10      	cmp	r3, #16
   828f0:	d005      	beq.n	828fe <SystemCoreClockUpdate+0xc2>
   828f2:	2b20      	cmp	r3, #32
   828f4:	d1ea      	bne.n	828cc <SystemCoreClockUpdate+0x90>
				SystemCoreClock *= 3U;
   828f6:	4a12      	ldr	r2, [pc, #72]	; (82940 <SystemCoreClockUpdate+0x104>)
   828f8:	4b10      	ldr	r3, [pc, #64]	; (8293c <SystemCoreClockUpdate+0x100>)
   828fa:	601a      	str	r2, [r3, #0]
				break;
   828fc:	e7e6      	b.n	828cc <SystemCoreClockUpdate+0x90>
				SystemCoreClock *= 2U;
   828fe:	4a12      	ldr	r2, [pc, #72]	; (82948 <SystemCoreClockUpdate+0x10c>)
   82900:	4b0e      	ldr	r3, [pc, #56]	; (8293c <SystemCoreClockUpdate+0x100>)
   82902:	601a      	str	r2, [r3, #0]
				break;
   82904:	e7e2      	b.n	828cc <SystemCoreClockUpdate+0x90>
			SystemCoreClock *= ((((PMC->CKGR_PLLAR) & CKGR_PLLAR_MULA_Msk) >> 
   82906:	4a0b      	ldr	r2, [pc, #44]	; (82934 <SystemCoreClockUpdate+0xf8>)
   82908:	6a91      	ldr	r1, [r2, #40]	; 0x28
			SystemCoreClock /= ((((PMC->CKGR_PLLAR) & CKGR_PLLAR_DIVA_Msk) >> 
   8290a:	6a92      	ldr	r2, [r2, #40]	; 0x28
   8290c:	480b      	ldr	r0, [pc, #44]	; (8293c <SystemCoreClockUpdate+0x100>)
			SystemCoreClock *= ((((PMC->CKGR_PLLAR) & CKGR_PLLAR_MULA_Msk) >> 
   8290e:	f3c1 410a 	ubfx	r1, r1, #16, #11
   82912:	6803      	ldr	r3, [r0, #0]
   82914:	fb01 3303 	mla	r3, r1, r3, r3
			SystemCoreClock /= ((((PMC->CKGR_PLLAR) & CKGR_PLLAR_DIVA_Msk) >> 
   82918:	b2d2      	uxtb	r2, r2
   8291a:	fbb3 f3f2 	udiv	r3, r3, r2
   8291e:	6003      	str	r3, [r0, #0]
   82920:	e7a1      	b.n	82866 <SystemCoreClockUpdate+0x2a>
		SystemCoreClock /= 3U;
   82922:	4a06      	ldr	r2, [pc, #24]	; (8293c <SystemCoreClockUpdate+0x100>)
   82924:	6813      	ldr	r3, [r2, #0]
   82926:	490a      	ldr	r1, [pc, #40]	; (82950 <SystemCoreClockUpdate+0x114>)
   82928:	fba1 1303 	umull	r1, r3, r1, r3
   8292c:	085b      	lsrs	r3, r3, #1
   8292e:	6013      	str	r3, [r2, #0]
   82930:	4770      	bx	lr
   82932:	bf00      	nop
   82934:	400e0600 	.word	0x400e0600
   82938:	400e1a10 	.word	0x400e1a10
   8293c:	20070138 	.word	0x20070138
   82940:	00b71b00 	.word	0x00b71b00
   82944:	003d0900 	.word	0x003d0900
   82948:	007a1200 	.word	0x007a1200
   8294c:	0e4e1c00 	.word	0x0e4e1c00
   82950:	aaaaaaab 	.word	0xaaaaaaab

00082954 <_sbrk>:
{
	static unsigned char *heap = NULL;
	unsigned char *prev_heap;
	int ramend = (int)&__ram_end__;

	if (heap == NULL) {
   82954:	4b0a      	ldr	r3, [pc, #40]	; (82980 <_sbrk+0x2c>)
   82956:	681b      	ldr	r3, [r3, #0]
   82958:	b153      	cbz	r3, 82970 <_sbrk+0x1c>
		heap = (unsigned char *)&_end;
	}
	prev_heap = heap;
   8295a:	4b09      	ldr	r3, [pc, #36]	; (82980 <_sbrk+0x2c>)
   8295c:	681b      	ldr	r3, [r3, #0]

	if (((int)prev_heap + incr) > ramend) {
   8295e:	181a      	adds	r2, r3, r0
   82960:	4908      	ldr	r1, [pc, #32]	; (82984 <_sbrk+0x30>)
   82962:	4291      	cmp	r1, r2
   82964:	db08      	blt.n	82978 <_sbrk+0x24>
		return (caddr_t) -1;	
	}

	heap += incr;
   82966:	4610      	mov	r0, r2
   82968:	4a05      	ldr	r2, [pc, #20]	; (82980 <_sbrk+0x2c>)
   8296a:	6010      	str	r0, [r2, #0]

	return (caddr_t) prev_heap;
   8296c:	4618      	mov	r0, r3
   8296e:	4770      	bx	lr
		heap = (unsigned char *)&_end;
   82970:	4a05      	ldr	r2, [pc, #20]	; (82988 <_sbrk+0x34>)
   82972:	4b03      	ldr	r3, [pc, #12]	; (82980 <_sbrk+0x2c>)
   82974:	601a      	str	r2, [r3, #0]
   82976:	e7f0      	b.n	8295a <_sbrk+0x6>
		return (caddr_t) -1;	
   82978:	f04f 30ff 	mov.w	r0, #4294967295
}
   8297c:	4770      	bx	lr
   8297e:	bf00      	nop
   82980:	2007accc 	.word	0x2007accc
   82984:	20087ffc 	.word	0x20087ffc
   82988:	2007cda8 	.word	0x2007cda8

0008298c <_close>:
}

extern int _close(int file)
{
	return -1;
}
   8298c:	f04f 30ff 	mov.w	r0, #4294967295
   82990:	4770      	bx	lr

00082992 <_fstat>:

extern int _fstat(int file, struct stat *st)
{
	st->st_mode = S_IFCHR;
   82992:	f44f 5300 	mov.w	r3, #8192	; 0x2000
   82996:	604b      	str	r3, [r1, #4]

	return 0;
}
   82998:	2000      	movs	r0, #0
   8299a:	4770      	bx	lr

0008299c <_isatty>:

extern int _isatty(int file)
{
	return 1;
}
   8299c:	2001      	movs	r0, #1
   8299e:	4770      	bx	lr

000829a0 <_lseek>:

extern int _lseek(int file, int ptr, int dir)
{
	return 0;
}
   829a0:	2000      	movs	r0, #0
   829a2:	4770      	bx	lr

000829a4 <main>:

Next version (1.4) will test if we can implement PWM to control the signal to the motorcontrollers. Clear?[] 

*/
int main (void)
{
   829a4:	b508      	push	{r3, lr}

	misc_init(); //pin 2 out, pin5&7 in
   829a6:	4b05      	ldr	r3, [pc, #20]	; (829bc <main+0x18>)
   829a8:	4798      	blx	r3
	console_init();
   829aa:	4b05      	ldr	r3, [pc, #20]	; (829c0 <main+0x1c>)
   829ac:	4798      	blx	r3
	//interrupt_init();	//	pin 7 and 8 as interrupt pins	
	encoder_init(); //also initialises pin 5 (left encoder) & 7 (right encoder) as interrupt pins
   829ae:	4b05      	ldr	r3, [pc, #20]	; (829c4 <main+0x20>)
   829b0:	4798      	blx	r3
	rtos_init(); //Starts RTOS scheduler
   829b2:	4b05      	ldr	r3, [pc, #20]	; (829c8 <main+0x24>)
   829b4:	4798      	blx	r3
	//delay_us(3000000);
	//controlCenter(50);
		
   829b6:	2000      	movs	r0, #0
   829b8:	bd08      	pop	{r3, pc}
   829ba:	bf00      	nop
   829bc:	00080ac5 	.word	0x00080ac5
   829c0:	00080b6d 	.word	0x00080b6d
   829c4:	000804f1 	.word	0x000804f1
   829c8:	00080b35 	.word	0x00080b35

000829cc <__libc_init_array>:
   829cc:	b570      	push	{r4, r5, r6, lr}
   829ce:	4e0f      	ldr	r6, [pc, #60]	; (82a0c <__libc_init_array+0x40>)
   829d0:	4d0f      	ldr	r5, [pc, #60]	; (82a10 <__libc_init_array+0x44>)
   829d2:	1b76      	subs	r6, r6, r5
   829d4:	10b6      	asrs	r6, r6, #2
   829d6:	bf18      	it	ne
   829d8:	2400      	movne	r4, #0
   829da:	d005      	beq.n	829e8 <__libc_init_array+0x1c>
   829dc:	3401      	adds	r4, #1
   829de:	f855 3b04 	ldr.w	r3, [r5], #4
   829e2:	4798      	blx	r3
   829e4:	42a6      	cmp	r6, r4
   829e6:	d1f9      	bne.n	829dc <__libc_init_array+0x10>
   829e8:	4e0a      	ldr	r6, [pc, #40]	; (82a14 <__libc_init_array+0x48>)
   829ea:	4d0b      	ldr	r5, [pc, #44]	; (82a18 <__libc_init_array+0x4c>)
   829ec:	f003 f94c 	bl	85c88 <_init>
   829f0:	1b76      	subs	r6, r6, r5
   829f2:	10b6      	asrs	r6, r6, #2
   829f4:	bf18      	it	ne
   829f6:	2400      	movne	r4, #0
   829f8:	d006      	beq.n	82a08 <__libc_init_array+0x3c>
   829fa:	3401      	adds	r4, #1
   829fc:	f855 3b04 	ldr.w	r3, [r5], #4
   82a00:	4798      	blx	r3
   82a02:	42a6      	cmp	r6, r4
   82a04:	d1f9      	bne.n	829fa <__libc_init_array+0x2e>
   82a06:	bd70      	pop	{r4, r5, r6, pc}
   82a08:	bd70      	pop	{r4, r5, r6, pc}
   82a0a:	bf00      	nop
   82a0c:	00085c94 	.word	0x00085c94
   82a10:	00085c94 	.word	0x00085c94
   82a14:	00085c9c 	.word	0x00085c9c
   82a18:	00085c94 	.word	0x00085c94

00082a1c <iprintf>:
   82a1c:	b40f      	push	{r0, r1, r2, r3}
   82a1e:	b510      	push	{r4, lr}
   82a20:	4b07      	ldr	r3, [pc, #28]	; (82a40 <iprintf+0x24>)
   82a22:	b082      	sub	sp, #8
   82a24:	ac04      	add	r4, sp, #16
   82a26:	f854 2b04 	ldr.w	r2, [r4], #4
   82a2a:	6818      	ldr	r0, [r3, #0]
   82a2c:	4623      	mov	r3, r4
   82a2e:	6881      	ldr	r1, [r0, #8]
   82a30:	9401      	str	r4, [sp, #4]
   82a32:	f000 fa3b 	bl	82eac <_vfiprintf_r>
   82a36:	b002      	add	sp, #8
   82a38:	e8bd 4010 	ldmia.w	sp!, {r4, lr}
   82a3c:	b004      	add	sp, #16
   82a3e:	4770      	bx	lr
   82a40:	2007013c 	.word	0x2007013c

00082a44 <memcpy>:
   82a44:	4684      	mov	ip, r0
   82a46:	ea41 0300 	orr.w	r3, r1, r0
   82a4a:	f013 0303 	ands.w	r3, r3, #3
   82a4e:	d149      	bne.n	82ae4 <memcpy+0xa0>
   82a50:	3a40      	subs	r2, #64	; 0x40
   82a52:	d323      	bcc.n	82a9c <memcpy+0x58>
   82a54:	680b      	ldr	r3, [r1, #0]
   82a56:	6003      	str	r3, [r0, #0]
   82a58:	684b      	ldr	r3, [r1, #4]
   82a5a:	6043      	str	r3, [r0, #4]
   82a5c:	688b      	ldr	r3, [r1, #8]
   82a5e:	6083      	str	r3, [r0, #8]
   82a60:	68cb      	ldr	r3, [r1, #12]
   82a62:	60c3      	str	r3, [r0, #12]
   82a64:	690b      	ldr	r3, [r1, #16]
   82a66:	6103      	str	r3, [r0, #16]
   82a68:	694b      	ldr	r3, [r1, #20]
   82a6a:	6143      	str	r3, [r0, #20]
   82a6c:	698b      	ldr	r3, [r1, #24]
   82a6e:	6183      	str	r3, [r0, #24]
   82a70:	69cb      	ldr	r3, [r1, #28]
   82a72:	61c3      	str	r3, [r0, #28]
   82a74:	6a0b      	ldr	r3, [r1, #32]
   82a76:	6203      	str	r3, [r0, #32]
   82a78:	6a4b      	ldr	r3, [r1, #36]	; 0x24
   82a7a:	6243      	str	r3, [r0, #36]	; 0x24
   82a7c:	6a8b      	ldr	r3, [r1, #40]	; 0x28
   82a7e:	6283      	str	r3, [r0, #40]	; 0x28
   82a80:	6acb      	ldr	r3, [r1, #44]	; 0x2c
   82a82:	62c3      	str	r3, [r0, #44]	; 0x2c
   82a84:	6b0b      	ldr	r3, [r1, #48]	; 0x30
   82a86:	6303      	str	r3, [r0, #48]	; 0x30
   82a88:	6b4b      	ldr	r3, [r1, #52]	; 0x34
   82a8a:	6343      	str	r3, [r0, #52]	; 0x34
   82a8c:	6b8b      	ldr	r3, [r1, #56]	; 0x38
   82a8e:	6383      	str	r3, [r0, #56]	; 0x38
   82a90:	6bcb      	ldr	r3, [r1, #60]	; 0x3c
   82a92:	63c3      	str	r3, [r0, #60]	; 0x3c
   82a94:	3040      	adds	r0, #64	; 0x40
   82a96:	3140      	adds	r1, #64	; 0x40
   82a98:	3a40      	subs	r2, #64	; 0x40
   82a9a:	d2db      	bcs.n	82a54 <memcpy+0x10>
   82a9c:	3230      	adds	r2, #48	; 0x30
   82a9e:	d30b      	bcc.n	82ab8 <memcpy+0x74>
   82aa0:	680b      	ldr	r3, [r1, #0]
   82aa2:	6003      	str	r3, [r0, #0]
   82aa4:	684b      	ldr	r3, [r1, #4]
   82aa6:	6043      	str	r3, [r0, #4]
   82aa8:	688b      	ldr	r3, [r1, #8]
   82aaa:	6083      	str	r3, [r0, #8]
   82aac:	68cb      	ldr	r3, [r1, #12]
   82aae:	60c3      	str	r3, [r0, #12]
   82ab0:	3010      	adds	r0, #16
   82ab2:	3110      	adds	r1, #16
   82ab4:	3a10      	subs	r2, #16
   82ab6:	d2f3      	bcs.n	82aa0 <memcpy+0x5c>
   82ab8:	320c      	adds	r2, #12
   82aba:	d305      	bcc.n	82ac8 <memcpy+0x84>
   82abc:	f851 3b04 	ldr.w	r3, [r1], #4
   82ac0:	f840 3b04 	str.w	r3, [r0], #4
   82ac4:	3a04      	subs	r2, #4
   82ac6:	d2f9      	bcs.n	82abc <memcpy+0x78>
   82ac8:	3204      	adds	r2, #4
   82aca:	d008      	beq.n	82ade <memcpy+0x9a>
   82acc:	07d2      	lsls	r2, r2, #31
   82ace:	bf1c      	itt	ne
   82ad0:	f811 3b01 	ldrbne.w	r3, [r1], #1
   82ad4:	f800 3b01 	strbne.w	r3, [r0], #1
   82ad8:	d301      	bcc.n	82ade <memcpy+0x9a>
   82ada:	880b      	ldrh	r3, [r1, #0]
   82adc:	8003      	strh	r3, [r0, #0]
   82ade:	4660      	mov	r0, ip
   82ae0:	4770      	bx	lr
   82ae2:	bf00      	nop
   82ae4:	2a08      	cmp	r2, #8
   82ae6:	d313      	bcc.n	82b10 <memcpy+0xcc>
   82ae8:	078b      	lsls	r3, r1, #30
   82aea:	d0b1      	beq.n	82a50 <memcpy+0xc>
   82aec:	f010 0303 	ands.w	r3, r0, #3
   82af0:	d0ae      	beq.n	82a50 <memcpy+0xc>
   82af2:	f1c3 0304 	rsb	r3, r3, #4
   82af6:	1ad2      	subs	r2, r2, r3
   82af8:	07db      	lsls	r3, r3, #31
   82afa:	bf1c      	itt	ne
   82afc:	f811 3b01 	ldrbne.w	r3, [r1], #1
   82b00:	f800 3b01 	strbne.w	r3, [r0], #1
   82b04:	d3a4      	bcc.n	82a50 <memcpy+0xc>
   82b06:	f831 3b02 	ldrh.w	r3, [r1], #2
   82b0a:	f820 3b02 	strh.w	r3, [r0], #2
   82b0e:	e79f      	b.n	82a50 <memcpy+0xc>
   82b10:	3a04      	subs	r2, #4
   82b12:	d3d9      	bcc.n	82ac8 <memcpy+0x84>
   82b14:	3a01      	subs	r2, #1
   82b16:	f811 3b01 	ldrb.w	r3, [r1], #1
   82b1a:	f800 3b01 	strb.w	r3, [r0], #1
   82b1e:	d2f9      	bcs.n	82b14 <memcpy+0xd0>
   82b20:	780b      	ldrb	r3, [r1, #0]
   82b22:	7003      	strb	r3, [r0, #0]
   82b24:	784b      	ldrb	r3, [r1, #1]
   82b26:	7043      	strb	r3, [r0, #1]
   82b28:	788b      	ldrb	r3, [r1, #2]
   82b2a:	7083      	strb	r3, [r0, #2]
   82b2c:	4660      	mov	r0, ip
   82b2e:	4770      	bx	lr

00082b30 <memset>:
   82b30:	b470      	push	{r4, r5, r6}
   82b32:	0786      	lsls	r6, r0, #30
   82b34:	d046      	beq.n	82bc4 <memset+0x94>
   82b36:	1e54      	subs	r4, r2, #1
   82b38:	2a00      	cmp	r2, #0
   82b3a:	d041      	beq.n	82bc0 <memset+0x90>
   82b3c:	b2ca      	uxtb	r2, r1
   82b3e:	4603      	mov	r3, r0
   82b40:	e002      	b.n	82b48 <memset+0x18>
   82b42:	f114 34ff 	adds.w	r4, r4, #4294967295
   82b46:	d33b      	bcc.n	82bc0 <memset+0x90>
   82b48:	f803 2b01 	strb.w	r2, [r3], #1
   82b4c:	079d      	lsls	r5, r3, #30
   82b4e:	d1f8      	bne.n	82b42 <memset+0x12>
   82b50:	2c03      	cmp	r4, #3
   82b52:	d92e      	bls.n	82bb2 <memset+0x82>
   82b54:	b2cd      	uxtb	r5, r1
   82b56:	ea45 2505 	orr.w	r5, r5, r5, lsl #8
   82b5a:	2c0f      	cmp	r4, #15
   82b5c:	ea45 4505 	orr.w	r5, r5, r5, lsl #16
   82b60:	d919      	bls.n	82b96 <memset+0x66>
   82b62:	4626      	mov	r6, r4
   82b64:	f103 0210 	add.w	r2, r3, #16
   82b68:	3e10      	subs	r6, #16
   82b6a:	2e0f      	cmp	r6, #15
   82b6c:	f842 5c10 	str.w	r5, [r2, #-16]
   82b70:	f842 5c0c 	str.w	r5, [r2, #-12]
   82b74:	f842 5c08 	str.w	r5, [r2, #-8]
   82b78:	f842 5c04 	str.w	r5, [r2, #-4]
   82b7c:	f102 0210 	add.w	r2, r2, #16
   82b80:	d8f2      	bhi.n	82b68 <memset+0x38>
   82b82:	f1a4 0210 	sub.w	r2, r4, #16
   82b86:	f022 020f 	bic.w	r2, r2, #15
   82b8a:	f004 040f 	and.w	r4, r4, #15
   82b8e:	3210      	adds	r2, #16
   82b90:	2c03      	cmp	r4, #3
   82b92:	4413      	add	r3, r2
   82b94:	d90d      	bls.n	82bb2 <memset+0x82>
   82b96:	461e      	mov	r6, r3
   82b98:	4622      	mov	r2, r4
   82b9a:	3a04      	subs	r2, #4
   82b9c:	2a03      	cmp	r2, #3
   82b9e:	f846 5b04 	str.w	r5, [r6], #4
   82ba2:	d8fa      	bhi.n	82b9a <memset+0x6a>
   82ba4:	1f22      	subs	r2, r4, #4
   82ba6:	f022 0203 	bic.w	r2, r2, #3
   82baa:	3204      	adds	r2, #4
   82bac:	4413      	add	r3, r2
   82bae:	f004 0403 	and.w	r4, r4, #3
   82bb2:	b12c      	cbz	r4, 82bc0 <memset+0x90>
   82bb4:	b2c9      	uxtb	r1, r1
   82bb6:	441c      	add	r4, r3
   82bb8:	f803 1b01 	strb.w	r1, [r3], #1
   82bbc:	429c      	cmp	r4, r3
   82bbe:	d1fb      	bne.n	82bb8 <memset+0x88>
   82bc0:	bc70      	pop	{r4, r5, r6}
   82bc2:	4770      	bx	lr
   82bc4:	4614      	mov	r4, r2
   82bc6:	4603      	mov	r3, r0
   82bc8:	e7c2      	b.n	82b50 <memset+0x20>
   82bca:	bf00      	nop

00082bcc <setbuf>:
   82bcc:	2900      	cmp	r1, #0
   82bce:	bf0c      	ite	eq
   82bd0:	2202      	moveq	r2, #2
   82bd2:	2200      	movne	r2, #0
   82bd4:	f44f 6380 	mov.w	r3, #1024	; 0x400
   82bd8:	f000 b800 	b.w	82bdc <setvbuf>

00082bdc <setvbuf>:
   82bdc:	e92d 43f0 	stmdb	sp!, {r4, r5, r6, r7, r8, r9, lr}
   82be0:	4d61      	ldr	r5, [pc, #388]	; (82d68 <setvbuf+0x18c>)
   82be2:	b083      	sub	sp, #12
   82be4:	682d      	ldr	r5, [r5, #0]
   82be6:	4604      	mov	r4, r0
   82be8:	460f      	mov	r7, r1
   82bea:	4690      	mov	r8, r2
   82bec:	461e      	mov	r6, r3
   82bee:	b115      	cbz	r5, 82bf6 <setvbuf+0x1a>
   82bf0:	6bab      	ldr	r3, [r5, #56]	; 0x38
   82bf2:	2b00      	cmp	r3, #0
   82bf4:	d064      	beq.n	82cc0 <setvbuf+0xe4>
   82bf6:	f1b8 0f02 	cmp.w	r8, #2
   82bfa:	d006      	beq.n	82c0a <setvbuf+0x2e>
   82bfc:	f1b8 0f01 	cmp.w	r8, #1
   82c00:	f200 809f 	bhi.w	82d42 <setvbuf+0x166>
   82c04:	2e00      	cmp	r6, #0
   82c06:	f2c0 809c 	blt.w	82d42 <setvbuf+0x166>
   82c0a:	6e63      	ldr	r3, [r4, #100]	; 0x64
   82c0c:	07d8      	lsls	r0, r3, #31
   82c0e:	d534      	bpl.n	82c7a <setvbuf+0x9e>
   82c10:	4621      	mov	r1, r4
   82c12:	4628      	mov	r0, r5
   82c14:	f001 f8e2 	bl	83ddc <_fflush_r>
   82c18:	6b21      	ldr	r1, [r4, #48]	; 0x30
   82c1a:	b141      	cbz	r1, 82c2e <setvbuf+0x52>
   82c1c:	f104 0340 	add.w	r3, r4, #64	; 0x40
   82c20:	4299      	cmp	r1, r3
   82c22:	d002      	beq.n	82c2a <setvbuf+0x4e>
   82c24:	4628      	mov	r0, r5
   82c26:	f001 fa57 	bl	840d8 <_free_r>
   82c2a:	2300      	movs	r3, #0
   82c2c:	6323      	str	r3, [r4, #48]	; 0x30
   82c2e:	2200      	movs	r2, #0
   82c30:	f9b4 300c 	ldrsh.w	r3, [r4, #12]
   82c34:	61a2      	str	r2, [r4, #24]
   82c36:	6062      	str	r2, [r4, #4]
   82c38:	061a      	lsls	r2, r3, #24
   82c3a:	d43a      	bmi.n	82cb2 <setvbuf+0xd6>
   82c3c:	f423 634a 	bic.w	r3, r3, #3232	; 0xca0
   82c40:	f023 0303 	bic.w	r3, r3, #3
   82c44:	f1b8 0f02 	cmp.w	r8, #2
   82c48:	81a3      	strh	r3, [r4, #12]
   82c4a:	d01d      	beq.n	82c88 <setvbuf+0xac>
   82c4c:	ab01      	add	r3, sp, #4
   82c4e:	466a      	mov	r2, sp
   82c50:	4621      	mov	r1, r4
   82c52:	4628      	mov	r0, r5
   82c54:	f001 fcde 	bl	84614 <__swhatbuf_r>
   82c58:	89a3      	ldrh	r3, [r4, #12]
   82c5a:	4318      	orrs	r0, r3
   82c5c:	81a0      	strh	r0, [r4, #12]
   82c5e:	2e00      	cmp	r6, #0
   82c60:	d132      	bne.n	82cc8 <setvbuf+0xec>
   82c62:	9e00      	ldr	r6, [sp, #0]
   82c64:	4630      	mov	r0, r6
   82c66:	f001 fd4d 	bl	84704 <malloc>
   82c6a:	4607      	mov	r7, r0
   82c6c:	2800      	cmp	r0, #0
   82c6e:	d06b      	beq.n	82d48 <setvbuf+0x16c>
   82c70:	89a3      	ldrh	r3, [r4, #12]
   82c72:	f043 0380 	orr.w	r3, r3, #128	; 0x80
   82c76:	81a3      	strh	r3, [r4, #12]
   82c78:	e028      	b.n	82ccc <setvbuf+0xf0>
   82c7a:	89a3      	ldrh	r3, [r4, #12]
   82c7c:	0599      	lsls	r1, r3, #22
   82c7e:	d4c7      	bmi.n	82c10 <setvbuf+0x34>
   82c80:	6da0      	ldr	r0, [r4, #88]	; 0x58
   82c82:	f001 fcc3 	bl	8460c <__retarget_lock_acquire_recursive>
   82c86:	e7c3      	b.n	82c10 <setvbuf+0x34>
   82c88:	2500      	movs	r5, #0
   82c8a:	2600      	movs	r6, #0
   82c8c:	2001      	movs	r0, #1
   82c8e:	6e61      	ldr	r1, [r4, #100]	; 0x64
   82c90:	f104 0243 	add.w	r2, r4, #67	; 0x43
   82c94:	f043 0302 	orr.w	r3, r3, #2
   82c98:	60a6      	str	r6, [r4, #8]
   82c9a:	07ce      	lsls	r6, r1, #31
   82c9c:	81a3      	strh	r3, [r4, #12]
   82c9e:	6160      	str	r0, [r4, #20]
   82ca0:	6022      	str	r2, [r4, #0]
   82ca2:	6122      	str	r2, [r4, #16]
   82ca4:	d401      	bmi.n	82caa <setvbuf+0xce>
   82ca6:	0598      	lsls	r0, r3, #22
   82ca8:	d53e      	bpl.n	82d28 <setvbuf+0x14c>
   82caa:	4628      	mov	r0, r5
   82cac:	b003      	add	sp, #12
   82cae:	e8bd 83f0 	ldmia.w	sp!, {r4, r5, r6, r7, r8, r9, pc}
   82cb2:	6921      	ldr	r1, [r4, #16]
   82cb4:	4628      	mov	r0, r5
   82cb6:	f001 fa0f 	bl	840d8 <_free_r>
   82cba:	f9b4 300c 	ldrsh.w	r3, [r4, #12]
   82cbe:	e7bd      	b.n	82c3c <setvbuf+0x60>
   82cc0:	4628      	mov	r0, r5
   82cc2:	f001 f8e3 	bl	83e8c <__sinit>
   82cc6:	e796      	b.n	82bf6 <setvbuf+0x1a>
   82cc8:	2f00      	cmp	r7, #0
   82cca:	d0cb      	beq.n	82c64 <setvbuf+0x88>
   82ccc:	6bab      	ldr	r3, [r5, #56]	; 0x38
   82cce:	2b00      	cmp	r3, #0
   82cd0:	d033      	beq.n	82d3a <setvbuf+0x15e>
   82cd2:	9b00      	ldr	r3, [sp, #0]
   82cd4:	f9b4 200c 	ldrsh.w	r2, [r4, #12]
   82cd8:	429e      	cmp	r6, r3
   82cda:	bf1c      	itt	ne
   82cdc:	f442 6200 	orrne.w	r2, r2, #2048	; 0x800
   82ce0:	81a2      	strhne	r2, [r4, #12]
   82ce2:	f1b8 0f01 	cmp.w	r8, #1
   82ce6:	bf04      	itt	eq
   82ce8:	f042 0201 	orreq.w	r2, r2, #1
   82cec:	81a2      	strheq	r2, [r4, #12]
   82cee:	b292      	uxth	r2, r2
   82cf0:	f012 0308 	ands.w	r3, r2, #8
   82cf4:	6027      	str	r7, [r4, #0]
   82cf6:	6127      	str	r7, [r4, #16]
   82cf8:	6166      	str	r6, [r4, #20]
   82cfa:	d00e      	beq.n	82d1a <setvbuf+0x13e>
   82cfc:	07d1      	lsls	r1, r2, #31
   82cfe:	d51a      	bpl.n	82d36 <setvbuf+0x15a>
   82d00:	2300      	movs	r3, #0
   82d02:	6e65      	ldr	r5, [r4, #100]	; 0x64
   82d04:	4276      	negs	r6, r6
   82d06:	f015 0501 	ands.w	r5, r5, #1
   82d0a:	61a6      	str	r6, [r4, #24]
   82d0c:	60a3      	str	r3, [r4, #8]
   82d0e:	d009      	beq.n	82d24 <setvbuf+0x148>
   82d10:	2500      	movs	r5, #0
   82d12:	4628      	mov	r0, r5
   82d14:	b003      	add	sp, #12
   82d16:	e8bd 83f0 	ldmia.w	sp!, {r4, r5, r6, r7, r8, r9, pc}
   82d1a:	60a3      	str	r3, [r4, #8]
   82d1c:	6e65      	ldr	r5, [r4, #100]	; 0x64
   82d1e:	f015 0501 	ands.w	r5, r5, #1
   82d22:	d1f5      	bne.n	82d10 <setvbuf+0x134>
   82d24:	0593      	lsls	r3, r2, #22
   82d26:	d4c0      	bmi.n	82caa <setvbuf+0xce>
   82d28:	6da0      	ldr	r0, [r4, #88]	; 0x58
   82d2a:	f001 fc71 	bl	84610 <__retarget_lock_release_recursive>
   82d2e:	4628      	mov	r0, r5
   82d30:	b003      	add	sp, #12
   82d32:	e8bd 83f0 	ldmia.w	sp!, {r4, r5, r6, r7, r8, r9, pc}
   82d36:	60a6      	str	r6, [r4, #8]
   82d38:	e7f0      	b.n	82d1c <setvbuf+0x140>
   82d3a:	4628      	mov	r0, r5
   82d3c:	f001 f8a6 	bl	83e8c <__sinit>
   82d40:	e7c7      	b.n	82cd2 <setvbuf+0xf6>
   82d42:	f04f 35ff 	mov.w	r5, #4294967295
   82d46:	e7b0      	b.n	82caa <setvbuf+0xce>
   82d48:	f8dd 9000 	ldr.w	r9, [sp]
   82d4c:	45b1      	cmp	r9, r6
   82d4e:	d004      	beq.n	82d5a <setvbuf+0x17e>
   82d50:	4648      	mov	r0, r9
   82d52:	f001 fcd7 	bl	84704 <malloc>
   82d56:	4607      	mov	r7, r0
   82d58:	b920      	cbnz	r0, 82d64 <setvbuf+0x188>
   82d5a:	f9b4 300c 	ldrsh.w	r3, [r4, #12]
   82d5e:	f04f 35ff 	mov.w	r5, #4294967295
   82d62:	e792      	b.n	82c8a <setvbuf+0xae>
   82d64:	464e      	mov	r6, r9
   82d66:	e783      	b.n	82c70 <setvbuf+0x94>
   82d68:	2007013c 	.word	0x2007013c

00082d6c <strlen>:
   82d6c:	f020 0103 	bic.w	r1, r0, #3
   82d70:	f010 0003 	ands.w	r0, r0, #3
   82d74:	f1c0 0000 	rsb	r0, r0, #0
   82d78:	f851 3b04 	ldr.w	r3, [r1], #4
   82d7c:	f100 0c04 	add.w	ip, r0, #4
   82d80:	ea4f 0ccc 	mov.w	ip, ip, lsl #3
   82d84:	f06f 0200 	mvn.w	r2, #0
   82d88:	bf1c      	itt	ne
   82d8a:	fa22 f20c 	lsrne.w	r2, r2, ip
   82d8e:	4313      	orrne	r3, r2
   82d90:	f04f 0c01 	mov.w	ip, #1
   82d94:	ea4c 2c0c 	orr.w	ip, ip, ip, lsl #8
   82d98:	ea4c 4c0c 	orr.w	ip, ip, ip, lsl #16
   82d9c:	eba3 020c 	sub.w	r2, r3, ip
   82da0:	ea22 0203 	bic.w	r2, r2, r3
   82da4:	ea12 12cc 	ands.w	r2, r2, ip, lsl #7
   82da8:	bf04      	itt	eq
   82daa:	f851 3b04 	ldreq.w	r3, [r1], #4
   82dae:	3004      	addeq	r0, #4
   82db0:	d0f4      	beq.n	82d9c <strlen+0x30>
   82db2:	f1c2 0100 	rsb	r1, r2, #0
   82db6:	ea02 0201 	and.w	r2, r2, r1
   82dba:	fab2 f282 	clz	r2, r2
   82dbe:	f1c2 021f 	rsb	r2, r2, #31
   82dc2:	eb00 00d2 	add.w	r0, r0, r2, lsr #3
   82dc6:	4770      	bx	lr

00082dc8 <strncpy>:
   82dc8:	ea40 0301 	orr.w	r3, r0, r1
   82dcc:	f013 0f03 	tst.w	r3, #3
   82dd0:	b470      	push	{r4, r5, r6}
   82dd2:	4603      	mov	r3, r0
   82dd4:	d024      	beq.n	82e20 <strncpy+0x58>
   82dd6:	b1a2      	cbz	r2, 82e02 <strncpy+0x3a>
   82dd8:	780c      	ldrb	r4, [r1, #0]
   82dda:	3a01      	subs	r2, #1
   82ddc:	701c      	strb	r4, [r3, #0]
   82dde:	3101      	adds	r1, #1
   82de0:	3301      	adds	r3, #1
   82de2:	b13c      	cbz	r4, 82df4 <strncpy+0x2c>
   82de4:	b16a      	cbz	r2, 82e02 <strncpy+0x3a>
   82de6:	f811 4b01 	ldrb.w	r4, [r1], #1
   82dea:	3a01      	subs	r2, #1
   82dec:	f803 4b01 	strb.w	r4, [r3], #1
   82df0:	2c00      	cmp	r4, #0
   82df2:	d1f7      	bne.n	82de4 <strncpy+0x1c>
   82df4:	b12a      	cbz	r2, 82e02 <strncpy+0x3a>
   82df6:	2100      	movs	r1, #0
   82df8:	441a      	add	r2, r3
   82dfa:	f803 1b01 	strb.w	r1, [r3], #1
   82dfe:	429a      	cmp	r2, r3
   82e00:	d1fb      	bne.n	82dfa <strncpy+0x32>
   82e02:	bc70      	pop	{r4, r5, r6}
   82e04:	4770      	bx	lr
   82e06:	460e      	mov	r6, r1
   82e08:	f851 5b04 	ldr.w	r5, [r1], #4
   82e0c:	f1a5 3401 	sub.w	r4, r5, #16843009	; 0x1010101
   82e10:	ea24 0405 	bic.w	r4, r4, r5
   82e14:	f014 3f80 	tst.w	r4, #2155905152	; 0x80808080
   82e18:	d105      	bne.n	82e26 <strncpy+0x5e>
   82e1a:	3a04      	subs	r2, #4
   82e1c:	f843 5b04 	str.w	r5, [r3], #4
   82e20:	2a03      	cmp	r2, #3
   82e22:	d8f0      	bhi.n	82e06 <strncpy+0x3e>
   82e24:	e7d7      	b.n	82dd6 <strncpy+0xe>
   82e26:	4631      	mov	r1, r6
   82e28:	e7d6      	b.n	82dd8 <strncpy+0x10>
   82e2a:	bf00      	nop

00082e2c <__sprint_r.part.0>:
   82e2c:	e92d 4ff8 	stmdb	sp!, {r3, r4, r5, r6, r7, r8, r9, sl, fp, lr}
   82e30:	6e4b      	ldr	r3, [r1, #100]	; 0x64
   82e32:	4693      	mov	fp, r2
   82e34:	049c      	lsls	r4, r3, #18
   82e36:	d52f      	bpl.n	82e98 <__sprint_r.part.0+0x6c>
   82e38:	6893      	ldr	r3, [r2, #8]
   82e3a:	6812      	ldr	r2, [r2, #0]
   82e3c:	b353      	cbz	r3, 82e94 <__sprint_r.part.0+0x68>
   82e3e:	460e      	mov	r6, r1
   82e40:	4607      	mov	r7, r0
   82e42:	f102 0908 	add.w	r9, r2, #8
   82e46:	e919 0420 	ldmdb	r9, {r5, sl}
   82e4a:	ea5f 089a 	movs.w	r8, sl, lsr #2
   82e4e:	d017      	beq.n	82e80 <__sprint_r.part.0+0x54>
   82e50:	2400      	movs	r4, #0
   82e52:	3d04      	subs	r5, #4
   82e54:	e001      	b.n	82e5a <__sprint_r.part.0+0x2e>
   82e56:	45a0      	cmp	r8, r4
   82e58:	d010      	beq.n	82e7c <__sprint_r.part.0+0x50>
   82e5a:	4632      	mov	r2, r6
   82e5c:	f855 1f04 	ldr.w	r1, [r5, #4]!
   82e60:	4638      	mov	r0, r7
   82e62:	f001 f8b5 	bl	83fd0 <_fputwc_r>
   82e66:	1c43      	adds	r3, r0, #1
   82e68:	f104 0401 	add.w	r4, r4, #1
   82e6c:	d1f3      	bne.n	82e56 <__sprint_r.part.0+0x2a>
   82e6e:	2300      	movs	r3, #0
   82e70:	f8cb 3008 	str.w	r3, [fp, #8]
   82e74:	f8cb 3004 	str.w	r3, [fp, #4]
   82e78:	e8bd 8ff8 	ldmia.w	sp!, {r3, r4, r5, r6, r7, r8, r9, sl, fp, pc}
   82e7c:	f8db 3008 	ldr.w	r3, [fp, #8]
   82e80:	f02a 0a03 	bic.w	sl, sl, #3
   82e84:	eba3 030a 	sub.w	r3, r3, sl
   82e88:	f8cb 3008 	str.w	r3, [fp, #8]
   82e8c:	f109 0908 	add.w	r9, r9, #8
   82e90:	2b00      	cmp	r3, #0
   82e92:	d1d8      	bne.n	82e46 <__sprint_r.part.0+0x1a>
   82e94:	2000      	movs	r0, #0
   82e96:	e7ea      	b.n	82e6e <__sprint_r.part.0+0x42>
   82e98:	f001 fa04 	bl	842a4 <__sfvwrite_r>
   82e9c:	2300      	movs	r3, #0
   82e9e:	f8cb 3008 	str.w	r3, [fp, #8]
   82ea2:	f8cb 3004 	str.w	r3, [fp, #4]
   82ea6:	e8bd 8ff8 	ldmia.w	sp!, {r3, r4, r5, r6, r7, r8, r9, sl, fp, pc}
   82eaa:	bf00      	nop

00082eac <_vfiprintf_r>:
   82eac:	e92d 4ff0 	stmdb	sp!, {r4, r5, r6, r7, r8, r9, sl, fp, lr}
   82eb0:	b0ad      	sub	sp, #180	; 0xb4
   82eb2:	461d      	mov	r5, r3
   82eb4:	468b      	mov	fp, r1
   82eb6:	4690      	mov	r8, r2
   82eb8:	9307      	str	r3, [sp, #28]
   82eba:	9006      	str	r0, [sp, #24]
   82ebc:	b118      	cbz	r0, 82ec6 <_vfiprintf_r+0x1a>
   82ebe:	6b83      	ldr	r3, [r0, #56]	; 0x38
   82ec0:	2b00      	cmp	r3, #0
   82ec2:	f000 80f3 	beq.w	830ac <_vfiprintf_r+0x200>
   82ec6:	f8db 3064 	ldr.w	r3, [fp, #100]	; 0x64
   82eca:	f9bb 000c 	ldrsh.w	r0, [fp, #12]
   82ece:	07df      	lsls	r7, r3, #31
   82ed0:	b281      	uxth	r1, r0
   82ed2:	d402      	bmi.n	82eda <_vfiprintf_r+0x2e>
   82ed4:	058e      	lsls	r6, r1, #22
   82ed6:	f140 80fc 	bpl.w	830d2 <_vfiprintf_r+0x226>
   82eda:	048c      	lsls	r4, r1, #18
   82edc:	d40a      	bmi.n	82ef4 <_vfiprintf_r+0x48>
   82ede:	f8db 3064 	ldr.w	r3, [fp, #100]	; 0x64
   82ee2:	f440 5100 	orr.w	r1, r0, #8192	; 0x2000
   82ee6:	f423 5300 	bic.w	r3, r3, #8192	; 0x2000
   82eea:	f8ab 100c 	strh.w	r1, [fp, #12]
   82eee:	f8cb 3064 	str.w	r3, [fp, #100]	; 0x64
   82ef2:	b289      	uxth	r1, r1
   82ef4:	0708      	lsls	r0, r1, #28
   82ef6:	f140 80b3 	bpl.w	83060 <_vfiprintf_r+0x1b4>
   82efa:	f8db 3010 	ldr.w	r3, [fp, #16]
   82efe:	2b00      	cmp	r3, #0
   82f00:	f000 80ae 	beq.w	83060 <_vfiprintf_r+0x1b4>
   82f04:	f001 031a 	and.w	r3, r1, #26
   82f08:	2b0a      	cmp	r3, #10
   82f0a:	f000 80b5 	beq.w	83078 <_vfiprintf_r+0x1cc>
   82f0e:	2300      	movs	r3, #0
   82f10:	f10d 0a70 	add.w	sl, sp, #112	; 0x70
   82f14:	46d1      	mov	r9, sl
   82f16:	930b      	str	r3, [sp, #44]	; 0x2c
   82f18:	9303      	str	r3, [sp, #12]
   82f1a:	9311      	str	r3, [sp, #68]	; 0x44
   82f1c:	9310      	str	r3, [sp, #64]	; 0x40
   82f1e:	f8cd a03c 	str.w	sl, [sp, #60]	; 0x3c
   82f22:	f8cd b010 	str.w	fp, [sp, #16]
   82f26:	f898 3000 	ldrb.w	r3, [r8]
   82f2a:	4644      	mov	r4, r8
   82f2c:	b1fb      	cbz	r3, 82f6e <_vfiprintf_r+0xc2>
   82f2e:	2b25      	cmp	r3, #37	; 0x25
   82f30:	d102      	bne.n	82f38 <_vfiprintf_r+0x8c>
   82f32:	e01c      	b.n	82f6e <_vfiprintf_r+0xc2>
   82f34:	2b25      	cmp	r3, #37	; 0x25
   82f36:	d003      	beq.n	82f40 <_vfiprintf_r+0x94>
   82f38:	f814 3f01 	ldrb.w	r3, [r4, #1]!
   82f3c:	2b00      	cmp	r3, #0
   82f3e:	d1f9      	bne.n	82f34 <_vfiprintf_r+0x88>
   82f40:	eba4 0508 	sub.w	r5, r4, r8
   82f44:	b19d      	cbz	r5, 82f6e <_vfiprintf_r+0xc2>
   82f46:	9b10      	ldr	r3, [sp, #64]	; 0x40
   82f48:	9a11      	ldr	r2, [sp, #68]	; 0x44
   82f4a:	3301      	adds	r3, #1
   82f4c:	442a      	add	r2, r5
   82f4e:	2b07      	cmp	r3, #7
   82f50:	f8c9 8000 	str.w	r8, [r9]
   82f54:	f8c9 5004 	str.w	r5, [r9, #4]
   82f58:	9211      	str	r2, [sp, #68]	; 0x44
   82f5a:	9310      	str	r3, [sp, #64]	; 0x40
   82f5c:	dd7a      	ble.n	83054 <_vfiprintf_r+0x1a8>
   82f5e:	2a00      	cmp	r2, #0
   82f60:	f040 84b5 	bne.w	838ce <_vfiprintf_r+0xa22>
   82f64:	46d1      	mov	r9, sl
   82f66:	9b03      	ldr	r3, [sp, #12]
   82f68:	9210      	str	r2, [sp, #64]	; 0x40
   82f6a:	442b      	add	r3, r5
   82f6c:	9303      	str	r3, [sp, #12]
   82f6e:	7823      	ldrb	r3, [r4, #0]
   82f70:	2b00      	cmp	r3, #0
   82f72:	f000 83e5 	beq.w	83740 <_vfiprintf_r+0x894>
   82f76:	2000      	movs	r0, #0
   82f78:	f04f 0300 	mov.w	r3, #0
   82f7c:	f104 0801 	add.w	r8, r4, #1
   82f80:	f88d 3037 	strb.w	r3, [sp, #55]	; 0x37
   82f84:	7862      	ldrb	r2, [r4, #1]
   82f86:	4606      	mov	r6, r0
   82f88:	4605      	mov	r5, r0
   82f8a:	4603      	mov	r3, r0
   82f8c:	f04f 34ff 	mov.w	r4, #4294967295
   82f90:	f108 0801 	add.w	r8, r8, #1
   82f94:	f1a2 0120 	sub.w	r1, r2, #32
   82f98:	2958      	cmp	r1, #88	; 0x58
   82f9a:	f200 82d9 	bhi.w	83550 <_vfiprintf_r+0x6a4>
   82f9e:	e8df f011 	tbh	[pc, r1, lsl #1]
   82fa2:	0228      	.short	0x0228
   82fa4:	02d702d7 	.word	0x02d702d7
   82fa8:	02d70230 	.word	0x02d70230
   82fac:	02d702d7 	.word	0x02d702d7
   82fb0:	02d702d7 	.word	0x02d702d7
   82fb4:	00a002d7 	.word	0x00a002d7
   82fb8:	02d70288 	.word	0x02d70288
   82fbc:	02b800a8 	.word	0x02b800a8
   82fc0:	01a602d7 	.word	0x01a602d7
   82fc4:	01ab01ab 	.word	0x01ab01ab
   82fc8:	01ab01ab 	.word	0x01ab01ab
   82fcc:	01ab01ab 	.word	0x01ab01ab
   82fd0:	01ab01ab 	.word	0x01ab01ab
   82fd4:	02d701ab 	.word	0x02d701ab
   82fd8:	02d702d7 	.word	0x02d702d7
   82fdc:	02d702d7 	.word	0x02d702d7
   82fe0:	02d702d7 	.word	0x02d702d7
   82fe4:	02d702d7 	.word	0x02d702d7
   82fe8:	01b902d7 	.word	0x01b902d7
   82fec:	02d702d7 	.word	0x02d702d7
   82ff0:	02d702d7 	.word	0x02d702d7
   82ff4:	02d702d7 	.word	0x02d702d7
   82ff8:	02d702d7 	.word	0x02d702d7
   82ffc:	02d702d7 	.word	0x02d702d7
   83000:	02d7019e 	.word	0x02d7019e
   83004:	02d702d7 	.word	0x02d702d7
   83008:	02d702d7 	.word	0x02d702d7
   8300c:	02d701a2 	.word	0x02d701a2
   83010:	025a02d7 	.word	0x025a02d7
   83014:	02d702d7 	.word	0x02d702d7
   83018:	02d702d7 	.word	0x02d702d7
   8301c:	02d702d7 	.word	0x02d702d7
   83020:	02d702d7 	.word	0x02d702d7
   83024:	02d702d7 	.word	0x02d702d7
   83028:	02220261 	.word	0x02220261
   8302c:	02d702d7 	.word	0x02d702d7
   83030:	027602d7 	.word	0x027602d7
   83034:	02d70222 	.word	0x02d70222
   83038:	027b02d7 	.word	0x027b02d7
   8303c:	01fc02d7 	.word	0x01fc02d7
   83040:	02100189 	.word	0x02100189
   83044:	02d702d2 	.word	0x02d702d2
   83048:	02d70295 	.word	0x02d70295
   8304c:	02d700ad 	.word	0x02d700ad
   83050:	023502d7 	.word	0x023502d7
   83054:	f109 0908 	add.w	r9, r9, #8
   83058:	9b03      	ldr	r3, [sp, #12]
   8305a:	442b      	add	r3, r5
   8305c:	9303      	str	r3, [sp, #12]
   8305e:	e786      	b.n	82f6e <_vfiprintf_r+0xc2>
   83060:	4659      	mov	r1, fp
   83062:	9806      	ldr	r0, [sp, #24]
   83064:	f000 fdaa 	bl	83bbc <__swsetup_r>
   83068:	bb18      	cbnz	r0, 830b2 <_vfiprintf_r+0x206>
   8306a:	f8bb 100c 	ldrh.w	r1, [fp, #12]
   8306e:	f001 031a 	and.w	r3, r1, #26
   83072:	2b0a      	cmp	r3, #10
   83074:	f47f af4b 	bne.w	82f0e <_vfiprintf_r+0x62>
   83078:	f9bb 300e 	ldrsh.w	r3, [fp, #14]
   8307c:	2b00      	cmp	r3, #0
   8307e:	f6ff af46 	blt.w	82f0e <_vfiprintf_r+0x62>
   83082:	f8db 3064 	ldr.w	r3, [fp, #100]	; 0x64
   83086:	07db      	lsls	r3, r3, #31
   83088:	d405      	bmi.n	83096 <_vfiprintf_r+0x1ea>
   8308a:	058f      	lsls	r7, r1, #22
   8308c:	d403      	bmi.n	83096 <_vfiprintf_r+0x1ea>
   8308e:	f8db 0058 	ldr.w	r0, [fp, #88]	; 0x58
   83092:	f001 fabd 	bl	84610 <__retarget_lock_release_recursive>
   83096:	462b      	mov	r3, r5
   83098:	4642      	mov	r2, r8
   8309a:	4659      	mov	r1, fp
   8309c:	9806      	ldr	r0, [sp, #24]
   8309e:	f000 fd49 	bl	83b34 <__sbprintf>
   830a2:	9003      	str	r0, [sp, #12]
   830a4:	9803      	ldr	r0, [sp, #12]
   830a6:	b02d      	add	sp, #180	; 0xb4
   830a8:	e8bd 8ff0 	ldmia.w	sp!, {r4, r5, r6, r7, r8, r9, sl, fp, pc}
   830ac:	f000 feee 	bl	83e8c <__sinit>
   830b0:	e709      	b.n	82ec6 <_vfiprintf_r+0x1a>
   830b2:	f8db 3064 	ldr.w	r3, [fp, #100]	; 0x64
   830b6:	07d9      	lsls	r1, r3, #31
   830b8:	d404      	bmi.n	830c4 <_vfiprintf_r+0x218>
   830ba:	f8bb 300c 	ldrh.w	r3, [fp, #12]
   830be:	059a      	lsls	r2, r3, #22
   830c0:	f140 84ae 	bpl.w	83a20 <_vfiprintf_r+0xb74>
   830c4:	f04f 33ff 	mov.w	r3, #4294967295
   830c8:	9303      	str	r3, [sp, #12]
   830ca:	9803      	ldr	r0, [sp, #12]
   830cc:	b02d      	add	sp, #180	; 0xb4
   830ce:	e8bd 8ff0 	ldmia.w	sp!, {r4, r5, r6, r7, r8, r9, sl, fp, pc}
   830d2:	f8db 0058 	ldr.w	r0, [fp, #88]	; 0x58
   830d6:	f001 fa99 	bl	8460c <__retarget_lock_acquire_recursive>
   830da:	f9bb 000c 	ldrsh.w	r0, [fp, #12]
   830de:	b281      	uxth	r1, r0
   830e0:	e6fb      	b.n	82eda <_vfiprintf_r+0x2e>
   830e2:	9907      	ldr	r1, [sp, #28]
   830e4:	460a      	mov	r2, r1
   830e6:	680d      	ldr	r5, [r1, #0]
   830e8:	3204      	adds	r2, #4
   830ea:	2d00      	cmp	r5, #0
   830ec:	9207      	str	r2, [sp, #28]
   830ee:	da02      	bge.n	830f6 <_vfiprintf_r+0x24a>
   830f0:	426d      	negs	r5, r5
   830f2:	f043 0304 	orr.w	r3, r3, #4
   830f6:	f898 2000 	ldrb.w	r2, [r8]
   830fa:	e749      	b.n	82f90 <_vfiprintf_r+0xe4>
   830fc:	9508      	str	r5, [sp, #32]
   830fe:	069e      	lsls	r6, r3, #26
   83100:	f100 845a 	bmi.w	839b8 <_vfiprintf_r+0xb0c>
   83104:	9907      	ldr	r1, [sp, #28]
   83106:	06dd      	lsls	r5, r3, #27
   83108:	460a      	mov	r2, r1
   8310a:	f100 83ef 	bmi.w	838ec <_vfiprintf_r+0xa40>
   8310e:	0658      	lsls	r0, r3, #25
   83110:	f140 83ec 	bpl.w	838ec <_vfiprintf_r+0xa40>
   83114:	2700      	movs	r7, #0
   83116:	2201      	movs	r2, #1
   83118:	880e      	ldrh	r6, [r1, #0]
   8311a:	3104      	adds	r1, #4
   8311c:	9107      	str	r1, [sp, #28]
   8311e:	f04f 0100 	mov.w	r1, #0
   83122:	2500      	movs	r5, #0
   83124:	f88d 1037 	strb.w	r1, [sp, #55]	; 0x37
   83128:	1c61      	adds	r1, r4, #1
   8312a:	f000 8117 	beq.w	8335c <_vfiprintf_r+0x4b0>
   8312e:	f023 0180 	bic.w	r1, r3, #128	; 0x80
   83132:	9102      	str	r1, [sp, #8]
   83134:	ea56 0107 	orrs.w	r1, r6, r7
   83138:	f040 8115 	bne.w	83366 <_vfiprintf_r+0x4ba>
   8313c:	2c00      	cmp	r4, #0
   8313e:	f040 835b 	bne.w	837f8 <_vfiprintf_r+0x94c>
   83142:	2a00      	cmp	r2, #0
   83144:	f040 83b6 	bne.w	838b4 <_vfiprintf_r+0xa08>
   83148:	f013 0301 	ands.w	r3, r3, #1
   8314c:	9305      	str	r3, [sp, #20]
   8314e:	f000 8455 	beq.w	839fc <_vfiprintf_r+0xb50>
   83152:	2330      	movs	r3, #48	; 0x30
   83154:	f10d 0bb0 	add.w	fp, sp, #176	; 0xb0
   83158:	f80b 3d41 	strb.w	r3, [fp, #-65]!
   8315c:	9b05      	ldr	r3, [sp, #20]
   8315e:	42a3      	cmp	r3, r4
   83160:	bfb8      	it	lt
   83162:	4623      	movlt	r3, r4
   83164:	9301      	str	r3, [sp, #4]
   83166:	b10d      	cbz	r5, 8316c <_vfiprintf_r+0x2c0>
   83168:	3301      	adds	r3, #1
   8316a:	9301      	str	r3, [sp, #4]
   8316c:	9b02      	ldr	r3, [sp, #8]
   8316e:	f013 0302 	ands.w	r3, r3, #2
   83172:	9309      	str	r3, [sp, #36]	; 0x24
   83174:	d002      	beq.n	8317c <_vfiprintf_r+0x2d0>
   83176:	9b01      	ldr	r3, [sp, #4]
   83178:	3302      	adds	r3, #2
   8317a:	9301      	str	r3, [sp, #4]
   8317c:	9b02      	ldr	r3, [sp, #8]
   8317e:	f013 0384 	ands.w	r3, r3, #132	; 0x84
   83182:	930a      	str	r3, [sp, #40]	; 0x28
   83184:	f040 8215 	bne.w	835b2 <_vfiprintf_r+0x706>
   83188:	9b08      	ldr	r3, [sp, #32]
   8318a:	9a01      	ldr	r2, [sp, #4]
   8318c:	1a9d      	subs	r5, r3, r2
   8318e:	2d00      	cmp	r5, #0
   83190:	f340 820f 	ble.w	835b2 <_vfiprintf_r+0x706>
   83194:	2d10      	cmp	r5, #16
   83196:	f340 8484 	ble.w	83aa2 <_vfiprintf_r+0xbf6>
   8319a:	9b10      	ldr	r3, [sp, #64]	; 0x40
   8319c:	46ce      	mov	lr, r9
   8319e:	2710      	movs	r7, #16
   831a0:	46a1      	mov	r9, r4
   831a2:	9a11      	ldr	r2, [sp, #68]	; 0x44
   831a4:	4ec5      	ldr	r6, [pc, #788]	; (834bc <_vfiprintf_r+0x610>)
   831a6:	4619      	mov	r1, r3
   831a8:	9c06      	ldr	r4, [sp, #24]
   831aa:	e007      	b.n	831bc <_vfiprintf_r+0x310>
   831ac:	f101 0c02 	add.w	ip, r1, #2
   831b0:	4601      	mov	r1, r0
   831b2:	f10e 0e08 	add.w	lr, lr, #8
   831b6:	3d10      	subs	r5, #16
   831b8:	2d10      	cmp	r5, #16
   831ba:	dd11      	ble.n	831e0 <_vfiprintf_r+0x334>
   831bc:	1c48      	adds	r0, r1, #1
   831be:	3210      	adds	r2, #16
   831c0:	2807      	cmp	r0, #7
   831c2:	9211      	str	r2, [sp, #68]	; 0x44
   831c4:	e88e 00c0 	stmia.w	lr, {r6, r7}
   831c8:	9010      	str	r0, [sp, #64]	; 0x40
   831ca:	ddef      	ble.n	831ac <_vfiprintf_r+0x300>
   831cc:	2a00      	cmp	r2, #0
   831ce:	f040 81d9 	bne.w	83584 <_vfiprintf_r+0x6d8>
   831d2:	3d10      	subs	r5, #16
   831d4:	2d10      	cmp	r5, #16
   831d6:	4611      	mov	r1, r2
   831d8:	f04f 0c01 	mov.w	ip, #1
   831dc:	46d6      	mov	lr, sl
   831de:	dced      	bgt.n	831bc <_vfiprintf_r+0x310>
   831e0:	464c      	mov	r4, r9
   831e2:	4661      	mov	r1, ip
   831e4:	46f1      	mov	r9, lr
   831e6:	442a      	add	r2, r5
   831e8:	2907      	cmp	r1, #7
   831ea:	9211      	str	r2, [sp, #68]	; 0x44
   831ec:	f8c9 6000 	str.w	r6, [r9]
   831f0:	f8c9 5004 	str.w	r5, [r9, #4]
   831f4:	9110      	str	r1, [sp, #64]	; 0x40
   831f6:	f300 82eb 	bgt.w	837d0 <_vfiprintf_r+0x924>
   831fa:	f89d 5037 	ldrb.w	r5, [sp, #55]	; 0x37
   831fe:	f109 0908 	add.w	r9, r9, #8
   83202:	1c48      	adds	r0, r1, #1
   83204:	2d00      	cmp	r5, #0
   83206:	f040 81dc 	bne.w	835c2 <_vfiprintf_r+0x716>
   8320a:	9b09      	ldr	r3, [sp, #36]	; 0x24
   8320c:	2b00      	cmp	r3, #0
   8320e:	f000 81f6 	beq.w	835fe <_vfiprintf_r+0x752>
   83212:	2102      	movs	r1, #2
   83214:	ab0e      	add	r3, sp, #56	; 0x38
   83216:	440a      	add	r2, r1
   83218:	2807      	cmp	r0, #7
   8321a:	9211      	str	r2, [sp, #68]	; 0x44
   8321c:	9010      	str	r0, [sp, #64]	; 0x40
   8321e:	f8c9 1004 	str.w	r1, [r9, #4]
   83222:	f8c9 3000 	str.w	r3, [r9]
   83226:	f340 81e6 	ble.w	835f6 <_vfiprintf_r+0x74a>
   8322a:	2a00      	cmp	r2, #0
   8322c:	f040 8395 	bne.w	8395a <_vfiprintf_r+0xaae>
   83230:	9b0a      	ldr	r3, [sp, #40]	; 0x28
   83232:	2001      	movs	r0, #1
   83234:	2b80      	cmp	r3, #128	; 0x80
   83236:	4611      	mov	r1, r2
   83238:	46d1      	mov	r9, sl
   8323a:	f040 81e4 	bne.w	83606 <_vfiprintf_r+0x75a>
   8323e:	9b08      	ldr	r3, [sp, #32]
   83240:	9d01      	ldr	r5, [sp, #4]
   83242:	1b5e      	subs	r6, r3, r5
   83244:	2e00      	cmp	r6, #0
   83246:	f340 81de 	ble.w	83606 <_vfiprintf_r+0x75a>
   8324a:	2e10      	cmp	r6, #16
   8324c:	f340 843c 	ble.w	83ac8 <_vfiprintf_r+0xc1c>
   83250:	46cc      	mov	ip, r9
   83252:	2710      	movs	r7, #16
   83254:	46a1      	mov	r9, r4
   83256:	4d9a      	ldr	r5, [pc, #616]	; (834c0 <_vfiprintf_r+0x614>)
   83258:	9c06      	ldr	r4, [sp, #24]
   8325a:	e007      	b.n	8326c <_vfiprintf_r+0x3c0>
   8325c:	f101 0e02 	add.w	lr, r1, #2
   83260:	4601      	mov	r1, r0
   83262:	f10c 0c08 	add.w	ip, ip, #8
   83266:	3e10      	subs	r6, #16
   83268:	2e10      	cmp	r6, #16
   8326a:	dd11      	ble.n	83290 <_vfiprintf_r+0x3e4>
   8326c:	1c48      	adds	r0, r1, #1
   8326e:	3210      	adds	r2, #16
   83270:	2807      	cmp	r0, #7
   83272:	9211      	str	r2, [sp, #68]	; 0x44
   83274:	e88c 00a0 	stmia.w	ip, {r5, r7}
   83278:	9010      	str	r0, [sp, #64]	; 0x40
   8327a:	ddef      	ble.n	8325c <_vfiprintf_r+0x3b0>
   8327c:	2a00      	cmp	r2, #0
   8327e:	f040 829b 	bne.w	837b8 <_vfiprintf_r+0x90c>
   83282:	3e10      	subs	r6, #16
   83284:	2e10      	cmp	r6, #16
   83286:	f04f 0e01 	mov.w	lr, #1
   8328a:	4611      	mov	r1, r2
   8328c:	46d4      	mov	ip, sl
   8328e:	dced      	bgt.n	8326c <_vfiprintf_r+0x3c0>
   83290:	464c      	mov	r4, r9
   83292:	46e1      	mov	r9, ip
   83294:	4432      	add	r2, r6
   83296:	f1be 0f07 	cmp.w	lr, #7
   8329a:	9211      	str	r2, [sp, #68]	; 0x44
   8329c:	e889 0060 	stmia.w	r9, {r5, r6}
   832a0:	f8cd e040 	str.w	lr, [sp, #64]	; 0x40
   832a4:	f300 8366 	bgt.w	83974 <_vfiprintf_r+0xac8>
   832a8:	f109 0908 	add.w	r9, r9, #8
   832ac:	f10e 0001 	add.w	r0, lr, #1
   832b0:	4671      	mov	r1, lr
   832b2:	e1a8      	b.n	83606 <_vfiprintf_r+0x75a>
   832b4:	9508      	str	r5, [sp, #32]
   832b6:	f013 0220 	ands.w	r2, r3, #32
   832ba:	f040 8389 	bne.w	839d0 <_vfiprintf_r+0xb24>
   832be:	f013 0110 	ands.w	r1, r3, #16
   832c2:	f040 8319 	bne.w	838f8 <_vfiprintf_r+0xa4c>
   832c6:	f013 0240 	ands.w	r2, r3, #64	; 0x40
   832ca:	f000 8315 	beq.w	838f8 <_vfiprintf_r+0xa4c>
   832ce:	9807      	ldr	r0, [sp, #28]
   832d0:	460a      	mov	r2, r1
   832d2:	4601      	mov	r1, r0
   832d4:	3104      	adds	r1, #4
   832d6:	8806      	ldrh	r6, [r0, #0]
   832d8:	2700      	movs	r7, #0
   832da:	9107      	str	r1, [sp, #28]
   832dc:	e71f      	b.n	8311e <_vfiprintf_r+0x272>
   832de:	9508      	str	r5, [sp, #32]
   832e0:	f043 0310 	orr.w	r3, r3, #16
   832e4:	e7e7      	b.n	832b6 <_vfiprintf_r+0x40a>
   832e6:	9508      	str	r5, [sp, #32]
   832e8:	f043 0310 	orr.w	r3, r3, #16
   832ec:	e707      	b.n	830fe <_vfiprintf_r+0x252>
   832ee:	f043 0380 	orr.w	r3, r3, #128	; 0x80
   832f2:	f898 2000 	ldrb.w	r2, [r8]
   832f6:	e64b      	b.n	82f90 <_vfiprintf_r+0xe4>
   832f8:	2500      	movs	r5, #0
   832fa:	f1a2 0130 	sub.w	r1, r2, #48	; 0x30
   832fe:	f818 2b01 	ldrb.w	r2, [r8], #1
   83302:	eb05 0585 	add.w	r5, r5, r5, lsl #2
   83306:	eb01 0545 	add.w	r5, r1, r5, lsl #1
   8330a:	f1a2 0130 	sub.w	r1, r2, #48	; 0x30
   8330e:	2909      	cmp	r1, #9
   83310:	d9f5      	bls.n	832fe <_vfiprintf_r+0x452>
   83312:	e63f      	b.n	82f94 <_vfiprintf_r+0xe8>
   83314:	9508      	str	r5, [sp, #32]
   83316:	2800      	cmp	r0, #0
   83318:	f040 8402 	bne.w	83b20 <_vfiprintf_r+0xc74>
   8331c:	f043 0310 	orr.w	r3, r3, #16
   83320:	069e      	lsls	r6, r3, #26
   83322:	f100 833d 	bmi.w	839a0 <_vfiprintf_r+0xaf4>
   83326:	9907      	ldr	r1, [sp, #28]
   83328:	06dd      	lsls	r5, r3, #27
   8332a:	460a      	mov	r2, r1
   8332c:	f100 82f0 	bmi.w	83910 <_vfiprintf_r+0xa64>
   83330:	0658      	lsls	r0, r3, #25
   83332:	f140 82ed 	bpl.w	83910 <_vfiprintf_r+0xa64>
   83336:	f9b1 6000 	ldrsh.w	r6, [r1]
   8333a:	3204      	adds	r2, #4
   8333c:	17f7      	asrs	r7, r6, #31
   8333e:	4630      	mov	r0, r6
   83340:	4639      	mov	r1, r7
   83342:	9207      	str	r2, [sp, #28]
   83344:	2800      	cmp	r0, #0
   83346:	f171 0200 	sbcs.w	r2, r1, #0
   8334a:	f2c0 835a 	blt.w	83a02 <_vfiprintf_r+0xb56>
   8334e:	1c61      	adds	r1, r4, #1
   83350:	f89d 5037 	ldrb.w	r5, [sp, #55]	; 0x37
   83354:	f04f 0201 	mov.w	r2, #1
   83358:	f47f aee9 	bne.w	8312e <_vfiprintf_r+0x282>
   8335c:	ea56 0107 	orrs.w	r1, r6, r7
   83360:	f000 824b 	beq.w	837fa <_vfiprintf_r+0x94e>
   83364:	9302      	str	r3, [sp, #8]
   83366:	2a01      	cmp	r2, #1
   83368:	f000 828a 	beq.w	83880 <_vfiprintf_r+0x9d4>
   8336c:	2a02      	cmp	r2, #2
   8336e:	f040 825a 	bne.w	83826 <_vfiprintf_r+0x97a>
   83372:	46d3      	mov	fp, sl
   83374:	980b      	ldr	r0, [sp, #44]	; 0x2c
   83376:	0933      	lsrs	r3, r6, #4
   83378:	ea43 7307 	orr.w	r3, r3, r7, lsl #28
   8337c:	0939      	lsrs	r1, r7, #4
   8337e:	f006 020f 	and.w	r2, r6, #15
   83382:	460f      	mov	r7, r1
   83384:	461e      	mov	r6, r3
   83386:	5c83      	ldrb	r3, [r0, r2]
   83388:	f80b 3d01 	strb.w	r3, [fp, #-1]!
   8338c:	ea56 0307 	orrs.w	r3, r6, r7
   83390:	d1f1      	bne.n	83376 <_vfiprintf_r+0x4ca>
   83392:	ebaa 030b 	sub.w	r3, sl, fp
   83396:	9305      	str	r3, [sp, #20]
   83398:	e6e0      	b.n	8315c <_vfiprintf_r+0x2b0>
   8339a:	2800      	cmp	r0, #0
   8339c:	f040 83bd 	bne.w	83b1a <_vfiprintf_r+0xc6e>
   833a0:	0699      	lsls	r1, r3, #26
   833a2:	f100 8359 	bmi.w	83a58 <_vfiprintf_r+0xbac>
   833a6:	06da      	lsls	r2, r3, #27
   833a8:	f100 80e5 	bmi.w	83576 <_vfiprintf_r+0x6ca>
   833ac:	065b      	lsls	r3, r3, #25
   833ae:	f140 80e2 	bpl.w	83576 <_vfiprintf_r+0x6ca>
   833b2:	9a07      	ldr	r2, [sp, #28]
   833b4:	6813      	ldr	r3, [r2, #0]
   833b6:	3204      	adds	r2, #4
   833b8:	9207      	str	r2, [sp, #28]
   833ba:	f8bd 200c 	ldrh.w	r2, [sp, #12]
   833be:	801a      	strh	r2, [r3, #0]
   833c0:	e5b1      	b.n	82f26 <_vfiprintf_r+0x7a>
   833c2:	2278      	movs	r2, #120	; 0x78
   833c4:	2130      	movs	r1, #48	; 0x30
   833c6:	9508      	str	r5, [sp, #32]
   833c8:	9d07      	ldr	r5, [sp, #28]
   833ca:	f88d 2039 	strb.w	r2, [sp, #57]	; 0x39
   833ce:	1d2a      	adds	r2, r5, #4
   833d0:	9207      	str	r2, [sp, #28]
   833d2:	4a3c      	ldr	r2, [pc, #240]	; (834c4 <_vfiprintf_r+0x618>)
   833d4:	682e      	ldr	r6, [r5, #0]
   833d6:	920b      	str	r2, [sp, #44]	; 0x2c
   833d8:	f043 0302 	orr.w	r3, r3, #2
   833dc:	f88d 1038 	strb.w	r1, [sp, #56]	; 0x38
   833e0:	2700      	movs	r7, #0
   833e2:	2202      	movs	r2, #2
   833e4:	e69b      	b.n	8311e <_vfiprintf_r+0x272>
   833e6:	9508      	str	r5, [sp, #32]
   833e8:	2800      	cmp	r0, #0
   833ea:	d099      	beq.n	83320 <_vfiprintf_r+0x474>
   833ec:	f88d 6037 	strb.w	r6, [sp, #55]	; 0x37
   833f0:	e796      	b.n	83320 <_vfiprintf_r+0x474>
   833f2:	f898 2000 	ldrb.w	r2, [r8]
   833f6:	2e00      	cmp	r6, #0
   833f8:	f47f adca 	bne.w	82f90 <_vfiprintf_r+0xe4>
   833fc:	2001      	movs	r0, #1
   833fe:	2620      	movs	r6, #32
   83400:	e5c6      	b.n	82f90 <_vfiprintf_r+0xe4>
   83402:	f043 0301 	orr.w	r3, r3, #1
   83406:	f898 2000 	ldrb.w	r2, [r8]
   8340a:	e5c1      	b.n	82f90 <_vfiprintf_r+0xe4>
   8340c:	9508      	str	r5, [sp, #32]
   8340e:	2800      	cmp	r0, #0
   83410:	f040 8380 	bne.w	83b14 <_vfiprintf_r+0xc68>
   83414:	492b      	ldr	r1, [pc, #172]	; (834c4 <_vfiprintf_r+0x618>)
   83416:	910b      	str	r1, [sp, #44]	; 0x2c
   83418:	069f      	lsls	r7, r3, #26
   8341a:	f100 82e5 	bmi.w	839e8 <_vfiprintf_r+0xb3c>
   8341e:	9807      	ldr	r0, [sp, #28]
   83420:	06de      	lsls	r6, r3, #27
   83422:	4601      	mov	r1, r0
   83424:	f100 826f 	bmi.w	83906 <_vfiprintf_r+0xa5a>
   83428:	065d      	lsls	r5, r3, #25
   8342a:	f140 826c 	bpl.w	83906 <_vfiprintf_r+0xa5a>
   8342e:	2700      	movs	r7, #0
   83430:	3104      	adds	r1, #4
   83432:	8806      	ldrh	r6, [r0, #0]
   83434:	9107      	str	r1, [sp, #28]
   83436:	07d8      	lsls	r0, r3, #31
   83438:	f140 8220 	bpl.w	8387c <_vfiprintf_r+0x9d0>
   8343c:	ea56 0107 	orrs.w	r1, r6, r7
   83440:	f000 821c 	beq.w	8387c <_vfiprintf_r+0x9d0>
   83444:	2130      	movs	r1, #48	; 0x30
   83446:	f88d 2039 	strb.w	r2, [sp, #57]	; 0x39
   8344a:	f043 0302 	orr.w	r3, r3, #2
   8344e:	f88d 1038 	strb.w	r1, [sp, #56]	; 0x38
   83452:	2202      	movs	r2, #2
   83454:	e663      	b.n	8311e <_vfiprintf_r+0x272>
   83456:	9508      	str	r5, [sp, #32]
   83458:	2800      	cmp	r0, #0
   8345a:	f040 8355 	bne.w	83b08 <_vfiprintf_r+0xc5c>
   8345e:	491a      	ldr	r1, [pc, #104]	; (834c8 <_vfiprintf_r+0x61c>)
   83460:	910b      	str	r1, [sp, #44]	; 0x2c
   83462:	e7d9      	b.n	83418 <_vfiprintf_r+0x56c>
   83464:	2201      	movs	r2, #1
   83466:	9807      	ldr	r0, [sp, #28]
   83468:	4611      	mov	r1, r2
   8346a:	9201      	str	r2, [sp, #4]
   8346c:	6802      	ldr	r2, [r0, #0]
   8346e:	f04f 0400 	mov.w	r4, #0
   83472:	f88d 2048 	strb.w	r2, [sp, #72]	; 0x48
   83476:	4602      	mov	r2, r0
   83478:	3204      	adds	r2, #4
   8347a:	9508      	str	r5, [sp, #32]
   8347c:	f88d 4037 	strb.w	r4, [sp, #55]	; 0x37
   83480:	9105      	str	r1, [sp, #20]
   83482:	9207      	str	r2, [sp, #28]
   83484:	f10d 0b48 	add.w	fp, sp, #72	; 0x48
   83488:	9302      	str	r3, [sp, #8]
   8348a:	2400      	movs	r4, #0
   8348c:	e66e      	b.n	8316c <_vfiprintf_r+0x2c0>
   8348e:	f043 0340 	orr.w	r3, r3, #64	; 0x40
   83492:	f898 2000 	ldrb.w	r2, [r8]
   83496:	e57b      	b.n	82f90 <_vfiprintf_r+0xe4>
   83498:	f898 2000 	ldrb.w	r2, [r8]
   8349c:	2a6c      	cmp	r2, #108	; 0x6c
   8349e:	bf03      	ittte	eq
   834a0:	f898 2001 	ldrbeq.w	r2, [r8, #1]
   834a4:	f043 0320 	orreq.w	r3, r3, #32
   834a8:	f108 0801 	addeq.w	r8, r8, #1
   834ac:	f043 0310 	orrne.w	r3, r3, #16
   834b0:	e56e      	b.n	82f90 <_vfiprintf_r+0xe4>
   834b2:	f898 2000 	ldrb.w	r2, [r8]
   834b6:	2001      	movs	r0, #1
   834b8:	262b      	movs	r6, #43	; 0x2b
   834ba:	e569      	b.n	82f90 <_vfiprintf_r+0xe4>
   834bc:	00085b54 	.word	0x00085b54
   834c0:	00085b64 	.word	0x00085b64
   834c4:	00085b38 	.word	0x00085b38
   834c8:	00085b24 	.word	0x00085b24
   834cc:	f04f 0200 	mov.w	r2, #0
   834d0:	9907      	ldr	r1, [sp, #28]
   834d2:	9508      	str	r5, [sp, #32]
   834d4:	f8d1 b000 	ldr.w	fp, [r1]
   834d8:	f88d 2037 	strb.w	r2, [sp, #55]	; 0x37
   834dc:	1d0d      	adds	r5, r1, #4
   834de:	f1bb 0f00 	cmp.w	fp, #0
   834e2:	f000 82e4 	beq.w	83aae <_vfiprintf_r+0xc02>
   834e6:	1c67      	adds	r7, r4, #1
   834e8:	f000 82c3 	beq.w	83a72 <_vfiprintf_r+0xbc6>
   834ec:	4622      	mov	r2, r4
   834ee:	2100      	movs	r1, #0
   834f0:	4658      	mov	r0, fp
   834f2:	9301      	str	r3, [sp, #4]
   834f4:	f001 fbc6 	bl	84c84 <memchr>
   834f8:	9b01      	ldr	r3, [sp, #4]
   834fa:	2800      	cmp	r0, #0
   834fc:	f000 82e8 	beq.w	83ad0 <_vfiprintf_r+0xc24>
   83500:	eba0 020b 	sub.w	r2, r0, fp
   83504:	9507      	str	r5, [sp, #28]
   83506:	9205      	str	r2, [sp, #20]
   83508:	9302      	str	r3, [sp, #8]
   8350a:	f89d 5037 	ldrb.w	r5, [sp, #55]	; 0x37
   8350e:	2400      	movs	r4, #0
   83510:	e624      	b.n	8315c <_vfiprintf_r+0x2b0>
   83512:	f898 2000 	ldrb.w	r2, [r8]
   83516:	f108 0701 	add.w	r7, r8, #1
   8351a:	2a2a      	cmp	r2, #42	; 0x2a
   8351c:	f000 82e9 	beq.w	83af2 <_vfiprintf_r+0xc46>
   83520:	f1a2 0130 	sub.w	r1, r2, #48	; 0x30
   83524:	2909      	cmp	r1, #9
   83526:	46b8      	mov	r8, r7
   83528:	f04f 0400 	mov.w	r4, #0
   8352c:	f63f ad32 	bhi.w	82f94 <_vfiprintf_r+0xe8>
   83530:	f818 2b01 	ldrb.w	r2, [r8], #1
   83534:	eb04 0484 	add.w	r4, r4, r4, lsl #2
   83538:	eb01 0444 	add.w	r4, r1, r4, lsl #1
   8353c:	f1a2 0130 	sub.w	r1, r2, #48	; 0x30
   83540:	2909      	cmp	r1, #9
   83542:	d9f5      	bls.n	83530 <_vfiprintf_r+0x684>
   83544:	e526      	b.n	82f94 <_vfiprintf_r+0xe8>
   83546:	f043 0320 	orr.w	r3, r3, #32
   8354a:	f898 2000 	ldrb.w	r2, [r8]
   8354e:	e51f      	b.n	82f90 <_vfiprintf_r+0xe4>
   83550:	9508      	str	r5, [sp, #32]
   83552:	2800      	cmp	r0, #0
   83554:	f040 82db 	bne.w	83b0e <_vfiprintf_r+0xc62>
   83558:	2a00      	cmp	r2, #0
   8355a:	f000 80f1 	beq.w	83740 <_vfiprintf_r+0x894>
   8355e:	2101      	movs	r1, #1
   83560:	f88d 2048 	strb.w	r2, [sp, #72]	; 0x48
   83564:	f04f 0200 	mov.w	r2, #0
   83568:	9101      	str	r1, [sp, #4]
   8356a:	f88d 2037 	strb.w	r2, [sp, #55]	; 0x37
   8356e:	9105      	str	r1, [sp, #20]
   83570:	f10d 0b48 	add.w	fp, sp, #72	; 0x48
   83574:	e788      	b.n	83488 <_vfiprintf_r+0x5dc>
   83576:	9a07      	ldr	r2, [sp, #28]
   83578:	6813      	ldr	r3, [r2, #0]
   8357a:	3204      	adds	r2, #4
   8357c:	9207      	str	r2, [sp, #28]
   8357e:	9a03      	ldr	r2, [sp, #12]
   83580:	601a      	str	r2, [r3, #0]
   83582:	e4d0      	b.n	82f26 <_vfiprintf_r+0x7a>
   83584:	aa0f      	add	r2, sp, #60	; 0x3c
   83586:	9904      	ldr	r1, [sp, #16]
   83588:	4620      	mov	r0, r4
   8358a:	f7ff fc4f 	bl	82e2c <__sprint_r.part.0>
   8358e:	2800      	cmp	r0, #0
   83590:	f040 8143 	bne.w	8381a <_vfiprintf_r+0x96e>
   83594:	9910      	ldr	r1, [sp, #64]	; 0x40
   83596:	46d6      	mov	lr, sl
   83598:	9a11      	ldr	r2, [sp, #68]	; 0x44
   8359a:	f101 0c01 	add.w	ip, r1, #1
   8359e:	e60a      	b.n	831b6 <_vfiprintf_r+0x30a>
   835a0:	aa0f      	add	r2, sp, #60	; 0x3c
   835a2:	9904      	ldr	r1, [sp, #16]
   835a4:	9806      	ldr	r0, [sp, #24]
   835a6:	f7ff fc41 	bl	82e2c <__sprint_r.part.0>
   835aa:	2800      	cmp	r0, #0
   835ac:	f040 8135 	bne.w	8381a <_vfiprintf_r+0x96e>
   835b0:	46d1      	mov	r9, sl
   835b2:	9910      	ldr	r1, [sp, #64]	; 0x40
   835b4:	f89d 5037 	ldrb.w	r5, [sp, #55]	; 0x37
   835b8:	9a11      	ldr	r2, [sp, #68]	; 0x44
   835ba:	1c48      	adds	r0, r1, #1
   835bc:	2d00      	cmp	r5, #0
   835be:	f43f ae24 	beq.w	8320a <_vfiprintf_r+0x35e>
   835c2:	2101      	movs	r1, #1
   835c4:	f10d 0537 	add.w	r5, sp, #55	; 0x37
   835c8:	440a      	add	r2, r1
   835ca:	2807      	cmp	r0, #7
   835cc:	9211      	str	r2, [sp, #68]	; 0x44
   835ce:	9010      	str	r0, [sp, #64]	; 0x40
   835d0:	f8c9 1004 	str.w	r1, [r9, #4]
   835d4:	f8c9 5000 	str.w	r5, [r9]
   835d8:	f340 8109 	ble.w	837ee <_vfiprintf_r+0x942>
   835dc:	2a00      	cmp	r2, #0
   835de:	f040 81af 	bne.w	83940 <_vfiprintf_r+0xa94>
   835e2:	9b09      	ldr	r3, [sp, #36]	; 0x24
   835e4:	2b00      	cmp	r3, #0
   835e6:	f43f ae23 	beq.w	83230 <_vfiprintf_r+0x384>
   835ea:	2202      	movs	r2, #2
   835ec:	4608      	mov	r0, r1
   835ee:	46d1      	mov	r9, sl
   835f0:	ab0e      	add	r3, sp, #56	; 0x38
   835f2:	921d      	str	r2, [sp, #116]	; 0x74
   835f4:	931c      	str	r3, [sp, #112]	; 0x70
   835f6:	4601      	mov	r1, r0
   835f8:	f109 0908 	add.w	r9, r9, #8
   835fc:	3001      	adds	r0, #1
   835fe:	9b0a      	ldr	r3, [sp, #40]	; 0x28
   83600:	2b80      	cmp	r3, #128	; 0x80
   83602:	f43f ae1c 	beq.w	8323e <_vfiprintf_r+0x392>
   83606:	9b05      	ldr	r3, [sp, #20]
   83608:	1ae4      	subs	r4, r4, r3
   8360a:	2c00      	cmp	r4, #0
   8360c:	dd2f      	ble.n	8366e <_vfiprintf_r+0x7c2>
   8360e:	2c10      	cmp	r4, #16
   83610:	f340 8220 	ble.w	83a54 <_vfiprintf_r+0xba8>
   83614:	46ce      	mov	lr, r9
   83616:	2610      	movs	r6, #16
   83618:	4db2      	ldr	r5, [pc, #712]	; (838e4 <_vfiprintf_r+0xa38>)
   8361a:	9f06      	ldr	r7, [sp, #24]
   8361c:	f8dd 9010 	ldr.w	r9, [sp, #16]
   83620:	e006      	b.n	83630 <_vfiprintf_r+0x784>
   83622:	1c88      	adds	r0, r1, #2
   83624:	4619      	mov	r1, r3
   83626:	f10e 0e08 	add.w	lr, lr, #8
   8362a:	3c10      	subs	r4, #16
   8362c:	2c10      	cmp	r4, #16
   8362e:	dd10      	ble.n	83652 <_vfiprintf_r+0x7a6>
   83630:	1c4b      	adds	r3, r1, #1
   83632:	3210      	adds	r2, #16
   83634:	2b07      	cmp	r3, #7
   83636:	9211      	str	r2, [sp, #68]	; 0x44
   83638:	e88e 0060 	stmia.w	lr, {r5, r6}
   8363c:	9310      	str	r3, [sp, #64]	; 0x40
   8363e:	ddf0      	ble.n	83622 <_vfiprintf_r+0x776>
   83640:	2a00      	cmp	r2, #0
   83642:	d165      	bne.n	83710 <_vfiprintf_r+0x864>
   83644:	3c10      	subs	r4, #16
   83646:	2c10      	cmp	r4, #16
   83648:	f04f 0001 	mov.w	r0, #1
   8364c:	4611      	mov	r1, r2
   8364e:	46d6      	mov	lr, sl
   83650:	dcee      	bgt.n	83630 <_vfiprintf_r+0x784>
   83652:	46f1      	mov	r9, lr
   83654:	4422      	add	r2, r4
   83656:	2807      	cmp	r0, #7
   83658:	9211      	str	r2, [sp, #68]	; 0x44
   8365a:	f8c9 5000 	str.w	r5, [r9]
   8365e:	f8c9 4004 	str.w	r4, [r9, #4]
   83662:	9010      	str	r0, [sp, #64]	; 0x40
   83664:	f300 8085 	bgt.w	83772 <_vfiprintf_r+0x8c6>
   83668:	f109 0908 	add.w	r9, r9, #8
   8366c:	3001      	adds	r0, #1
   8366e:	9905      	ldr	r1, [sp, #20]
   83670:	2807      	cmp	r0, #7
   83672:	440a      	add	r2, r1
   83674:	9211      	str	r2, [sp, #68]	; 0x44
   83676:	f8c9 b000 	str.w	fp, [r9]
   8367a:	f8c9 1004 	str.w	r1, [r9, #4]
   8367e:	9010      	str	r0, [sp, #64]	; 0x40
   83680:	f340 8082 	ble.w	83788 <_vfiprintf_r+0x8dc>
   83684:	2a00      	cmp	r2, #0
   83686:	f040 8118 	bne.w	838ba <_vfiprintf_r+0xa0e>
   8368a:	9b02      	ldr	r3, [sp, #8]
   8368c:	9210      	str	r2, [sp, #64]	; 0x40
   8368e:	0758      	lsls	r0, r3, #29
   83690:	d535      	bpl.n	836fe <_vfiprintf_r+0x852>
   83692:	9b08      	ldr	r3, [sp, #32]
   83694:	9901      	ldr	r1, [sp, #4]
   83696:	1a5c      	subs	r4, r3, r1
   83698:	2c00      	cmp	r4, #0
   8369a:	f340 80e7 	ble.w	8386c <_vfiprintf_r+0x9c0>
   8369e:	46d1      	mov	r9, sl
   836a0:	2c10      	cmp	r4, #16
   836a2:	f340 820d 	ble.w	83ac0 <_vfiprintf_r+0xc14>
   836a6:	2510      	movs	r5, #16
   836a8:	9910      	ldr	r1, [sp, #64]	; 0x40
   836aa:	4e8f      	ldr	r6, [pc, #572]	; (838e8 <_vfiprintf_r+0xa3c>)
   836ac:	9f06      	ldr	r7, [sp, #24]
   836ae:	f8dd b010 	ldr.w	fp, [sp, #16]
   836b2:	e006      	b.n	836c2 <_vfiprintf_r+0x816>
   836b4:	1c88      	adds	r0, r1, #2
   836b6:	4619      	mov	r1, r3
   836b8:	f109 0908 	add.w	r9, r9, #8
   836bc:	3c10      	subs	r4, #16
   836be:	2c10      	cmp	r4, #16
   836c0:	dd11      	ble.n	836e6 <_vfiprintf_r+0x83a>
   836c2:	1c4b      	adds	r3, r1, #1
   836c4:	3210      	adds	r2, #16
   836c6:	2b07      	cmp	r3, #7
   836c8:	9211      	str	r2, [sp, #68]	; 0x44
   836ca:	f8c9 6000 	str.w	r6, [r9]
   836ce:	f8c9 5004 	str.w	r5, [r9, #4]
   836d2:	9310      	str	r3, [sp, #64]	; 0x40
   836d4:	ddee      	ble.n	836b4 <_vfiprintf_r+0x808>
   836d6:	bb42      	cbnz	r2, 8372a <_vfiprintf_r+0x87e>
   836d8:	3c10      	subs	r4, #16
   836da:	2c10      	cmp	r4, #16
   836dc:	f04f 0001 	mov.w	r0, #1
   836e0:	4611      	mov	r1, r2
   836e2:	46d1      	mov	r9, sl
   836e4:	dced      	bgt.n	836c2 <_vfiprintf_r+0x816>
   836e6:	4422      	add	r2, r4
   836e8:	2807      	cmp	r0, #7
   836ea:	9211      	str	r2, [sp, #68]	; 0x44
   836ec:	f8c9 6000 	str.w	r6, [r9]
   836f0:	f8c9 4004 	str.w	r4, [r9, #4]
   836f4:	9010      	str	r0, [sp, #64]	; 0x40
   836f6:	dd51      	ble.n	8379c <_vfiprintf_r+0x8f0>
   836f8:	2a00      	cmp	r2, #0
   836fa:	f040 819a 	bne.w	83a32 <_vfiprintf_r+0xb86>
   836fe:	9b03      	ldr	r3, [sp, #12]
   83700:	9a08      	ldr	r2, [sp, #32]
   83702:	9901      	ldr	r1, [sp, #4]
   83704:	428a      	cmp	r2, r1
   83706:	bfac      	ite	ge
   83708:	189b      	addge	r3, r3, r2
   8370a:	185b      	addlt	r3, r3, r1
   8370c:	9303      	str	r3, [sp, #12]
   8370e:	e04e      	b.n	837ae <_vfiprintf_r+0x902>
   83710:	aa0f      	add	r2, sp, #60	; 0x3c
   83712:	4649      	mov	r1, r9
   83714:	4638      	mov	r0, r7
   83716:	f7ff fb89 	bl	82e2c <__sprint_r.part.0>
   8371a:	2800      	cmp	r0, #0
   8371c:	f040 813e 	bne.w	8399c <_vfiprintf_r+0xaf0>
   83720:	9910      	ldr	r1, [sp, #64]	; 0x40
   83722:	46d6      	mov	lr, sl
   83724:	9a11      	ldr	r2, [sp, #68]	; 0x44
   83726:	1c48      	adds	r0, r1, #1
   83728:	e77f      	b.n	8362a <_vfiprintf_r+0x77e>
   8372a:	aa0f      	add	r2, sp, #60	; 0x3c
   8372c:	4659      	mov	r1, fp
   8372e:	4638      	mov	r0, r7
   83730:	f7ff fb7c 	bl	82e2c <__sprint_r.part.0>
   83734:	b960      	cbnz	r0, 83750 <_vfiprintf_r+0x8a4>
   83736:	9910      	ldr	r1, [sp, #64]	; 0x40
   83738:	46d1      	mov	r9, sl
   8373a:	9a11      	ldr	r2, [sp, #68]	; 0x44
   8373c:	1c48      	adds	r0, r1, #1
   8373e:	e7bd      	b.n	836bc <_vfiprintf_r+0x810>
   83740:	9b11      	ldr	r3, [sp, #68]	; 0x44
   83742:	f8dd b010 	ldr.w	fp, [sp, #16]
   83746:	2b00      	cmp	r3, #0
   83748:	f040 81ca 	bne.w	83ae0 <_vfiprintf_r+0xc34>
   8374c:	2300      	movs	r3, #0
   8374e:	9310      	str	r3, [sp, #64]	; 0x40
   83750:	f8db 3064 	ldr.w	r3, [fp, #100]	; 0x64
   83754:	f013 0f01 	tst.w	r3, #1
   83758:	f8bb 300c 	ldrh.w	r3, [fp, #12]
   8375c:	d102      	bne.n	83764 <_vfiprintf_r+0x8b8>
   8375e:	059a      	lsls	r2, r3, #22
   83760:	f140 80dd 	bpl.w	8391e <_vfiprintf_r+0xa72>
   83764:	065b      	lsls	r3, r3, #25
   83766:	f53f acad 	bmi.w	830c4 <_vfiprintf_r+0x218>
   8376a:	9803      	ldr	r0, [sp, #12]
   8376c:	b02d      	add	sp, #180	; 0xb4
   8376e:	e8bd 8ff0 	ldmia.w	sp!, {r4, r5, r6, r7, r8, r9, sl, fp, pc}
   83772:	2a00      	cmp	r2, #0
   83774:	f040 8105 	bne.w	83982 <_vfiprintf_r+0xad6>
   83778:	2301      	movs	r3, #1
   8377a:	46d1      	mov	r9, sl
   8377c:	9a05      	ldr	r2, [sp, #20]
   8377e:	f8cd b070 	str.w	fp, [sp, #112]	; 0x70
   83782:	921d      	str	r2, [sp, #116]	; 0x74
   83784:	9211      	str	r2, [sp, #68]	; 0x44
   83786:	9310      	str	r3, [sp, #64]	; 0x40
   83788:	f109 0908 	add.w	r9, r9, #8
   8378c:	9b02      	ldr	r3, [sp, #8]
   8378e:	0759      	lsls	r1, r3, #29
   83790:	d504      	bpl.n	8379c <_vfiprintf_r+0x8f0>
   83792:	9b08      	ldr	r3, [sp, #32]
   83794:	9901      	ldr	r1, [sp, #4]
   83796:	1a5c      	subs	r4, r3, r1
   83798:	2c00      	cmp	r4, #0
   8379a:	dc81      	bgt.n	836a0 <_vfiprintf_r+0x7f4>
   8379c:	9b03      	ldr	r3, [sp, #12]
   8379e:	9908      	ldr	r1, [sp, #32]
   837a0:	9801      	ldr	r0, [sp, #4]
   837a2:	4281      	cmp	r1, r0
   837a4:	bfac      	ite	ge
   837a6:	185b      	addge	r3, r3, r1
   837a8:	181b      	addlt	r3, r3, r0
   837aa:	9303      	str	r3, [sp, #12]
   837ac:	bb72      	cbnz	r2, 8380c <_vfiprintf_r+0x960>
   837ae:	2300      	movs	r3, #0
   837b0:	46d1      	mov	r9, sl
   837b2:	9310      	str	r3, [sp, #64]	; 0x40
   837b4:	f7ff bbb7 	b.w	82f26 <_vfiprintf_r+0x7a>
   837b8:	aa0f      	add	r2, sp, #60	; 0x3c
   837ba:	9904      	ldr	r1, [sp, #16]
   837bc:	4620      	mov	r0, r4
   837be:	f7ff fb35 	bl	82e2c <__sprint_r.part.0>
   837c2:	bb50      	cbnz	r0, 8381a <_vfiprintf_r+0x96e>
   837c4:	9910      	ldr	r1, [sp, #64]	; 0x40
   837c6:	46d4      	mov	ip, sl
   837c8:	9a11      	ldr	r2, [sp, #68]	; 0x44
   837ca:	f101 0e01 	add.w	lr, r1, #1
   837ce:	e54a      	b.n	83266 <_vfiprintf_r+0x3ba>
   837d0:	2a00      	cmp	r2, #0
   837d2:	f47f aee5 	bne.w	835a0 <_vfiprintf_r+0x6f4>
   837d6:	f89d 1037 	ldrb.w	r1, [sp, #55]	; 0x37
   837da:	2900      	cmp	r1, #0
   837dc:	f000 811a 	beq.w	83a14 <_vfiprintf_r+0xb68>
   837e0:	2201      	movs	r2, #1
   837e2:	46d1      	mov	r9, sl
   837e4:	4610      	mov	r0, r2
   837e6:	f10d 0137 	add.w	r1, sp, #55	; 0x37
   837ea:	921d      	str	r2, [sp, #116]	; 0x74
   837ec:	911c      	str	r1, [sp, #112]	; 0x70
   837ee:	4601      	mov	r1, r0
   837f0:	f109 0908 	add.w	r9, r9, #8
   837f4:	3001      	adds	r0, #1
   837f6:	e508      	b.n	8320a <_vfiprintf_r+0x35e>
   837f8:	9b02      	ldr	r3, [sp, #8]
   837fa:	2a01      	cmp	r2, #1
   837fc:	f000 8097 	beq.w	8392e <_vfiprintf_r+0xa82>
   83800:	2a02      	cmp	r2, #2
   83802:	d10d      	bne.n	83820 <_vfiprintf_r+0x974>
   83804:	9302      	str	r3, [sp, #8]
   83806:	2600      	movs	r6, #0
   83808:	2700      	movs	r7, #0
   8380a:	e5b2      	b.n	83372 <_vfiprintf_r+0x4c6>
   8380c:	aa0f      	add	r2, sp, #60	; 0x3c
   8380e:	9904      	ldr	r1, [sp, #16]
   83810:	9806      	ldr	r0, [sp, #24]
   83812:	f7ff fb0b 	bl	82e2c <__sprint_r.part.0>
   83816:	2800      	cmp	r0, #0
   83818:	d0c9      	beq.n	837ae <_vfiprintf_r+0x902>
   8381a:	f8dd b010 	ldr.w	fp, [sp, #16]
   8381e:	e797      	b.n	83750 <_vfiprintf_r+0x8a4>
   83820:	2600      	movs	r6, #0
   83822:	2700      	movs	r7, #0
   83824:	9302      	str	r3, [sp, #8]
   83826:	4651      	mov	r1, sl
   83828:	e000      	b.n	8382c <_vfiprintf_r+0x980>
   8382a:	4659      	mov	r1, fp
   8382c:	08f2      	lsrs	r2, r6, #3
   8382e:	ea42 7247 	orr.w	r2, r2, r7, lsl #29
   83832:	08f8      	lsrs	r0, r7, #3
   83834:	f006 0307 	and.w	r3, r6, #7
   83838:	4607      	mov	r7, r0
   8383a:	4616      	mov	r6, r2
   8383c:	3330      	adds	r3, #48	; 0x30
   8383e:	ea56 0207 	orrs.w	r2, r6, r7
   83842:	f801 3c01 	strb.w	r3, [r1, #-1]
   83846:	f101 3bff 	add.w	fp, r1, #4294967295
   8384a:	d1ee      	bne.n	8382a <_vfiprintf_r+0x97e>
   8384c:	9a02      	ldr	r2, [sp, #8]
   8384e:	07d6      	lsls	r6, r2, #31
   83850:	f57f ad9f 	bpl.w	83392 <_vfiprintf_r+0x4e6>
   83854:	2b30      	cmp	r3, #48	; 0x30
   83856:	f43f ad9c 	beq.w	83392 <_vfiprintf_r+0x4e6>
   8385a:	2330      	movs	r3, #48	; 0x30
   8385c:	3902      	subs	r1, #2
   8385e:	f80b 3c01 	strb.w	r3, [fp, #-1]
   83862:	ebaa 0301 	sub.w	r3, sl, r1
   83866:	9305      	str	r3, [sp, #20]
   83868:	468b      	mov	fp, r1
   8386a:	e477      	b.n	8315c <_vfiprintf_r+0x2b0>
   8386c:	9b03      	ldr	r3, [sp, #12]
   8386e:	9a08      	ldr	r2, [sp, #32]
   83870:	428a      	cmp	r2, r1
   83872:	bfac      	ite	ge
   83874:	189b      	addge	r3, r3, r2
   83876:	185b      	addlt	r3, r3, r1
   83878:	9303      	str	r3, [sp, #12]
   8387a:	e798      	b.n	837ae <_vfiprintf_r+0x902>
   8387c:	2202      	movs	r2, #2
   8387e:	e44e      	b.n	8311e <_vfiprintf_r+0x272>
   83880:	2f00      	cmp	r7, #0
   83882:	bf08      	it	eq
   83884:	2e0a      	cmpeq	r6, #10
   83886:	d351      	bcc.n	8392c <_vfiprintf_r+0xa80>
   83888:	46d3      	mov	fp, sl
   8388a:	4630      	mov	r0, r6
   8388c:	4639      	mov	r1, r7
   8388e:	220a      	movs	r2, #10
   83890:	2300      	movs	r3, #0
   83892:	f001 fe85 	bl	855a0 <__aeabi_uldivmod>
   83896:	3230      	adds	r2, #48	; 0x30
   83898:	f80b 2d01 	strb.w	r2, [fp, #-1]!
   8389c:	4630      	mov	r0, r6
   8389e:	4639      	mov	r1, r7
   838a0:	2300      	movs	r3, #0
   838a2:	220a      	movs	r2, #10
   838a4:	f001 fe7c 	bl	855a0 <__aeabi_uldivmod>
   838a8:	4606      	mov	r6, r0
   838aa:	460f      	mov	r7, r1
   838ac:	ea56 0307 	orrs.w	r3, r6, r7
   838b0:	d1eb      	bne.n	8388a <_vfiprintf_r+0x9de>
   838b2:	e56e      	b.n	83392 <_vfiprintf_r+0x4e6>
   838b4:	9405      	str	r4, [sp, #20]
   838b6:	46d3      	mov	fp, sl
   838b8:	e450      	b.n	8315c <_vfiprintf_r+0x2b0>
   838ba:	aa0f      	add	r2, sp, #60	; 0x3c
   838bc:	9904      	ldr	r1, [sp, #16]
   838be:	9806      	ldr	r0, [sp, #24]
   838c0:	f7ff fab4 	bl	82e2c <__sprint_r.part.0>
   838c4:	2800      	cmp	r0, #0
   838c6:	d1a8      	bne.n	8381a <_vfiprintf_r+0x96e>
   838c8:	46d1      	mov	r9, sl
   838ca:	9a11      	ldr	r2, [sp, #68]	; 0x44
   838cc:	e75e      	b.n	8378c <_vfiprintf_r+0x8e0>
   838ce:	aa0f      	add	r2, sp, #60	; 0x3c
   838d0:	9904      	ldr	r1, [sp, #16]
   838d2:	9806      	ldr	r0, [sp, #24]
   838d4:	f7ff faaa 	bl	82e2c <__sprint_r.part.0>
   838d8:	2800      	cmp	r0, #0
   838da:	d19e      	bne.n	8381a <_vfiprintf_r+0x96e>
   838dc:	46d1      	mov	r9, sl
   838de:	f7ff bbbb 	b.w	83058 <_vfiprintf_r+0x1ac>
   838e2:	bf00      	nop
   838e4:	00085b64 	.word	0x00085b64
   838e8:	00085b54 	.word	0x00085b54
   838ec:	3104      	adds	r1, #4
   838ee:	6816      	ldr	r6, [r2, #0]
   838f0:	2700      	movs	r7, #0
   838f2:	2201      	movs	r2, #1
   838f4:	9107      	str	r1, [sp, #28]
   838f6:	e412      	b.n	8311e <_vfiprintf_r+0x272>
   838f8:	9807      	ldr	r0, [sp, #28]
   838fa:	2700      	movs	r7, #0
   838fc:	4601      	mov	r1, r0
   838fe:	3104      	adds	r1, #4
   83900:	6806      	ldr	r6, [r0, #0]
   83902:	9107      	str	r1, [sp, #28]
   83904:	e40b      	b.n	8311e <_vfiprintf_r+0x272>
   83906:	680e      	ldr	r6, [r1, #0]
   83908:	3104      	adds	r1, #4
   8390a:	9107      	str	r1, [sp, #28]
   8390c:	2700      	movs	r7, #0
   8390e:	e592      	b.n	83436 <_vfiprintf_r+0x58a>
   83910:	6816      	ldr	r6, [r2, #0]
   83912:	3204      	adds	r2, #4
   83914:	17f7      	asrs	r7, r6, #31
   83916:	9207      	str	r2, [sp, #28]
   83918:	4630      	mov	r0, r6
   8391a:	4639      	mov	r1, r7
   8391c:	e512      	b.n	83344 <_vfiprintf_r+0x498>
   8391e:	f8db 0058 	ldr.w	r0, [fp, #88]	; 0x58
   83922:	f000 fe75 	bl	84610 <__retarget_lock_release_recursive>
   83926:	f8bb 300c 	ldrh.w	r3, [fp, #12]
   8392a:	e71b      	b.n	83764 <_vfiprintf_r+0x8b8>
   8392c:	9b02      	ldr	r3, [sp, #8]
   8392e:	9302      	str	r3, [sp, #8]
   83930:	2301      	movs	r3, #1
   83932:	f10d 0bb0 	add.w	fp, sp, #176	; 0xb0
   83936:	3630      	adds	r6, #48	; 0x30
   83938:	f80b 6d41 	strb.w	r6, [fp, #-65]!
   8393c:	9305      	str	r3, [sp, #20]
   8393e:	e40d      	b.n	8315c <_vfiprintf_r+0x2b0>
   83940:	aa0f      	add	r2, sp, #60	; 0x3c
   83942:	9904      	ldr	r1, [sp, #16]
   83944:	9806      	ldr	r0, [sp, #24]
   83946:	f7ff fa71 	bl	82e2c <__sprint_r.part.0>
   8394a:	2800      	cmp	r0, #0
   8394c:	f47f af65 	bne.w	8381a <_vfiprintf_r+0x96e>
   83950:	9910      	ldr	r1, [sp, #64]	; 0x40
   83952:	46d1      	mov	r9, sl
   83954:	9a11      	ldr	r2, [sp, #68]	; 0x44
   83956:	1c48      	adds	r0, r1, #1
   83958:	e457      	b.n	8320a <_vfiprintf_r+0x35e>
   8395a:	aa0f      	add	r2, sp, #60	; 0x3c
   8395c:	9904      	ldr	r1, [sp, #16]
   8395e:	9806      	ldr	r0, [sp, #24]
   83960:	f7ff fa64 	bl	82e2c <__sprint_r.part.0>
   83964:	2800      	cmp	r0, #0
   83966:	f47f af58 	bne.w	8381a <_vfiprintf_r+0x96e>
   8396a:	9910      	ldr	r1, [sp, #64]	; 0x40
   8396c:	46d1      	mov	r9, sl
   8396e:	9a11      	ldr	r2, [sp, #68]	; 0x44
   83970:	1c48      	adds	r0, r1, #1
   83972:	e644      	b.n	835fe <_vfiprintf_r+0x752>
   83974:	2a00      	cmp	r2, #0
   83976:	f040 8087 	bne.w	83a88 <_vfiprintf_r+0xbdc>
   8397a:	2001      	movs	r0, #1
   8397c:	4611      	mov	r1, r2
   8397e:	46d1      	mov	r9, sl
   83980:	e641      	b.n	83606 <_vfiprintf_r+0x75a>
   83982:	aa0f      	add	r2, sp, #60	; 0x3c
   83984:	9904      	ldr	r1, [sp, #16]
   83986:	9806      	ldr	r0, [sp, #24]
   83988:	f7ff fa50 	bl	82e2c <__sprint_r.part.0>
   8398c:	2800      	cmp	r0, #0
   8398e:	f47f af44 	bne.w	8381a <_vfiprintf_r+0x96e>
   83992:	9810      	ldr	r0, [sp, #64]	; 0x40
   83994:	46d1      	mov	r9, sl
   83996:	9a11      	ldr	r2, [sp, #68]	; 0x44
   83998:	3001      	adds	r0, #1
   8399a:	e668      	b.n	8366e <_vfiprintf_r+0x7c2>
   8399c:	46cb      	mov	fp, r9
   8399e:	e6d7      	b.n	83750 <_vfiprintf_r+0x8a4>
   839a0:	9d07      	ldr	r5, [sp, #28]
   839a2:	3507      	adds	r5, #7
   839a4:	f025 0507 	bic.w	r5, r5, #7
   839a8:	f105 0208 	add.w	r2, r5, #8
   839ac:	e9d5 0100 	ldrd	r0, r1, [r5]
   839b0:	9207      	str	r2, [sp, #28]
   839b2:	4606      	mov	r6, r0
   839b4:	460f      	mov	r7, r1
   839b6:	e4c5      	b.n	83344 <_vfiprintf_r+0x498>
   839b8:	9d07      	ldr	r5, [sp, #28]
   839ba:	3507      	adds	r5, #7
   839bc:	f025 0207 	bic.w	r2, r5, #7
   839c0:	f102 0108 	add.w	r1, r2, #8
   839c4:	e9d2 6700 	ldrd	r6, r7, [r2]
   839c8:	9107      	str	r1, [sp, #28]
   839ca:	2201      	movs	r2, #1
   839cc:	f7ff bba7 	b.w	8311e <_vfiprintf_r+0x272>
   839d0:	9d07      	ldr	r5, [sp, #28]
   839d2:	3507      	adds	r5, #7
   839d4:	f025 0207 	bic.w	r2, r5, #7
   839d8:	f102 0108 	add.w	r1, r2, #8
   839dc:	e9d2 6700 	ldrd	r6, r7, [r2]
   839e0:	9107      	str	r1, [sp, #28]
   839e2:	2200      	movs	r2, #0
   839e4:	f7ff bb9b 	b.w	8311e <_vfiprintf_r+0x272>
   839e8:	9d07      	ldr	r5, [sp, #28]
   839ea:	3507      	adds	r5, #7
   839ec:	f025 0107 	bic.w	r1, r5, #7
   839f0:	f101 0008 	add.w	r0, r1, #8
   839f4:	9007      	str	r0, [sp, #28]
   839f6:	e9d1 6700 	ldrd	r6, r7, [r1]
   839fa:	e51c      	b.n	83436 <_vfiprintf_r+0x58a>
   839fc:	46d3      	mov	fp, sl
   839fe:	f7ff bbad 	b.w	8315c <_vfiprintf_r+0x2b0>
   83a02:	252d      	movs	r5, #45	; 0x2d
   83a04:	4276      	negs	r6, r6
   83a06:	eb67 0747 	sbc.w	r7, r7, r7, lsl #1
   83a0a:	f88d 5037 	strb.w	r5, [sp, #55]	; 0x37
   83a0e:	2201      	movs	r2, #1
   83a10:	f7ff bb8a 	b.w	83128 <_vfiprintf_r+0x27c>
   83a14:	9b09      	ldr	r3, [sp, #36]	; 0x24
   83a16:	b9b3      	cbnz	r3, 83a46 <_vfiprintf_r+0xb9a>
   83a18:	4611      	mov	r1, r2
   83a1a:	2001      	movs	r0, #1
   83a1c:	46d1      	mov	r9, sl
   83a1e:	e5f2      	b.n	83606 <_vfiprintf_r+0x75a>
   83a20:	f8db 0058 	ldr.w	r0, [fp, #88]	; 0x58
   83a24:	f000 fdf4 	bl	84610 <__retarget_lock_release_recursive>
   83a28:	f04f 33ff 	mov.w	r3, #4294967295
   83a2c:	9303      	str	r3, [sp, #12]
   83a2e:	f7ff bb4c 	b.w	830ca <_vfiprintf_r+0x21e>
   83a32:	aa0f      	add	r2, sp, #60	; 0x3c
   83a34:	9904      	ldr	r1, [sp, #16]
   83a36:	9806      	ldr	r0, [sp, #24]
   83a38:	f7ff f9f8 	bl	82e2c <__sprint_r.part.0>
   83a3c:	2800      	cmp	r0, #0
   83a3e:	f47f aeec 	bne.w	8381a <_vfiprintf_r+0x96e>
   83a42:	9a11      	ldr	r2, [sp, #68]	; 0x44
   83a44:	e6aa      	b.n	8379c <_vfiprintf_r+0x8f0>
   83a46:	2202      	movs	r2, #2
   83a48:	ab0e      	add	r3, sp, #56	; 0x38
   83a4a:	921d      	str	r2, [sp, #116]	; 0x74
   83a4c:	931c      	str	r3, [sp, #112]	; 0x70
   83a4e:	2001      	movs	r0, #1
   83a50:	46d1      	mov	r9, sl
   83a52:	e5d0      	b.n	835f6 <_vfiprintf_r+0x74a>
   83a54:	4d34      	ldr	r5, [pc, #208]	; (83b28 <_vfiprintf_r+0xc7c>)
   83a56:	e5fd      	b.n	83654 <_vfiprintf_r+0x7a8>
   83a58:	9a07      	ldr	r2, [sp, #28]
   83a5a:	4613      	mov	r3, r2
   83a5c:	3304      	adds	r3, #4
   83a5e:	9307      	str	r3, [sp, #28]
   83a60:	9b03      	ldr	r3, [sp, #12]
   83a62:	6811      	ldr	r1, [r2, #0]
   83a64:	17dd      	asrs	r5, r3, #31
   83a66:	461a      	mov	r2, r3
   83a68:	462b      	mov	r3, r5
   83a6a:	e9c1 2300 	strd	r2, r3, [r1]
   83a6e:	f7ff ba5a 	b.w	82f26 <_vfiprintf_r+0x7a>
   83a72:	4658      	mov	r0, fp
   83a74:	9507      	str	r5, [sp, #28]
   83a76:	9302      	str	r3, [sp, #8]
   83a78:	f7ff f978 	bl	82d6c <strlen>
   83a7c:	2400      	movs	r4, #0
   83a7e:	9005      	str	r0, [sp, #20]
   83a80:	f89d 5037 	ldrb.w	r5, [sp, #55]	; 0x37
   83a84:	f7ff bb6a 	b.w	8315c <_vfiprintf_r+0x2b0>
   83a88:	aa0f      	add	r2, sp, #60	; 0x3c
   83a8a:	9904      	ldr	r1, [sp, #16]
   83a8c:	9806      	ldr	r0, [sp, #24]
   83a8e:	f7ff f9cd 	bl	82e2c <__sprint_r.part.0>
   83a92:	2800      	cmp	r0, #0
   83a94:	f47f aec1 	bne.w	8381a <_vfiprintf_r+0x96e>
   83a98:	9910      	ldr	r1, [sp, #64]	; 0x40
   83a9a:	46d1      	mov	r9, sl
   83a9c:	9a11      	ldr	r2, [sp, #68]	; 0x44
   83a9e:	1c48      	adds	r0, r1, #1
   83aa0:	e5b1      	b.n	83606 <_vfiprintf_r+0x75a>
   83aa2:	9910      	ldr	r1, [sp, #64]	; 0x40
   83aa4:	9a11      	ldr	r2, [sp, #68]	; 0x44
   83aa6:	3101      	adds	r1, #1
   83aa8:	4e20      	ldr	r6, [pc, #128]	; (83b2c <_vfiprintf_r+0xc80>)
   83aaa:	f7ff bb9c 	b.w	831e6 <_vfiprintf_r+0x33a>
   83aae:	2c06      	cmp	r4, #6
   83ab0:	bf28      	it	cs
   83ab2:	2406      	movcs	r4, #6
   83ab4:	9507      	str	r5, [sp, #28]
   83ab6:	9405      	str	r4, [sp, #20]
   83ab8:	9401      	str	r4, [sp, #4]
   83aba:	f8df b074 	ldr.w	fp, [pc, #116]	; 83b30 <_vfiprintf_r+0xc84>
   83abe:	e4e3      	b.n	83488 <_vfiprintf_r+0x5dc>
   83ac0:	9810      	ldr	r0, [sp, #64]	; 0x40
   83ac2:	4e1a      	ldr	r6, [pc, #104]	; (83b2c <_vfiprintf_r+0xc80>)
   83ac4:	3001      	adds	r0, #1
   83ac6:	e60e      	b.n	836e6 <_vfiprintf_r+0x83a>
   83ac8:	4686      	mov	lr, r0
   83aca:	4d17      	ldr	r5, [pc, #92]	; (83b28 <_vfiprintf_r+0xc7c>)
   83acc:	f7ff bbe2 	b.w	83294 <_vfiprintf_r+0x3e8>
   83ad0:	9405      	str	r4, [sp, #20]
   83ad2:	9507      	str	r5, [sp, #28]
   83ad4:	9302      	str	r3, [sp, #8]
   83ad6:	4604      	mov	r4, r0
   83ad8:	f89d 5037 	ldrb.w	r5, [sp, #55]	; 0x37
   83adc:	f7ff bb3e 	b.w	8315c <_vfiprintf_r+0x2b0>
   83ae0:	9806      	ldr	r0, [sp, #24]
   83ae2:	aa0f      	add	r2, sp, #60	; 0x3c
   83ae4:	4659      	mov	r1, fp
   83ae6:	f7ff f9a1 	bl	82e2c <__sprint_r.part.0>
   83aea:	2800      	cmp	r0, #0
   83aec:	f43f ae2e 	beq.w	8374c <_vfiprintf_r+0x8a0>
   83af0:	e62e      	b.n	83750 <_vfiprintf_r+0x8a4>
   83af2:	9907      	ldr	r1, [sp, #28]
   83af4:	f898 2001 	ldrb.w	r2, [r8, #1]
   83af8:	680c      	ldr	r4, [r1, #0]
   83afa:	3104      	adds	r1, #4
   83afc:	ea44 74e4 	orr.w	r4, r4, r4, asr #31
   83b00:	46b8      	mov	r8, r7
   83b02:	9107      	str	r1, [sp, #28]
   83b04:	f7ff ba44 	b.w	82f90 <_vfiprintf_r+0xe4>
   83b08:	f88d 6037 	strb.w	r6, [sp, #55]	; 0x37
   83b0c:	e4a7      	b.n	8345e <_vfiprintf_r+0x5b2>
   83b0e:	f88d 6037 	strb.w	r6, [sp, #55]	; 0x37
   83b12:	e521      	b.n	83558 <_vfiprintf_r+0x6ac>
   83b14:	f88d 6037 	strb.w	r6, [sp, #55]	; 0x37
   83b18:	e47c      	b.n	83414 <_vfiprintf_r+0x568>
   83b1a:	f88d 6037 	strb.w	r6, [sp, #55]	; 0x37
   83b1e:	e43f      	b.n	833a0 <_vfiprintf_r+0x4f4>
   83b20:	f88d 6037 	strb.w	r6, [sp, #55]	; 0x37
   83b24:	f7ff bbfa 	b.w	8331c <_vfiprintf_r+0x470>
   83b28:	00085b64 	.word	0x00085b64
   83b2c:	00085b54 	.word	0x00085b54
   83b30:	00085b4c 	.word	0x00085b4c

00083b34 <__sbprintf>:
   83b34:	e92d 41f0 	stmdb	sp!, {r4, r5, r6, r7, r8, lr}
   83b38:	460c      	mov	r4, r1
   83b3a:	f04f 0e00 	mov.w	lr, #0
   83b3e:	f44f 6580 	mov.w	r5, #1024	; 0x400
   83b42:	4606      	mov	r6, r0
   83b44:	4617      	mov	r7, r2
   83b46:	4698      	mov	r8, r3
   83b48:	6e62      	ldr	r2, [r4, #100]	; 0x64
   83b4a:	89e3      	ldrh	r3, [r4, #14]
   83b4c:	8989      	ldrh	r1, [r1, #12]
   83b4e:	f5ad 6d8d 	sub.w	sp, sp, #1128	; 0x468
   83b52:	f021 0102 	bic.w	r1, r1, #2
   83b56:	9219      	str	r2, [sp, #100]	; 0x64
   83b58:	f8ad 300e 	strh.w	r3, [sp, #14]
   83b5c:	69e2      	ldr	r2, [r4, #28]
   83b5e:	6a63      	ldr	r3, [r4, #36]	; 0x24
   83b60:	f8ad 100c 	strh.w	r1, [sp, #12]
   83b64:	a816      	add	r0, sp, #88	; 0x58
   83b66:	a91a      	add	r1, sp, #104	; 0x68
   83b68:	f8cd e018 	str.w	lr, [sp, #24]
   83b6c:	9207      	str	r2, [sp, #28]
   83b6e:	9309      	str	r3, [sp, #36]	; 0x24
   83b70:	9100      	str	r1, [sp, #0]
   83b72:	9104      	str	r1, [sp, #16]
   83b74:	9502      	str	r5, [sp, #8]
   83b76:	9505      	str	r5, [sp, #20]
   83b78:	f000 fd44 	bl	84604 <__retarget_lock_init_recursive>
   83b7c:	4643      	mov	r3, r8
   83b7e:	463a      	mov	r2, r7
   83b80:	4669      	mov	r1, sp
   83b82:	4630      	mov	r0, r6
   83b84:	f7ff f992 	bl	82eac <_vfiprintf_r>
   83b88:	1e05      	subs	r5, r0, #0
   83b8a:	db07      	blt.n	83b9c <__sbprintf+0x68>
   83b8c:	4630      	mov	r0, r6
   83b8e:	4669      	mov	r1, sp
   83b90:	f000 f924 	bl	83ddc <_fflush_r>
   83b94:	2800      	cmp	r0, #0
   83b96:	bf18      	it	ne
   83b98:	f04f 35ff 	movne.w	r5, #4294967295
   83b9c:	f8bd 300c 	ldrh.w	r3, [sp, #12]
   83ba0:	065b      	lsls	r3, r3, #25
   83ba2:	d503      	bpl.n	83bac <__sbprintf+0x78>
   83ba4:	89a3      	ldrh	r3, [r4, #12]
   83ba6:	f043 0340 	orr.w	r3, r3, #64	; 0x40
   83baa:	81a3      	strh	r3, [r4, #12]
   83bac:	9816      	ldr	r0, [sp, #88]	; 0x58
   83bae:	f000 fd2b 	bl	84608 <__retarget_lock_close_recursive>
   83bb2:	4628      	mov	r0, r5
   83bb4:	f50d 6d8d 	add.w	sp, sp, #1128	; 0x468
   83bb8:	e8bd 81f0 	ldmia.w	sp!, {r4, r5, r6, r7, r8, pc}

00083bbc <__swsetup_r>:
   83bbc:	b538      	push	{r3, r4, r5, lr}
   83bbe:	4b30      	ldr	r3, [pc, #192]	; (83c80 <__swsetup_r+0xc4>)
   83bc0:	4605      	mov	r5, r0
   83bc2:	6818      	ldr	r0, [r3, #0]
   83bc4:	460c      	mov	r4, r1
   83bc6:	b110      	cbz	r0, 83bce <__swsetup_r+0x12>
   83bc8:	6b83      	ldr	r3, [r0, #56]	; 0x38
   83bca:	2b00      	cmp	r3, #0
   83bcc:	d038      	beq.n	83c40 <__swsetup_r+0x84>
   83bce:	f9b4 200c 	ldrsh.w	r2, [r4, #12]
   83bd2:	b293      	uxth	r3, r2
   83bd4:	0718      	lsls	r0, r3, #28
   83bd6:	d50c      	bpl.n	83bf2 <__swsetup_r+0x36>
   83bd8:	6920      	ldr	r0, [r4, #16]
   83bda:	b1a8      	cbz	r0, 83c08 <__swsetup_r+0x4c>
   83bdc:	f013 0201 	ands.w	r2, r3, #1
   83be0:	d01e      	beq.n	83c20 <__swsetup_r+0x64>
   83be2:	2200      	movs	r2, #0
   83be4:	6963      	ldr	r3, [r4, #20]
   83be6:	60a2      	str	r2, [r4, #8]
   83be8:	425b      	negs	r3, r3
   83bea:	61a3      	str	r3, [r4, #24]
   83bec:	b1f0      	cbz	r0, 83c2c <__swsetup_r+0x70>
   83bee:	2000      	movs	r0, #0
   83bf0:	bd38      	pop	{r3, r4, r5, pc}
   83bf2:	06d9      	lsls	r1, r3, #27
   83bf4:	d53b      	bpl.n	83c6e <__swsetup_r+0xb2>
   83bf6:	0758      	lsls	r0, r3, #29
   83bf8:	d425      	bmi.n	83c46 <__swsetup_r+0x8a>
   83bfa:	6920      	ldr	r0, [r4, #16]
   83bfc:	f042 0308 	orr.w	r3, r2, #8
   83c00:	81a3      	strh	r3, [r4, #12]
   83c02:	b29b      	uxth	r3, r3
   83c04:	2800      	cmp	r0, #0
   83c06:	d1e9      	bne.n	83bdc <__swsetup_r+0x20>
   83c08:	f403 7220 	and.w	r2, r3, #640	; 0x280
   83c0c:	f5b2 7f00 	cmp.w	r2, #512	; 0x200
   83c10:	d0e4      	beq.n	83bdc <__swsetup_r+0x20>
   83c12:	4628      	mov	r0, r5
   83c14:	4621      	mov	r1, r4
   83c16:	f000 fd2b 	bl	84670 <__smakebuf_r>
   83c1a:	89a3      	ldrh	r3, [r4, #12]
   83c1c:	6920      	ldr	r0, [r4, #16]
   83c1e:	e7dd      	b.n	83bdc <__swsetup_r+0x20>
   83c20:	0799      	lsls	r1, r3, #30
   83c22:	bf58      	it	pl
   83c24:	6962      	ldrpl	r2, [r4, #20]
   83c26:	60a2      	str	r2, [r4, #8]
   83c28:	2800      	cmp	r0, #0
   83c2a:	d1e0      	bne.n	83bee <__swsetup_r+0x32>
   83c2c:	f9b4 300c 	ldrsh.w	r3, [r4, #12]
   83c30:	061a      	lsls	r2, r3, #24
   83c32:	d5dd      	bpl.n	83bf0 <__swsetup_r+0x34>
   83c34:	f043 0340 	orr.w	r3, r3, #64	; 0x40
   83c38:	81a3      	strh	r3, [r4, #12]
   83c3a:	f04f 30ff 	mov.w	r0, #4294967295
   83c3e:	bd38      	pop	{r3, r4, r5, pc}
   83c40:	f000 f924 	bl	83e8c <__sinit>
   83c44:	e7c3      	b.n	83bce <__swsetup_r+0x12>
   83c46:	6b21      	ldr	r1, [r4, #48]	; 0x30
   83c48:	b151      	cbz	r1, 83c60 <__swsetup_r+0xa4>
   83c4a:	f104 0340 	add.w	r3, r4, #64	; 0x40
   83c4e:	4299      	cmp	r1, r3
   83c50:	d004      	beq.n	83c5c <__swsetup_r+0xa0>
   83c52:	4628      	mov	r0, r5
   83c54:	f000 fa40 	bl	840d8 <_free_r>
   83c58:	f9b4 200c 	ldrsh.w	r2, [r4, #12]
   83c5c:	2300      	movs	r3, #0
   83c5e:	6323      	str	r3, [r4, #48]	; 0x30
   83c60:	2300      	movs	r3, #0
   83c62:	6920      	ldr	r0, [r4, #16]
   83c64:	f022 0224 	bic.w	r2, r2, #36	; 0x24
   83c68:	e884 0009 	stmia.w	r4, {r0, r3}
   83c6c:	e7c6      	b.n	83bfc <__swsetup_r+0x40>
   83c6e:	2309      	movs	r3, #9
   83c70:	f042 0240 	orr.w	r2, r2, #64	; 0x40
   83c74:	602b      	str	r3, [r5, #0]
   83c76:	f04f 30ff 	mov.w	r0, #4294967295
   83c7a:	81a2      	strh	r2, [r4, #12]
   83c7c:	bd38      	pop	{r3, r4, r5, pc}
   83c7e:	bf00      	nop
   83c80:	2007013c 	.word	0x2007013c

00083c84 <register_fini>:
   83c84:	4b02      	ldr	r3, [pc, #8]	; (83c90 <register_fini+0xc>)
   83c86:	b113      	cbz	r3, 83c8e <register_fini+0xa>
   83c88:	4802      	ldr	r0, [pc, #8]	; (83c94 <register_fini+0x10>)
   83c8a:	f000 b805 	b.w	83c98 <atexit>
   83c8e:	4770      	bx	lr
   83c90:	00000000 	.word	0x00000000
   83c94:	00083f05 	.word	0x00083f05

00083c98 <atexit>:
   83c98:	2300      	movs	r3, #0
   83c9a:	4601      	mov	r1, r0
   83c9c:	461a      	mov	r2, r3
   83c9e:	4618      	mov	r0, r3
   83ca0:	f001 bb56 	b.w	85350 <__register_exitproc>

00083ca4 <__sflush_r>:
   83ca4:	f9b1 300c 	ldrsh.w	r3, [r1, #12]
   83ca8:	e92d 41f0 	stmdb	sp!, {r4, r5, r6, r7, r8, lr}
   83cac:	b29a      	uxth	r2, r3
   83cae:	460d      	mov	r5, r1
   83cb0:	0711      	lsls	r1, r2, #28
   83cb2:	4680      	mov	r8, r0
   83cb4:	d43a      	bmi.n	83d2c <__sflush_r+0x88>
   83cb6:	686a      	ldr	r2, [r5, #4]
   83cb8:	f443 6300 	orr.w	r3, r3, #2048	; 0x800
   83cbc:	2a00      	cmp	r2, #0
   83cbe:	81ab      	strh	r3, [r5, #12]
   83cc0:	dd70      	ble.n	83da4 <__sflush_r+0x100>
   83cc2:	6aac      	ldr	r4, [r5, #40]	; 0x28
   83cc4:	2c00      	cmp	r4, #0
   83cc6:	d04a      	beq.n	83d5e <__sflush_r+0xba>
   83cc8:	2200      	movs	r2, #0
   83cca:	b29b      	uxth	r3, r3
   83ccc:	f8d8 6000 	ldr.w	r6, [r8]
   83cd0:	f8c8 2000 	str.w	r2, [r8]
   83cd4:	f413 5280 	ands.w	r2, r3, #4096	; 0x1000
   83cd8:	d068      	beq.n	83dac <__sflush_r+0x108>
   83cda:	6d2a      	ldr	r2, [r5, #80]	; 0x50
   83cdc:	075f      	lsls	r7, r3, #29
   83cde:	d505      	bpl.n	83cec <__sflush_r+0x48>
   83ce0:	6869      	ldr	r1, [r5, #4]
   83ce2:	6b2b      	ldr	r3, [r5, #48]	; 0x30
   83ce4:	1a52      	subs	r2, r2, r1
   83ce6:	b10b      	cbz	r3, 83cec <__sflush_r+0x48>
   83ce8:	6beb      	ldr	r3, [r5, #60]	; 0x3c
   83cea:	1ad2      	subs	r2, r2, r3
   83cec:	2300      	movs	r3, #0
   83cee:	69e9      	ldr	r1, [r5, #28]
   83cf0:	4640      	mov	r0, r8
   83cf2:	47a0      	blx	r4
   83cf4:	1c44      	adds	r4, r0, #1
   83cf6:	d03d      	beq.n	83d74 <__sflush_r+0xd0>
   83cf8:	2100      	movs	r1, #0
   83cfa:	f9b5 300c 	ldrsh.w	r3, [r5, #12]
   83cfe:	692a      	ldr	r2, [r5, #16]
   83d00:	f423 6300 	bic.w	r3, r3, #2048	; 0x800
   83d04:	81ab      	strh	r3, [r5, #12]
   83d06:	04db      	lsls	r3, r3, #19
   83d08:	6069      	str	r1, [r5, #4]
   83d0a:	602a      	str	r2, [r5, #0]
   83d0c:	d448      	bmi.n	83da0 <__sflush_r+0xfc>
   83d0e:	6b29      	ldr	r1, [r5, #48]	; 0x30
   83d10:	f8c8 6000 	str.w	r6, [r8]
   83d14:	b319      	cbz	r1, 83d5e <__sflush_r+0xba>
   83d16:	f105 0340 	add.w	r3, r5, #64	; 0x40
   83d1a:	4299      	cmp	r1, r3
   83d1c:	d002      	beq.n	83d24 <__sflush_r+0x80>
   83d1e:	4640      	mov	r0, r8
   83d20:	f000 f9da 	bl	840d8 <_free_r>
   83d24:	2000      	movs	r0, #0
   83d26:	6328      	str	r0, [r5, #48]	; 0x30
   83d28:	e8bd 81f0 	ldmia.w	sp!, {r4, r5, r6, r7, r8, pc}
   83d2c:	692e      	ldr	r6, [r5, #16]
   83d2e:	b1b6      	cbz	r6, 83d5e <__sflush_r+0xba>
   83d30:	0791      	lsls	r1, r2, #30
   83d32:	bf18      	it	ne
   83d34:	2300      	movne	r3, #0
   83d36:	682c      	ldr	r4, [r5, #0]
   83d38:	bf08      	it	eq
   83d3a:	696b      	ldreq	r3, [r5, #20]
   83d3c:	602e      	str	r6, [r5, #0]
   83d3e:	1ba4      	subs	r4, r4, r6
   83d40:	60ab      	str	r3, [r5, #8]
   83d42:	e00a      	b.n	83d5a <__sflush_r+0xb6>
   83d44:	4623      	mov	r3, r4
   83d46:	4632      	mov	r2, r6
   83d48:	6a6f      	ldr	r7, [r5, #36]	; 0x24
   83d4a:	69e9      	ldr	r1, [r5, #28]
   83d4c:	4640      	mov	r0, r8
   83d4e:	47b8      	blx	r7
   83d50:	2800      	cmp	r0, #0
   83d52:	eba4 0400 	sub.w	r4, r4, r0
   83d56:	4406      	add	r6, r0
   83d58:	dd04      	ble.n	83d64 <__sflush_r+0xc0>
   83d5a:	2c00      	cmp	r4, #0
   83d5c:	dcf2      	bgt.n	83d44 <__sflush_r+0xa0>
   83d5e:	2000      	movs	r0, #0
   83d60:	e8bd 81f0 	ldmia.w	sp!, {r4, r5, r6, r7, r8, pc}
   83d64:	89ab      	ldrh	r3, [r5, #12]
   83d66:	f04f 30ff 	mov.w	r0, #4294967295
   83d6a:	f043 0340 	orr.w	r3, r3, #64	; 0x40
   83d6e:	81ab      	strh	r3, [r5, #12]
   83d70:	e8bd 81f0 	ldmia.w	sp!, {r4, r5, r6, r7, r8, pc}
   83d74:	f8d8 4000 	ldr.w	r4, [r8]
   83d78:	2c1d      	cmp	r4, #29
   83d7a:	d8f3      	bhi.n	83d64 <__sflush_r+0xc0>
   83d7c:	4b16      	ldr	r3, [pc, #88]	; (83dd8 <__sflush_r+0x134>)
   83d7e:	40e3      	lsrs	r3, r4
   83d80:	43db      	mvns	r3, r3
   83d82:	f013 0301 	ands.w	r3, r3, #1
   83d86:	d1ed      	bne.n	83d64 <__sflush_r+0xc0>
   83d88:	f9b5 200c 	ldrsh.w	r2, [r5, #12]
   83d8c:	6929      	ldr	r1, [r5, #16]
   83d8e:	f422 6200 	bic.w	r2, r2, #2048	; 0x800
   83d92:	81aa      	strh	r2, [r5, #12]
   83d94:	04d2      	lsls	r2, r2, #19
   83d96:	606b      	str	r3, [r5, #4]
   83d98:	6029      	str	r1, [r5, #0]
   83d9a:	d5b8      	bpl.n	83d0e <__sflush_r+0x6a>
   83d9c:	2c00      	cmp	r4, #0
   83d9e:	d1b6      	bne.n	83d0e <__sflush_r+0x6a>
   83da0:	6528      	str	r0, [r5, #80]	; 0x50
   83da2:	e7b4      	b.n	83d0e <__sflush_r+0x6a>
   83da4:	6bea      	ldr	r2, [r5, #60]	; 0x3c
   83da6:	2a00      	cmp	r2, #0
   83da8:	dc8b      	bgt.n	83cc2 <__sflush_r+0x1e>
   83daa:	e7d8      	b.n	83d5e <__sflush_r+0xba>
   83dac:	2301      	movs	r3, #1
   83dae:	69e9      	ldr	r1, [r5, #28]
   83db0:	4640      	mov	r0, r8
   83db2:	47a0      	blx	r4
   83db4:	1c43      	adds	r3, r0, #1
   83db6:	4602      	mov	r2, r0
   83db8:	d002      	beq.n	83dc0 <__sflush_r+0x11c>
   83dba:	89ab      	ldrh	r3, [r5, #12]
   83dbc:	6aac      	ldr	r4, [r5, #40]	; 0x28
   83dbe:	e78d      	b.n	83cdc <__sflush_r+0x38>
   83dc0:	f8d8 3000 	ldr.w	r3, [r8]
   83dc4:	2b00      	cmp	r3, #0
   83dc6:	d0f8      	beq.n	83dba <__sflush_r+0x116>
   83dc8:	2b1d      	cmp	r3, #29
   83dca:	d001      	beq.n	83dd0 <__sflush_r+0x12c>
   83dcc:	2b16      	cmp	r3, #22
   83dce:	d1c9      	bne.n	83d64 <__sflush_r+0xc0>
   83dd0:	f8c8 6000 	str.w	r6, [r8]
   83dd4:	e7c3      	b.n	83d5e <__sflush_r+0xba>
   83dd6:	bf00      	nop
   83dd8:	20400001 	.word	0x20400001

00083ddc <_fflush_r>:
   83ddc:	b538      	push	{r3, r4, r5, lr}
   83dde:	460d      	mov	r5, r1
   83de0:	4604      	mov	r4, r0
   83de2:	b108      	cbz	r0, 83de8 <_fflush_r+0xc>
   83de4:	6b83      	ldr	r3, [r0, #56]	; 0x38
   83de6:	b1bb      	cbz	r3, 83e18 <_fflush_r+0x3c>
   83de8:	f9b5 000c 	ldrsh.w	r0, [r5, #12]
   83dec:	b188      	cbz	r0, 83e12 <_fflush_r+0x36>
   83dee:	6e6b      	ldr	r3, [r5, #100]	; 0x64
   83df0:	07db      	lsls	r3, r3, #31
   83df2:	d401      	bmi.n	83df8 <_fflush_r+0x1c>
   83df4:	0581      	lsls	r1, r0, #22
   83df6:	d517      	bpl.n	83e28 <_fflush_r+0x4c>
   83df8:	4620      	mov	r0, r4
   83dfa:	4629      	mov	r1, r5
   83dfc:	f7ff ff52 	bl	83ca4 <__sflush_r>
   83e00:	6e6b      	ldr	r3, [r5, #100]	; 0x64
   83e02:	4604      	mov	r4, r0
   83e04:	07da      	lsls	r2, r3, #31
   83e06:	d402      	bmi.n	83e0e <_fflush_r+0x32>
   83e08:	89ab      	ldrh	r3, [r5, #12]
   83e0a:	059b      	lsls	r3, r3, #22
   83e0c:	d507      	bpl.n	83e1e <_fflush_r+0x42>
   83e0e:	4620      	mov	r0, r4
   83e10:	bd38      	pop	{r3, r4, r5, pc}
   83e12:	4604      	mov	r4, r0
   83e14:	4620      	mov	r0, r4
   83e16:	bd38      	pop	{r3, r4, r5, pc}
   83e18:	f000 f838 	bl	83e8c <__sinit>
   83e1c:	e7e4      	b.n	83de8 <_fflush_r+0xc>
   83e1e:	6da8      	ldr	r0, [r5, #88]	; 0x58
   83e20:	f000 fbf6 	bl	84610 <__retarget_lock_release_recursive>
   83e24:	4620      	mov	r0, r4
   83e26:	bd38      	pop	{r3, r4, r5, pc}
   83e28:	6da8      	ldr	r0, [r5, #88]	; 0x58
   83e2a:	f000 fbef 	bl	8460c <__retarget_lock_acquire_recursive>
   83e2e:	e7e3      	b.n	83df8 <_fflush_r+0x1c>

00083e30 <_cleanup_r>:
   83e30:	4901      	ldr	r1, [pc, #4]	; (83e38 <_cleanup_r+0x8>)
   83e32:	f000 bbb1 	b.w	84598 <_fwalk_reent>
   83e36:	bf00      	nop
   83e38:	00085439 	.word	0x00085439

00083e3c <std.isra.0>:
   83e3c:	2300      	movs	r3, #0
   83e3e:	b510      	push	{r4, lr}
   83e40:	4604      	mov	r4, r0
   83e42:	8181      	strh	r1, [r0, #12]
   83e44:	81c2      	strh	r2, [r0, #14]
   83e46:	6003      	str	r3, [r0, #0]
   83e48:	6043      	str	r3, [r0, #4]
   83e4a:	6083      	str	r3, [r0, #8]
   83e4c:	6643      	str	r3, [r0, #100]	; 0x64
   83e4e:	6103      	str	r3, [r0, #16]
   83e50:	6143      	str	r3, [r0, #20]
   83e52:	6183      	str	r3, [r0, #24]
   83e54:	4619      	mov	r1, r3
   83e56:	2208      	movs	r2, #8
   83e58:	305c      	adds	r0, #92	; 0x5c
   83e5a:	f7fe fe69 	bl	82b30 <memset>
   83e5e:	4807      	ldr	r0, [pc, #28]	; (83e7c <std.isra.0+0x40>)
   83e60:	4907      	ldr	r1, [pc, #28]	; (83e80 <std.isra.0+0x44>)
   83e62:	4a08      	ldr	r2, [pc, #32]	; (83e84 <std.isra.0+0x48>)
   83e64:	4b08      	ldr	r3, [pc, #32]	; (83e88 <std.isra.0+0x4c>)
   83e66:	6220      	str	r0, [r4, #32]
   83e68:	61e4      	str	r4, [r4, #28]
   83e6a:	6261      	str	r1, [r4, #36]	; 0x24
   83e6c:	62a2      	str	r2, [r4, #40]	; 0x28
   83e6e:	62e3      	str	r3, [r4, #44]	; 0x2c
   83e70:	f104 0058 	add.w	r0, r4, #88	; 0x58
   83e74:	e8bd 4010 	ldmia.w	sp!, {r4, lr}
   83e78:	f000 bbc4 	b.w	84604 <__retarget_lock_init_recursive>
   83e7c:	00085181 	.word	0x00085181
   83e80:	000851a5 	.word	0x000851a5
   83e84:	000851e1 	.word	0x000851e1
   83e88:	00085201 	.word	0x00085201

00083e8c <__sinit>:
   83e8c:	b510      	push	{r4, lr}
   83e8e:	4604      	mov	r4, r0
   83e90:	4814      	ldr	r0, [pc, #80]	; (83ee4 <__sinit+0x58>)
   83e92:	f000 fbbb 	bl	8460c <__retarget_lock_acquire_recursive>
   83e96:	6ba2      	ldr	r2, [r4, #56]	; 0x38
   83e98:	b9fa      	cbnz	r2, 83eda <__sinit+0x4e>
   83e9a:	2003      	movs	r0, #3
   83e9c:	4912      	ldr	r1, [pc, #72]	; (83ee8 <__sinit+0x5c>)
   83e9e:	f504 733b 	add.w	r3, r4, #748	; 0x2ec
   83ea2:	f8c4 32e8 	str.w	r3, [r4, #744]	; 0x2e8
   83ea6:	f8c4 22e0 	str.w	r2, [r4, #736]	; 0x2e0
   83eaa:	f8c4 02e4 	str.w	r0, [r4, #740]	; 0x2e4
   83eae:	63e1      	str	r1, [r4, #60]	; 0x3c
   83eb0:	6860      	ldr	r0, [r4, #4]
   83eb2:	2104      	movs	r1, #4
   83eb4:	f7ff ffc2 	bl	83e3c <std.isra.0>
   83eb8:	68a0      	ldr	r0, [r4, #8]
   83eba:	2201      	movs	r2, #1
   83ebc:	2109      	movs	r1, #9
   83ebe:	f7ff ffbd 	bl	83e3c <std.isra.0>
   83ec2:	68e0      	ldr	r0, [r4, #12]
   83ec4:	2202      	movs	r2, #2
   83ec6:	2112      	movs	r1, #18
   83ec8:	f7ff ffb8 	bl	83e3c <std.isra.0>
   83ecc:	2301      	movs	r3, #1
   83ece:	4805      	ldr	r0, [pc, #20]	; (83ee4 <__sinit+0x58>)
   83ed0:	63a3      	str	r3, [r4, #56]	; 0x38
   83ed2:	e8bd 4010 	ldmia.w	sp!, {r4, lr}
   83ed6:	f000 bb9b 	b.w	84610 <__retarget_lock_release_recursive>
   83eda:	4802      	ldr	r0, [pc, #8]	; (83ee4 <__sinit+0x58>)
   83edc:	e8bd 4010 	ldmia.w	sp!, {r4, lr}
   83ee0:	f000 bb96 	b.w	84610 <__retarget_lock_release_recursive>
   83ee4:	2007ad88 	.word	0x2007ad88
   83ee8:	00083e31 	.word	0x00083e31

00083eec <__sfp_lock_acquire>:
   83eec:	4801      	ldr	r0, [pc, #4]	; (83ef4 <__sfp_lock_acquire+0x8>)
   83eee:	f000 bb8d 	b.w	8460c <__retarget_lock_acquire_recursive>
   83ef2:	bf00      	nop
   83ef4:	2007ad9c 	.word	0x2007ad9c

00083ef8 <__sfp_lock_release>:
   83ef8:	4801      	ldr	r0, [pc, #4]	; (83f00 <__sfp_lock_release+0x8>)
   83efa:	f000 bb89 	b.w	84610 <__retarget_lock_release_recursive>
   83efe:	bf00      	nop
   83f00:	2007ad9c 	.word	0x2007ad9c

00083f04 <__libc_fini_array>:
   83f04:	b538      	push	{r3, r4, r5, lr}
   83f06:	4c0a      	ldr	r4, [pc, #40]	; (83f30 <__libc_fini_array+0x2c>)
   83f08:	4d0a      	ldr	r5, [pc, #40]	; (83f34 <__libc_fini_array+0x30>)
   83f0a:	1b64      	subs	r4, r4, r5
   83f0c:	10a4      	asrs	r4, r4, #2
   83f0e:	d00a      	beq.n	83f26 <__libc_fini_array+0x22>
   83f10:	f104 4380 	add.w	r3, r4, #1073741824	; 0x40000000
   83f14:	3b01      	subs	r3, #1
   83f16:	eb05 0583 	add.w	r5, r5, r3, lsl #2
   83f1a:	3c01      	subs	r4, #1
   83f1c:	f855 3904 	ldr.w	r3, [r5], #-4
   83f20:	4798      	blx	r3
   83f22:	2c00      	cmp	r4, #0
   83f24:	d1f9      	bne.n	83f1a <__libc_fini_array+0x16>
   83f26:	e8bd 4038 	ldmia.w	sp!, {r3, r4, r5, lr}
   83f2a:	f001 beb7 	b.w	85c9c <_fini>
   83f2e:	bf00      	nop
   83f30:	00085cac 	.word	0x00085cac
   83f34:	00085ca8 	.word	0x00085ca8

00083f38 <__fputwc>:
   83f38:	e92d 43f0 	stmdb	sp!, {r4, r5, r6, r7, r8, r9, lr}
   83f3c:	b083      	sub	sp, #12
   83f3e:	4607      	mov	r7, r0
   83f40:	4688      	mov	r8, r1
   83f42:	4614      	mov	r4, r2
   83f44:	f000 fb50 	bl	845e8 <__locale_mb_cur_max>
   83f48:	2801      	cmp	r0, #1
   83f4a:	d033      	beq.n	83fb4 <__fputwc+0x7c>
   83f4c:	4642      	mov	r2, r8
   83f4e:	f104 035c 	add.w	r3, r4, #92	; 0x5c
   83f52:	a901      	add	r1, sp, #4
   83f54:	4638      	mov	r0, r7
   83f56:	f001 f9af 	bl	852b8 <_wcrtomb_r>
   83f5a:	1c42      	adds	r2, r0, #1
   83f5c:	4606      	mov	r6, r0
   83f5e:	d022      	beq.n	83fa6 <__fputwc+0x6e>
   83f60:	b390      	cbz	r0, 83fc8 <__fputwc+0x90>
   83f62:	f89d 1004 	ldrb.w	r1, [sp, #4]
   83f66:	2500      	movs	r5, #0
   83f68:	f10d 0904 	add.w	r9, sp, #4
   83f6c:	e008      	b.n	83f80 <__fputwc+0x48>
   83f6e:	6823      	ldr	r3, [r4, #0]
   83f70:	1c5a      	adds	r2, r3, #1
   83f72:	6022      	str	r2, [r4, #0]
   83f74:	7019      	strb	r1, [r3, #0]
   83f76:	3501      	adds	r5, #1
   83f78:	42b5      	cmp	r5, r6
   83f7a:	d225      	bcs.n	83fc8 <__fputwc+0x90>
   83f7c:	f815 1009 	ldrb.w	r1, [r5, r9]
   83f80:	68a3      	ldr	r3, [r4, #8]
   83f82:	3b01      	subs	r3, #1
   83f84:	2b00      	cmp	r3, #0
   83f86:	60a3      	str	r3, [r4, #8]
   83f88:	daf1      	bge.n	83f6e <__fputwc+0x36>
   83f8a:	69a2      	ldr	r2, [r4, #24]
   83f8c:	4293      	cmp	r3, r2
   83f8e:	db01      	blt.n	83f94 <__fputwc+0x5c>
   83f90:	290a      	cmp	r1, #10
   83f92:	d1ec      	bne.n	83f6e <__fputwc+0x36>
   83f94:	4622      	mov	r2, r4
   83f96:	4638      	mov	r0, r7
   83f98:	f001 f936 	bl	85208 <__swbuf_r>
   83f9c:	1c43      	adds	r3, r0, #1
   83f9e:	d1ea      	bne.n	83f76 <__fputwc+0x3e>
   83fa0:	b003      	add	sp, #12
   83fa2:	e8bd 83f0 	ldmia.w	sp!, {r4, r5, r6, r7, r8, r9, pc}
   83fa6:	89a3      	ldrh	r3, [r4, #12]
   83fa8:	f043 0340 	orr.w	r3, r3, #64	; 0x40
   83fac:	81a3      	strh	r3, [r4, #12]
   83fae:	b003      	add	sp, #12
   83fb0:	e8bd 83f0 	ldmia.w	sp!, {r4, r5, r6, r7, r8, r9, pc}
   83fb4:	f108 33ff 	add.w	r3, r8, #4294967295
   83fb8:	2bfe      	cmp	r3, #254	; 0xfe
   83fba:	d8c7      	bhi.n	83f4c <__fputwc+0x14>
   83fbc:	fa5f f188 	uxtb.w	r1, r8
   83fc0:	4606      	mov	r6, r0
   83fc2:	f88d 1004 	strb.w	r1, [sp, #4]
   83fc6:	e7ce      	b.n	83f66 <__fputwc+0x2e>
   83fc8:	4640      	mov	r0, r8
   83fca:	b003      	add	sp, #12
   83fcc:	e8bd 83f0 	ldmia.w	sp!, {r4, r5, r6, r7, r8, r9, pc}

00083fd0 <_fputwc_r>:
   83fd0:	b530      	push	{r4, r5, lr}
   83fd2:	6e53      	ldr	r3, [r2, #100]	; 0x64
   83fd4:	4614      	mov	r4, r2
   83fd6:	f013 0f01 	tst.w	r3, #1
   83fda:	f9b2 300c 	ldrsh.w	r3, [r2, #12]
   83fde:	b083      	sub	sp, #12
   83fe0:	4605      	mov	r5, r0
   83fe2:	b29a      	uxth	r2, r3
   83fe4:	d101      	bne.n	83fea <_fputwc_r+0x1a>
   83fe6:	0590      	lsls	r0, r2, #22
   83fe8:	d51c      	bpl.n	84024 <_fputwc_r+0x54>
   83fea:	0490      	lsls	r0, r2, #18
   83fec:	d406      	bmi.n	83ffc <_fputwc_r+0x2c>
   83fee:	6e62      	ldr	r2, [r4, #100]	; 0x64
   83ff0:	f443 5300 	orr.w	r3, r3, #8192	; 0x2000
   83ff4:	f442 5200 	orr.w	r2, r2, #8192	; 0x2000
   83ff8:	81a3      	strh	r3, [r4, #12]
   83ffa:	6662      	str	r2, [r4, #100]	; 0x64
   83ffc:	4628      	mov	r0, r5
   83ffe:	4622      	mov	r2, r4
   84000:	f7ff ff9a 	bl	83f38 <__fputwc>
   84004:	6e63      	ldr	r3, [r4, #100]	; 0x64
   84006:	4605      	mov	r5, r0
   84008:	07da      	lsls	r2, r3, #31
   8400a:	d402      	bmi.n	84012 <_fputwc_r+0x42>
   8400c:	89a3      	ldrh	r3, [r4, #12]
   8400e:	059b      	lsls	r3, r3, #22
   84010:	d502      	bpl.n	84018 <_fputwc_r+0x48>
   84012:	4628      	mov	r0, r5
   84014:	b003      	add	sp, #12
   84016:	bd30      	pop	{r4, r5, pc}
   84018:	6da0      	ldr	r0, [r4, #88]	; 0x58
   8401a:	f000 faf9 	bl	84610 <__retarget_lock_release_recursive>
   8401e:	4628      	mov	r0, r5
   84020:	b003      	add	sp, #12
   84022:	bd30      	pop	{r4, r5, pc}
   84024:	6da0      	ldr	r0, [r4, #88]	; 0x58
   84026:	9101      	str	r1, [sp, #4]
   84028:	f000 faf0 	bl	8460c <__retarget_lock_acquire_recursive>
   8402c:	f9b4 300c 	ldrsh.w	r3, [r4, #12]
   84030:	9901      	ldr	r1, [sp, #4]
   84032:	b29a      	uxth	r2, r3
   84034:	e7d9      	b.n	83fea <_fputwc_r+0x1a>
   84036:	bf00      	nop

00084038 <_malloc_trim_r>:
   84038:	b5f8      	push	{r3, r4, r5, r6, r7, lr}
   8403a:	460c      	mov	r4, r1
   8403c:	4f23      	ldr	r7, [pc, #140]	; (840cc <_malloc_trim_r+0x94>)
   8403e:	4606      	mov	r6, r0
   84040:	f000 feca 	bl	84dd8 <__malloc_lock>
   84044:	68bb      	ldr	r3, [r7, #8]
   84046:	f5c4 617e 	rsb	r1, r4, #4064	; 0xfe0
   8404a:	685d      	ldr	r5, [r3, #4]
   8404c:	310f      	adds	r1, #15
   8404e:	f025 0503 	bic.w	r5, r5, #3
   84052:	4429      	add	r1, r5
   84054:	f421 617f 	bic.w	r1, r1, #4080	; 0xff0
   84058:	f021 010f 	bic.w	r1, r1, #15
   8405c:	f5a1 5480 	sub.w	r4, r1, #4096	; 0x1000
   84060:	f5b4 5f80 	cmp.w	r4, #4096	; 0x1000
   84064:	db07      	blt.n	84076 <_malloc_trim_r+0x3e>
   84066:	2100      	movs	r1, #0
   84068:	4630      	mov	r0, r6
   8406a:	f001 f877 	bl	8515c <_sbrk_r>
   8406e:	68bb      	ldr	r3, [r7, #8]
   84070:	442b      	add	r3, r5
   84072:	4298      	cmp	r0, r3
   84074:	d004      	beq.n	84080 <_malloc_trim_r+0x48>
   84076:	4630      	mov	r0, r6
   84078:	f000 feb4 	bl	84de4 <__malloc_unlock>
   8407c:	2000      	movs	r0, #0
   8407e:	bdf8      	pop	{r3, r4, r5, r6, r7, pc}
   84080:	4261      	negs	r1, r4
   84082:	4630      	mov	r0, r6
   84084:	f001 f86a 	bl	8515c <_sbrk_r>
   84088:	3001      	adds	r0, #1
   8408a:	d00d      	beq.n	840a8 <_malloc_trim_r+0x70>
   8408c:	4b10      	ldr	r3, [pc, #64]	; (840d0 <_malloc_trim_r+0x98>)
   8408e:	68ba      	ldr	r2, [r7, #8]
   84090:	6819      	ldr	r1, [r3, #0]
   84092:	1b2d      	subs	r5, r5, r4
   84094:	f045 0501 	orr.w	r5, r5, #1
   84098:	4630      	mov	r0, r6
   8409a:	1b09      	subs	r1, r1, r4
   8409c:	6055      	str	r5, [r2, #4]
   8409e:	6019      	str	r1, [r3, #0]
   840a0:	f000 fea0 	bl	84de4 <__malloc_unlock>
   840a4:	2001      	movs	r0, #1
   840a6:	bdf8      	pop	{r3, r4, r5, r6, r7, pc}
   840a8:	2100      	movs	r1, #0
   840aa:	4630      	mov	r0, r6
   840ac:	f001 f856 	bl	8515c <_sbrk_r>
   840b0:	68ba      	ldr	r2, [r7, #8]
   840b2:	1a83      	subs	r3, r0, r2
   840b4:	2b0f      	cmp	r3, #15
   840b6:	ddde      	ble.n	84076 <_malloc_trim_r+0x3e>
   840b8:	4c06      	ldr	r4, [pc, #24]	; (840d4 <_malloc_trim_r+0x9c>)
   840ba:	4905      	ldr	r1, [pc, #20]	; (840d0 <_malloc_trim_r+0x98>)
   840bc:	6824      	ldr	r4, [r4, #0]
   840be:	f043 0301 	orr.w	r3, r3, #1
   840c2:	1b00      	subs	r0, r0, r4
   840c4:	6053      	str	r3, [r2, #4]
   840c6:	6008      	str	r0, [r1, #0]
   840c8:	e7d5      	b.n	84076 <_malloc_trim_r+0x3e>
   840ca:	bf00      	nop
   840cc:	200706d8 	.word	0x200706d8
   840d0:	2007acd0 	.word	0x2007acd0
   840d4:	20070ae0 	.word	0x20070ae0

000840d8 <_free_r>:
   840d8:	2900      	cmp	r1, #0
   840da:	d044      	beq.n	84166 <_free_r+0x8e>
   840dc:	e92d 41f0 	stmdb	sp!, {r4, r5, r6, r7, r8, lr}
   840e0:	460d      	mov	r5, r1
   840e2:	4680      	mov	r8, r0
   840e4:	f000 fe78 	bl	84dd8 <__malloc_lock>
   840e8:	f855 7c04 	ldr.w	r7, [r5, #-4]
   840ec:	4969      	ldr	r1, [pc, #420]	; (84294 <_free_r+0x1bc>)
   840ee:	f1a5 0408 	sub.w	r4, r5, #8
   840f2:	f027 0301 	bic.w	r3, r7, #1
   840f6:	18e2      	adds	r2, r4, r3
   840f8:	688e      	ldr	r6, [r1, #8]
   840fa:	6850      	ldr	r0, [r2, #4]
   840fc:	42b2      	cmp	r2, r6
   840fe:	f020 0003 	bic.w	r0, r0, #3
   84102:	d05e      	beq.n	841c2 <_free_r+0xea>
   84104:	07fe      	lsls	r6, r7, #31
   84106:	6050      	str	r0, [r2, #4]
   84108:	d40b      	bmi.n	84122 <_free_r+0x4a>
   8410a:	f855 7c08 	ldr.w	r7, [r5, #-8]
   8410e:	f101 0e08 	add.w	lr, r1, #8
   84112:	1be4      	subs	r4, r4, r7
   84114:	68a5      	ldr	r5, [r4, #8]
   84116:	443b      	add	r3, r7
   84118:	4575      	cmp	r5, lr
   8411a:	d06d      	beq.n	841f8 <_free_r+0x120>
   8411c:	68e7      	ldr	r7, [r4, #12]
   8411e:	60ef      	str	r7, [r5, #12]
   84120:	60bd      	str	r5, [r7, #8]
   84122:	1815      	adds	r5, r2, r0
   84124:	686d      	ldr	r5, [r5, #4]
   84126:	07ed      	lsls	r5, r5, #31
   84128:	d53e      	bpl.n	841a8 <_free_r+0xd0>
   8412a:	f043 0201 	orr.w	r2, r3, #1
   8412e:	6062      	str	r2, [r4, #4]
   84130:	50e3      	str	r3, [r4, r3]
   84132:	f5b3 7f00 	cmp.w	r3, #512	; 0x200
   84136:	d217      	bcs.n	84168 <_free_r+0x90>
   84138:	2201      	movs	r2, #1
   8413a:	08db      	lsrs	r3, r3, #3
   8413c:	1098      	asrs	r0, r3, #2
   8413e:	684d      	ldr	r5, [r1, #4]
   84140:	4413      	add	r3, r2
   84142:	f851 7033 	ldr.w	r7, [r1, r3, lsl #3]
   84146:	4082      	lsls	r2, r0
   84148:	eb01 00c3 	add.w	r0, r1, r3, lsl #3
   8414c:	432a      	orrs	r2, r5
   8414e:	3808      	subs	r0, #8
   84150:	60e0      	str	r0, [r4, #12]
   84152:	60a7      	str	r7, [r4, #8]
   84154:	604a      	str	r2, [r1, #4]
   84156:	f841 4033 	str.w	r4, [r1, r3, lsl #3]
   8415a:	60fc      	str	r4, [r7, #12]
   8415c:	4640      	mov	r0, r8
   8415e:	e8bd 41f0 	ldmia.w	sp!, {r4, r5, r6, r7, r8, lr}
   84162:	f000 be3f 	b.w	84de4 <__malloc_unlock>
   84166:	4770      	bx	lr
   84168:	0a5a      	lsrs	r2, r3, #9
   8416a:	2a04      	cmp	r2, #4
   8416c:	d852      	bhi.n	84214 <_free_r+0x13c>
   8416e:	099a      	lsrs	r2, r3, #6
   84170:	f102 0739 	add.w	r7, r2, #57	; 0x39
   84174:	00ff      	lsls	r7, r7, #3
   84176:	f102 0538 	add.w	r5, r2, #56	; 0x38
   8417a:	19c8      	adds	r0, r1, r7
   8417c:	59ca      	ldr	r2, [r1, r7]
   8417e:	3808      	subs	r0, #8
   84180:	4290      	cmp	r0, r2
   84182:	d04f      	beq.n	84224 <_free_r+0x14c>
   84184:	6851      	ldr	r1, [r2, #4]
   84186:	f021 0103 	bic.w	r1, r1, #3
   8418a:	428b      	cmp	r3, r1
   8418c:	d232      	bcs.n	841f4 <_free_r+0x11c>
   8418e:	6892      	ldr	r2, [r2, #8]
   84190:	4290      	cmp	r0, r2
   84192:	d1f7      	bne.n	84184 <_free_r+0xac>
   84194:	68c3      	ldr	r3, [r0, #12]
   84196:	60a0      	str	r0, [r4, #8]
   84198:	60e3      	str	r3, [r4, #12]
   8419a:	609c      	str	r4, [r3, #8]
   8419c:	60c4      	str	r4, [r0, #12]
   8419e:	4640      	mov	r0, r8
   841a0:	e8bd 41f0 	ldmia.w	sp!, {r4, r5, r6, r7, r8, lr}
   841a4:	f000 be1e 	b.w	84de4 <__malloc_unlock>
   841a8:	6895      	ldr	r5, [r2, #8]
   841aa:	4f3b      	ldr	r7, [pc, #236]	; (84298 <_free_r+0x1c0>)
   841ac:	4403      	add	r3, r0
   841ae:	42bd      	cmp	r5, r7
   841b0:	d040      	beq.n	84234 <_free_r+0x15c>
   841b2:	68d0      	ldr	r0, [r2, #12]
   841b4:	f043 0201 	orr.w	r2, r3, #1
   841b8:	60e8      	str	r0, [r5, #12]
   841ba:	6085      	str	r5, [r0, #8]
   841bc:	6062      	str	r2, [r4, #4]
   841be:	50e3      	str	r3, [r4, r3]
   841c0:	e7b7      	b.n	84132 <_free_r+0x5a>
   841c2:	07ff      	lsls	r7, r7, #31
   841c4:	4403      	add	r3, r0
   841c6:	d407      	bmi.n	841d8 <_free_r+0x100>
   841c8:	f855 5c08 	ldr.w	r5, [r5, #-8]
   841cc:	1b64      	subs	r4, r4, r5
   841ce:	68e2      	ldr	r2, [r4, #12]
   841d0:	68a0      	ldr	r0, [r4, #8]
   841d2:	442b      	add	r3, r5
   841d4:	60c2      	str	r2, [r0, #12]
   841d6:	6090      	str	r0, [r2, #8]
   841d8:	4a30      	ldr	r2, [pc, #192]	; (8429c <_free_r+0x1c4>)
   841da:	f043 0001 	orr.w	r0, r3, #1
   841de:	6812      	ldr	r2, [r2, #0]
   841e0:	6060      	str	r0, [r4, #4]
   841e2:	4293      	cmp	r3, r2
   841e4:	608c      	str	r4, [r1, #8]
   841e6:	d3b9      	bcc.n	8415c <_free_r+0x84>
   841e8:	4b2d      	ldr	r3, [pc, #180]	; (842a0 <_free_r+0x1c8>)
   841ea:	4640      	mov	r0, r8
   841ec:	6819      	ldr	r1, [r3, #0]
   841ee:	f7ff ff23 	bl	84038 <_malloc_trim_r>
   841f2:	e7b3      	b.n	8415c <_free_r+0x84>
   841f4:	4610      	mov	r0, r2
   841f6:	e7cd      	b.n	84194 <_free_r+0xbc>
   841f8:	1811      	adds	r1, r2, r0
   841fa:	6849      	ldr	r1, [r1, #4]
   841fc:	07c9      	lsls	r1, r1, #31
   841fe:	d444      	bmi.n	8428a <_free_r+0x1b2>
   84200:	6891      	ldr	r1, [r2, #8]
   84202:	4403      	add	r3, r0
   84204:	68d2      	ldr	r2, [r2, #12]
   84206:	f043 0001 	orr.w	r0, r3, #1
   8420a:	60ca      	str	r2, [r1, #12]
   8420c:	6091      	str	r1, [r2, #8]
   8420e:	6060      	str	r0, [r4, #4]
   84210:	50e3      	str	r3, [r4, r3]
   84212:	e7a3      	b.n	8415c <_free_r+0x84>
   84214:	2a14      	cmp	r2, #20
   84216:	d816      	bhi.n	84246 <_free_r+0x16e>
   84218:	f102 075c 	add.w	r7, r2, #92	; 0x5c
   8421c:	00ff      	lsls	r7, r7, #3
   8421e:	f102 055b 	add.w	r5, r2, #91	; 0x5b
   84222:	e7aa      	b.n	8417a <_free_r+0xa2>
   84224:	2301      	movs	r3, #1
   84226:	10aa      	asrs	r2, r5, #2
   84228:	684d      	ldr	r5, [r1, #4]
   8422a:	4093      	lsls	r3, r2
   8422c:	432b      	orrs	r3, r5
   8422e:	604b      	str	r3, [r1, #4]
   84230:	4603      	mov	r3, r0
   84232:	e7b0      	b.n	84196 <_free_r+0xbe>
   84234:	f043 0201 	orr.w	r2, r3, #1
   84238:	614c      	str	r4, [r1, #20]
   8423a:	610c      	str	r4, [r1, #16]
   8423c:	60e5      	str	r5, [r4, #12]
   8423e:	60a5      	str	r5, [r4, #8]
   84240:	6062      	str	r2, [r4, #4]
   84242:	50e3      	str	r3, [r4, r3]
   84244:	e78a      	b.n	8415c <_free_r+0x84>
   84246:	2a54      	cmp	r2, #84	; 0x54
   84248:	d806      	bhi.n	84258 <_free_r+0x180>
   8424a:	0b1a      	lsrs	r2, r3, #12
   8424c:	f102 076f 	add.w	r7, r2, #111	; 0x6f
   84250:	00ff      	lsls	r7, r7, #3
   84252:	f102 056e 	add.w	r5, r2, #110	; 0x6e
   84256:	e790      	b.n	8417a <_free_r+0xa2>
   84258:	f5b2 7faa 	cmp.w	r2, #340	; 0x154
   8425c:	d806      	bhi.n	8426c <_free_r+0x194>
   8425e:	0bda      	lsrs	r2, r3, #15
   84260:	f102 0778 	add.w	r7, r2, #120	; 0x78
   84264:	00ff      	lsls	r7, r7, #3
   84266:	f102 0577 	add.w	r5, r2, #119	; 0x77
   8426a:	e786      	b.n	8417a <_free_r+0xa2>
   8426c:	f240 5054 	movw	r0, #1364	; 0x554
   84270:	4282      	cmp	r2, r0
   84272:	d806      	bhi.n	84282 <_free_r+0x1aa>
   84274:	0c9a      	lsrs	r2, r3, #18
   84276:	f102 077d 	add.w	r7, r2, #125	; 0x7d
   8427a:	00ff      	lsls	r7, r7, #3
   8427c:	f102 057c 	add.w	r5, r2, #124	; 0x7c
   84280:	e77b      	b.n	8417a <_free_r+0xa2>
   84282:	f44f 777e 	mov.w	r7, #1016	; 0x3f8
   84286:	257e      	movs	r5, #126	; 0x7e
   84288:	e777      	b.n	8417a <_free_r+0xa2>
   8428a:	f043 0101 	orr.w	r1, r3, #1
   8428e:	6061      	str	r1, [r4, #4]
   84290:	6013      	str	r3, [r2, #0]
   84292:	e763      	b.n	8415c <_free_r+0x84>
   84294:	200706d8 	.word	0x200706d8
   84298:	200706e0 	.word	0x200706e0
   8429c:	20070ae4 	.word	0x20070ae4
   842a0:	2007ad00 	.word	0x2007ad00

000842a4 <__sfvwrite_r>:
   842a4:	6893      	ldr	r3, [r2, #8]
   842a6:	2b00      	cmp	r3, #0
   842a8:	d071      	beq.n	8438e <__sfvwrite_r+0xea>
   842aa:	e92d 4ff0 	stmdb	sp!, {r4, r5, r6, r7, r8, r9, sl, fp, lr}
   842ae:	898b      	ldrh	r3, [r1, #12]
   842b0:	b083      	sub	sp, #12
   842b2:	460c      	mov	r4, r1
   842b4:	0719      	lsls	r1, r3, #28
   842b6:	9000      	str	r0, [sp, #0]
   842b8:	4616      	mov	r6, r2
   842ba:	d525      	bpl.n	84308 <__sfvwrite_r+0x64>
   842bc:	6922      	ldr	r2, [r4, #16]
   842be:	b31a      	cbz	r2, 84308 <__sfvwrite_r+0x64>
   842c0:	f013 0002 	ands.w	r0, r3, #2
   842c4:	6835      	ldr	r5, [r6, #0]
   842c6:	d02b      	beq.n	84320 <__sfvwrite_r+0x7c>
   842c8:	f04f 0900 	mov.w	r9, #0
   842cc:	46b0      	mov	r8, r6
   842ce:	464f      	mov	r7, r9
   842d0:	f8df a2c0 	ldr.w	sl, [pc, #704]	; 84594 <__sfvwrite_r+0x2f0>
   842d4:	2f00      	cmp	r7, #0
   842d6:	d055      	beq.n	84384 <__sfvwrite_r+0xe0>
   842d8:	4557      	cmp	r7, sl
   842da:	463b      	mov	r3, r7
   842dc:	464a      	mov	r2, r9
   842de:	bf28      	it	cs
   842e0:	4653      	movcs	r3, sl
   842e2:	69e1      	ldr	r1, [r4, #28]
   842e4:	9800      	ldr	r0, [sp, #0]
   842e6:	6a66      	ldr	r6, [r4, #36]	; 0x24
   842e8:	47b0      	blx	r6
   842ea:	2800      	cmp	r0, #0
   842ec:	dd56      	ble.n	8439c <__sfvwrite_r+0xf8>
   842ee:	f8d8 3008 	ldr.w	r3, [r8, #8]
   842f2:	4481      	add	r9, r0
   842f4:	1a1b      	subs	r3, r3, r0
   842f6:	1a3f      	subs	r7, r7, r0
   842f8:	f8c8 3008 	str.w	r3, [r8, #8]
   842fc:	2b00      	cmp	r3, #0
   842fe:	d1e9      	bne.n	842d4 <__sfvwrite_r+0x30>
   84300:	2000      	movs	r0, #0
   84302:	b003      	add	sp, #12
   84304:	e8bd 8ff0 	ldmia.w	sp!, {r4, r5, r6, r7, r8, r9, sl, fp, pc}
   84308:	4621      	mov	r1, r4
   8430a:	9800      	ldr	r0, [sp, #0]
   8430c:	f7ff fc56 	bl	83bbc <__swsetup_r>
   84310:	2800      	cmp	r0, #0
   84312:	f040 8135 	bne.w	84580 <__sfvwrite_r+0x2dc>
   84316:	89a3      	ldrh	r3, [r4, #12]
   84318:	6835      	ldr	r5, [r6, #0]
   8431a:	f013 0002 	ands.w	r0, r3, #2
   8431e:	d1d3      	bne.n	842c8 <__sfvwrite_r+0x24>
   84320:	f013 0901 	ands.w	r9, r3, #1
   84324:	d144      	bne.n	843b0 <__sfvwrite_r+0x10c>
   84326:	464f      	mov	r7, r9
   84328:	9601      	str	r6, [sp, #4]
   8432a:	b337      	cbz	r7, 8437a <__sfvwrite_r+0xd6>
   8432c:	059a      	lsls	r2, r3, #22
   8432e:	f8d4 8008 	ldr.w	r8, [r4, #8]
   84332:	f140 8085 	bpl.w	84440 <__sfvwrite_r+0x19c>
   84336:	4547      	cmp	r7, r8
   84338:	46c3      	mov	fp, r8
   8433a:	f0c0 80ad 	bcc.w	84498 <__sfvwrite_r+0x1f4>
   8433e:	f413 6f90 	tst.w	r3, #1152	; 0x480
   84342:	f040 80ae 	bne.w	844a2 <__sfvwrite_r+0x1fe>
   84346:	46ba      	mov	sl, r7
   84348:	6820      	ldr	r0, [r4, #0]
   8434a:	465a      	mov	r2, fp
   8434c:	4649      	mov	r1, r9
   8434e:	f000 fcdf 	bl	84d10 <memmove>
   84352:	68a2      	ldr	r2, [r4, #8]
   84354:	6823      	ldr	r3, [r4, #0]
   84356:	eba2 0208 	sub.w	r2, r2, r8
   8435a:	445b      	add	r3, fp
   8435c:	60a2      	str	r2, [r4, #8]
   8435e:	6023      	str	r3, [r4, #0]
   84360:	9a01      	ldr	r2, [sp, #4]
   84362:	44d1      	add	r9, sl
   84364:	6893      	ldr	r3, [r2, #8]
   84366:	eba7 070a 	sub.w	r7, r7, sl
   8436a:	eba3 030a 	sub.w	r3, r3, sl
   8436e:	6093      	str	r3, [r2, #8]
   84370:	2b00      	cmp	r3, #0
   84372:	d0c5      	beq.n	84300 <__sfvwrite_r+0x5c>
   84374:	89a3      	ldrh	r3, [r4, #12]
   84376:	2f00      	cmp	r7, #0
   84378:	d1d8      	bne.n	8432c <__sfvwrite_r+0x88>
   8437a:	f8d5 9000 	ldr.w	r9, [r5]
   8437e:	686f      	ldr	r7, [r5, #4]
   84380:	3508      	adds	r5, #8
   84382:	e7d2      	b.n	8432a <__sfvwrite_r+0x86>
   84384:	f8d5 9000 	ldr.w	r9, [r5]
   84388:	686f      	ldr	r7, [r5, #4]
   8438a:	3508      	adds	r5, #8
   8438c:	e7a2      	b.n	842d4 <__sfvwrite_r+0x30>
   8438e:	2000      	movs	r0, #0
   84390:	4770      	bx	lr
   84392:	4621      	mov	r1, r4
   84394:	9800      	ldr	r0, [sp, #0]
   84396:	f7ff fd21 	bl	83ddc <_fflush_r>
   8439a:	b378      	cbz	r0, 843fc <__sfvwrite_r+0x158>
   8439c:	f9b4 300c 	ldrsh.w	r3, [r4, #12]
   843a0:	f04f 30ff 	mov.w	r0, #4294967295
   843a4:	f043 0340 	orr.w	r3, r3, #64	; 0x40
   843a8:	81a3      	strh	r3, [r4, #12]
   843aa:	b003      	add	sp, #12
   843ac:	e8bd 8ff0 	ldmia.w	sp!, {r4, r5, r6, r7, r8, r9, sl, fp, pc}
   843b0:	4681      	mov	r9, r0
   843b2:	4633      	mov	r3, r6
   843b4:	464e      	mov	r6, r9
   843b6:	46a8      	mov	r8, r5
   843b8:	469a      	mov	sl, r3
   843ba:	464d      	mov	r5, r9
   843bc:	b356      	cbz	r6, 84414 <__sfvwrite_r+0x170>
   843be:	2800      	cmp	r0, #0
   843c0:	d032      	beq.n	84428 <__sfvwrite_r+0x184>
   843c2:	45b1      	cmp	r9, r6
   843c4:	46cb      	mov	fp, r9
   843c6:	bf28      	it	cs
   843c8:	46b3      	movcs	fp, r6
   843ca:	6820      	ldr	r0, [r4, #0]
   843cc:	6923      	ldr	r3, [r4, #16]
   843ce:	465f      	mov	r7, fp
   843d0:	4298      	cmp	r0, r3
   843d2:	6962      	ldr	r2, [r4, #20]
   843d4:	d904      	bls.n	843e0 <__sfvwrite_r+0x13c>
   843d6:	68a3      	ldr	r3, [r4, #8]
   843d8:	4413      	add	r3, r2
   843da:	459b      	cmp	fp, r3
   843dc:	f300 80a8 	bgt.w	84530 <__sfvwrite_r+0x28c>
   843e0:	4593      	cmp	fp, r2
   843e2:	db4d      	blt.n	84480 <__sfvwrite_r+0x1dc>
   843e4:	4613      	mov	r3, r2
   843e6:	6a67      	ldr	r7, [r4, #36]	; 0x24
   843e8:	462a      	mov	r2, r5
   843ea:	69e1      	ldr	r1, [r4, #28]
   843ec:	9800      	ldr	r0, [sp, #0]
   843ee:	47b8      	blx	r7
   843f0:	1e07      	subs	r7, r0, #0
   843f2:	ddd3      	ble.n	8439c <__sfvwrite_r+0xf8>
   843f4:	ebb9 0907 	subs.w	r9, r9, r7
   843f8:	d0cb      	beq.n	84392 <__sfvwrite_r+0xee>
   843fa:	2001      	movs	r0, #1
   843fc:	f8da 3008 	ldr.w	r3, [sl, #8]
   84400:	443d      	add	r5, r7
   84402:	1bdb      	subs	r3, r3, r7
   84404:	1bf6      	subs	r6, r6, r7
   84406:	f8ca 3008 	str.w	r3, [sl, #8]
   8440a:	2b00      	cmp	r3, #0
   8440c:	f43f af78 	beq.w	84300 <__sfvwrite_r+0x5c>
   84410:	2e00      	cmp	r6, #0
   84412:	d1d4      	bne.n	843be <__sfvwrite_r+0x11a>
   84414:	f108 0308 	add.w	r3, r8, #8
   84418:	f853 6c04 	ldr.w	r6, [r3, #-4]
   8441c:	4698      	mov	r8, r3
   8441e:	f853 5c08 	ldr.w	r5, [r3, #-8]
   84422:	3308      	adds	r3, #8
   84424:	2e00      	cmp	r6, #0
   84426:	d0f7      	beq.n	84418 <__sfvwrite_r+0x174>
   84428:	4632      	mov	r2, r6
   8442a:	210a      	movs	r1, #10
   8442c:	4628      	mov	r0, r5
   8442e:	f000 fc29 	bl	84c84 <memchr>
   84432:	2800      	cmp	r0, #0
   84434:	f000 80a1 	beq.w	8457a <__sfvwrite_r+0x2d6>
   84438:	3001      	adds	r0, #1
   8443a:	eba0 0905 	sub.w	r9, r0, r5
   8443e:	e7c0      	b.n	843c2 <__sfvwrite_r+0x11e>
   84440:	6820      	ldr	r0, [r4, #0]
   84442:	6923      	ldr	r3, [r4, #16]
   84444:	4298      	cmp	r0, r3
   84446:	d802      	bhi.n	8444e <__sfvwrite_r+0x1aa>
   84448:	6963      	ldr	r3, [r4, #20]
   8444a:	429f      	cmp	r7, r3
   8444c:	d25d      	bcs.n	8450a <__sfvwrite_r+0x266>
   8444e:	45b8      	cmp	r8, r7
   84450:	bf28      	it	cs
   84452:	46b8      	movcs	r8, r7
   84454:	4649      	mov	r1, r9
   84456:	4642      	mov	r2, r8
   84458:	f000 fc5a 	bl	84d10 <memmove>
   8445c:	68a3      	ldr	r3, [r4, #8]
   8445e:	6822      	ldr	r2, [r4, #0]
   84460:	eba3 0308 	sub.w	r3, r3, r8
   84464:	4442      	add	r2, r8
   84466:	60a3      	str	r3, [r4, #8]
   84468:	6022      	str	r2, [r4, #0]
   8446a:	b10b      	cbz	r3, 84470 <__sfvwrite_r+0x1cc>
   8446c:	46c2      	mov	sl, r8
   8446e:	e777      	b.n	84360 <__sfvwrite_r+0xbc>
   84470:	4621      	mov	r1, r4
   84472:	9800      	ldr	r0, [sp, #0]
   84474:	f7ff fcb2 	bl	83ddc <_fflush_r>
   84478:	2800      	cmp	r0, #0
   8447a:	d18f      	bne.n	8439c <__sfvwrite_r+0xf8>
   8447c:	46c2      	mov	sl, r8
   8447e:	e76f      	b.n	84360 <__sfvwrite_r+0xbc>
   84480:	465a      	mov	r2, fp
   84482:	4629      	mov	r1, r5
   84484:	f000 fc44 	bl	84d10 <memmove>
   84488:	68a2      	ldr	r2, [r4, #8]
   8448a:	6823      	ldr	r3, [r4, #0]
   8448c:	eba2 020b 	sub.w	r2, r2, fp
   84490:	445b      	add	r3, fp
   84492:	60a2      	str	r2, [r4, #8]
   84494:	6023      	str	r3, [r4, #0]
   84496:	e7ad      	b.n	843f4 <__sfvwrite_r+0x150>
   84498:	46b8      	mov	r8, r7
   8449a:	46ba      	mov	sl, r7
   8449c:	46bb      	mov	fp, r7
   8449e:	6820      	ldr	r0, [r4, #0]
   844a0:	e753      	b.n	8434a <__sfvwrite_r+0xa6>
   844a2:	6962      	ldr	r2, [r4, #20]
   844a4:	6820      	ldr	r0, [r4, #0]
   844a6:	6921      	ldr	r1, [r4, #16]
   844a8:	eb02 0842 	add.w	r8, r2, r2, lsl #1
   844ac:	eba0 0a01 	sub.w	sl, r0, r1
   844b0:	eb08 78d8 	add.w	r8, r8, r8, lsr #31
   844b4:	f10a 0001 	add.w	r0, sl, #1
   844b8:	ea4f 0868 	mov.w	r8, r8, asr #1
   844bc:	4438      	add	r0, r7
   844be:	4540      	cmp	r0, r8
   844c0:	4642      	mov	r2, r8
   844c2:	bf84      	itt	hi
   844c4:	4680      	movhi	r8, r0
   844c6:	4642      	movhi	r2, r8
   844c8:	055b      	lsls	r3, r3, #21
   844ca:	d544      	bpl.n	84556 <__sfvwrite_r+0x2b2>
   844cc:	4611      	mov	r1, r2
   844ce:	9800      	ldr	r0, [sp, #0]
   844d0:	f000 f920 	bl	84714 <_malloc_r>
   844d4:	4683      	mov	fp, r0
   844d6:	2800      	cmp	r0, #0
   844d8:	d055      	beq.n	84586 <__sfvwrite_r+0x2e2>
   844da:	4652      	mov	r2, sl
   844dc:	6921      	ldr	r1, [r4, #16]
   844de:	f7fe fab1 	bl	82a44 <memcpy>
   844e2:	89a3      	ldrh	r3, [r4, #12]
   844e4:	f423 6390 	bic.w	r3, r3, #1152	; 0x480
   844e8:	f043 0380 	orr.w	r3, r3, #128	; 0x80
   844ec:	81a3      	strh	r3, [r4, #12]
   844ee:	eb0b 000a 	add.w	r0, fp, sl
   844f2:	eba8 030a 	sub.w	r3, r8, sl
   844f6:	f8c4 b010 	str.w	fp, [r4, #16]
   844fa:	f8c4 8014 	str.w	r8, [r4, #20]
   844fe:	6020      	str	r0, [r4, #0]
   84500:	60a3      	str	r3, [r4, #8]
   84502:	46b8      	mov	r8, r7
   84504:	46ba      	mov	sl, r7
   84506:	46bb      	mov	fp, r7
   84508:	e71f      	b.n	8434a <__sfvwrite_r+0xa6>
   8450a:	f06f 4200 	mvn.w	r2, #2147483648	; 0x80000000
   8450e:	42ba      	cmp	r2, r7
   84510:	bf28      	it	cs
   84512:	463a      	movcs	r2, r7
   84514:	fb92 f2f3 	sdiv	r2, r2, r3
   84518:	69e1      	ldr	r1, [r4, #28]
   8451a:	fb03 f302 	mul.w	r3, r3, r2
   8451e:	9800      	ldr	r0, [sp, #0]
   84520:	464a      	mov	r2, r9
   84522:	6a66      	ldr	r6, [r4, #36]	; 0x24
   84524:	47b0      	blx	r6
   84526:	f1b0 0a00 	subs.w	sl, r0, #0
   8452a:	f73f af19 	bgt.w	84360 <__sfvwrite_r+0xbc>
   8452e:	e735      	b.n	8439c <__sfvwrite_r+0xf8>
   84530:	461a      	mov	r2, r3
   84532:	4629      	mov	r1, r5
   84534:	9301      	str	r3, [sp, #4]
   84536:	f000 fbeb 	bl	84d10 <memmove>
   8453a:	6822      	ldr	r2, [r4, #0]
   8453c:	9b01      	ldr	r3, [sp, #4]
   8453e:	4621      	mov	r1, r4
   84540:	441a      	add	r2, r3
   84542:	6022      	str	r2, [r4, #0]
   84544:	9800      	ldr	r0, [sp, #0]
   84546:	f7ff fc49 	bl	83ddc <_fflush_r>
   8454a:	9b01      	ldr	r3, [sp, #4]
   8454c:	2800      	cmp	r0, #0
   8454e:	f47f af25 	bne.w	8439c <__sfvwrite_r+0xf8>
   84552:	461f      	mov	r7, r3
   84554:	e74e      	b.n	843f4 <__sfvwrite_r+0x150>
   84556:	9800      	ldr	r0, [sp, #0]
   84558:	f000 fc4a 	bl	84df0 <_realloc_r>
   8455c:	4683      	mov	fp, r0
   8455e:	2800      	cmp	r0, #0
   84560:	d1c5      	bne.n	844ee <__sfvwrite_r+0x24a>
   84562:	9d00      	ldr	r5, [sp, #0]
   84564:	6921      	ldr	r1, [r4, #16]
   84566:	4628      	mov	r0, r5
   84568:	f7ff fdb6 	bl	840d8 <_free_r>
   8456c:	220c      	movs	r2, #12
   8456e:	f9b4 300c 	ldrsh.w	r3, [r4, #12]
   84572:	602a      	str	r2, [r5, #0]
   84574:	f023 0380 	bic.w	r3, r3, #128	; 0x80
   84578:	e712      	b.n	843a0 <__sfvwrite_r+0xfc>
   8457a:	f106 0901 	add.w	r9, r6, #1
   8457e:	e720      	b.n	843c2 <__sfvwrite_r+0x11e>
   84580:	f04f 30ff 	mov.w	r0, #4294967295
   84584:	e6bd      	b.n	84302 <__sfvwrite_r+0x5e>
   84586:	220c      	movs	r2, #12
   84588:	9900      	ldr	r1, [sp, #0]
   8458a:	f9b4 300c 	ldrsh.w	r3, [r4, #12]
   8458e:	600a      	str	r2, [r1, #0]
   84590:	e706      	b.n	843a0 <__sfvwrite_r+0xfc>
   84592:	bf00      	nop
   84594:	7ffffc00 	.word	0x7ffffc00

00084598 <_fwalk_reent>:
   84598:	e92d 43f8 	stmdb	sp!, {r3, r4, r5, r6, r7, r8, r9, lr}
   8459c:	f510 7638 	adds.w	r6, r0, #736	; 0x2e0
   845a0:	d01e      	beq.n	845e0 <_fwalk_reent+0x48>
   845a2:	4688      	mov	r8, r1
   845a4:	4607      	mov	r7, r0
   845a6:	f04f 0900 	mov.w	r9, #0
   845aa:	6875      	ldr	r5, [r6, #4]
   845ac:	68b4      	ldr	r4, [r6, #8]
   845ae:	3d01      	subs	r5, #1
   845b0:	d410      	bmi.n	845d4 <_fwalk_reent+0x3c>
   845b2:	89a3      	ldrh	r3, [r4, #12]
   845b4:	3d01      	subs	r5, #1
   845b6:	2b01      	cmp	r3, #1
   845b8:	d908      	bls.n	845cc <_fwalk_reent+0x34>
   845ba:	f9b4 300e 	ldrsh.w	r3, [r4, #14]
   845be:	3301      	adds	r3, #1
   845c0:	d004      	beq.n	845cc <_fwalk_reent+0x34>
   845c2:	4621      	mov	r1, r4
   845c4:	4638      	mov	r0, r7
   845c6:	47c0      	blx	r8
   845c8:	ea49 0900 	orr.w	r9, r9, r0
   845cc:	1c6b      	adds	r3, r5, #1
   845ce:	f104 0468 	add.w	r4, r4, #104	; 0x68
   845d2:	d1ee      	bne.n	845b2 <_fwalk_reent+0x1a>
   845d4:	6836      	ldr	r6, [r6, #0]
   845d6:	2e00      	cmp	r6, #0
   845d8:	d1e7      	bne.n	845aa <_fwalk_reent+0x12>
   845da:	4648      	mov	r0, r9
   845dc:	e8bd 83f8 	ldmia.w	sp!, {r3, r4, r5, r6, r7, r8, r9, pc}
   845e0:	46b1      	mov	r9, r6
   845e2:	4648      	mov	r0, r9
   845e4:	e8bd 83f8 	ldmia.w	sp!, {r3, r4, r5, r6, r7, r8, r9, pc}

000845e8 <__locale_mb_cur_max>:
   845e8:	4b04      	ldr	r3, [pc, #16]	; (845fc <__locale_mb_cur_max+0x14>)
   845ea:	4a05      	ldr	r2, [pc, #20]	; (84600 <__locale_mb_cur_max+0x18>)
   845ec:	681b      	ldr	r3, [r3, #0]
   845ee:	6b5b      	ldr	r3, [r3, #52]	; 0x34
   845f0:	2b00      	cmp	r3, #0
   845f2:	bf08      	it	eq
   845f4:	4613      	moveq	r3, r2
   845f6:	f893 0128 	ldrb.w	r0, [r3, #296]	; 0x128
   845fa:	4770      	bx	lr
   845fc:	2007013c 	.word	0x2007013c
   84600:	2007056c 	.word	0x2007056c

00084604 <__retarget_lock_init_recursive>:
   84604:	4770      	bx	lr
   84606:	bf00      	nop

00084608 <__retarget_lock_close_recursive>:
   84608:	4770      	bx	lr
   8460a:	bf00      	nop

0008460c <__retarget_lock_acquire_recursive>:
   8460c:	4770      	bx	lr
   8460e:	bf00      	nop

00084610 <__retarget_lock_release_recursive>:
   84610:	4770      	bx	lr
   84612:	bf00      	nop

00084614 <__swhatbuf_r>:
   84614:	b570      	push	{r4, r5, r6, lr}
   84616:	460c      	mov	r4, r1
   84618:	f9b1 100e 	ldrsh.w	r1, [r1, #14]
   8461c:	b090      	sub	sp, #64	; 0x40
   8461e:	2900      	cmp	r1, #0
   84620:	4615      	mov	r5, r2
   84622:	461e      	mov	r6, r3
   84624:	db14      	blt.n	84650 <__swhatbuf_r+0x3c>
   84626:	aa01      	add	r2, sp, #4
   84628:	f000 ff68 	bl	854fc <_fstat_r>
   8462c:	2800      	cmp	r0, #0
   8462e:	db0f      	blt.n	84650 <__swhatbuf_r+0x3c>
   84630:	9a02      	ldr	r2, [sp, #8]
   84632:	f44f 6380 	mov.w	r3, #1024	; 0x400
   84636:	f402 4270 	and.w	r2, r2, #61440	; 0xf000
   8463a:	f5a2 5200 	sub.w	r2, r2, #8192	; 0x2000
   8463e:	fab2 f282 	clz	r2, r2
   84642:	f44f 6000 	mov.w	r0, #2048	; 0x800
   84646:	0952      	lsrs	r2, r2, #5
   84648:	6032      	str	r2, [r6, #0]
   8464a:	602b      	str	r3, [r5, #0]
   8464c:	b010      	add	sp, #64	; 0x40
   8464e:	bd70      	pop	{r4, r5, r6, pc}
   84650:	2300      	movs	r3, #0
   84652:	89a2      	ldrh	r2, [r4, #12]
   84654:	6033      	str	r3, [r6, #0]
   84656:	f012 0080 	ands.w	r0, r2, #128	; 0x80
   8465a:	d004      	beq.n	84666 <__swhatbuf_r+0x52>
   8465c:	2240      	movs	r2, #64	; 0x40
   8465e:	4618      	mov	r0, r3
   84660:	602a      	str	r2, [r5, #0]
   84662:	b010      	add	sp, #64	; 0x40
   84664:	bd70      	pop	{r4, r5, r6, pc}
   84666:	f44f 6380 	mov.w	r3, #1024	; 0x400
   8466a:	602b      	str	r3, [r5, #0]
   8466c:	b010      	add	sp, #64	; 0x40
   8466e:	bd70      	pop	{r4, r5, r6, pc}

00084670 <__smakebuf_r>:
   84670:	898a      	ldrh	r2, [r1, #12]
   84672:	460b      	mov	r3, r1
   84674:	0792      	lsls	r2, r2, #30
   84676:	d506      	bpl.n	84686 <__smakebuf_r+0x16>
   84678:	2101      	movs	r1, #1
   8467a:	f103 0243 	add.w	r2, r3, #67	; 0x43
   8467e:	6159      	str	r1, [r3, #20]
   84680:	601a      	str	r2, [r3, #0]
   84682:	611a      	str	r2, [r3, #16]
   84684:	4770      	bx	lr
   84686:	b5f0      	push	{r4, r5, r6, r7, lr}
   84688:	b083      	sub	sp, #12
   8468a:	ab01      	add	r3, sp, #4
   8468c:	466a      	mov	r2, sp
   8468e:	460c      	mov	r4, r1
   84690:	4606      	mov	r6, r0
   84692:	f7ff ffbf 	bl	84614 <__swhatbuf_r>
   84696:	9900      	ldr	r1, [sp, #0]
   84698:	4605      	mov	r5, r0
   8469a:	4630      	mov	r0, r6
   8469c:	f000 f83a 	bl	84714 <_malloc_r>
   846a0:	f9b4 300c 	ldrsh.w	r3, [r4, #12]
   846a4:	b1d8      	cbz	r0, 846de <__smakebuf_r+0x6e>
   846a6:	e89d 0006 	ldmia.w	sp, {r1, r2}
   846aa:	4f15      	ldr	r7, [pc, #84]	; (84700 <__smakebuf_r+0x90>)
   846ac:	f043 0380 	orr.w	r3, r3, #128	; 0x80
   846b0:	63f7      	str	r7, [r6, #60]	; 0x3c
   846b2:	81a3      	strh	r3, [r4, #12]
   846b4:	6020      	str	r0, [r4, #0]
   846b6:	6120      	str	r0, [r4, #16]
   846b8:	6161      	str	r1, [r4, #20]
   846ba:	b91a      	cbnz	r2, 846c4 <__smakebuf_r+0x54>
   846bc:	432b      	orrs	r3, r5
   846be:	81a3      	strh	r3, [r4, #12]
   846c0:	b003      	add	sp, #12
   846c2:	bdf0      	pop	{r4, r5, r6, r7, pc}
   846c4:	4630      	mov	r0, r6
   846c6:	f9b4 100e 	ldrsh.w	r1, [r4, #14]
   846ca:	f000 ff2b 	bl	85524 <_isatty_r>
   846ce:	b1a0      	cbz	r0, 846fa <__smakebuf_r+0x8a>
   846d0:	89a3      	ldrh	r3, [r4, #12]
   846d2:	f023 0303 	bic.w	r3, r3, #3
   846d6:	f043 0301 	orr.w	r3, r3, #1
   846da:	b21b      	sxth	r3, r3
   846dc:	e7ee      	b.n	846bc <__smakebuf_r+0x4c>
   846de:	059a      	lsls	r2, r3, #22
   846e0:	d4ee      	bmi.n	846c0 <__smakebuf_r+0x50>
   846e2:	2101      	movs	r1, #1
   846e4:	f023 0303 	bic.w	r3, r3, #3
   846e8:	f104 0243 	add.w	r2, r4, #67	; 0x43
   846ec:	f043 0302 	orr.w	r3, r3, #2
   846f0:	81a3      	strh	r3, [r4, #12]
   846f2:	6161      	str	r1, [r4, #20]
   846f4:	6022      	str	r2, [r4, #0]
   846f6:	6122      	str	r2, [r4, #16]
   846f8:	e7e2      	b.n	846c0 <__smakebuf_r+0x50>
   846fa:	f9b4 300c 	ldrsh.w	r3, [r4, #12]
   846fe:	e7dd      	b.n	846bc <__smakebuf_r+0x4c>
   84700:	00083e31 	.word	0x00083e31

00084704 <malloc>:
   84704:	4b02      	ldr	r3, [pc, #8]	; (84710 <malloc+0xc>)
   84706:	4601      	mov	r1, r0
   84708:	6818      	ldr	r0, [r3, #0]
   8470a:	f000 b803 	b.w	84714 <_malloc_r>
   8470e:	bf00      	nop
   84710:	2007013c 	.word	0x2007013c

00084714 <_malloc_r>:
   84714:	e92d 4ff0 	stmdb	sp!, {r4, r5, r6, r7, r8, r9, sl, fp, lr}
   84718:	f101 060b 	add.w	r6, r1, #11
   8471c:	2e16      	cmp	r6, #22
   8471e:	b083      	sub	sp, #12
   84720:	4605      	mov	r5, r0
   84722:	f240 809e 	bls.w	84862 <_malloc_r+0x14e>
   84726:	f036 0607 	bics.w	r6, r6, #7
   8472a:	f100 80bd 	bmi.w	848a8 <_malloc_r+0x194>
   8472e:	42b1      	cmp	r1, r6
   84730:	f200 80ba 	bhi.w	848a8 <_malloc_r+0x194>
   84734:	f000 fb50 	bl	84dd8 <__malloc_lock>
   84738:	f5b6 7ffc 	cmp.w	r6, #504	; 0x1f8
   8473c:	f0c0 8285 	bcc.w	84c4a <_malloc_r+0x536>
   84740:	0a73      	lsrs	r3, r6, #9
   84742:	f000 80b8 	beq.w	848b6 <_malloc_r+0x1a2>
   84746:	2b04      	cmp	r3, #4
   84748:	f200 816c 	bhi.w	84a24 <_malloc_r+0x310>
   8474c:	09b3      	lsrs	r3, r6, #6
   8474e:	f103 0039 	add.w	r0, r3, #57	; 0x39
   84752:	f103 0e38 	add.w	lr, r3, #56	; 0x38
   84756:	00c1      	lsls	r1, r0, #3
   84758:	4fb8      	ldr	r7, [pc, #736]	; (84a3c <_malloc_r+0x328>)
   8475a:	4439      	add	r1, r7
   8475c:	684c      	ldr	r4, [r1, #4]
   8475e:	3908      	subs	r1, #8
   84760:	42a1      	cmp	r1, r4
   84762:	d106      	bne.n	84772 <_malloc_r+0x5e>
   84764:	e00c      	b.n	84780 <_malloc_r+0x6c>
   84766:	2a00      	cmp	r2, #0
   84768:	f280 80ab 	bge.w	848c2 <_malloc_r+0x1ae>
   8476c:	68e4      	ldr	r4, [r4, #12]
   8476e:	42a1      	cmp	r1, r4
   84770:	d006      	beq.n	84780 <_malloc_r+0x6c>
   84772:	6863      	ldr	r3, [r4, #4]
   84774:	f023 0303 	bic.w	r3, r3, #3
   84778:	1b9a      	subs	r2, r3, r6
   8477a:	2a0f      	cmp	r2, #15
   8477c:	ddf3      	ble.n	84766 <_malloc_r+0x52>
   8477e:	4670      	mov	r0, lr
   84780:	693c      	ldr	r4, [r7, #16]
   84782:	f8df e2cc 	ldr.w	lr, [pc, #716]	; 84a50 <_malloc_r+0x33c>
   84786:	4574      	cmp	r4, lr
   84788:	f000 819e 	beq.w	84ac8 <_malloc_r+0x3b4>
   8478c:	6863      	ldr	r3, [r4, #4]
   8478e:	f023 0303 	bic.w	r3, r3, #3
   84792:	1b9a      	subs	r2, r3, r6
   84794:	2a0f      	cmp	r2, #15
   84796:	f300 8183 	bgt.w	84aa0 <_malloc_r+0x38c>
   8479a:	2a00      	cmp	r2, #0
   8479c:	f8c7 e014 	str.w	lr, [r7, #20]
   847a0:	f8c7 e010 	str.w	lr, [r7, #16]
   847a4:	f280 8091 	bge.w	848ca <_malloc_r+0x1b6>
   847a8:	f5b3 7f00 	cmp.w	r3, #512	; 0x200
   847ac:	f080 8154 	bcs.w	84a58 <_malloc_r+0x344>
   847b0:	2201      	movs	r2, #1
   847b2:	08db      	lsrs	r3, r3, #3
   847b4:	6879      	ldr	r1, [r7, #4]
   847b6:	ea4f 0ca3 	mov.w	ip, r3, asr #2
   847ba:	4413      	add	r3, r2
   847bc:	f857 8033 	ldr.w	r8, [r7, r3, lsl #3]
   847c0:	fa02 f20c 	lsl.w	r2, r2, ip
   847c4:	eb07 0cc3 	add.w	ip, r7, r3, lsl #3
   847c8:	430a      	orrs	r2, r1
   847ca:	f1ac 0108 	sub.w	r1, ip, #8
   847ce:	60e1      	str	r1, [r4, #12]
   847d0:	f8c4 8008 	str.w	r8, [r4, #8]
   847d4:	607a      	str	r2, [r7, #4]
   847d6:	f847 4033 	str.w	r4, [r7, r3, lsl #3]
   847da:	f8c8 400c 	str.w	r4, [r8, #12]
   847de:	2401      	movs	r4, #1
   847e0:	1083      	asrs	r3, r0, #2
   847e2:	409c      	lsls	r4, r3
   847e4:	4294      	cmp	r4, r2
   847e6:	d87d      	bhi.n	848e4 <_malloc_r+0x1d0>
   847e8:	4214      	tst	r4, r2
   847ea:	d106      	bne.n	847fa <_malloc_r+0xe6>
   847ec:	f020 0003 	bic.w	r0, r0, #3
   847f0:	0064      	lsls	r4, r4, #1
   847f2:	4214      	tst	r4, r2
   847f4:	f100 0004 	add.w	r0, r0, #4
   847f8:	d0fa      	beq.n	847f0 <_malloc_r+0xdc>
   847fa:	eb07 09c0 	add.w	r9, r7, r0, lsl #3
   847fe:	46cc      	mov	ip, r9
   84800:	4680      	mov	r8, r0
   84802:	f8dc 300c 	ldr.w	r3, [ip, #12]
   84806:	459c      	cmp	ip, r3
   84808:	d107      	bne.n	8481a <_malloc_r+0x106>
   8480a:	e15f      	b.n	84acc <_malloc_r+0x3b8>
   8480c:	2a00      	cmp	r2, #0
   8480e:	f280 816d 	bge.w	84aec <_malloc_r+0x3d8>
   84812:	68db      	ldr	r3, [r3, #12]
   84814:	459c      	cmp	ip, r3
   84816:	f000 8159 	beq.w	84acc <_malloc_r+0x3b8>
   8481a:	6859      	ldr	r1, [r3, #4]
   8481c:	f021 0103 	bic.w	r1, r1, #3
   84820:	1b8a      	subs	r2, r1, r6
   84822:	2a0f      	cmp	r2, #15
   84824:	ddf2      	ble.n	8480c <_malloc_r+0xf8>
   84826:	68dc      	ldr	r4, [r3, #12]
   84828:	f8d3 c008 	ldr.w	ip, [r3, #8]
   8482c:	f046 0801 	orr.w	r8, r6, #1
   84830:	4628      	mov	r0, r5
   84832:	441e      	add	r6, r3
   84834:	f042 0501 	orr.w	r5, r2, #1
   84838:	f8c3 8004 	str.w	r8, [r3, #4]
   8483c:	f8cc 400c 	str.w	r4, [ip, #12]
   84840:	f8c4 c008 	str.w	ip, [r4, #8]
   84844:	617e      	str	r6, [r7, #20]
   84846:	613e      	str	r6, [r7, #16]
   84848:	f8c6 e00c 	str.w	lr, [r6, #12]
   8484c:	f8c6 e008 	str.w	lr, [r6, #8]
   84850:	6075      	str	r5, [r6, #4]
   84852:	505a      	str	r2, [r3, r1]
   84854:	9300      	str	r3, [sp, #0]
   84856:	f000 fac5 	bl	84de4 <__malloc_unlock>
   8485a:	9b00      	ldr	r3, [sp, #0]
   8485c:	f103 0408 	add.w	r4, r3, #8
   84860:	e01e      	b.n	848a0 <_malloc_r+0x18c>
   84862:	2910      	cmp	r1, #16
   84864:	d820      	bhi.n	848a8 <_malloc_r+0x194>
   84866:	f000 fab7 	bl	84dd8 <__malloc_lock>
   8486a:	2610      	movs	r6, #16
   8486c:	2318      	movs	r3, #24
   8486e:	2002      	movs	r0, #2
   84870:	4f72      	ldr	r7, [pc, #456]	; (84a3c <_malloc_r+0x328>)
   84872:	443b      	add	r3, r7
   84874:	685c      	ldr	r4, [r3, #4]
   84876:	f1a3 0208 	sub.w	r2, r3, #8
   8487a:	4294      	cmp	r4, r2
   8487c:	f000 812f 	beq.w	84ade <_malloc_r+0x3ca>
   84880:	6863      	ldr	r3, [r4, #4]
   84882:	68e1      	ldr	r1, [r4, #12]
   84884:	f023 0303 	bic.w	r3, r3, #3
   84888:	4423      	add	r3, r4
   8488a:	685a      	ldr	r2, [r3, #4]
   8488c:	68a6      	ldr	r6, [r4, #8]
   8488e:	f042 0201 	orr.w	r2, r2, #1
   84892:	60f1      	str	r1, [r6, #12]
   84894:	4628      	mov	r0, r5
   84896:	608e      	str	r6, [r1, #8]
   84898:	605a      	str	r2, [r3, #4]
   8489a:	f000 faa3 	bl	84de4 <__malloc_unlock>
   8489e:	3408      	adds	r4, #8
   848a0:	4620      	mov	r0, r4
   848a2:	b003      	add	sp, #12
   848a4:	e8bd 8ff0 	ldmia.w	sp!, {r4, r5, r6, r7, r8, r9, sl, fp, pc}
   848a8:	2400      	movs	r4, #0
   848aa:	230c      	movs	r3, #12
   848ac:	4620      	mov	r0, r4
   848ae:	602b      	str	r3, [r5, #0]
   848b0:	b003      	add	sp, #12
   848b2:	e8bd 8ff0 	ldmia.w	sp!, {r4, r5, r6, r7, r8, r9, sl, fp, pc}
   848b6:	2040      	movs	r0, #64	; 0x40
   848b8:	f44f 7100 	mov.w	r1, #512	; 0x200
   848bc:	f04f 0e3f 	mov.w	lr, #63	; 0x3f
   848c0:	e74a      	b.n	84758 <_malloc_r+0x44>
   848c2:	4423      	add	r3, r4
   848c4:	685a      	ldr	r2, [r3, #4]
   848c6:	68e1      	ldr	r1, [r4, #12]
   848c8:	e7e0      	b.n	8488c <_malloc_r+0x178>
   848ca:	4423      	add	r3, r4
   848cc:	685a      	ldr	r2, [r3, #4]
   848ce:	4628      	mov	r0, r5
   848d0:	f042 0201 	orr.w	r2, r2, #1
   848d4:	605a      	str	r2, [r3, #4]
   848d6:	3408      	adds	r4, #8
   848d8:	f000 fa84 	bl	84de4 <__malloc_unlock>
   848dc:	4620      	mov	r0, r4
   848de:	b003      	add	sp, #12
   848e0:	e8bd 8ff0 	ldmia.w	sp!, {r4, r5, r6, r7, r8, r9, sl, fp, pc}
   848e4:	68bc      	ldr	r4, [r7, #8]
   848e6:	6863      	ldr	r3, [r4, #4]
   848e8:	f023 0803 	bic.w	r8, r3, #3
   848ec:	45b0      	cmp	r8, r6
   848ee:	d304      	bcc.n	848fa <_malloc_r+0x1e6>
   848f0:	eba8 0306 	sub.w	r3, r8, r6
   848f4:	2b0f      	cmp	r3, #15
   848f6:	f300 8085 	bgt.w	84a04 <_malloc_r+0x2f0>
   848fa:	f8df 9158 	ldr.w	r9, [pc, #344]	; 84a54 <_malloc_r+0x340>
   848fe:	4b50      	ldr	r3, [pc, #320]	; (84a40 <_malloc_r+0x32c>)
   84900:	f8d9 2000 	ldr.w	r2, [r9]
   84904:	681b      	ldr	r3, [r3, #0]
   84906:	3201      	adds	r2, #1
   84908:	4433      	add	r3, r6
   8490a:	eb04 0a08 	add.w	sl, r4, r8
   8490e:	f000 8154 	beq.w	84bba <_malloc_r+0x4a6>
   84912:	f503 5380 	add.w	r3, r3, #4096	; 0x1000
   84916:	330f      	adds	r3, #15
   84918:	f423 6b7f 	bic.w	fp, r3, #4080	; 0xff0
   8491c:	f02b 0b0f 	bic.w	fp, fp, #15
   84920:	4659      	mov	r1, fp
   84922:	4628      	mov	r0, r5
   84924:	f000 fc1a 	bl	8515c <_sbrk_r>
   84928:	1c41      	adds	r1, r0, #1
   8492a:	4602      	mov	r2, r0
   8492c:	f000 80fb 	beq.w	84b26 <_malloc_r+0x412>
   84930:	4582      	cmp	sl, r0
   84932:	f200 80f6 	bhi.w	84b22 <_malloc_r+0x40e>
   84936:	4b43      	ldr	r3, [pc, #268]	; (84a44 <_malloc_r+0x330>)
   84938:	6819      	ldr	r1, [r3, #0]
   8493a:	4459      	add	r1, fp
   8493c:	6019      	str	r1, [r3, #0]
   8493e:	f000 814c 	beq.w	84bda <_malloc_r+0x4c6>
   84942:	f8d9 0000 	ldr.w	r0, [r9]
   84946:	3001      	adds	r0, #1
   84948:	bf1b      	ittet	ne
   8494a:	eba2 0a0a 	subne.w	sl, r2, sl
   8494e:	4451      	addne	r1, sl
   84950:	f8c9 2000 	streq.w	r2, [r9]
   84954:	6019      	strne	r1, [r3, #0]
   84956:	f012 0107 	ands.w	r1, r2, #7
   8495a:	f000 8114 	beq.w	84b86 <_malloc_r+0x472>
   8495e:	f1c1 0008 	rsb	r0, r1, #8
   84962:	f5c1 5180 	rsb	r1, r1, #4096	; 0x1000
   84966:	4402      	add	r2, r0
   84968:	3108      	adds	r1, #8
   8496a:	eb02 090b 	add.w	r9, r2, fp
   8496e:	f3c9 090b 	ubfx	r9, r9, #0, #12
   84972:	eba1 0909 	sub.w	r9, r1, r9
   84976:	4649      	mov	r1, r9
   84978:	4628      	mov	r0, r5
   8497a:	9301      	str	r3, [sp, #4]
   8497c:	9200      	str	r2, [sp, #0]
   8497e:	f000 fbed 	bl	8515c <_sbrk_r>
   84982:	1c43      	adds	r3, r0, #1
   84984:	e89d 000c 	ldmia.w	sp, {r2, r3}
   84988:	f000 8142 	beq.w	84c10 <_malloc_r+0x4fc>
   8498c:	1a80      	subs	r0, r0, r2
   8498e:	4448      	add	r0, r9
   84990:	f040 0001 	orr.w	r0, r0, #1
   84994:	6819      	ldr	r1, [r3, #0]
   84996:	42bc      	cmp	r4, r7
   84998:	4449      	add	r1, r9
   8499a:	60ba      	str	r2, [r7, #8]
   8499c:	6019      	str	r1, [r3, #0]
   8499e:	6050      	str	r0, [r2, #4]
   849a0:	d017      	beq.n	849d2 <_malloc_r+0x2be>
   849a2:	f1b8 0f0f 	cmp.w	r8, #15
   849a6:	f240 80fa 	bls.w	84b9e <_malloc_r+0x48a>
   849aa:	f04f 0c05 	mov.w	ip, #5
   849ae:	6862      	ldr	r2, [r4, #4]
   849b0:	f1a8 000c 	sub.w	r0, r8, #12
   849b4:	f020 0007 	bic.w	r0, r0, #7
   849b8:	f002 0201 	and.w	r2, r2, #1
   849bc:	eb04 0e00 	add.w	lr, r4, r0
   849c0:	4302      	orrs	r2, r0
   849c2:	280f      	cmp	r0, #15
   849c4:	6062      	str	r2, [r4, #4]
   849c6:	f8ce c004 	str.w	ip, [lr, #4]
   849ca:	f8ce c008 	str.w	ip, [lr, #8]
   849ce:	f200 8116 	bhi.w	84bfe <_malloc_r+0x4ea>
   849d2:	4b1d      	ldr	r3, [pc, #116]	; (84a48 <_malloc_r+0x334>)
   849d4:	68bc      	ldr	r4, [r7, #8]
   849d6:	681a      	ldr	r2, [r3, #0]
   849d8:	4291      	cmp	r1, r2
   849da:	bf88      	it	hi
   849dc:	6019      	strhi	r1, [r3, #0]
   849de:	4b1b      	ldr	r3, [pc, #108]	; (84a4c <_malloc_r+0x338>)
   849e0:	681a      	ldr	r2, [r3, #0]
   849e2:	4291      	cmp	r1, r2
   849e4:	6862      	ldr	r2, [r4, #4]
   849e6:	bf88      	it	hi
   849e8:	6019      	strhi	r1, [r3, #0]
   849ea:	f022 0203 	bic.w	r2, r2, #3
   849ee:	4296      	cmp	r6, r2
   849f0:	eba2 0306 	sub.w	r3, r2, r6
   849f4:	d801      	bhi.n	849fa <_malloc_r+0x2e6>
   849f6:	2b0f      	cmp	r3, #15
   849f8:	dc04      	bgt.n	84a04 <_malloc_r+0x2f0>
   849fa:	4628      	mov	r0, r5
   849fc:	f000 f9f2 	bl	84de4 <__malloc_unlock>
   84a00:	2400      	movs	r4, #0
   84a02:	e74d      	b.n	848a0 <_malloc_r+0x18c>
   84a04:	f046 0201 	orr.w	r2, r6, #1
   84a08:	f043 0301 	orr.w	r3, r3, #1
   84a0c:	4426      	add	r6, r4
   84a0e:	6062      	str	r2, [r4, #4]
   84a10:	4628      	mov	r0, r5
   84a12:	60be      	str	r6, [r7, #8]
   84a14:	3408      	adds	r4, #8
   84a16:	6073      	str	r3, [r6, #4]
   84a18:	f000 f9e4 	bl	84de4 <__malloc_unlock>
   84a1c:	4620      	mov	r0, r4
   84a1e:	b003      	add	sp, #12
   84a20:	e8bd 8ff0 	ldmia.w	sp!, {r4, r5, r6, r7, r8, r9, sl, fp, pc}
   84a24:	2b14      	cmp	r3, #20
   84a26:	d970      	bls.n	84b0a <_malloc_r+0x3f6>
   84a28:	2b54      	cmp	r3, #84	; 0x54
   84a2a:	f200 80a2 	bhi.w	84b72 <_malloc_r+0x45e>
   84a2e:	0b33      	lsrs	r3, r6, #12
   84a30:	f103 006f 	add.w	r0, r3, #111	; 0x6f
   84a34:	f103 0e6e 	add.w	lr, r3, #110	; 0x6e
   84a38:	00c1      	lsls	r1, r0, #3
   84a3a:	e68d      	b.n	84758 <_malloc_r+0x44>
   84a3c:	200706d8 	.word	0x200706d8
   84a40:	2007ad00 	.word	0x2007ad00
   84a44:	2007acd0 	.word	0x2007acd0
   84a48:	2007acf8 	.word	0x2007acf8
   84a4c:	2007acfc 	.word	0x2007acfc
   84a50:	200706e0 	.word	0x200706e0
   84a54:	20070ae0 	.word	0x20070ae0
   84a58:	0a5a      	lsrs	r2, r3, #9
   84a5a:	2a04      	cmp	r2, #4
   84a5c:	d95b      	bls.n	84b16 <_malloc_r+0x402>
   84a5e:	2a14      	cmp	r2, #20
   84a60:	f200 80ae 	bhi.w	84bc0 <_malloc_r+0x4ac>
   84a64:	f102 015c 	add.w	r1, r2, #92	; 0x5c
   84a68:	00c9      	lsls	r1, r1, #3
   84a6a:	325b      	adds	r2, #91	; 0x5b
   84a6c:	eb07 0c01 	add.w	ip, r7, r1
   84a70:	5879      	ldr	r1, [r7, r1]
   84a72:	f1ac 0c08 	sub.w	ip, ip, #8
   84a76:	458c      	cmp	ip, r1
   84a78:	f000 8088 	beq.w	84b8c <_malloc_r+0x478>
   84a7c:	684a      	ldr	r2, [r1, #4]
   84a7e:	f022 0203 	bic.w	r2, r2, #3
   84a82:	4293      	cmp	r3, r2
   84a84:	d273      	bcs.n	84b6e <_malloc_r+0x45a>
   84a86:	6889      	ldr	r1, [r1, #8]
   84a88:	458c      	cmp	ip, r1
   84a8a:	d1f7      	bne.n	84a7c <_malloc_r+0x368>
   84a8c:	f8dc 300c 	ldr.w	r3, [ip, #12]
   84a90:	687a      	ldr	r2, [r7, #4]
   84a92:	60e3      	str	r3, [r4, #12]
   84a94:	f8c4 c008 	str.w	ip, [r4, #8]
   84a98:	609c      	str	r4, [r3, #8]
   84a9a:	f8cc 400c 	str.w	r4, [ip, #12]
   84a9e:	e69e      	b.n	847de <_malloc_r+0xca>
   84aa0:	f046 0c01 	orr.w	ip, r6, #1
   84aa4:	f042 0101 	orr.w	r1, r2, #1
   84aa8:	4426      	add	r6, r4
   84aaa:	f8c4 c004 	str.w	ip, [r4, #4]
   84aae:	4628      	mov	r0, r5
   84ab0:	617e      	str	r6, [r7, #20]
   84ab2:	613e      	str	r6, [r7, #16]
   84ab4:	f8c6 e00c 	str.w	lr, [r6, #12]
   84ab8:	f8c6 e008 	str.w	lr, [r6, #8]
   84abc:	6071      	str	r1, [r6, #4]
   84abe:	50e2      	str	r2, [r4, r3]
   84ac0:	f000 f990 	bl	84de4 <__malloc_unlock>
   84ac4:	3408      	adds	r4, #8
   84ac6:	e6eb      	b.n	848a0 <_malloc_r+0x18c>
   84ac8:	687a      	ldr	r2, [r7, #4]
   84aca:	e688      	b.n	847de <_malloc_r+0xca>
   84acc:	f108 0801 	add.w	r8, r8, #1
   84ad0:	f018 0f03 	tst.w	r8, #3
   84ad4:	f10c 0c08 	add.w	ip, ip, #8
   84ad8:	f47f ae93 	bne.w	84802 <_malloc_r+0xee>
   84adc:	e02d      	b.n	84b3a <_malloc_r+0x426>
   84ade:	68dc      	ldr	r4, [r3, #12]
   84ae0:	42a3      	cmp	r3, r4
   84ae2:	bf08      	it	eq
   84ae4:	3002      	addeq	r0, #2
   84ae6:	f43f ae4b 	beq.w	84780 <_malloc_r+0x6c>
   84aea:	e6c9      	b.n	84880 <_malloc_r+0x16c>
   84aec:	461c      	mov	r4, r3
   84aee:	4419      	add	r1, r3
   84af0:	684a      	ldr	r2, [r1, #4]
   84af2:	68db      	ldr	r3, [r3, #12]
   84af4:	f854 6f08 	ldr.w	r6, [r4, #8]!
   84af8:	f042 0201 	orr.w	r2, r2, #1
   84afc:	604a      	str	r2, [r1, #4]
   84afe:	4628      	mov	r0, r5
   84b00:	60f3      	str	r3, [r6, #12]
   84b02:	609e      	str	r6, [r3, #8]
   84b04:	f000 f96e 	bl	84de4 <__malloc_unlock>
   84b08:	e6ca      	b.n	848a0 <_malloc_r+0x18c>
   84b0a:	f103 005c 	add.w	r0, r3, #92	; 0x5c
   84b0e:	f103 0e5b 	add.w	lr, r3, #91	; 0x5b
   84b12:	00c1      	lsls	r1, r0, #3
   84b14:	e620      	b.n	84758 <_malloc_r+0x44>
   84b16:	099a      	lsrs	r2, r3, #6
   84b18:	f102 0139 	add.w	r1, r2, #57	; 0x39
   84b1c:	00c9      	lsls	r1, r1, #3
   84b1e:	3238      	adds	r2, #56	; 0x38
   84b20:	e7a4      	b.n	84a6c <_malloc_r+0x358>
   84b22:	42bc      	cmp	r4, r7
   84b24:	d054      	beq.n	84bd0 <_malloc_r+0x4bc>
   84b26:	68bc      	ldr	r4, [r7, #8]
   84b28:	6862      	ldr	r2, [r4, #4]
   84b2a:	f022 0203 	bic.w	r2, r2, #3
   84b2e:	e75e      	b.n	849ee <_malloc_r+0x2da>
   84b30:	f859 3908 	ldr.w	r3, [r9], #-8
   84b34:	4599      	cmp	r9, r3
   84b36:	f040 8086 	bne.w	84c46 <_malloc_r+0x532>
   84b3a:	f010 0f03 	tst.w	r0, #3
   84b3e:	f100 30ff 	add.w	r0, r0, #4294967295
   84b42:	d1f5      	bne.n	84b30 <_malloc_r+0x41c>
   84b44:	687b      	ldr	r3, [r7, #4]
   84b46:	ea23 0304 	bic.w	r3, r3, r4
   84b4a:	607b      	str	r3, [r7, #4]
   84b4c:	0064      	lsls	r4, r4, #1
   84b4e:	429c      	cmp	r4, r3
   84b50:	f63f aec8 	bhi.w	848e4 <_malloc_r+0x1d0>
   84b54:	2c00      	cmp	r4, #0
   84b56:	f43f aec5 	beq.w	848e4 <_malloc_r+0x1d0>
   84b5a:	421c      	tst	r4, r3
   84b5c:	4640      	mov	r0, r8
   84b5e:	f47f ae4c 	bne.w	847fa <_malloc_r+0xe6>
   84b62:	0064      	lsls	r4, r4, #1
   84b64:	421c      	tst	r4, r3
   84b66:	f100 0004 	add.w	r0, r0, #4
   84b6a:	d0fa      	beq.n	84b62 <_malloc_r+0x44e>
   84b6c:	e645      	b.n	847fa <_malloc_r+0xe6>
   84b6e:	468c      	mov	ip, r1
   84b70:	e78c      	b.n	84a8c <_malloc_r+0x378>
   84b72:	f5b3 7faa 	cmp.w	r3, #340	; 0x154
   84b76:	d815      	bhi.n	84ba4 <_malloc_r+0x490>
   84b78:	0bf3      	lsrs	r3, r6, #15
   84b7a:	f103 0078 	add.w	r0, r3, #120	; 0x78
   84b7e:	f103 0e77 	add.w	lr, r3, #119	; 0x77
   84b82:	00c1      	lsls	r1, r0, #3
   84b84:	e5e8      	b.n	84758 <_malloc_r+0x44>
   84b86:	f44f 5180 	mov.w	r1, #4096	; 0x1000
   84b8a:	e6ee      	b.n	8496a <_malloc_r+0x256>
   84b8c:	2101      	movs	r1, #1
   84b8e:	687b      	ldr	r3, [r7, #4]
   84b90:	1092      	asrs	r2, r2, #2
   84b92:	fa01 f202 	lsl.w	r2, r1, r2
   84b96:	431a      	orrs	r2, r3
   84b98:	607a      	str	r2, [r7, #4]
   84b9a:	4663      	mov	r3, ip
   84b9c:	e779      	b.n	84a92 <_malloc_r+0x37e>
   84b9e:	2301      	movs	r3, #1
   84ba0:	6053      	str	r3, [r2, #4]
   84ba2:	e72a      	b.n	849fa <_malloc_r+0x2e6>
   84ba4:	f240 5254 	movw	r2, #1364	; 0x554
   84ba8:	4293      	cmp	r3, r2
   84baa:	d822      	bhi.n	84bf2 <_malloc_r+0x4de>
   84bac:	0cb3      	lsrs	r3, r6, #18
   84bae:	f103 007d 	add.w	r0, r3, #125	; 0x7d
   84bb2:	f103 0e7c 	add.w	lr, r3, #124	; 0x7c
   84bb6:	00c1      	lsls	r1, r0, #3
   84bb8:	e5ce      	b.n	84758 <_malloc_r+0x44>
   84bba:	f103 0b10 	add.w	fp, r3, #16
   84bbe:	e6af      	b.n	84920 <_malloc_r+0x20c>
   84bc0:	2a54      	cmp	r2, #84	; 0x54
   84bc2:	d829      	bhi.n	84c18 <_malloc_r+0x504>
   84bc4:	0b1a      	lsrs	r2, r3, #12
   84bc6:	f102 016f 	add.w	r1, r2, #111	; 0x6f
   84bca:	00c9      	lsls	r1, r1, #3
   84bcc:	326e      	adds	r2, #110	; 0x6e
   84bce:	e74d      	b.n	84a6c <_malloc_r+0x358>
   84bd0:	4b20      	ldr	r3, [pc, #128]	; (84c54 <_malloc_r+0x540>)
   84bd2:	6819      	ldr	r1, [r3, #0]
   84bd4:	4459      	add	r1, fp
   84bd6:	6019      	str	r1, [r3, #0]
   84bd8:	e6b3      	b.n	84942 <_malloc_r+0x22e>
   84bda:	f3ca 000b 	ubfx	r0, sl, #0, #12
   84bde:	2800      	cmp	r0, #0
   84be0:	f47f aeaf 	bne.w	84942 <_malloc_r+0x22e>
   84be4:	eb08 030b 	add.w	r3, r8, fp
   84be8:	68ba      	ldr	r2, [r7, #8]
   84bea:	f043 0301 	orr.w	r3, r3, #1
   84bee:	6053      	str	r3, [r2, #4]
   84bf0:	e6ef      	b.n	849d2 <_malloc_r+0x2be>
   84bf2:	207f      	movs	r0, #127	; 0x7f
   84bf4:	f44f 717e 	mov.w	r1, #1016	; 0x3f8
   84bf8:	f04f 0e7e 	mov.w	lr, #126	; 0x7e
   84bfc:	e5ac      	b.n	84758 <_malloc_r+0x44>
   84bfe:	f104 0108 	add.w	r1, r4, #8
   84c02:	4628      	mov	r0, r5
   84c04:	9300      	str	r3, [sp, #0]
   84c06:	f7ff fa67 	bl	840d8 <_free_r>
   84c0a:	9b00      	ldr	r3, [sp, #0]
   84c0c:	6819      	ldr	r1, [r3, #0]
   84c0e:	e6e0      	b.n	849d2 <_malloc_r+0x2be>
   84c10:	2001      	movs	r0, #1
   84c12:	f04f 0900 	mov.w	r9, #0
   84c16:	e6bd      	b.n	84994 <_malloc_r+0x280>
   84c18:	f5b2 7faa 	cmp.w	r2, #340	; 0x154
   84c1c:	d805      	bhi.n	84c2a <_malloc_r+0x516>
   84c1e:	0bda      	lsrs	r2, r3, #15
   84c20:	f102 0178 	add.w	r1, r2, #120	; 0x78
   84c24:	00c9      	lsls	r1, r1, #3
   84c26:	3277      	adds	r2, #119	; 0x77
   84c28:	e720      	b.n	84a6c <_malloc_r+0x358>
   84c2a:	f240 5154 	movw	r1, #1364	; 0x554
   84c2e:	428a      	cmp	r2, r1
   84c30:	d805      	bhi.n	84c3e <_malloc_r+0x52a>
   84c32:	0c9a      	lsrs	r2, r3, #18
   84c34:	f102 017d 	add.w	r1, r2, #125	; 0x7d
   84c38:	00c9      	lsls	r1, r1, #3
   84c3a:	327c      	adds	r2, #124	; 0x7c
   84c3c:	e716      	b.n	84a6c <_malloc_r+0x358>
   84c3e:	f44f 717e 	mov.w	r1, #1016	; 0x3f8
   84c42:	227e      	movs	r2, #126	; 0x7e
   84c44:	e712      	b.n	84a6c <_malloc_r+0x358>
   84c46:	687b      	ldr	r3, [r7, #4]
   84c48:	e780      	b.n	84b4c <_malloc_r+0x438>
   84c4a:	08f0      	lsrs	r0, r6, #3
   84c4c:	f106 0308 	add.w	r3, r6, #8
   84c50:	e60e      	b.n	84870 <_malloc_r+0x15c>
   84c52:	bf00      	nop
   84c54:	2007acd0 	.word	0x2007acd0

00084c58 <__ascii_mbtowc>:
   84c58:	b082      	sub	sp, #8
   84c5a:	b149      	cbz	r1, 84c70 <__ascii_mbtowc+0x18>
   84c5c:	b15a      	cbz	r2, 84c76 <__ascii_mbtowc+0x1e>
   84c5e:	b16b      	cbz	r3, 84c7c <__ascii_mbtowc+0x24>
   84c60:	7813      	ldrb	r3, [r2, #0]
   84c62:	600b      	str	r3, [r1, #0]
   84c64:	7812      	ldrb	r2, [r2, #0]
   84c66:	1c10      	adds	r0, r2, #0
   84c68:	bf18      	it	ne
   84c6a:	2001      	movne	r0, #1
   84c6c:	b002      	add	sp, #8
   84c6e:	4770      	bx	lr
   84c70:	a901      	add	r1, sp, #4
   84c72:	2a00      	cmp	r2, #0
   84c74:	d1f3      	bne.n	84c5e <__ascii_mbtowc+0x6>
   84c76:	4610      	mov	r0, r2
   84c78:	b002      	add	sp, #8
   84c7a:	4770      	bx	lr
   84c7c:	f06f 0001 	mvn.w	r0, #1
   84c80:	e7f4      	b.n	84c6c <__ascii_mbtowc+0x14>
   84c82:	bf00      	nop

00084c84 <memchr>:
   84c84:	0783      	lsls	r3, r0, #30
   84c86:	b470      	push	{r4, r5, r6}
   84c88:	b2cd      	uxtb	r5, r1
   84c8a:	d03d      	beq.n	84d08 <memchr+0x84>
   84c8c:	1e54      	subs	r4, r2, #1
   84c8e:	b30a      	cbz	r2, 84cd4 <memchr+0x50>
   84c90:	7803      	ldrb	r3, [r0, #0]
   84c92:	42ab      	cmp	r3, r5
   84c94:	d01f      	beq.n	84cd6 <memchr+0x52>
   84c96:	1c43      	adds	r3, r0, #1
   84c98:	e005      	b.n	84ca6 <memchr+0x22>
   84c9a:	f114 34ff 	adds.w	r4, r4, #4294967295
   84c9e:	d319      	bcc.n	84cd4 <memchr+0x50>
   84ca0:	7802      	ldrb	r2, [r0, #0]
   84ca2:	42aa      	cmp	r2, r5
   84ca4:	d017      	beq.n	84cd6 <memchr+0x52>
   84ca6:	f013 0f03 	tst.w	r3, #3
   84caa:	4618      	mov	r0, r3
   84cac:	f103 0301 	add.w	r3, r3, #1
   84cb0:	d1f3      	bne.n	84c9a <memchr+0x16>
   84cb2:	2c03      	cmp	r4, #3
   84cb4:	d811      	bhi.n	84cda <memchr+0x56>
   84cb6:	b34c      	cbz	r4, 84d0c <memchr+0x88>
   84cb8:	7803      	ldrb	r3, [r0, #0]
   84cba:	42ab      	cmp	r3, r5
   84cbc:	d00b      	beq.n	84cd6 <memchr+0x52>
   84cbe:	4404      	add	r4, r0
   84cc0:	1c43      	adds	r3, r0, #1
   84cc2:	e002      	b.n	84cca <memchr+0x46>
   84cc4:	7802      	ldrb	r2, [r0, #0]
   84cc6:	42aa      	cmp	r2, r5
   84cc8:	d005      	beq.n	84cd6 <memchr+0x52>
   84cca:	429c      	cmp	r4, r3
   84ccc:	4618      	mov	r0, r3
   84cce:	f103 0301 	add.w	r3, r3, #1
   84cd2:	d1f7      	bne.n	84cc4 <memchr+0x40>
   84cd4:	2000      	movs	r0, #0
   84cd6:	bc70      	pop	{r4, r5, r6}
   84cd8:	4770      	bx	lr
   84cda:	0209      	lsls	r1, r1, #8
   84cdc:	b289      	uxth	r1, r1
   84cde:	4329      	orrs	r1, r5
   84ce0:	ea41 4101 	orr.w	r1, r1, r1, lsl #16
   84ce4:	6803      	ldr	r3, [r0, #0]
   84ce6:	4606      	mov	r6, r0
   84ce8:	404b      	eors	r3, r1
   84cea:	f1a3 3201 	sub.w	r2, r3, #16843009	; 0x1010101
   84cee:	ea22 0303 	bic.w	r3, r2, r3
   84cf2:	f013 3f80 	tst.w	r3, #2155905152	; 0x80808080
   84cf6:	f100 0004 	add.w	r0, r0, #4
   84cfa:	d103      	bne.n	84d04 <memchr+0x80>
   84cfc:	3c04      	subs	r4, #4
   84cfe:	2c03      	cmp	r4, #3
   84d00:	d8f0      	bhi.n	84ce4 <memchr+0x60>
   84d02:	e7d8      	b.n	84cb6 <memchr+0x32>
   84d04:	4630      	mov	r0, r6
   84d06:	e7d7      	b.n	84cb8 <memchr+0x34>
   84d08:	4614      	mov	r4, r2
   84d0a:	e7d2      	b.n	84cb2 <memchr+0x2e>
   84d0c:	4620      	mov	r0, r4
   84d0e:	e7e2      	b.n	84cd6 <memchr+0x52>

00084d10 <memmove>:
   84d10:	4288      	cmp	r0, r1
   84d12:	b5f0      	push	{r4, r5, r6, r7, lr}
   84d14:	d90d      	bls.n	84d32 <memmove+0x22>
   84d16:	188b      	adds	r3, r1, r2
   84d18:	4298      	cmp	r0, r3
   84d1a:	d20a      	bcs.n	84d32 <memmove+0x22>
   84d1c:	1884      	adds	r4, r0, r2
   84d1e:	2a00      	cmp	r2, #0
   84d20:	d051      	beq.n	84dc6 <memmove+0xb6>
   84d22:	4622      	mov	r2, r4
   84d24:	f813 4d01 	ldrb.w	r4, [r3, #-1]!
   84d28:	4299      	cmp	r1, r3
   84d2a:	f802 4d01 	strb.w	r4, [r2, #-1]!
   84d2e:	d1f9      	bne.n	84d24 <memmove+0x14>
   84d30:	bdf0      	pop	{r4, r5, r6, r7, pc}
   84d32:	2a0f      	cmp	r2, #15
   84d34:	d948      	bls.n	84dc8 <memmove+0xb8>
   84d36:	ea41 0300 	orr.w	r3, r1, r0
   84d3a:	079b      	lsls	r3, r3, #30
   84d3c:	d146      	bne.n	84dcc <memmove+0xbc>
   84d3e:	4615      	mov	r5, r2
   84d40:	f100 0410 	add.w	r4, r0, #16
   84d44:	f101 0310 	add.w	r3, r1, #16
   84d48:	f853 6c10 	ldr.w	r6, [r3, #-16]
   84d4c:	3d10      	subs	r5, #16
   84d4e:	f844 6c10 	str.w	r6, [r4, #-16]
   84d52:	f853 6c0c 	ldr.w	r6, [r3, #-12]
   84d56:	2d0f      	cmp	r5, #15
   84d58:	f844 6c0c 	str.w	r6, [r4, #-12]
   84d5c:	f853 6c08 	ldr.w	r6, [r3, #-8]
   84d60:	f104 0410 	add.w	r4, r4, #16
   84d64:	f844 6c18 	str.w	r6, [r4, #-24]
   84d68:	f853 6c04 	ldr.w	r6, [r3, #-4]
   84d6c:	f103 0310 	add.w	r3, r3, #16
   84d70:	f844 6c14 	str.w	r6, [r4, #-20]
   84d74:	d8e8      	bhi.n	84d48 <memmove+0x38>
   84d76:	f1a2 0310 	sub.w	r3, r2, #16
   84d7a:	f023 030f 	bic.w	r3, r3, #15
   84d7e:	f002 0e0f 	and.w	lr, r2, #15
   84d82:	3310      	adds	r3, #16
   84d84:	f1be 0f03 	cmp.w	lr, #3
   84d88:	4419      	add	r1, r3
   84d8a:	4403      	add	r3, r0
   84d8c:	d921      	bls.n	84dd2 <memmove+0xc2>
   84d8e:	460e      	mov	r6, r1
   84d90:	4674      	mov	r4, lr
   84d92:	1f1d      	subs	r5, r3, #4
   84d94:	f856 7b04 	ldr.w	r7, [r6], #4
   84d98:	3c04      	subs	r4, #4
   84d9a:	2c03      	cmp	r4, #3
   84d9c:	f845 7f04 	str.w	r7, [r5, #4]!
   84da0:	d8f8      	bhi.n	84d94 <memmove+0x84>
   84da2:	f1ae 0404 	sub.w	r4, lr, #4
   84da6:	f024 0403 	bic.w	r4, r4, #3
   84daa:	3404      	adds	r4, #4
   84dac:	4421      	add	r1, r4
   84dae:	4423      	add	r3, r4
   84db0:	f002 0203 	and.w	r2, r2, #3
   84db4:	b162      	cbz	r2, 84dd0 <memmove+0xc0>
   84db6:	3b01      	subs	r3, #1
   84db8:	440a      	add	r2, r1
   84dba:	f811 4b01 	ldrb.w	r4, [r1], #1
   84dbe:	428a      	cmp	r2, r1
   84dc0:	f803 4f01 	strb.w	r4, [r3, #1]!
   84dc4:	d1f9      	bne.n	84dba <memmove+0xaa>
   84dc6:	bdf0      	pop	{r4, r5, r6, r7, pc}
   84dc8:	4603      	mov	r3, r0
   84dca:	e7f3      	b.n	84db4 <memmove+0xa4>
   84dcc:	4603      	mov	r3, r0
   84dce:	e7f2      	b.n	84db6 <memmove+0xa6>
   84dd0:	bdf0      	pop	{r4, r5, r6, r7, pc}
   84dd2:	4672      	mov	r2, lr
   84dd4:	e7ee      	b.n	84db4 <memmove+0xa4>
   84dd6:	bf00      	nop

00084dd8 <__malloc_lock>:
   84dd8:	4801      	ldr	r0, [pc, #4]	; (84de0 <__malloc_lock+0x8>)
   84dda:	f7ff bc17 	b.w	8460c <__retarget_lock_acquire_recursive>
   84dde:	bf00      	nop
   84de0:	2007ad8c 	.word	0x2007ad8c

00084de4 <__malloc_unlock>:
   84de4:	4801      	ldr	r0, [pc, #4]	; (84dec <__malloc_unlock+0x8>)
   84de6:	f7ff bc13 	b.w	84610 <__retarget_lock_release_recursive>
   84dea:	bf00      	nop
   84dec:	2007ad8c 	.word	0x2007ad8c

00084df0 <_realloc_r>:
   84df0:	2900      	cmp	r1, #0
   84df2:	f000 8094 	beq.w	84f1e <_realloc_r+0x12e>
   84df6:	e92d 4ff0 	stmdb	sp!, {r4, r5, r6, r7, r8, r9, sl, fp, lr}
   84dfa:	460c      	mov	r4, r1
   84dfc:	4615      	mov	r5, r2
   84dfe:	b083      	sub	sp, #12
   84e00:	4680      	mov	r8, r0
   84e02:	f105 060b 	add.w	r6, r5, #11
   84e06:	f7ff ffe7 	bl	84dd8 <__malloc_lock>
   84e0a:	f854 ec04 	ldr.w	lr, [r4, #-4]
   84e0e:	2e16      	cmp	r6, #22
   84e10:	f02e 0703 	bic.w	r7, lr, #3
   84e14:	f1a4 0908 	sub.w	r9, r4, #8
   84e18:	d83c      	bhi.n	84e94 <_realloc_r+0xa4>
   84e1a:	2210      	movs	r2, #16
   84e1c:	4616      	mov	r6, r2
   84e1e:	42b5      	cmp	r5, r6
   84e20:	d83d      	bhi.n	84e9e <_realloc_r+0xae>
   84e22:	4297      	cmp	r7, r2
   84e24:	da43      	bge.n	84eae <_realloc_r+0xbe>
   84e26:	4bc6      	ldr	r3, [pc, #792]	; (85140 <_realloc_r+0x350>)
   84e28:	eb09 0007 	add.w	r0, r9, r7
   84e2c:	6899      	ldr	r1, [r3, #8]
   84e2e:	4288      	cmp	r0, r1
   84e30:	f000 80c3 	beq.w	84fba <_realloc_r+0x1ca>
   84e34:	6843      	ldr	r3, [r0, #4]
   84e36:	f023 0101 	bic.w	r1, r3, #1
   84e3a:	4401      	add	r1, r0
   84e3c:	6849      	ldr	r1, [r1, #4]
   84e3e:	07c9      	lsls	r1, r1, #31
   84e40:	d54d      	bpl.n	84ede <_realloc_r+0xee>
   84e42:	f01e 0f01 	tst.w	lr, #1
   84e46:	f000 809b 	beq.w	84f80 <_realloc_r+0x190>
   84e4a:	4629      	mov	r1, r5
   84e4c:	4640      	mov	r0, r8
   84e4e:	f7ff fc61 	bl	84714 <_malloc_r>
   84e52:	4605      	mov	r5, r0
   84e54:	2800      	cmp	r0, #0
   84e56:	d03b      	beq.n	84ed0 <_realloc_r+0xe0>
   84e58:	f854 3c04 	ldr.w	r3, [r4, #-4]
   84e5c:	f1a0 0208 	sub.w	r2, r0, #8
   84e60:	f023 0301 	bic.w	r3, r3, #1
   84e64:	444b      	add	r3, r9
   84e66:	429a      	cmp	r2, r3
   84e68:	f000 812b 	beq.w	850c2 <_realloc_r+0x2d2>
   84e6c:	1f3a      	subs	r2, r7, #4
   84e6e:	2a24      	cmp	r2, #36	; 0x24
   84e70:	f200 8118 	bhi.w	850a4 <_realloc_r+0x2b4>
   84e74:	2a13      	cmp	r2, #19
   84e76:	f200 80eb 	bhi.w	85050 <_realloc_r+0x260>
   84e7a:	4603      	mov	r3, r0
   84e7c:	4622      	mov	r2, r4
   84e7e:	6811      	ldr	r1, [r2, #0]
   84e80:	6019      	str	r1, [r3, #0]
   84e82:	6851      	ldr	r1, [r2, #4]
   84e84:	6059      	str	r1, [r3, #4]
   84e86:	6892      	ldr	r2, [r2, #8]
   84e88:	609a      	str	r2, [r3, #8]
   84e8a:	4621      	mov	r1, r4
   84e8c:	4640      	mov	r0, r8
   84e8e:	f7ff f923 	bl	840d8 <_free_r>
   84e92:	e01d      	b.n	84ed0 <_realloc_r+0xe0>
   84e94:	f026 0607 	bic.w	r6, r6, #7
   84e98:	2e00      	cmp	r6, #0
   84e9a:	4632      	mov	r2, r6
   84e9c:	dabf      	bge.n	84e1e <_realloc_r+0x2e>
   84e9e:	2500      	movs	r5, #0
   84ea0:	230c      	movs	r3, #12
   84ea2:	4628      	mov	r0, r5
   84ea4:	f8c8 3000 	str.w	r3, [r8]
   84ea8:	b003      	add	sp, #12
   84eaa:	e8bd 8ff0 	ldmia.w	sp!, {r4, r5, r6, r7, r8, r9, sl, fp, pc}
   84eae:	4625      	mov	r5, r4
   84eb0:	1bbb      	subs	r3, r7, r6
   84eb2:	2b0f      	cmp	r3, #15
   84eb4:	f8d9 2004 	ldr.w	r2, [r9, #4]
   84eb8:	d81d      	bhi.n	84ef6 <_realloc_r+0x106>
   84eba:	f002 0201 	and.w	r2, r2, #1
   84ebe:	433a      	orrs	r2, r7
   84ec0:	eb09 0107 	add.w	r1, r9, r7
   84ec4:	f8c9 2004 	str.w	r2, [r9, #4]
   84ec8:	684b      	ldr	r3, [r1, #4]
   84eca:	f043 0301 	orr.w	r3, r3, #1
   84ece:	604b      	str	r3, [r1, #4]
   84ed0:	4640      	mov	r0, r8
   84ed2:	f7ff ff87 	bl	84de4 <__malloc_unlock>
   84ed6:	4628      	mov	r0, r5
   84ed8:	b003      	add	sp, #12
   84eda:	e8bd 8ff0 	ldmia.w	sp!, {r4, r5, r6, r7, r8, r9, sl, fp, pc}
   84ede:	f023 0303 	bic.w	r3, r3, #3
   84ee2:	18f9      	adds	r1, r7, r3
   84ee4:	4291      	cmp	r1, r2
   84ee6:	db1d      	blt.n	84f24 <_realloc_r+0x134>
   84ee8:	68c3      	ldr	r3, [r0, #12]
   84eea:	6882      	ldr	r2, [r0, #8]
   84eec:	4625      	mov	r5, r4
   84eee:	60d3      	str	r3, [r2, #12]
   84ef0:	460f      	mov	r7, r1
   84ef2:	609a      	str	r2, [r3, #8]
   84ef4:	e7dc      	b.n	84eb0 <_realloc_r+0xc0>
   84ef6:	f002 0201 	and.w	r2, r2, #1
   84efa:	eb09 0106 	add.w	r1, r9, r6
   84efe:	f043 0301 	orr.w	r3, r3, #1
   84f02:	4332      	orrs	r2, r6
   84f04:	f8c9 2004 	str.w	r2, [r9, #4]
   84f08:	444f      	add	r7, r9
   84f0a:	604b      	str	r3, [r1, #4]
   84f0c:	687b      	ldr	r3, [r7, #4]
   84f0e:	3108      	adds	r1, #8
   84f10:	f043 0301 	orr.w	r3, r3, #1
   84f14:	607b      	str	r3, [r7, #4]
   84f16:	4640      	mov	r0, r8
   84f18:	f7ff f8de 	bl	840d8 <_free_r>
   84f1c:	e7d8      	b.n	84ed0 <_realloc_r+0xe0>
   84f1e:	4611      	mov	r1, r2
   84f20:	f7ff bbf8 	b.w	84714 <_malloc_r>
   84f24:	f01e 0f01 	tst.w	lr, #1
   84f28:	d18f      	bne.n	84e4a <_realloc_r+0x5a>
   84f2a:	f854 1c08 	ldr.w	r1, [r4, #-8]
   84f2e:	eba9 0a01 	sub.w	sl, r9, r1
   84f32:	f8da 1004 	ldr.w	r1, [sl, #4]
   84f36:	f021 0103 	bic.w	r1, r1, #3
   84f3a:	440b      	add	r3, r1
   84f3c:	443b      	add	r3, r7
   84f3e:	4293      	cmp	r3, r2
   84f40:	db26      	blt.n	84f90 <_realloc_r+0x1a0>
   84f42:	4655      	mov	r5, sl
   84f44:	68c1      	ldr	r1, [r0, #12]
   84f46:	6880      	ldr	r0, [r0, #8]
   84f48:	1f3a      	subs	r2, r7, #4
   84f4a:	60c1      	str	r1, [r0, #12]
   84f4c:	6088      	str	r0, [r1, #8]
   84f4e:	f855 0f08 	ldr.w	r0, [r5, #8]!
   84f52:	f8da 100c 	ldr.w	r1, [sl, #12]
   84f56:	2a24      	cmp	r2, #36	; 0x24
   84f58:	60c1      	str	r1, [r0, #12]
   84f5a:	6088      	str	r0, [r1, #8]
   84f5c:	d826      	bhi.n	84fac <_realloc_r+0x1bc>
   84f5e:	2a13      	cmp	r2, #19
   84f60:	f240 8081 	bls.w	85066 <_realloc_r+0x276>
   84f64:	6821      	ldr	r1, [r4, #0]
   84f66:	2a1b      	cmp	r2, #27
   84f68:	f8ca 1008 	str.w	r1, [sl, #8]
   84f6c:	6861      	ldr	r1, [r4, #4]
   84f6e:	f8ca 100c 	str.w	r1, [sl, #12]
   84f72:	f200 80ad 	bhi.w	850d0 <_realloc_r+0x2e0>
   84f76:	f104 0008 	add.w	r0, r4, #8
   84f7a:	f10a 0210 	add.w	r2, sl, #16
   84f7e:	e074      	b.n	8506a <_realloc_r+0x27a>
   84f80:	f854 3c08 	ldr.w	r3, [r4, #-8]
   84f84:	eba9 0a03 	sub.w	sl, r9, r3
   84f88:	f8da 1004 	ldr.w	r1, [sl, #4]
   84f8c:	f021 0103 	bic.w	r1, r1, #3
   84f90:	187b      	adds	r3, r7, r1
   84f92:	4293      	cmp	r3, r2
   84f94:	f6ff af59 	blt.w	84e4a <_realloc_r+0x5a>
   84f98:	4655      	mov	r5, sl
   84f9a:	f8da 100c 	ldr.w	r1, [sl, #12]
   84f9e:	f855 0f08 	ldr.w	r0, [r5, #8]!
   84fa2:	1f3a      	subs	r2, r7, #4
   84fa4:	2a24      	cmp	r2, #36	; 0x24
   84fa6:	60c1      	str	r1, [r0, #12]
   84fa8:	6088      	str	r0, [r1, #8]
   84faa:	d9d8      	bls.n	84f5e <_realloc_r+0x16e>
   84fac:	4621      	mov	r1, r4
   84fae:	4628      	mov	r0, r5
   84fb0:	461f      	mov	r7, r3
   84fb2:	46d1      	mov	r9, sl
   84fb4:	f7ff feac 	bl	84d10 <memmove>
   84fb8:	e77a      	b.n	84eb0 <_realloc_r+0xc0>
   84fba:	6841      	ldr	r1, [r0, #4]
   84fbc:	f106 0010 	add.w	r0, r6, #16
   84fc0:	f021 0b03 	bic.w	fp, r1, #3
   84fc4:	44bb      	add	fp, r7
   84fc6:	4583      	cmp	fp, r0
   84fc8:	da58      	bge.n	8507c <_realloc_r+0x28c>
   84fca:	f01e 0f01 	tst.w	lr, #1
   84fce:	f47f af3c 	bne.w	84e4a <_realloc_r+0x5a>
   84fd2:	f854 1c08 	ldr.w	r1, [r4, #-8]
   84fd6:	eba9 0a01 	sub.w	sl, r9, r1
   84fda:	f8da 1004 	ldr.w	r1, [sl, #4]
   84fde:	f021 0103 	bic.w	r1, r1, #3
   84fe2:	448b      	add	fp, r1
   84fe4:	4558      	cmp	r0, fp
   84fe6:	dcd3      	bgt.n	84f90 <_realloc_r+0x1a0>
   84fe8:	4655      	mov	r5, sl
   84fea:	f8da 100c 	ldr.w	r1, [sl, #12]
   84fee:	f855 0f08 	ldr.w	r0, [r5, #8]!
   84ff2:	1f3a      	subs	r2, r7, #4
   84ff4:	2a24      	cmp	r2, #36	; 0x24
   84ff6:	60c1      	str	r1, [r0, #12]
   84ff8:	6088      	str	r0, [r1, #8]
   84ffa:	f200 808d 	bhi.w	85118 <_realloc_r+0x328>
   84ffe:	2a13      	cmp	r2, #19
   85000:	f240 8087 	bls.w	85112 <_realloc_r+0x322>
   85004:	6821      	ldr	r1, [r4, #0]
   85006:	2a1b      	cmp	r2, #27
   85008:	f8ca 1008 	str.w	r1, [sl, #8]
   8500c:	6861      	ldr	r1, [r4, #4]
   8500e:	f8ca 100c 	str.w	r1, [sl, #12]
   85012:	f200 8088 	bhi.w	85126 <_realloc_r+0x336>
   85016:	f104 0108 	add.w	r1, r4, #8
   8501a:	f10a 0210 	add.w	r2, sl, #16
   8501e:	6808      	ldr	r0, [r1, #0]
   85020:	6010      	str	r0, [r2, #0]
   85022:	6848      	ldr	r0, [r1, #4]
   85024:	6050      	str	r0, [r2, #4]
   85026:	6889      	ldr	r1, [r1, #8]
   85028:	6091      	str	r1, [r2, #8]
   8502a:	ebab 0206 	sub.w	r2, fp, r6
   8502e:	eb0a 0106 	add.w	r1, sl, r6
   85032:	f042 0201 	orr.w	r2, r2, #1
   85036:	6099      	str	r1, [r3, #8]
   85038:	604a      	str	r2, [r1, #4]
   8503a:	f8da 3004 	ldr.w	r3, [sl, #4]
   8503e:	4640      	mov	r0, r8
   85040:	f003 0301 	and.w	r3, r3, #1
   85044:	431e      	orrs	r6, r3
   85046:	f8ca 6004 	str.w	r6, [sl, #4]
   8504a:	f7ff fecb 	bl	84de4 <__malloc_unlock>
   8504e:	e742      	b.n	84ed6 <_realloc_r+0xe6>
   85050:	6823      	ldr	r3, [r4, #0]
   85052:	2a1b      	cmp	r2, #27
   85054:	6003      	str	r3, [r0, #0]
   85056:	6863      	ldr	r3, [r4, #4]
   85058:	6043      	str	r3, [r0, #4]
   8505a:	d827      	bhi.n	850ac <_realloc_r+0x2bc>
   8505c:	f100 0308 	add.w	r3, r0, #8
   85060:	f104 0208 	add.w	r2, r4, #8
   85064:	e70b      	b.n	84e7e <_realloc_r+0x8e>
   85066:	4620      	mov	r0, r4
   85068:	462a      	mov	r2, r5
   8506a:	6801      	ldr	r1, [r0, #0]
   8506c:	461f      	mov	r7, r3
   8506e:	6011      	str	r1, [r2, #0]
   85070:	6841      	ldr	r1, [r0, #4]
   85072:	46d1      	mov	r9, sl
   85074:	6051      	str	r1, [r2, #4]
   85076:	6883      	ldr	r3, [r0, #8]
   85078:	6093      	str	r3, [r2, #8]
   8507a:	e719      	b.n	84eb0 <_realloc_r+0xc0>
   8507c:	ebab 0b06 	sub.w	fp, fp, r6
   85080:	eb09 0106 	add.w	r1, r9, r6
   85084:	f04b 0201 	orr.w	r2, fp, #1
   85088:	6099      	str	r1, [r3, #8]
   8508a:	604a      	str	r2, [r1, #4]
   8508c:	f854 3c04 	ldr.w	r3, [r4, #-4]
   85090:	4640      	mov	r0, r8
   85092:	f003 0301 	and.w	r3, r3, #1
   85096:	431e      	orrs	r6, r3
   85098:	f844 6c04 	str.w	r6, [r4, #-4]
   8509c:	f7ff fea2 	bl	84de4 <__malloc_unlock>
   850a0:	4625      	mov	r5, r4
   850a2:	e718      	b.n	84ed6 <_realloc_r+0xe6>
   850a4:	4621      	mov	r1, r4
   850a6:	f7ff fe33 	bl	84d10 <memmove>
   850aa:	e6ee      	b.n	84e8a <_realloc_r+0x9a>
   850ac:	68a3      	ldr	r3, [r4, #8]
   850ae:	2a24      	cmp	r2, #36	; 0x24
   850b0:	6083      	str	r3, [r0, #8]
   850b2:	68e3      	ldr	r3, [r4, #12]
   850b4:	60c3      	str	r3, [r0, #12]
   850b6:	d018      	beq.n	850ea <_realloc_r+0x2fa>
   850b8:	f100 0310 	add.w	r3, r0, #16
   850bc:	f104 0210 	add.w	r2, r4, #16
   850c0:	e6dd      	b.n	84e7e <_realloc_r+0x8e>
   850c2:	f850 3c04 	ldr.w	r3, [r0, #-4]
   850c6:	4625      	mov	r5, r4
   850c8:	f023 0303 	bic.w	r3, r3, #3
   850cc:	441f      	add	r7, r3
   850ce:	e6ef      	b.n	84eb0 <_realloc_r+0xc0>
   850d0:	68a1      	ldr	r1, [r4, #8]
   850d2:	2a24      	cmp	r2, #36	; 0x24
   850d4:	f8ca 1010 	str.w	r1, [sl, #16]
   850d8:	68e1      	ldr	r1, [r4, #12]
   850da:	f8ca 1014 	str.w	r1, [sl, #20]
   850de:	d00d      	beq.n	850fc <_realloc_r+0x30c>
   850e0:	f104 0010 	add.w	r0, r4, #16
   850e4:	f10a 0218 	add.w	r2, sl, #24
   850e8:	e7bf      	b.n	8506a <_realloc_r+0x27a>
   850ea:	6922      	ldr	r2, [r4, #16]
   850ec:	f100 0318 	add.w	r3, r0, #24
   850f0:	6102      	str	r2, [r0, #16]
   850f2:	6961      	ldr	r1, [r4, #20]
   850f4:	f104 0218 	add.w	r2, r4, #24
   850f8:	6141      	str	r1, [r0, #20]
   850fa:	e6c0      	b.n	84e7e <_realloc_r+0x8e>
   850fc:	6922      	ldr	r2, [r4, #16]
   850fe:	f104 0018 	add.w	r0, r4, #24
   85102:	f8ca 2018 	str.w	r2, [sl, #24]
   85106:	6961      	ldr	r1, [r4, #20]
   85108:	f10a 0220 	add.w	r2, sl, #32
   8510c:	f8ca 101c 	str.w	r1, [sl, #28]
   85110:	e7ab      	b.n	8506a <_realloc_r+0x27a>
   85112:	4621      	mov	r1, r4
   85114:	462a      	mov	r2, r5
   85116:	e782      	b.n	8501e <_realloc_r+0x22e>
   85118:	4621      	mov	r1, r4
   8511a:	4628      	mov	r0, r5
   8511c:	9301      	str	r3, [sp, #4]
   8511e:	f7ff fdf7 	bl	84d10 <memmove>
   85122:	9b01      	ldr	r3, [sp, #4]
   85124:	e781      	b.n	8502a <_realloc_r+0x23a>
   85126:	68a1      	ldr	r1, [r4, #8]
   85128:	2a24      	cmp	r2, #36	; 0x24
   8512a:	f8ca 1010 	str.w	r1, [sl, #16]
   8512e:	68e1      	ldr	r1, [r4, #12]
   85130:	f8ca 1014 	str.w	r1, [sl, #20]
   85134:	d006      	beq.n	85144 <_realloc_r+0x354>
   85136:	f104 0110 	add.w	r1, r4, #16
   8513a:	f10a 0218 	add.w	r2, sl, #24
   8513e:	e76e      	b.n	8501e <_realloc_r+0x22e>
   85140:	200706d8 	.word	0x200706d8
   85144:	6922      	ldr	r2, [r4, #16]
   85146:	f104 0118 	add.w	r1, r4, #24
   8514a:	f8ca 2018 	str.w	r2, [sl, #24]
   8514e:	6960      	ldr	r0, [r4, #20]
   85150:	f10a 0220 	add.w	r2, sl, #32
   85154:	f8ca 001c 	str.w	r0, [sl, #28]
   85158:	e761      	b.n	8501e <_realloc_r+0x22e>
   8515a:	bf00      	nop

0008515c <_sbrk_r>:
   8515c:	b538      	push	{r3, r4, r5, lr}
   8515e:	2300      	movs	r3, #0
   85160:	4c06      	ldr	r4, [pc, #24]	; (8517c <_sbrk_r+0x20>)
   85162:	4605      	mov	r5, r0
   85164:	4608      	mov	r0, r1
   85166:	6023      	str	r3, [r4, #0]
   85168:	f7fd fbf4 	bl	82954 <_sbrk>
   8516c:	1c43      	adds	r3, r0, #1
   8516e:	d000      	beq.n	85172 <_sbrk_r+0x16>
   85170:	bd38      	pop	{r3, r4, r5, pc}
   85172:	6823      	ldr	r3, [r4, #0]
   85174:	2b00      	cmp	r3, #0
   85176:	d0fb      	beq.n	85170 <_sbrk_r+0x14>
   85178:	602b      	str	r3, [r5, #0]
   8517a:	bd38      	pop	{r3, r4, r5, pc}
   8517c:	2007ada0 	.word	0x2007ada0

00085180 <__sread>:
   85180:	b510      	push	{r4, lr}
   85182:	460c      	mov	r4, r1
   85184:	f9b1 100e 	ldrsh.w	r1, [r1, #14]
   85188:	f000 f9f4 	bl	85574 <_read_r>
   8518c:	2800      	cmp	r0, #0
   8518e:	db03      	blt.n	85198 <__sread+0x18>
   85190:	6d23      	ldr	r3, [r4, #80]	; 0x50
   85192:	4403      	add	r3, r0
   85194:	6523      	str	r3, [r4, #80]	; 0x50
   85196:	bd10      	pop	{r4, pc}
   85198:	89a3      	ldrh	r3, [r4, #12]
   8519a:	f423 5380 	bic.w	r3, r3, #4096	; 0x1000
   8519e:	81a3      	strh	r3, [r4, #12]
   851a0:	bd10      	pop	{r4, pc}
   851a2:	bf00      	nop

000851a4 <__swrite>:
   851a4:	e92d 41f0 	stmdb	sp!, {r4, r5, r6, r7, r8, lr}
   851a8:	460c      	mov	r4, r1
   851aa:	f9b1 100c 	ldrsh.w	r1, [r1, #12]
   851ae:	461f      	mov	r7, r3
   851b0:	05cb      	lsls	r3, r1, #23
   851b2:	4616      	mov	r6, r2
   851b4:	4605      	mov	r5, r0
   851b6:	d507      	bpl.n	851c8 <__swrite+0x24>
   851b8:	f9b4 100e 	ldrsh.w	r1, [r4, #14]
   851bc:	2302      	movs	r3, #2
   851be:	2200      	movs	r2, #0
   851c0:	f000 f9c2 	bl	85548 <_lseek_r>
   851c4:	f9b4 100c 	ldrsh.w	r1, [r4, #12]
   851c8:	f421 5180 	bic.w	r1, r1, #4096	; 0x1000
   851cc:	81a1      	strh	r1, [r4, #12]
   851ce:	463b      	mov	r3, r7
   851d0:	4632      	mov	r2, r6
   851d2:	f9b4 100e 	ldrsh.w	r1, [r4, #14]
   851d6:	4628      	mov	r0, r5
   851d8:	e8bd 41f0 	ldmia.w	sp!, {r4, r5, r6, r7, r8, lr}
   851dc:	f000 b8a2 	b.w	85324 <_write_r>

000851e0 <__sseek>:
   851e0:	b510      	push	{r4, lr}
   851e2:	460c      	mov	r4, r1
   851e4:	f9b1 100e 	ldrsh.w	r1, [r1, #14]
   851e8:	f000 f9ae 	bl	85548 <_lseek_r>
   851ec:	89a3      	ldrh	r3, [r4, #12]
   851ee:	1c42      	adds	r2, r0, #1
   851f0:	bf0e      	itee	eq
   851f2:	f423 5380 	biceq.w	r3, r3, #4096	; 0x1000
   851f6:	f443 5380 	orrne.w	r3, r3, #4096	; 0x1000
   851fa:	6520      	strne	r0, [r4, #80]	; 0x50
   851fc:	81a3      	strh	r3, [r4, #12]
   851fe:	bd10      	pop	{r4, pc}

00085200 <__sclose>:
   85200:	f9b1 100e 	ldrsh.w	r1, [r1, #14]
   85204:	f000 b906 	b.w	85414 <_close_r>

00085208 <__swbuf_r>:
   85208:	b5f8      	push	{r3, r4, r5, r6, r7, lr}
   8520a:	460d      	mov	r5, r1
   8520c:	4614      	mov	r4, r2
   8520e:	4606      	mov	r6, r0
   85210:	b110      	cbz	r0, 85218 <__swbuf_r+0x10>
   85212:	6b83      	ldr	r3, [r0, #56]	; 0x38
   85214:	2b00      	cmp	r3, #0
   85216:	d04b      	beq.n	852b0 <__swbuf_r+0xa8>
   85218:	f9b4 200c 	ldrsh.w	r2, [r4, #12]
   8521c:	69a3      	ldr	r3, [r4, #24]
   8521e:	b291      	uxth	r1, r2
   85220:	0708      	lsls	r0, r1, #28
   85222:	60a3      	str	r3, [r4, #8]
   85224:	d539      	bpl.n	8529a <__swbuf_r+0x92>
   85226:	6923      	ldr	r3, [r4, #16]
   85228:	2b00      	cmp	r3, #0
   8522a:	d036      	beq.n	8529a <__swbuf_r+0x92>
   8522c:	b2ed      	uxtb	r5, r5
   8522e:	0489      	lsls	r1, r1, #18
   85230:	462f      	mov	r7, r5
   85232:	d515      	bpl.n	85260 <__swbuf_r+0x58>
   85234:	6822      	ldr	r2, [r4, #0]
   85236:	6961      	ldr	r1, [r4, #20]
   85238:	1ad3      	subs	r3, r2, r3
   8523a:	428b      	cmp	r3, r1
   8523c:	da1c      	bge.n	85278 <__swbuf_r+0x70>
   8523e:	3301      	adds	r3, #1
   85240:	68a1      	ldr	r1, [r4, #8]
   85242:	1c50      	adds	r0, r2, #1
   85244:	3901      	subs	r1, #1
   85246:	60a1      	str	r1, [r4, #8]
   85248:	6020      	str	r0, [r4, #0]
   8524a:	7015      	strb	r5, [r2, #0]
   8524c:	6962      	ldr	r2, [r4, #20]
   8524e:	429a      	cmp	r2, r3
   85250:	d01a      	beq.n	85288 <__swbuf_r+0x80>
   85252:	89a3      	ldrh	r3, [r4, #12]
   85254:	07db      	lsls	r3, r3, #31
   85256:	d501      	bpl.n	8525c <__swbuf_r+0x54>
   85258:	2d0a      	cmp	r5, #10
   8525a:	d015      	beq.n	85288 <__swbuf_r+0x80>
   8525c:	4638      	mov	r0, r7
   8525e:	bdf8      	pop	{r3, r4, r5, r6, r7, pc}
   85260:	6e61      	ldr	r1, [r4, #100]	; 0x64
   85262:	f442 5200 	orr.w	r2, r2, #8192	; 0x2000
   85266:	f421 5100 	bic.w	r1, r1, #8192	; 0x2000
   8526a:	81a2      	strh	r2, [r4, #12]
   8526c:	6822      	ldr	r2, [r4, #0]
   8526e:	6661      	str	r1, [r4, #100]	; 0x64
   85270:	6961      	ldr	r1, [r4, #20]
   85272:	1ad3      	subs	r3, r2, r3
   85274:	428b      	cmp	r3, r1
   85276:	dbe2      	blt.n	8523e <__swbuf_r+0x36>
   85278:	4621      	mov	r1, r4
   8527a:	4630      	mov	r0, r6
   8527c:	f7fe fdae 	bl	83ddc <_fflush_r>
   85280:	b940      	cbnz	r0, 85294 <__swbuf_r+0x8c>
   85282:	2301      	movs	r3, #1
   85284:	6822      	ldr	r2, [r4, #0]
   85286:	e7db      	b.n	85240 <__swbuf_r+0x38>
   85288:	4621      	mov	r1, r4
   8528a:	4630      	mov	r0, r6
   8528c:	f7fe fda6 	bl	83ddc <_fflush_r>
   85290:	2800      	cmp	r0, #0
   85292:	d0e3      	beq.n	8525c <__swbuf_r+0x54>
   85294:	f04f 37ff 	mov.w	r7, #4294967295
   85298:	e7e0      	b.n	8525c <__swbuf_r+0x54>
   8529a:	4621      	mov	r1, r4
   8529c:	4630      	mov	r0, r6
   8529e:	f7fe fc8d 	bl	83bbc <__swsetup_r>
   852a2:	2800      	cmp	r0, #0
   852a4:	d1f6      	bne.n	85294 <__swbuf_r+0x8c>
   852a6:	f9b4 200c 	ldrsh.w	r2, [r4, #12]
   852aa:	6923      	ldr	r3, [r4, #16]
   852ac:	b291      	uxth	r1, r2
   852ae:	e7bd      	b.n	8522c <__swbuf_r+0x24>
   852b0:	f7fe fdec 	bl	83e8c <__sinit>
   852b4:	e7b0      	b.n	85218 <__swbuf_r+0x10>
   852b6:	bf00      	nop

000852b8 <_wcrtomb_r>:
   852b8:	b5f0      	push	{r4, r5, r6, r7, lr}
   852ba:	4606      	mov	r6, r0
   852bc:	b085      	sub	sp, #20
   852be:	461f      	mov	r7, r3
   852c0:	b189      	cbz	r1, 852e6 <_wcrtomb_r+0x2e>
   852c2:	4c10      	ldr	r4, [pc, #64]	; (85304 <_wcrtomb_r+0x4c>)
   852c4:	4d10      	ldr	r5, [pc, #64]	; (85308 <_wcrtomb_r+0x50>)
   852c6:	6824      	ldr	r4, [r4, #0]
   852c8:	6b64      	ldr	r4, [r4, #52]	; 0x34
   852ca:	2c00      	cmp	r4, #0
   852cc:	bf08      	it	eq
   852ce:	462c      	moveq	r4, r5
   852d0:	f8d4 40e0 	ldr.w	r4, [r4, #224]	; 0xe0
   852d4:	47a0      	blx	r4
   852d6:	1c43      	adds	r3, r0, #1
   852d8:	d103      	bne.n	852e2 <_wcrtomb_r+0x2a>
   852da:	2200      	movs	r2, #0
   852dc:	238a      	movs	r3, #138	; 0x8a
   852de:	603a      	str	r2, [r7, #0]
   852e0:	6033      	str	r3, [r6, #0]
   852e2:	b005      	add	sp, #20
   852e4:	bdf0      	pop	{r4, r5, r6, r7, pc}
   852e6:	460c      	mov	r4, r1
   852e8:	4a06      	ldr	r2, [pc, #24]	; (85304 <_wcrtomb_r+0x4c>)
   852ea:	4d07      	ldr	r5, [pc, #28]	; (85308 <_wcrtomb_r+0x50>)
   852ec:	6811      	ldr	r1, [r2, #0]
   852ee:	4622      	mov	r2, r4
   852f0:	6b4c      	ldr	r4, [r1, #52]	; 0x34
   852f2:	a901      	add	r1, sp, #4
   852f4:	2c00      	cmp	r4, #0
   852f6:	bf08      	it	eq
   852f8:	462c      	moveq	r4, r5
   852fa:	f8d4 40e0 	ldr.w	r4, [r4, #224]	; 0xe0
   852fe:	47a0      	blx	r4
   85300:	e7e9      	b.n	852d6 <_wcrtomb_r+0x1e>
   85302:	bf00      	nop
   85304:	2007013c 	.word	0x2007013c
   85308:	2007056c 	.word	0x2007056c

0008530c <__ascii_wctomb>:
   8530c:	b119      	cbz	r1, 85316 <__ascii_wctomb+0xa>
   8530e:	2aff      	cmp	r2, #255	; 0xff
   85310:	d803      	bhi.n	8531a <__ascii_wctomb+0xe>
   85312:	700a      	strb	r2, [r1, #0]
   85314:	2101      	movs	r1, #1
   85316:	4608      	mov	r0, r1
   85318:	4770      	bx	lr
   8531a:	238a      	movs	r3, #138	; 0x8a
   8531c:	f04f 31ff 	mov.w	r1, #4294967295
   85320:	6003      	str	r3, [r0, #0]
   85322:	e7f8      	b.n	85316 <__ascii_wctomb+0xa>

00085324 <_write_r>:
   85324:	b5f8      	push	{r3, r4, r5, r6, r7, lr}
   85326:	460e      	mov	r6, r1
   85328:	2500      	movs	r5, #0
   8532a:	4c08      	ldr	r4, [pc, #32]	; (8534c <_write_r+0x28>)
   8532c:	4611      	mov	r1, r2
   8532e:	4607      	mov	r7, r0
   85330:	461a      	mov	r2, r3
   85332:	4630      	mov	r0, r6
   85334:	6025      	str	r5, [r4, #0]
   85336:	f7fb fab7 	bl	808a8 <_write>
   8533a:	1c43      	adds	r3, r0, #1
   8533c:	d000      	beq.n	85340 <_write_r+0x1c>
   8533e:	bdf8      	pop	{r3, r4, r5, r6, r7, pc}
   85340:	6823      	ldr	r3, [r4, #0]
   85342:	2b00      	cmp	r3, #0
   85344:	d0fb      	beq.n	8533e <_write_r+0x1a>
   85346:	603b      	str	r3, [r7, #0]
   85348:	bdf8      	pop	{r3, r4, r5, r6, r7, pc}
   8534a:	bf00      	nop
   8534c:	2007ada0 	.word	0x2007ada0

00085350 <__register_exitproc>:
   85350:	e92d 43f8 	stmdb	sp!, {r3, r4, r5, r6, r7, r8, r9, lr}
   85354:	4d2c      	ldr	r5, [pc, #176]	; (85408 <__register_exitproc+0xb8>)
   85356:	4606      	mov	r6, r0
   85358:	6828      	ldr	r0, [r5, #0]
   8535a:	4698      	mov	r8, r3
   8535c:	460f      	mov	r7, r1
   8535e:	4691      	mov	r9, r2
   85360:	f7ff f954 	bl	8460c <__retarget_lock_acquire_recursive>
   85364:	4b29      	ldr	r3, [pc, #164]	; (8540c <__register_exitproc+0xbc>)
   85366:	681c      	ldr	r4, [r3, #0]
   85368:	f8d4 3148 	ldr.w	r3, [r4, #328]	; 0x148
   8536c:	2b00      	cmp	r3, #0
   8536e:	d03e      	beq.n	853ee <__register_exitproc+0x9e>
   85370:	685a      	ldr	r2, [r3, #4]
   85372:	2a1f      	cmp	r2, #31
   85374:	dc1c      	bgt.n	853b0 <__register_exitproc+0x60>
   85376:	f102 0e01 	add.w	lr, r2, #1
   8537a:	b176      	cbz	r6, 8539a <__register_exitproc+0x4a>
   8537c:	2101      	movs	r1, #1
   8537e:	eb03 0482 	add.w	r4, r3, r2, lsl #2
   85382:	f8c4 9088 	str.w	r9, [r4, #136]	; 0x88
   85386:	f8d3 0188 	ldr.w	r0, [r3, #392]	; 0x188
   8538a:	4091      	lsls	r1, r2
   8538c:	4308      	orrs	r0, r1
   8538e:	2e02      	cmp	r6, #2
   85390:	f8c3 0188 	str.w	r0, [r3, #392]	; 0x188
   85394:	f8c4 8108 	str.w	r8, [r4, #264]	; 0x108
   85398:	d023      	beq.n	853e2 <__register_exitproc+0x92>
   8539a:	3202      	adds	r2, #2
   8539c:	f8c3 e004 	str.w	lr, [r3, #4]
   853a0:	6828      	ldr	r0, [r5, #0]
   853a2:	f843 7022 	str.w	r7, [r3, r2, lsl #2]
   853a6:	f7ff f933 	bl	84610 <__retarget_lock_release_recursive>
   853aa:	2000      	movs	r0, #0
   853ac:	e8bd 83f8 	ldmia.w	sp!, {r3, r4, r5, r6, r7, r8, r9, pc}
   853b0:	4b17      	ldr	r3, [pc, #92]	; (85410 <__register_exitproc+0xc0>)
   853b2:	b30b      	cbz	r3, 853f8 <__register_exitproc+0xa8>
   853b4:	f44f 70c8 	mov.w	r0, #400	; 0x190
   853b8:	f7ff f9a4 	bl	84704 <malloc>
   853bc:	4603      	mov	r3, r0
   853be:	b1d8      	cbz	r0, 853f8 <__register_exitproc+0xa8>
   853c0:	2000      	movs	r0, #0
   853c2:	f8d4 1148 	ldr.w	r1, [r4, #328]	; 0x148
   853c6:	f04f 0e01 	mov.w	lr, #1
   853ca:	6058      	str	r0, [r3, #4]
   853cc:	6019      	str	r1, [r3, #0]
   853ce:	4602      	mov	r2, r0
   853d0:	f8c4 3148 	str.w	r3, [r4, #328]	; 0x148
   853d4:	f8c3 0188 	str.w	r0, [r3, #392]	; 0x188
   853d8:	f8c3 018c 	str.w	r0, [r3, #396]	; 0x18c
   853dc:	2e00      	cmp	r6, #0
   853de:	d0dc      	beq.n	8539a <__register_exitproc+0x4a>
   853e0:	e7cc      	b.n	8537c <__register_exitproc+0x2c>
   853e2:	f8d3 018c 	ldr.w	r0, [r3, #396]	; 0x18c
   853e6:	4301      	orrs	r1, r0
   853e8:	f8c3 118c 	str.w	r1, [r3, #396]	; 0x18c
   853ec:	e7d5      	b.n	8539a <__register_exitproc+0x4a>
   853ee:	f504 73a6 	add.w	r3, r4, #332	; 0x14c
   853f2:	f8c4 3148 	str.w	r3, [r4, #328]	; 0x148
   853f6:	e7bb      	b.n	85370 <__register_exitproc+0x20>
   853f8:	6828      	ldr	r0, [r5, #0]
   853fa:	f7ff f909 	bl	84610 <__retarget_lock_release_recursive>
   853fe:	f04f 30ff 	mov.w	r0, #4294967295
   85402:	e8bd 83f8 	ldmia.w	sp!, {r3, r4, r5, r6, r7, r8, r9, pc}
   85406:	bf00      	nop
   85408:	20070568 	.word	0x20070568
   8540c:	00085b20 	.word	0x00085b20
   85410:	00084705 	.word	0x00084705

00085414 <_close_r>:
   85414:	b538      	push	{r3, r4, r5, lr}
   85416:	2300      	movs	r3, #0
   85418:	4c06      	ldr	r4, [pc, #24]	; (85434 <_close_r+0x20>)
   8541a:	4605      	mov	r5, r0
   8541c:	4608      	mov	r0, r1
   8541e:	6023      	str	r3, [r4, #0]
   85420:	f7fd fab4 	bl	8298c <_close>
   85424:	1c43      	adds	r3, r0, #1
   85426:	d000      	beq.n	8542a <_close_r+0x16>
   85428:	bd38      	pop	{r3, r4, r5, pc}
   8542a:	6823      	ldr	r3, [r4, #0]
   8542c:	2b00      	cmp	r3, #0
   8542e:	d0fb      	beq.n	85428 <_close_r+0x14>
   85430:	602b      	str	r3, [r5, #0]
   85432:	bd38      	pop	{r3, r4, r5, pc}
   85434:	2007ada0 	.word	0x2007ada0

00085438 <_fclose_r>:
   85438:	b570      	push	{r4, r5, r6, lr}
   8543a:	b159      	cbz	r1, 85454 <_fclose_r+0x1c>
   8543c:	4605      	mov	r5, r0
   8543e:	460c      	mov	r4, r1
   85440:	b110      	cbz	r0, 85448 <_fclose_r+0x10>
   85442:	6b83      	ldr	r3, [r0, #56]	; 0x38
   85444:	2b00      	cmp	r3, #0
   85446:	d03c      	beq.n	854c2 <_fclose_r+0x8a>
   85448:	6e63      	ldr	r3, [r4, #100]	; 0x64
   8544a:	07d8      	lsls	r0, r3, #31
   8544c:	d505      	bpl.n	8545a <_fclose_r+0x22>
   8544e:	f9b4 300c 	ldrsh.w	r3, [r4, #12]
   85452:	b92b      	cbnz	r3, 85460 <_fclose_r+0x28>
   85454:	2600      	movs	r6, #0
   85456:	4630      	mov	r0, r6
   85458:	bd70      	pop	{r4, r5, r6, pc}
   8545a:	89a3      	ldrh	r3, [r4, #12]
   8545c:	0599      	lsls	r1, r3, #22
   8545e:	d53c      	bpl.n	854da <_fclose_r+0xa2>
   85460:	4621      	mov	r1, r4
   85462:	4628      	mov	r0, r5
   85464:	f7fe fc1e 	bl	83ca4 <__sflush_r>
   85468:	6ae3      	ldr	r3, [r4, #44]	; 0x2c
   8546a:	4606      	mov	r6, r0
   8546c:	b133      	cbz	r3, 8547c <_fclose_r+0x44>
   8546e:	69e1      	ldr	r1, [r4, #28]
   85470:	4628      	mov	r0, r5
   85472:	4798      	blx	r3
   85474:	2800      	cmp	r0, #0
   85476:	bfb8      	it	lt
   85478:	f04f 36ff 	movlt.w	r6, #4294967295
   8547c:	89a3      	ldrh	r3, [r4, #12]
   8547e:	061a      	lsls	r2, r3, #24
   85480:	d422      	bmi.n	854c8 <_fclose_r+0x90>
   85482:	6b21      	ldr	r1, [r4, #48]	; 0x30
   85484:	b141      	cbz	r1, 85498 <_fclose_r+0x60>
   85486:	f104 0340 	add.w	r3, r4, #64	; 0x40
   8548a:	4299      	cmp	r1, r3
   8548c:	d002      	beq.n	85494 <_fclose_r+0x5c>
   8548e:	4628      	mov	r0, r5
   85490:	f7fe fe22 	bl	840d8 <_free_r>
   85494:	2300      	movs	r3, #0
   85496:	6323      	str	r3, [r4, #48]	; 0x30
   85498:	6c61      	ldr	r1, [r4, #68]	; 0x44
   8549a:	b121      	cbz	r1, 854a6 <_fclose_r+0x6e>
   8549c:	4628      	mov	r0, r5
   8549e:	f7fe fe1b 	bl	840d8 <_free_r>
   854a2:	2300      	movs	r3, #0
   854a4:	6463      	str	r3, [r4, #68]	; 0x44
   854a6:	f7fe fd21 	bl	83eec <__sfp_lock_acquire>
   854aa:	2200      	movs	r2, #0
   854ac:	6e63      	ldr	r3, [r4, #100]	; 0x64
   854ae:	81a2      	strh	r2, [r4, #12]
   854b0:	07db      	lsls	r3, r3, #31
   854b2:	d50e      	bpl.n	854d2 <_fclose_r+0x9a>
   854b4:	6da0      	ldr	r0, [r4, #88]	; 0x58
   854b6:	f7ff f8a7 	bl	84608 <__retarget_lock_close_recursive>
   854ba:	f7fe fd1d 	bl	83ef8 <__sfp_lock_release>
   854be:	4630      	mov	r0, r6
   854c0:	bd70      	pop	{r4, r5, r6, pc}
   854c2:	f7fe fce3 	bl	83e8c <__sinit>
   854c6:	e7bf      	b.n	85448 <_fclose_r+0x10>
   854c8:	6921      	ldr	r1, [r4, #16]
   854ca:	4628      	mov	r0, r5
   854cc:	f7fe fe04 	bl	840d8 <_free_r>
   854d0:	e7d7      	b.n	85482 <_fclose_r+0x4a>
   854d2:	6da0      	ldr	r0, [r4, #88]	; 0x58
   854d4:	f7ff f89c 	bl	84610 <__retarget_lock_release_recursive>
   854d8:	e7ec      	b.n	854b4 <_fclose_r+0x7c>
   854da:	6da0      	ldr	r0, [r4, #88]	; 0x58
   854dc:	f7ff f896 	bl	8460c <__retarget_lock_acquire_recursive>
   854e0:	f9b4 300c 	ldrsh.w	r3, [r4, #12]
   854e4:	2b00      	cmp	r3, #0
   854e6:	d1bb      	bne.n	85460 <_fclose_r+0x28>
   854e8:	6e66      	ldr	r6, [r4, #100]	; 0x64
   854ea:	f016 0601 	ands.w	r6, r6, #1
   854ee:	d1b1      	bne.n	85454 <_fclose_r+0x1c>
   854f0:	6da0      	ldr	r0, [r4, #88]	; 0x58
   854f2:	f7ff f88d 	bl	84610 <__retarget_lock_release_recursive>
   854f6:	4630      	mov	r0, r6
   854f8:	bd70      	pop	{r4, r5, r6, pc}
   854fa:	bf00      	nop

000854fc <_fstat_r>:
   854fc:	b570      	push	{r4, r5, r6, lr}
   854fe:	460d      	mov	r5, r1
   85500:	2300      	movs	r3, #0
   85502:	4c07      	ldr	r4, [pc, #28]	; (85520 <_fstat_r+0x24>)
   85504:	4606      	mov	r6, r0
   85506:	4611      	mov	r1, r2
   85508:	4628      	mov	r0, r5
   8550a:	6023      	str	r3, [r4, #0]
   8550c:	f7fd fa41 	bl	82992 <_fstat>
   85510:	1c43      	adds	r3, r0, #1
   85512:	d000      	beq.n	85516 <_fstat_r+0x1a>
   85514:	bd70      	pop	{r4, r5, r6, pc}
   85516:	6823      	ldr	r3, [r4, #0]
   85518:	2b00      	cmp	r3, #0
   8551a:	d0fb      	beq.n	85514 <_fstat_r+0x18>
   8551c:	6033      	str	r3, [r6, #0]
   8551e:	bd70      	pop	{r4, r5, r6, pc}
   85520:	2007ada0 	.word	0x2007ada0

00085524 <_isatty_r>:
   85524:	b538      	push	{r3, r4, r5, lr}
   85526:	2300      	movs	r3, #0
   85528:	4c06      	ldr	r4, [pc, #24]	; (85544 <_isatty_r+0x20>)
   8552a:	4605      	mov	r5, r0
   8552c:	4608      	mov	r0, r1
   8552e:	6023      	str	r3, [r4, #0]
   85530:	f7fd fa34 	bl	8299c <_isatty>
   85534:	1c43      	adds	r3, r0, #1
   85536:	d000      	beq.n	8553a <_isatty_r+0x16>
   85538:	bd38      	pop	{r3, r4, r5, pc}
   8553a:	6823      	ldr	r3, [r4, #0]
   8553c:	2b00      	cmp	r3, #0
   8553e:	d0fb      	beq.n	85538 <_isatty_r+0x14>
   85540:	602b      	str	r3, [r5, #0]
   85542:	bd38      	pop	{r3, r4, r5, pc}
   85544:	2007ada0 	.word	0x2007ada0

00085548 <_lseek_r>:
   85548:	b5f8      	push	{r3, r4, r5, r6, r7, lr}
   8554a:	460e      	mov	r6, r1
   8554c:	2500      	movs	r5, #0
   8554e:	4c08      	ldr	r4, [pc, #32]	; (85570 <_lseek_r+0x28>)
   85550:	4611      	mov	r1, r2
   85552:	4607      	mov	r7, r0
   85554:	461a      	mov	r2, r3
   85556:	4630      	mov	r0, r6
   85558:	6025      	str	r5, [r4, #0]
   8555a:	f7fd fa21 	bl	829a0 <_lseek>
   8555e:	1c43      	adds	r3, r0, #1
   85560:	d000      	beq.n	85564 <_lseek_r+0x1c>
   85562:	bdf8      	pop	{r3, r4, r5, r6, r7, pc}
   85564:	6823      	ldr	r3, [r4, #0]
   85566:	2b00      	cmp	r3, #0
   85568:	d0fb      	beq.n	85562 <_lseek_r+0x1a>
   8556a:	603b      	str	r3, [r7, #0]
   8556c:	bdf8      	pop	{r3, r4, r5, r6, r7, pc}
   8556e:	bf00      	nop
   85570:	2007ada0 	.word	0x2007ada0

00085574 <_read_r>:
   85574:	b5f8      	push	{r3, r4, r5, r6, r7, lr}
   85576:	460e      	mov	r6, r1
   85578:	2500      	movs	r5, #0
   8557a:	4c08      	ldr	r4, [pc, #32]	; (8559c <_read_r+0x28>)
   8557c:	4611      	mov	r1, r2
   8557e:	4607      	mov	r7, r0
   85580:	461a      	mov	r2, r3
   85582:	4630      	mov	r0, r6
   85584:	6025      	str	r5, [r4, #0]
   85586:	f7fb f971 	bl	8086c <_read>
   8558a:	1c43      	adds	r3, r0, #1
   8558c:	d000      	beq.n	85590 <_read_r+0x1c>
   8558e:	bdf8      	pop	{r3, r4, r5, r6, r7, pc}
   85590:	6823      	ldr	r3, [r4, #0]
   85592:	2b00      	cmp	r3, #0
   85594:	d0fb      	beq.n	8558e <_read_r+0x1a>
   85596:	603b      	str	r3, [r7, #0]
   85598:	bdf8      	pop	{r3, r4, r5, r6, r7, pc}
   8559a:	bf00      	nop
   8559c:	2007ada0 	.word	0x2007ada0

000855a0 <__aeabi_uldivmod>:
   855a0:	b953      	cbnz	r3, 855b8 <__aeabi_uldivmod+0x18>
   855a2:	b94a      	cbnz	r2, 855b8 <__aeabi_uldivmod+0x18>
   855a4:	2900      	cmp	r1, #0
   855a6:	bf08      	it	eq
   855a8:	2800      	cmpeq	r0, #0
   855aa:	bf1c      	itt	ne
   855ac:	f04f 31ff 	movne.w	r1, #4294967295
   855b0:	f04f 30ff 	movne.w	r0, #4294967295
   855b4:	f000 b97a 	b.w	858ac <__aeabi_idiv0>
   855b8:	f1ad 0c08 	sub.w	ip, sp, #8
   855bc:	e96d ce04 	strd	ip, lr, [sp, #-16]!
   855c0:	f000 f806 	bl	855d0 <__udivmoddi4>
   855c4:	f8dd e004 	ldr.w	lr, [sp, #4]
   855c8:	e9dd 2302 	ldrd	r2, r3, [sp, #8]
   855cc:	b004      	add	sp, #16
   855ce:	4770      	bx	lr

000855d0 <__udivmoddi4>:
   855d0:	e92d 47f0 	stmdb	sp!, {r4, r5, r6, r7, r8, r9, sl, lr}
   855d4:	468c      	mov	ip, r1
   855d6:	460e      	mov	r6, r1
   855d8:	4604      	mov	r4, r0
   855da:	9d08      	ldr	r5, [sp, #32]
   855dc:	2b00      	cmp	r3, #0
   855de:	d150      	bne.n	85682 <__udivmoddi4+0xb2>
   855e0:	428a      	cmp	r2, r1
   855e2:	4617      	mov	r7, r2
   855e4:	d96c      	bls.n	856c0 <__udivmoddi4+0xf0>
   855e6:	fab2 fe82 	clz	lr, r2
   855ea:	f1be 0f00 	cmp.w	lr, #0
   855ee:	d00b      	beq.n	85608 <__udivmoddi4+0x38>
   855f0:	f1ce 0c20 	rsb	ip, lr, #32
   855f4:	fa01 f60e 	lsl.w	r6, r1, lr
   855f8:	fa20 fc0c 	lsr.w	ip, r0, ip
   855fc:	fa02 f70e 	lsl.w	r7, r2, lr
   85600:	ea4c 0c06 	orr.w	ip, ip, r6
   85604:	fa00 f40e 	lsl.w	r4, r0, lr
   85608:	0c3a      	lsrs	r2, r7, #16
   8560a:	fbbc f9f2 	udiv	r9, ip, r2
   8560e:	b2bb      	uxth	r3, r7
   85610:	fb02 cc19 	mls	ip, r2, r9, ip
   85614:	fb09 fa03 	mul.w	sl, r9, r3
   85618:	ea4f 4814 	mov.w	r8, r4, lsr #16
   8561c:	ea48 460c 	orr.w	r6, r8, ip, lsl #16
   85620:	45b2      	cmp	sl, r6
   85622:	d90a      	bls.n	8563a <__udivmoddi4+0x6a>
   85624:	19f6      	adds	r6, r6, r7
   85626:	f109 31ff 	add.w	r1, r9, #4294967295
   8562a:	f080 8125 	bcs.w	85878 <__udivmoddi4+0x2a8>
   8562e:	45b2      	cmp	sl, r6
   85630:	f240 8122 	bls.w	85878 <__udivmoddi4+0x2a8>
   85634:	f1a9 0902 	sub.w	r9, r9, #2
   85638:	443e      	add	r6, r7
   8563a:	eba6 060a 	sub.w	r6, r6, sl
   8563e:	fbb6 f0f2 	udiv	r0, r6, r2
   85642:	fb02 6610 	mls	r6, r2, r0, r6
   85646:	fb00 f303 	mul.w	r3, r0, r3
   8564a:	b2a4      	uxth	r4, r4
   8564c:	ea44 4406 	orr.w	r4, r4, r6, lsl #16
   85650:	42a3      	cmp	r3, r4
   85652:	d909      	bls.n	85668 <__udivmoddi4+0x98>
   85654:	19e4      	adds	r4, r4, r7
   85656:	f100 32ff 	add.w	r2, r0, #4294967295
   8565a:	f080 810b 	bcs.w	85874 <__udivmoddi4+0x2a4>
   8565e:	42a3      	cmp	r3, r4
   85660:	f240 8108 	bls.w	85874 <__udivmoddi4+0x2a4>
   85664:	3802      	subs	r0, #2
   85666:	443c      	add	r4, r7
   85668:	2100      	movs	r1, #0
   8566a:	1ae4      	subs	r4, r4, r3
   8566c:	ea40 4009 	orr.w	r0, r0, r9, lsl #16
   85670:	2d00      	cmp	r5, #0
   85672:	d062      	beq.n	8573a <__udivmoddi4+0x16a>
   85674:	2300      	movs	r3, #0
   85676:	fa24 f40e 	lsr.w	r4, r4, lr
   8567a:	602c      	str	r4, [r5, #0]
   8567c:	606b      	str	r3, [r5, #4]
   8567e:	e8bd 87f0 	ldmia.w	sp!, {r4, r5, r6, r7, r8, r9, sl, pc}
   85682:	428b      	cmp	r3, r1
   85684:	d907      	bls.n	85696 <__udivmoddi4+0xc6>
   85686:	2d00      	cmp	r5, #0
   85688:	d055      	beq.n	85736 <__udivmoddi4+0x166>
   8568a:	2100      	movs	r1, #0
   8568c:	e885 0041 	stmia.w	r5, {r0, r6}
   85690:	4608      	mov	r0, r1
   85692:	e8bd 87f0 	ldmia.w	sp!, {r4, r5, r6, r7, r8, r9, sl, pc}
   85696:	fab3 f183 	clz	r1, r3
   8569a:	2900      	cmp	r1, #0
   8569c:	f040 808f 	bne.w	857be <__udivmoddi4+0x1ee>
   856a0:	42b3      	cmp	r3, r6
   856a2:	d302      	bcc.n	856aa <__udivmoddi4+0xda>
   856a4:	4282      	cmp	r2, r0
   856a6:	f200 80fc 	bhi.w	858a2 <__udivmoddi4+0x2d2>
   856aa:	1a84      	subs	r4, r0, r2
   856ac:	eb66 0603 	sbc.w	r6, r6, r3
   856b0:	2001      	movs	r0, #1
   856b2:	46b4      	mov	ip, r6
   856b4:	2d00      	cmp	r5, #0
   856b6:	d040      	beq.n	8573a <__udivmoddi4+0x16a>
   856b8:	e885 1010 	stmia.w	r5, {r4, ip}
   856bc:	e8bd 87f0 	ldmia.w	sp!, {r4, r5, r6, r7, r8, r9, sl, pc}
   856c0:	b912      	cbnz	r2, 856c8 <__udivmoddi4+0xf8>
   856c2:	2701      	movs	r7, #1
   856c4:	fbb7 f7f2 	udiv	r7, r7, r2
   856c8:	fab7 fe87 	clz	lr, r7
   856cc:	f1be 0f00 	cmp.w	lr, #0
   856d0:	d135      	bne.n	8573e <__udivmoddi4+0x16e>
   856d2:	2101      	movs	r1, #1
   856d4:	1bf6      	subs	r6, r6, r7
   856d6:	ea4f 4c17 	mov.w	ip, r7, lsr #16
   856da:	fa1f f887 	uxth.w	r8, r7
   856de:	fbb6 f2fc 	udiv	r2, r6, ip
   856e2:	fb0c 6612 	mls	r6, ip, r2, r6
   856e6:	fb08 f002 	mul.w	r0, r8, r2
   856ea:	0c23      	lsrs	r3, r4, #16
   856ec:	ea43 4606 	orr.w	r6, r3, r6, lsl #16
   856f0:	42b0      	cmp	r0, r6
   856f2:	d907      	bls.n	85704 <__udivmoddi4+0x134>
   856f4:	19f6      	adds	r6, r6, r7
   856f6:	f102 33ff 	add.w	r3, r2, #4294967295
   856fa:	d202      	bcs.n	85702 <__udivmoddi4+0x132>
   856fc:	42b0      	cmp	r0, r6
   856fe:	f200 80d2 	bhi.w	858a6 <__udivmoddi4+0x2d6>
   85702:	461a      	mov	r2, r3
   85704:	1a36      	subs	r6, r6, r0
   85706:	fbb6 f0fc 	udiv	r0, r6, ip
   8570a:	fb0c 6610 	mls	r6, ip, r0, r6
   8570e:	fb08 f800 	mul.w	r8, r8, r0
   85712:	b2a3      	uxth	r3, r4
   85714:	ea43 4406 	orr.w	r4, r3, r6, lsl #16
   85718:	45a0      	cmp	r8, r4
   8571a:	d907      	bls.n	8572c <__udivmoddi4+0x15c>
   8571c:	19e4      	adds	r4, r4, r7
   8571e:	f100 33ff 	add.w	r3, r0, #4294967295
   85722:	d202      	bcs.n	8572a <__udivmoddi4+0x15a>
   85724:	45a0      	cmp	r8, r4
   85726:	f200 80b9 	bhi.w	8589c <__udivmoddi4+0x2cc>
   8572a:	4618      	mov	r0, r3
   8572c:	eba4 0408 	sub.w	r4, r4, r8
   85730:	ea40 4002 	orr.w	r0, r0, r2, lsl #16
   85734:	e79c      	b.n	85670 <__udivmoddi4+0xa0>
   85736:	4629      	mov	r1, r5
   85738:	4628      	mov	r0, r5
   8573a:	e8bd 87f0 	ldmia.w	sp!, {r4, r5, r6, r7, r8, r9, sl, pc}
   8573e:	fa07 f70e 	lsl.w	r7, r7, lr
   85742:	f1ce 0320 	rsb	r3, lr, #32
   85746:	fa26 f203 	lsr.w	r2, r6, r3
   8574a:	ea4f 4c17 	mov.w	ip, r7, lsr #16
   8574e:	fbb2 f1fc 	udiv	r1, r2, ip
   85752:	fa1f f887 	uxth.w	r8, r7
   85756:	fb0c 2211 	mls	r2, ip, r1, r2
   8575a:	fa06 f60e 	lsl.w	r6, r6, lr
   8575e:	fa20 f303 	lsr.w	r3, r0, r3
   85762:	fb01 f908 	mul.w	r9, r1, r8
   85766:	4333      	orrs	r3, r6
   85768:	0c1e      	lsrs	r6, r3, #16
   8576a:	ea46 4602 	orr.w	r6, r6, r2, lsl #16
   8576e:	45b1      	cmp	r9, r6
   85770:	fa00 f40e 	lsl.w	r4, r0, lr
   85774:	d909      	bls.n	8578a <__udivmoddi4+0x1ba>
   85776:	19f6      	adds	r6, r6, r7
   85778:	f101 32ff 	add.w	r2, r1, #4294967295
   8577c:	f080 808c 	bcs.w	85898 <__udivmoddi4+0x2c8>
   85780:	45b1      	cmp	r9, r6
   85782:	f240 8089 	bls.w	85898 <__udivmoddi4+0x2c8>
   85786:	3902      	subs	r1, #2
   85788:	443e      	add	r6, r7
   8578a:	eba6 0609 	sub.w	r6, r6, r9
   8578e:	fbb6 f0fc 	udiv	r0, r6, ip
   85792:	fb0c 6210 	mls	r2, ip, r0, r6
   85796:	fb00 f908 	mul.w	r9, r0, r8
   8579a:	b29e      	uxth	r6, r3
   8579c:	ea46 4602 	orr.w	r6, r6, r2, lsl #16
   857a0:	45b1      	cmp	r9, r6
   857a2:	d907      	bls.n	857b4 <__udivmoddi4+0x1e4>
   857a4:	19f6      	adds	r6, r6, r7
   857a6:	f100 33ff 	add.w	r3, r0, #4294967295
   857aa:	d271      	bcs.n	85890 <__udivmoddi4+0x2c0>
   857ac:	45b1      	cmp	r9, r6
   857ae:	d96f      	bls.n	85890 <__udivmoddi4+0x2c0>
   857b0:	3802      	subs	r0, #2
   857b2:	443e      	add	r6, r7
   857b4:	eba6 0609 	sub.w	r6, r6, r9
   857b8:	ea40 4101 	orr.w	r1, r0, r1, lsl #16
   857bc:	e78f      	b.n	856de <__udivmoddi4+0x10e>
   857be:	f1c1 0720 	rsb	r7, r1, #32
   857c2:	fa22 f807 	lsr.w	r8, r2, r7
   857c6:	408b      	lsls	r3, r1
   857c8:	ea48 0303 	orr.w	r3, r8, r3
   857cc:	fa26 f407 	lsr.w	r4, r6, r7
   857d0:	ea4f 4e13 	mov.w	lr, r3, lsr #16
   857d4:	fbb4 f9fe 	udiv	r9, r4, lr
   857d8:	fa1f fc83 	uxth.w	ip, r3
   857dc:	fb0e 4419 	mls	r4, lr, r9, r4
   857e0:	408e      	lsls	r6, r1
   857e2:	fa20 f807 	lsr.w	r8, r0, r7
   857e6:	fb09 fa0c 	mul.w	sl, r9, ip
   857ea:	ea48 0806 	orr.w	r8, r8, r6
   857ee:	ea4f 4618 	mov.w	r6, r8, lsr #16
   857f2:	ea46 4404 	orr.w	r4, r6, r4, lsl #16
   857f6:	45a2      	cmp	sl, r4
   857f8:	fa02 f201 	lsl.w	r2, r2, r1
   857fc:	fa00 f601 	lsl.w	r6, r0, r1
   85800:	d908      	bls.n	85814 <__udivmoddi4+0x244>
   85802:	18e4      	adds	r4, r4, r3
   85804:	f109 30ff 	add.w	r0, r9, #4294967295
   85808:	d244      	bcs.n	85894 <__udivmoddi4+0x2c4>
   8580a:	45a2      	cmp	sl, r4
   8580c:	d942      	bls.n	85894 <__udivmoddi4+0x2c4>
   8580e:	f1a9 0902 	sub.w	r9, r9, #2
   85812:	441c      	add	r4, r3
   85814:	eba4 040a 	sub.w	r4, r4, sl
   85818:	fbb4 f0fe 	udiv	r0, r4, lr
   8581c:	fb0e 4410 	mls	r4, lr, r0, r4
   85820:	fb00 fc0c 	mul.w	ip, r0, ip
   85824:	fa1f f888 	uxth.w	r8, r8
   85828:	ea48 4404 	orr.w	r4, r8, r4, lsl #16
   8582c:	45a4      	cmp	ip, r4
   8582e:	d907      	bls.n	85840 <__udivmoddi4+0x270>
   85830:	18e4      	adds	r4, r4, r3
   85832:	f100 3eff 	add.w	lr, r0, #4294967295
   85836:	d229      	bcs.n	8588c <__udivmoddi4+0x2bc>
   85838:	45a4      	cmp	ip, r4
   8583a:	d927      	bls.n	8588c <__udivmoddi4+0x2bc>
   8583c:	3802      	subs	r0, #2
   8583e:	441c      	add	r4, r3
   85840:	ea40 4009 	orr.w	r0, r0, r9, lsl #16
   85844:	fba0 8902 	umull	r8, r9, r0, r2
   85848:	eba4 0c0c 	sub.w	ip, r4, ip
   8584c:	45cc      	cmp	ip, r9
   8584e:	46c2      	mov	sl, r8
   85850:	46ce      	mov	lr, r9
   85852:	d315      	bcc.n	85880 <__udivmoddi4+0x2b0>
   85854:	d012      	beq.n	8587c <__udivmoddi4+0x2ac>
   85856:	b155      	cbz	r5, 8586e <__udivmoddi4+0x29e>
   85858:	ebb6 030a 	subs.w	r3, r6, sl
   8585c:	eb6c 060e 	sbc.w	r6, ip, lr
   85860:	fa06 f707 	lsl.w	r7, r6, r7
   85864:	40cb      	lsrs	r3, r1
   85866:	431f      	orrs	r7, r3
   85868:	40ce      	lsrs	r6, r1
   8586a:	602f      	str	r7, [r5, #0]
   8586c:	606e      	str	r6, [r5, #4]
   8586e:	2100      	movs	r1, #0
   85870:	e8bd 87f0 	ldmia.w	sp!, {r4, r5, r6, r7, r8, r9, sl, pc}
   85874:	4610      	mov	r0, r2
   85876:	e6f7      	b.n	85668 <__udivmoddi4+0x98>
   85878:	4689      	mov	r9, r1
   8587a:	e6de      	b.n	8563a <__udivmoddi4+0x6a>
   8587c:	4546      	cmp	r6, r8
   8587e:	d2ea      	bcs.n	85856 <__udivmoddi4+0x286>
   85880:	ebb8 0a02 	subs.w	sl, r8, r2
   85884:	eb69 0e03 	sbc.w	lr, r9, r3
   85888:	3801      	subs	r0, #1
   8588a:	e7e4      	b.n	85856 <__udivmoddi4+0x286>
   8588c:	4670      	mov	r0, lr
   8588e:	e7d7      	b.n	85840 <__udivmoddi4+0x270>
   85890:	4618      	mov	r0, r3
   85892:	e78f      	b.n	857b4 <__udivmoddi4+0x1e4>
   85894:	4681      	mov	r9, r0
   85896:	e7bd      	b.n	85814 <__udivmoddi4+0x244>
   85898:	4611      	mov	r1, r2
   8589a:	e776      	b.n	8578a <__udivmoddi4+0x1ba>
   8589c:	3802      	subs	r0, #2
   8589e:	443c      	add	r4, r7
   858a0:	e744      	b.n	8572c <__udivmoddi4+0x15c>
   858a2:	4608      	mov	r0, r1
   858a4:	e706      	b.n	856b4 <__udivmoddi4+0xe4>
   858a6:	3a02      	subs	r2, #2
   858a8:	443e      	add	r6, r7
   858aa:	e72b      	b.n	85704 <__udivmoddi4+0x134>

000858ac <__aeabi_idiv0>:
   858ac:	4770      	bx	lr
   858ae:	bf00      	nop
   858b0:	00000001 	.word	0x00000001
   858b4:	00000002 	.word	0x00000002
   858b8:	00000004 	.word	0x00000004
   858bc:	00000008 	.word	0x00000008
   858c0:	00000010 	.word	0x00000010
   858c4:	00000020 	.word	0x00000020
   858c8:	00000040 	.word	0x00000040
   858cc:	00000080 	.word	0x00000080
   858d0:	00000100 	.word	0x00000100
   858d4:	00000200 	.word	0x00000200
   858d8:	00000400 	.word	0x00000400
   858dc:	7466654c 	.word	0x7466654c
   858e0:	736c7550 	.word	0x736c7550
   858e4:	3a207365 	.word	0x3a207365
   858e8:	5b232320 	.word	0x5b232320
   858ec:	235d6925 	.word	0x235d6925
   858f0:	00000a23 	.word	0x00000a23
   858f4:	68676952 	.word	0x68676952
   858f8:	6c755074 	.word	0x6c755074
   858fc:	20736573 	.word	0x20736573
   85900:	2323203a 	.word	0x2323203a
   85904:	5d69255b 	.word	0x5d69255b
   85908:	000a2323 	.word	0x000a2323
   8590c:	4f525245 	.word	0x4f525245
   85910:	6e203a52 	.word	0x6e203a52
   85914:	6964206f 	.word	0x6964206f
   85918:	74636572 	.word	0x74636572
   8591c:	206e6f69 	.word	0x206e6f69
   85920:	6c756f63 	.word	0x6c756f63
   85924:	65622064 	.word	0x65622064
   85928:	74656620 	.word	0x74656620
   8592c:	64656863 	.word	0x64656863
   85930:	6f726620 	.word	0x6f726620
   85934:	6874206d 	.word	0x6874206d
   85938:	656c2065 	.word	0x656c2065
   8593c:	6d207466 	.word	0x6d207466
   85940:	726f746f 	.word	0x726f746f
   85944:	74756220 	.word	0x74756220
   85948:	6c757020 	.word	0x6c757020
   8594c:	77206573 	.word	0x77206573
   85950:	73207361 	.word	0x73207361
   85954:	6c6c6974 	.word	0x6c6c6974
   85958:	69727420 	.word	0x69727420
   8595c:	72656767 	.word	0x72656767
   85960:	202e6465 	.word	0x202e6465
   85964:	6f636e45 	.word	0x6f636e45
   85968:	20726564 	.word	0x20726564
   8596c:	736c7570 	.word	0x736c7570
   85970:	61642065 	.word	0x61642065
   85974:	77206174 	.word	0x77206174
   85978:	206c6c69 	.word	0x206c6c69
   8597c:	75206562 	.word	0x75206562
   85980:	6c65726e 	.word	0x6c65726e
   85984:	6c626169 	.word	0x6c626169
   85988:	000a2e65 	.word	0x000a2e65
   8598c:	65736552 	.word	0x65736552
   85990:	676e6974 	.word	0x676e6974
   85994:	6c757020 	.word	0x6c757020
   85998:	63206573 	.word	0x63206573
   8599c:	746e756f 	.word	0x746e756f
   859a0:	3a737265 	.word	0x3a737265
   859a4:	654c200a 	.word	0x654c200a
   859a8:	75507466 	.word	0x75507466
   859ac:	7365736c 	.word	0x7365736c
   859b0:	203a4120 	.word	0x203a4120
   859b4:	0a692523 	.word	0x0a692523
   859b8:	66654c20 	.word	0x66654c20
   859bc:	6c755074 	.word	0x6c755074
   859c0:	20736573 	.word	0x20736573
   859c4:	23203a42 	.word	0x23203a42
   859c8:	200a6925 	.word	0x200a6925
   859cc:	68676952 	.word	0x68676952
   859d0:	6c755074 	.word	0x6c755074
   859d4:	20736573 	.word	0x20736573
   859d8:	23203a41 	.word	0x23203a41
   859dc:	200a6925 	.word	0x200a6925
   859e0:	68676952 	.word	0x68676952
   859e4:	6c755074 	.word	0x6c755074
   859e8:	20736573 	.word	0x20736573
   859ec:	23203a42 	.word	0x23203a42
   859f0:	000a6925 	.word	0x000a6925
   859f4:	4f525245 	.word	0x4f525245
   859f8:	6e203a52 	.word	0x6e203a52
   859fc:	6964206f 	.word	0x6964206f
   85a00:	74636572 	.word	0x74636572
   85a04:	206e6f69 	.word	0x206e6f69
   85a08:	6c756f63 	.word	0x6c756f63
   85a0c:	65622064 	.word	0x65622064
   85a10:	74656620 	.word	0x74656620
   85a14:	64656863 	.word	0x64656863
   85a18:	6f726620 	.word	0x6f726620
   85a1c:	6874206d 	.word	0x6874206d
   85a20:	69722065 	.word	0x69722065
   85a24:	20746867 	.word	0x20746867
   85a28:	6f746f6d 	.word	0x6f746f6d
   85a2c:	75622072 	.word	0x75622072
   85a30:	75702074 	.word	0x75702074
   85a34:	2065736c 	.word	0x2065736c
   85a38:	20736177 	.word	0x20736177
   85a3c:	6c697473 	.word	0x6c697473
   85a40:	7274206c 	.word	0x7274206c
   85a44:	65676769 	.word	0x65676769
   85a48:	2e646572 	.word	0x2e646572
   85a4c:	636e4520 	.word	0x636e4520
   85a50:	7265646f 	.word	0x7265646f
   85a54:	6c757020 	.word	0x6c757020
   85a58:	64206573 	.word	0x64206573
   85a5c:	20617461 	.word	0x20617461
   85a60:	6c6c6977 	.word	0x6c6c6977
   85a64:	20656220 	.word	0x20656220
   85a68:	65726e75 	.word	0x65726e75
   85a6c:	6261696c 	.word	0x6261696c
   85a70:	0a2e656c 	.word	0x0a2e656c
   85a74:	00000000 	.word	0x00000000
   85a78:	736e6f43 	.word	0x736e6f43
   85a7c:	20656c6f 	.word	0x20656c6f
   85a80:	64616572 	.word	0x64616572
   85a84:	00000a79 	.word	0x00000a79
   85a88:	3d3d3d3d 	.word	0x3d3d3d3d
   85a8c:	3d3d3d3d 	.word	0x3d3d3d3d
   85a90:	3d3d3d3d 	.word	0x3d3d3d3d
   85a94:	00000a3d 	.word	0x00000a3d
   85a98:	6b736174 	.word	0x6b736174
   85a9c:	00000031 	.word	0x00000031
   85aa0:	74736554 	.word	0x74736554
   85aa4:	20692523 	.word	0x20692523
   85aa8:	65657073 	.word	0x65657073
   85aac:	69253a64 	.word	0x69253a64
   85ab0:	20736920 	.word	0x20736920
   85ab4:	72617473 	.word	0x72617473
   85ab8:	6e696e74 	.word	0x6e696e74
   85abc:	2e2e2e67 	.word	0x2e2e2e67
   85ac0:	0000000a 	.word	0x0000000a
   85ac4:	2d2d2d2d 	.word	0x2d2d2d2d
   85ac8:	000a2d2d 	.word	0x000a2d2d
   85acc:	74736554 	.word	0x74736554
   85ad0:	20692523 	.word	0x20692523
   85ad4:	65657073 	.word	0x65657073
   85ad8:	69253a64 	.word	0x69253a64
   85adc:	20736920 	.word	0x20736920
   85ae0:	69646e65 	.word	0x69646e65
   85ae4:	2e2e676e 	.word	0x2e2e676e
   85ae8:	00000a2e 	.word	0x00000a2e
   85aec:	206c6c41 	.word	0x206c6c41
   85af0:	74736574 	.word	0x74736574
   85af4:	61682073 	.word	0x61682073
   85af8:	62206576 	.word	0x62206576
   85afc:	206e6565 	.word	0x206e6565
   85b00:	206e7572 	.word	0x206e7572
   85b04:	6f726874 	.word	0x6f726874
   85b08:	2e686775 	.word	0x2e686775
   85b0c:	000a2e2e 	.word	0x000a2e2e
   85b10:	454c4449 	.word	0x454c4449
   85b14:	00000000 	.word	0x00000000
   85b18:	20726d54 	.word	0x20726d54
   85b1c:	00637653 	.word	0x00637653

00085b20 <_global_impure_ptr>:
   85b20:	20070140 33323130 37363534 42413938     @.. 0123456789AB
   85b30:	46454443 00000000 33323130 37363534     CDEF....01234567
   85b40:	62613938 66656463 00000000 6c756e28     89abcdef....(nul
   85b50:	0000296c                                l)..

00085b54 <blanks.7217>:
   85b54:	20202020 20202020 20202020 20202020                     

00085b64 <zeroes.7218>:
   85b64:	30303030 30303030 30303030 30303030     0000000000000000
   85b74:	00000043 49534f50 00000058 0000002e     C...POSIX.......

00085b84 <_ctype_>:
   85b84:	20202000 20202020 28282020 20282828     .         ((((( 
   85b94:	20202020 20202020 20202020 20202020                     
   85ba4:	10108820 10101010 10101010 10101010      ...............
   85bb4:	04040410 04040404 10040404 10101010     ................
   85bc4:	41411010 41414141 01010101 01010101     ..AAAAAA........
   85bd4:	01010101 01010101 01010101 10101010     ................
   85be4:	42421010 42424242 02020202 02020202     ..BBBBBB........
   85bf4:	02020202 02020202 02020202 10101010     ................
   85c04:	00000020 00000000 00000000 00000000      ...............
	...

00085c88 <_init>:
   85c88:	b5f8      	push	{r3, r4, r5, r6, r7, lr}
   85c8a:	bf00      	nop
   85c8c:	bcf8      	pop	{r3, r4, r5, r6, r7}
   85c8e:	bc08      	pop	{r3}
   85c90:	469e      	mov	lr, r3
   85c92:	4770      	bx	lr

00085c94 <__init_array_start>:
   85c94:	00083c85 	.word	0x00083c85

00085c98 <__frame_dummy_init_array_entry>:
   85c98:	00080119                                ....

00085c9c <_fini>:
   85c9c:	b5f8      	push	{r3, r4, r5, r6, r7, lr}
   85c9e:	bf00      	nop
   85ca0:	bcf8      	pop	{r3, r4, r5, r6, r7}
   85ca2:	bc08      	pop	{r3}
   85ca4:	469e      	mov	lr, r3
   85ca6:	4770      	bx	lr

00085ca8 <__fini_array_start>:
   85ca8:	000800f5 	.word	0x000800f5

Disassembly of section .relocate:

20070000 <SystemInit>:
	EFC0->EEFC_FMR = EEFC_FMR_FWS(4);
20070000:	f44f 6380 	mov.w	r3, #1024	; 0x400
20070004:	4a20      	ldr	r2, [pc, #128]	; (20070088 <SystemInit+0x88>)
20070006:	6013      	str	r3, [r2, #0]
	EFC1->EEFC_FMR = EEFC_FMR_FWS(4);
20070008:	f502 7200 	add.w	r2, r2, #512	; 0x200
2007000c:	6013      	str	r3, [r2, #0]
	if (!(PMC->CKGR_MOR & CKGR_MOR_MOSCSEL)) {
2007000e:	4b1f      	ldr	r3, [pc, #124]	; (2007008c <SystemInit+0x8c>)
20070010:	6a1b      	ldr	r3, [r3, #32]
20070012:	f013 7f80 	tst.w	r3, #16777216	; 0x1000000
20070016:	d107      	bne.n	20070028 <SystemInit+0x28>
		PMC->CKGR_MOR = SYS_CKGR_MOR_KEY_VALUE | SYS_BOARD_OSCOUNT | 
20070018:	4a1d      	ldr	r2, [pc, #116]	; (20070090 <SystemInit+0x90>)
2007001a:	4b1c      	ldr	r3, [pc, #112]	; (2007008c <SystemInit+0x8c>)
2007001c:	621a      	str	r2, [r3, #32]
		while (!(PMC->PMC_SR & PMC_SR_MOSCXTS)) {
2007001e:	461a      	mov	r2, r3
20070020:	6e93      	ldr	r3, [r2, #104]	; 0x68
20070022:	f013 0f01 	tst.w	r3, #1
20070026:	d0fb      	beq.n	20070020 <SystemInit+0x20>
	PMC->CKGR_MOR = SYS_CKGR_MOR_KEY_VALUE | SYS_BOARD_OSCOUNT | 
20070028:	4a1a      	ldr	r2, [pc, #104]	; (20070094 <SystemInit+0x94>)
2007002a:	4b18      	ldr	r3, [pc, #96]	; (2007008c <SystemInit+0x8c>)
2007002c:	621a      	str	r2, [r3, #32]
	while (!(PMC->PMC_SR & PMC_SR_MOSCSELS)) {
2007002e:	461a      	mov	r2, r3
20070030:	6e93      	ldr	r3, [r2, #104]	; 0x68
20070032:	f413 3f80 	tst.w	r3, #65536	; 0x10000
20070036:	d0fb      	beq.n	20070030 <SystemInit+0x30>
 	PMC->PMC_MCKR = (PMC->PMC_MCKR & ~(uint32_t)PMC_MCKR_CSS_Msk) | 
20070038:	4a14      	ldr	r2, [pc, #80]	; (2007008c <SystemInit+0x8c>)
2007003a:	6b13      	ldr	r3, [r2, #48]	; 0x30
2007003c:	f023 0303 	bic.w	r3, r3, #3
20070040:	f043 0301 	orr.w	r3, r3, #1
20070044:	6313      	str	r3, [r2, #48]	; 0x30
	while (!(PMC->PMC_SR & PMC_SR_MCKRDY)) {
20070046:	6e93      	ldr	r3, [r2, #104]	; 0x68
20070048:	f013 0f08 	tst.w	r3, #8
2007004c:	d0fb      	beq.n	20070046 <SystemInit+0x46>
	PMC->CKGR_PLLAR = SYS_BOARD_PLLAR;
2007004e:	4a12      	ldr	r2, [pc, #72]	; (20070098 <SystemInit+0x98>)
20070050:	4b0e      	ldr	r3, [pc, #56]	; (2007008c <SystemInit+0x8c>)
20070052:	629a      	str	r2, [r3, #40]	; 0x28
	while (!(PMC->PMC_SR & PMC_SR_LOCKA)) {
20070054:	461a      	mov	r2, r3
20070056:	6e93      	ldr	r3, [r2, #104]	; 0x68
20070058:	f013 0f02 	tst.w	r3, #2
2007005c:	d0fb      	beq.n	20070056 <SystemInit+0x56>
	PMC->PMC_MCKR = (SYS_BOARD_MCKR & ~PMC_MCKR_CSS_Msk) | PMC_MCKR_CSS_MAIN_CLK;
2007005e:	2211      	movs	r2, #17
20070060:	4b0a      	ldr	r3, [pc, #40]	; (2007008c <SystemInit+0x8c>)
20070062:	631a      	str	r2, [r3, #48]	; 0x30
	while (!(PMC->PMC_SR & PMC_SR_MCKRDY)) {
20070064:	461a      	mov	r2, r3
20070066:	6e93      	ldr	r3, [r2, #104]	; 0x68
20070068:	f013 0f08 	tst.w	r3, #8
2007006c:	d0fb      	beq.n	20070066 <SystemInit+0x66>
	PMC->PMC_MCKR = SYS_BOARD_MCKR;
2007006e:	2212      	movs	r2, #18
20070070:	4b06      	ldr	r3, [pc, #24]	; (2007008c <SystemInit+0x8c>)
20070072:	631a      	str	r2, [r3, #48]	; 0x30
	while (!(PMC->PMC_SR & PMC_SR_MCKRDY)) {
20070074:	461a      	mov	r2, r3
20070076:	6e93      	ldr	r3, [r2, #104]	; 0x68
20070078:	f013 0f08 	tst.w	r3, #8
2007007c:	d0fb      	beq.n	20070076 <SystemInit+0x76>
	SystemCoreClock = CHIP_FREQ_CPU_MAX;
2007007e:	4a07      	ldr	r2, [pc, #28]	; (2007009c <SystemInit+0x9c>)
20070080:	4b07      	ldr	r3, [pc, #28]	; (200700a0 <SystemInit+0xa0>)
20070082:	601a      	str	r2, [r3, #0]
20070084:	4770      	bx	lr
20070086:	bf00      	nop
20070088:	400e0a00 	.word	0x400e0a00
2007008c:	400e0600 	.word	0x400e0600
20070090:	00370809 	.word	0x00370809
20070094:	01370809 	.word	0x01370809
20070098:	200d3f01 	.word	0x200d3f01
2007009c:	0501bd00 	.word	0x0501bd00
200700a0:	20070138 	.word	0x20070138

200700a4 <system_init_flash>:
__no_inline
RAMFUNC
void system_init_flash(uint32_t ul_clk)
{
	/* Set FWS for embedded Flash access according to operating frequency */
	if (ul_clk < CHIP_FREQ_FWS_0) {
200700a4:	4b1b      	ldr	r3, [pc, #108]	; (20070114 <system_init_flash+0x70>)
200700a6:	4298      	cmp	r0, r3
200700a8:	d915      	bls.n	200700d6 <system_init_flash+0x32>
		EFC0->EEFC_FMR = EEFC_FMR_FWS(0);
		EFC1->EEFC_FMR = EEFC_FMR_FWS(0);
	} else if (ul_clk < CHIP_FREQ_FWS_1) {
200700aa:	4b1b      	ldr	r3, [pc, #108]	; (20070118 <system_init_flash+0x74>)
200700ac:	4298      	cmp	r0, r3
200700ae:	d919      	bls.n	200700e4 <system_init_flash+0x40>
		EFC0->EEFC_FMR = EEFC_FMR_FWS(1);
		EFC1->EEFC_FMR = EEFC_FMR_FWS(1);
	} else if (ul_clk < CHIP_FREQ_FWS_2) {
200700b0:	4b1a      	ldr	r3, [pc, #104]	; (2007011c <system_init_flash+0x78>)
200700b2:	4298      	cmp	r0, r3
200700b4:	d91e      	bls.n	200700f4 <system_init_flash+0x50>
		EFC0->EEFC_FMR = EEFC_FMR_FWS(2);
		EFC1->EEFC_FMR = EEFC_FMR_FWS(2);
	} else if (ul_clk < CHIP_FREQ_FWS_3) {
200700b6:	4b1a      	ldr	r3, [pc, #104]	; (20070120 <system_init_flash+0x7c>)
200700b8:	4298      	cmp	r0, r3
200700ba:	d923      	bls.n	20070104 <system_init_flash+0x60>
		EFC0->EEFC_FMR = EEFC_FMR_FWS(3);
		EFC1->EEFC_FMR = EEFC_FMR_FWS(3);
	} else if (ul_clk < CHIP_FREQ_FWS_4) {
200700bc:	4b19      	ldr	r3, [pc, #100]	; (20070124 <system_init_flash+0x80>)
200700be:	4298      	cmp	r0, r3
		EFC0->EEFC_FMR = EEFC_FMR_FWS(4);
200700c0:	bf94      	ite	ls
200700c2:	f44f 6380 	movls.w	r3, #1024	; 0x400
		EFC1->EEFC_FMR = EEFC_FMR_FWS(4);	
	} else {
		EFC0->EEFC_FMR = EEFC_FMR_FWS(5);
200700c6:	f44f 63a0 	movhi.w	r3, #1280	; 0x500
200700ca:	4a17      	ldr	r2, [pc, #92]	; (20070128 <system_init_flash+0x84>)
200700cc:	6013      	str	r3, [r2, #0]
		EFC1->EEFC_FMR = EEFC_FMR_FWS(5);
200700ce:	f502 7200 	add.w	r2, r2, #512	; 0x200
200700d2:	6013      	str	r3, [r2, #0]
200700d4:	4770      	bx	lr
		EFC0->EEFC_FMR = EEFC_FMR_FWS(0);
200700d6:	2300      	movs	r3, #0
200700d8:	4a13      	ldr	r2, [pc, #76]	; (20070128 <system_init_flash+0x84>)
200700da:	6013      	str	r3, [r2, #0]
		EFC1->EEFC_FMR = EEFC_FMR_FWS(0);
200700dc:	f502 7200 	add.w	r2, r2, #512	; 0x200
200700e0:	6013      	str	r3, [r2, #0]
200700e2:	4770      	bx	lr
		EFC0->EEFC_FMR = EEFC_FMR_FWS(1);
200700e4:	f44f 7380 	mov.w	r3, #256	; 0x100
200700e8:	4a0f      	ldr	r2, [pc, #60]	; (20070128 <system_init_flash+0x84>)
200700ea:	6013      	str	r3, [r2, #0]
		EFC1->EEFC_FMR = EEFC_FMR_FWS(1);
200700ec:	f502 7200 	add.w	r2, r2, #512	; 0x200
200700f0:	6013      	str	r3, [r2, #0]
200700f2:	4770      	bx	lr
		EFC0->EEFC_FMR = EEFC_FMR_FWS(2);
200700f4:	f44f 7300 	mov.w	r3, #512	; 0x200
200700f8:	4a0b      	ldr	r2, [pc, #44]	; (20070128 <system_init_flash+0x84>)
200700fa:	6013      	str	r3, [r2, #0]
		EFC1->EEFC_FMR = EEFC_FMR_FWS(2);
200700fc:	f502 7200 	add.w	r2, r2, #512	; 0x200
20070100:	6013      	str	r3, [r2, #0]
20070102:	4770      	bx	lr
		EFC0->EEFC_FMR = EEFC_FMR_FWS(3);
20070104:	f44f 7340 	mov.w	r3, #768	; 0x300
20070108:	4a07      	ldr	r2, [pc, #28]	; (20070128 <system_init_flash+0x84>)
2007010a:	6013      	str	r3, [r2, #0]
		EFC1->EEFC_FMR = EEFC_FMR_FWS(3);
2007010c:	f502 7200 	add.w	r2, r2, #512	; 0x200
20070110:	6013      	str	r3, [r2, #0]
20070112:	4770      	bx	lr
20070114:	0121eabf 	.word	0x0121eabf
20070118:	02faf07f 	.word	0x02faf07f
2007011c:	03d08fff 	.word	0x03d08fff
20070120:	04c4b3ff 	.word	0x04c4b3ff
20070124:	055d4a7f 	.word	0x055d4a7f
20070128:	400e0a00 	.word	0x400e0a00

2007012c <uxCriticalNesting>:
2007012c:	aaaaaaaa                                ....

20070130 <xFreeBytesRemaining>:
20070130:	0000a000                                ....

20070134 <xNextTaskUnblockTime>:
20070134:	ffffffff                                ....

20070138 <SystemCoreClock>:
20070138:	003d0900                                ..=.

2007013c <_impure_ptr>:
2007013c:	20070140                                @.. 

20070140 <impure_data>:
20070140:	00000000 2007042c 20070494 200704fc     ....,.. ... ... 
	...
200701e8:	00000001 00000000 abcd330e e66d1234     .........3..4.m.
200701f8:	0005deec 0000000b 00000000 00000000     ................
	...

20070568 <__atexit_recursive_mutex>:
20070568:	2007ad7c                                |.. 

2007056c <__global_locale>:
2007056c:	00000043 00000000 00000000 00000000     C...............
	...
2007058c:	00000043 00000000 00000000 00000000     C...............
	...
200705ac:	00000043 00000000 00000000 00000000     C...............
	...
200705cc:	00000043 00000000 00000000 00000000     C...............
	...
200705ec:	00000043 00000000 00000000 00000000     C...............
	...
2007060c:	00000043 00000000 00000000 00000000     C...............
	...
2007062c:	00000043 00000000 00000000 00000000     C...............
	...
2007064c:	0008530d 00084c59 00000000 00085b84     .S..YL.......[..
2007065c:	00085b80 00085a74 00085a74 00085a74     .[..tZ..tZ..tZ..
2007066c:	00085a74 00085a74 00085a74 00085a74     tZ..tZ..tZ..tZ..
2007067c:	00085a74 00085a74 ffffffff ffffffff     tZ..tZ..........
2007068c:	ffffffff 0000ffff 53410001 00494943     ..........ASCII.
	...
200706b4:	53410000 00494943 00000000 00000000     ..ASCII.........
	...

200706d8 <__malloc_av_>:
	...
200706e0:	200706d8 200706d8 200706e0 200706e0     ... ... ... ... 
200706f0:	200706e8 200706e8 200706f0 200706f0     ... ... ... ... 
20070700:	200706f8 200706f8 20070700 20070700     ... ... ... ... 
20070710:	20070708 20070708 20070710 20070710     ... ... ... ... 
20070720:	20070718 20070718 20070720 20070720     ... ...  ..  .. 
20070730:	20070728 20070728 20070730 20070730     (.. (.. 0.. 0.. 
20070740:	20070738 20070738 20070740 20070740     8.. 8.. @.. @.. 
20070750:	20070748 20070748 20070750 20070750     H.. H.. P.. P.. 
20070760:	20070758 20070758 20070760 20070760     X.. X.. `.. `.. 
20070770:	20070768 20070768 20070770 20070770     h.. h.. p.. p.. 
20070780:	20070778 20070778 20070780 20070780     x.. x.. ... ... 
20070790:	20070788 20070788 20070790 20070790     ... ... ... ... 
200707a0:	20070798 20070798 200707a0 200707a0     ... ... ... ... 
200707b0:	200707a8 200707a8 200707b0 200707b0     ... ... ... ... 
200707c0:	200707b8 200707b8 200707c0 200707c0     ... ... ... ... 
200707d0:	200707c8 200707c8 200707d0 200707d0     ... ... ... ... 
200707e0:	200707d8 200707d8 200707e0 200707e0     ... ... ... ... 
200707f0:	200707e8 200707e8 200707f0 200707f0     ... ... ... ... 
20070800:	200707f8 200707f8 20070800 20070800     ... ... ... ... 
20070810:	20070808 20070808 20070810 20070810     ... ... ... ... 
20070820:	20070818 20070818 20070820 20070820     ... ...  ..  .. 
20070830:	20070828 20070828 20070830 20070830     (.. (.. 0.. 0.. 
20070840:	20070838 20070838 20070840 20070840     8.. 8.. @.. @.. 
20070850:	20070848 20070848 20070850 20070850     H.. H.. P.. P.. 
20070860:	20070858 20070858 20070860 20070860     X.. X.. `.. `.. 
20070870:	20070868 20070868 20070870 20070870     h.. h.. p.. p.. 
20070880:	20070878 20070878 20070880 20070880     x.. x.. ... ... 
20070890:	20070888 20070888 20070890 20070890     ... ... ... ... 
200708a0:	20070898 20070898 200708a0 200708a0     ... ... ... ... 
200708b0:	200708a8 200708a8 200708b0 200708b0     ... ... ... ... 
200708c0:	200708b8 200708b8 200708c0 200708c0     ... ... ... ... 
200708d0:	200708c8 200708c8 200708d0 200708d0     ... ... ... ... 
200708e0:	200708d8 200708d8 200708e0 200708e0     ... ... ... ... 
200708f0:	200708e8 200708e8 200708f0 200708f0     ... ... ... ... 
20070900:	200708f8 200708f8 20070900 20070900     ... ... ... ... 
20070910:	20070908 20070908 20070910 20070910     ... ... ... ... 
20070920:	20070918 20070918 20070920 20070920     ... ...  ..  .. 
20070930:	20070928 20070928 20070930 20070930     (.. (.. 0.. 0.. 
20070940:	20070938 20070938 20070940 20070940     8.. 8.. @.. @.. 
20070950:	20070948 20070948 20070950 20070950     H.. H.. P.. P.. 
20070960:	20070958 20070958 20070960 20070960     X.. X.. `.. `.. 
20070970:	20070968 20070968 20070970 20070970     h.. h.. p.. p.. 
20070980:	20070978 20070978 20070980 20070980     x.. x.. ... ... 
20070990:	20070988 20070988 20070990 20070990     ... ... ... ... 
200709a0:	20070998 20070998 200709a0 200709a0     ... ... ... ... 
200709b0:	200709a8 200709a8 200709b0 200709b0     ... ... ... ... 
200709c0:	200709b8 200709b8 200709c0 200709c0     ... ... ... ... 
200709d0:	200709c8 200709c8 200709d0 200709d0     ... ... ... ... 
200709e0:	200709d8 200709d8 200709e0 200709e0     ... ... ... ... 
200709f0:	200709e8 200709e8 200709f0 200709f0     ... ... ... ... 
20070a00:	200709f8 200709f8 20070a00 20070a00     ... ... ... ... 
20070a10:	20070a08 20070a08 20070a10 20070a10     ... ... ... ... 
20070a20:	20070a18 20070a18 20070a20 20070a20     ... ...  ..  .. 
20070a30:	20070a28 20070a28 20070a30 20070a30     (.. (.. 0.. 0.. 
20070a40:	20070a38 20070a38 20070a40 20070a40     8.. 8.. @.. @.. 
20070a50:	20070a48 20070a48 20070a50 20070a50     H.. H.. P.. P.. 
20070a60:	20070a58 20070a58 20070a60 20070a60     X.. X.. `.. `.. 
20070a70:	20070a68 20070a68 20070a70 20070a70     h.. h.. p.. p.. 
20070a80:	20070a78 20070a78 20070a80 20070a80     x.. x.. ... ... 
20070a90:	20070a88 20070a88 20070a90 20070a90     ... ... ... ... 
20070aa0:	20070a98 20070a98 20070aa0 20070aa0     ... ... ... ... 
20070ab0:	20070aa8 20070aa8 20070ab0 20070ab0     ... ... ... ... 
20070ac0:	20070ab8 20070ab8 20070ac0 20070ac0     ... ... ... ... 
20070ad0:	20070ac8 20070ac8 20070ad0 20070ad0     ... ... ... ... 

20070ae0 <__malloc_sbrk_base>:
20070ae0:	ffffffff                                ....

20070ae4 <__malloc_trim_threshold>:
20070ae4:	00020000                                ....
