
FreeRTOS.elf:     file format elf32-littlearm

Sections:
Idx Name          Size      VMA       LMA       File off  Algn
  0 .text         000086cc  00080000  00080000  00010000  2**3
                  CONTENTS, ALLOC, LOAD, READONLY, CODE
  1 .ARM.exidx    00000008  000886cc  000886cc  000186cc  2**2
                  CONTENTS, ALLOC, LOAD, READONLY, DATA
  2 .relocate     00000b20  20070000  000886d4  00020000  2**3
                  CONTENTS, ALLOC, LOAD, CODE
  3 .bss          0000a358  20070b20  000891f8  00020b20  2**3
                  ALLOC
  4 .stack        00002000  2007ae78  00093550  00020b20  2**0
                  ALLOC
  5 .ARM.attributes 00000029  00000000  00000000  00020b20  2**0
                  CONTENTS, READONLY
  6 .comment      00000059  00000000  00000000  00020b49  2**0
                  CONTENTS, READONLY
  7 .debug_frame  00001234  00000000  00000000  00020ba4  2**2
                  CONTENTS, READONLY, DEBUGGING

Disassembly of section .text:

00080000 <exception_table>:
   80000:	78 ce 07 20 9d 39 08 00 99 39 08 00 99 39 08 00     x.. .9...9...9..
   80010:	99 39 08 00 99 39 08 00 99 39 08 00 00 00 00 00     .9...9...9......
	...
   8002c:	bd 20 08 00 99 39 08 00 00 00 00 00 35 21 08 00     . ...9......5!..
   8003c:	71 21 08 00 99 39 08 00 99 39 08 00 99 39 08 00     q!...9...9...9..
   8004c:	99 39 08 00 99 39 08 00 99 39 08 00 99 39 08 00     .9...9...9...9..
   8005c:	99 39 08 00 99 39 08 00 99 39 08 00 00 00 00 00     .9...9...9......
   8006c:	5d 38 08 00 6d 38 08 00 7d 38 08 00 8d 38 08 00     ]8..m8..}8...8..
	...
   80084:	99 39 08 00 99 39 08 00 99 39 08 00 99 39 08 00     .9...9...9...9..
   80094:	99 39 08 00 99 39 08 00 99 39 08 00 99 39 08 00     .9...9...9...9..
   800a4:	00 00 00 00 99 39 08 00 99 39 08 00 99 39 08 00     .....9...9...9..
   800b4:	99 39 08 00 99 39 08 00 99 39 08 00 99 39 08 00     .9...9...9...9..
   800c4:	99 39 08 00 99 39 08 00 99 39 08 00 99 39 08 00     .9...9...9...9..
   800d4:	99 39 08 00 99 39 08 00 99 39 08 00 99 39 08 00     .9...9...9...9..
   800e4:	99 39 08 00 99 39 08 00 99 39 08 00 99 39 08 00     .9...9...9...9..

000800f4 <__do_global_dtors_aux>:
   800f4:	b510      	push	{r4, lr}
   800f6:	4c05      	ldr	r4, [pc, #20]	; (8010c <__do_global_dtors_aux+0x18>)
   800f8:	7823      	ldrb	r3, [r4, #0]
   800fa:	b933      	cbnz	r3, 8010a <__do_global_dtors_aux+0x16>
   800fc:	4b04      	ldr	r3, [pc, #16]	; (80110 <__do_global_dtors_aux+0x1c>)
   800fe:	b113      	cbz	r3, 80106 <__do_global_dtors_aux+0x12>
   80100:	4804      	ldr	r0, [pc, #16]	; (80114 <__do_global_dtors_aux+0x20>)
   80102:	f3af 8000 	nop.w
   80106:	2301      	movs	r3, #1
   80108:	7023      	strb	r3, [r4, #0]
   8010a:	bd10      	pop	{r4, pc}
   8010c:	20070b20 	.word	0x20070b20
   80110:	00000000 	.word	0x00000000
   80114:	000886d4 	.word	0x000886d4

00080118 <frame_dummy>:
   80118:	4b0c      	ldr	r3, [pc, #48]	; (8014c <frame_dummy+0x34>)
   8011a:	b143      	cbz	r3, 8012e <frame_dummy+0x16>
   8011c:	480c      	ldr	r0, [pc, #48]	; (80150 <frame_dummy+0x38>)
   8011e:	b510      	push	{r4, lr}
   80120:	490c      	ldr	r1, [pc, #48]	; (80154 <frame_dummy+0x3c>)
   80122:	f3af 8000 	nop.w
   80126:	480c      	ldr	r0, [pc, #48]	; (80158 <frame_dummy+0x40>)
   80128:	6803      	ldr	r3, [r0, #0]
   8012a:	b923      	cbnz	r3, 80136 <frame_dummy+0x1e>
   8012c:	bd10      	pop	{r4, pc}
   8012e:	480a      	ldr	r0, [pc, #40]	; (80158 <frame_dummy+0x40>)
   80130:	6803      	ldr	r3, [r0, #0]
   80132:	b933      	cbnz	r3, 80142 <frame_dummy+0x2a>
   80134:	4770      	bx	lr
   80136:	4b09      	ldr	r3, [pc, #36]	; (8015c <frame_dummy+0x44>)
   80138:	2b00      	cmp	r3, #0
   8013a:	d0f7      	beq.n	8012c <frame_dummy+0x14>
   8013c:	e8bd 4010 	ldmia.w	sp!, {r4, lr}
   80140:	4718      	bx	r3
   80142:	4b06      	ldr	r3, [pc, #24]	; (8015c <frame_dummy+0x44>)
   80144:	2b00      	cmp	r3, #0
   80146:	d0f5      	beq.n	80134 <frame_dummy+0x1c>
   80148:	4718      	bx	r3
   8014a:	bf00      	nop
   8014c:	00000000 	.word	0x00000000
   80150:	000886d4 	.word	0x000886d4
   80154:	20070b24 	.word	0x20070b24
   80158:	000886d4 	.word	0x000886d4
   8015c:	00000000 	.word	0x00000000

00080160 <binaryLEDS>:
   80160:	2805      	cmp	r0, #5
   80162:	d04e      	beq.n	80202 <binaryLEDS+0xa2>
   80164:	dc0b      	bgt.n	8017e <binaryLEDS+0x1e>
   80166:	2802      	cmp	r0, #2
   80168:	d030      	beq.n	801cc <binaryLEDS+0x6c>
   8016a:	dc03      	bgt.n	80174 <binaryLEDS+0x14>
   8016c:	b1a8      	cbz	r0, 8019a <binaryLEDS+0x3a>
   8016e:	2801      	cmp	r0, #1
   80170:	d020      	beq.n	801b4 <binaryLEDS+0x54>
   80172:	4770      	bx	lr
   80174:	2803      	cmp	r0, #3
   80176:	d033      	beq.n	801e0 <binaryLEDS+0x80>
   80178:	2804      	cmp	r0, #4
   8017a:	d035      	beq.n	801e8 <binaryLEDS+0x88>
   8017c:	4770      	bx	lr
   8017e:	2808      	cmp	r0, #8
   80180:	d04e      	beq.n	80220 <binaryLEDS+0xc0>
   80182:	dc04      	bgt.n	8018e <binaryLEDS+0x2e>
   80184:	2806      	cmp	r0, #6
   80186:	d040      	beq.n	8020a <binaryLEDS+0xaa>
   80188:	2807      	cmp	r0, #7
   8018a:	d045      	beq.n	80218 <binaryLEDS+0xb8>
   8018c:	4770      	bx	lr
   8018e:	280a      	cmp	r0, #10
   80190:	d054      	beq.n	8023c <binaryLEDS+0xdc>
   80192:	db4f      	blt.n	80234 <binaryLEDS+0xd4>
   80194:	2863      	cmp	r0, #99	; 0x63
   80196:	d058      	beq.n	8024a <binaryLEDS+0xea>
   80198:	4770      	bx	lr
   8019a:	2301      	movs	r3, #1
   8019c:	4a2e      	ldr	r2, [pc, #184]	; (80258 <binaryLEDS+0xf8>)
   8019e:	6313      	str	r3, [r2, #48]	; 0x30
   801a0:	f5a2 2280 	sub.w	r2, r2, #262144	; 0x40000
   801a4:	6313      	str	r3, [r2, #48]	; 0x30
   801a6:	f5a2 3200 	sub.w	r2, r2, #131072	; 0x20000
   801aa:	6313      	str	r3, [r2, #48]	; 0x30
   801ac:	f5a2 3280 	sub.w	r2, r2, #65536	; 0x10000
   801b0:	6313      	str	r3, [r2, #48]	; 0x30
   801b2:	4770      	bx	lr
   801b4:	4b28      	ldr	r3, [pc, #160]	; (80258 <binaryLEDS+0xf8>)
   801b6:	6318      	str	r0, [r3, #48]	; 0x30
   801b8:	f5a3 2380 	sub.w	r3, r3, #262144	; 0x40000
   801bc:	6358      	str	r0, [r3, #52]	; 0x34
   801be:	f5a3 3300 	sub.w	r3, r3, #131072	; 0x20000
   801c2:	6358      	str	r0, [r3, #52]	; 0x34
   801c4:	f5a3 3380 	sub.w	r3, r3, #65536	; 0x10000
   801c8:	6358      	str	r0, [r3, #52]	; 0x34
   801ca:	4770      	bx	lr
   801cc:	2301      	movs	r3, #1
   801ce:	4a22      	ldr	r2, [pc, #136]	; (80258 <binaryLEDS+0xf8>)
   801d0:	6353      	str	r3, [r2, #52]	; 0x34
   801d2:	f5a2 2280 	sub.w	r2, r2, #262144	; 0x40000
   801d6:	6313      	str	r3, [r2, #48]	; 0x30
   801d8:	f5a2 3200 	sub.w	r2, r2, #131072	; 0x20000
   801dc:	6353      	str	r3, [r2, #52]	; 0x34
   801de:	e00c      	b.n	801fa <binaryLEDS+0x9a>
   801e0:	2301      	movs	r3, #1
   801e2:	4a1d      	ldr	r2, [pc, #116]	; (80258 <binaryLEDS+0xf8>)
   801e4:	6313      	str	r3, [r2, #48]	; 0x30
   801e6:	e7f4      	b.n	801d2 <binaryLEDS+0x72>
   801e8:	2301      	movs	r3, #1
   801ea:	4a1b      	ldr	r2, [pc, #108]	; (80258 <binaryLEDS+0xf8>)
   801ec:	6353      	str	r3, [r2, #52]	; 0x34
   801ee:	f5a2 2280 	sub.w	r2, r2, #262144	; 0x40000
   801f2:	6353      	str	r3, [r2, #52]	; 0x34
   801f4:	f5a2 3200 	sub.w	r2, r2, #131072	; 0x20000
   801f8:	6313      	str	r3, [r2, #48]	; 0x30
   801fa:	f5a2 3280 	sub.w	r2, r2, #65536	; 0x10000
   801fe:	6353      	str	r3, [r2, #52]	; 0x34
   80200:	4770      	bx	lr
   80202:	2301      	movs	r3, #1
   80204:	4a14      	ldr	r2, [pc, #80]	; (80258 <binaryLEDS+0xf8>)
   80206:	6313      	str	r3, [r2, #48]	; 0x30
   80208:	e7f1      	b.n	801ee <binaryLEDS+0x8e>
   8020a:	2301      	movs	r3, #1
   8020c:	4a12      	ldr	r2, [pc, #72]	; (80258 <binaryLEDS+0xf8>)
   8020e:	6353      	str	r3, [r2, #52]	; 0x34
   80210:	f5a2 2280 	sub.w	r2, r2, #262144	; 0x40000
   80214:	6313      	str	r3, [r2, #48]	; 0x30
   80216:	e7ed      	b.n	801f4 <binaryLEDS+0x94>
   80218:	2301      	movs	r3, #1
   8021a:	4a0f      	ldr	r2, [pc, #60]	; (80258 <binaryLEDS+0xf8>)
   8021c:	6313      	str	r3, [r2, #48]	; 0x30
   8021e:	e7f7      	b.n	80210 <binaryLEDS+0xb0>
   80220:	2301      	movs	r3, #1
   80222:	4a0d      	ldr	r2, [pc, #52]	; (80258 <binaryLEDS+0xf8>)
   80224:	6353      	str	r3, [r2, #52]	; 0x34
   80226:	f5a2 2280 	sub.w	r2, r2, #262144	; 0x40000
   8022a:	6353      	str	r3, [r2, #52]	; 0x34
   8022c:	f5a2 3200 	sub.w	r2, r2, #131072	; 0x20000
   80230:	6353      	str	r3, [r2, #52]	; 0x34
   80232:	e7bb      	b.n	801ac <binaryLEDS+0x4c>
   80234:	2301      	movs	r3, #1
   80236:	4a08      	ldr	r2, [pc, #32]	; (80258 <binaryLEDS+0xf8>)
   80238:	6313      	str	r3, [r2, #48]	; 0x30
   8023a:	e7f4      	b.n	80226 <binaryLEDS+0xc6>
   8023c:	2301      	movs	r3, #1
   8023e:	4a06      	ldr	r2, [pc, #24]	; (80258 <binaryLEDS+0xf8>)
   80240:	6353      	str	r3, [r2, #52]	; 0x34
   80242:	f5a2 2280 	sub.w	r2, r2, #262144	; 0x40000
   80246:	6313      	str	r3, [r2, #48]	; 0x30
   80248:	e7f0      	b.n	8022c <binaryLEDS+0xcc>
   8024a:	2301      	movs	r3, #1
   8024c:	4a02      	ldr	r2, [pc, #8]	; (80258 <binaryLEDS+0xf8>)
   8024e:	6353      	str	r3, [r2, #52]	; 0x34
   80250:	f5a2 2280 	sub.w	r2, r2, #262144	; 0x40000
   80254:	6353      	str	r3, [r2, #52]	; 0x34
   80256:	e7bf      	b.n	801d8 <binaryLEDS+0x78>
   80258:	40160e00 	.word	0x40160e00

0008025c <setDesiredSpeed>:
   8025c:	4b02      	ldr	r3, [pc, #8]	; (80268 <setDesiredSpeed+0xc>)
   8025e:	6018      	str	r0, [r3, #0]
   80260:	4b02      	ldr	r3, [pc, #8]	; (8026c <setDesiredSpeed+0x10>)
   80262:	6019      	str	r1, [r3, #0]
   80264:	4770      	bx	lr
   80266:	bf00      	nop
   80268:	20070b3c 	.word	0x20070b3c
   8026c:	20070b40 	.word	0x20070b40

00080270 <getDesiredSpeedLeft>:
   80270:	4b01      	ldr	r3, [pc, #4]	; (80278 <getDesiredSpeedLeft+0x8>)
   80272:	6818      	ldr	r0, [r3, #0]
   80274:	4770      	bx	lr
   80276:	bf00      	nop
   80278:	20070b3c 	.word	0x20070b3c

0008027c <getDesiredSpeedRight>:
   8027c:	4b01      	ldr	r3, [pc, #4]	; (80284 <getDesiredSpeedRight+0x8>)
   8027e:	6818      	ldr	r0, [r3, #0]
   80280:	4770      	bx	lr
   80282:	bf00      	nop
   80284:	20070b40 	.word	0x20070b40

00080288 <driveCm>:
   80288:	e92d 47f0 	stmdb	sp!, {r4, r5, r6, r7, r8, r9, sl, lr}
   8028c:	4c0f      	ldr	r4, [pc, #60]	; (802cc <driveCm+0x44>)
   8028e:	4606      	mov	r6, r0
   80290:	460d      	mov	r5, r1
   80292:	47a0      	blx	r4
   80294:	4681      	mov	r9, r0
   80296:	f8df a044 	ldr.w	sl, [pc, #68]	; 802dc <driveCm+0x54>
   8029a:	f8df 8044 	ldr.w	r8, [pc, #68]	; 802e0 <driveCm+0x58>
   8029e:	4f0c      	ldr	r7, [pc, #48]	; (802d0 <driveCm+0x48>)
   802a0:	47a0      	blx	r4
   802a2:	4649      	mov	r1, r9
   802a4:	47d0      	blx	sl
   802a6:	47c0      	blx	r8
   802a8:	2800      	cmp	r0, #0
   802aa:	bfb8      	it	lt
   802ac:	4240      	neglt	r0, r0
   802ae:	47b8      	blx	r7
   802b0:	4b08      	ldr	r3, [pc, #32]	; (802d4 <driveCm+0x4c>)
   802b2:	4631      	mov	r1, r6
   802b4:	4798      	blx	r3
   802b6:	4b08      	ldr	r3, [pc, #32]	; (802d8 <driveCm+0x50>)
   802b8:	b920      	cbnz	r0, 802c4 <driveCm+0x3c>
   802ba:	2100      	movs	r1, #0
   802bc:	e8bd 47f0 	ldmia.w	sp!, {r4, r5, r6, r7, r8, r9, sl, lr}
   802c0:	4608      	mov	r0, r1
   802c2:	4718      	bx	r3
   802c4:	4629      	mov	r1, r5
   802c6:	4628      	mov	r0, r5
   802c8:	4798      	blx	r3
   802ca:	e7e9      	b.n	802a0 <driveCm+0x18>
   802cc:	00081191 	.word	0x00081191
   802d0:	00084c0d 	.word	0x00084c0d
   802d4:	00084ff1 	.word	0x00084ff1
   802d8:	00081a99 	.word	0x00081a99
   802dc:	00084aa1 	.word	0x00084aa1
   802e0:	00085041 	.word	0x00085041

000802e4 <rotate>:
   802e4:	e92d 47f0 	stmdb	sp!, {r4, r5, r6, r7, r8, r9, sl, lr}
   802e8:	4c18      	ldr	r4, [pc, #96]	; (8034c <rotate+0x68>)
   802ea:	460e      	mov	r6, r1
   802ec:	4605      	mov	r5, r0
   802ee:	47a0      	blx	r4
   802f0:	2700      	movs	r7, #0
   802f2:	4681      	mov	r9, r0
   802f4:	f8df a070 	ldr.w	sl, [pc, #112]	; 80368 <rotate+0x84>
   802f8:	f106 4800 	add.w	r8, r6, #2147483648	; 0x80000000
   802fc:	47a0      	blx	r4
   802fe:	4649      	mov	r1, r9
   80300:	47d0      	blx	sl
   80302:	4b13      	ldr	r3, [pc, #76]	; (80350 <rotate+0x6c>)
   80304:	4798      	blx	r3
   80306:	2800      	cmp	r0, #0
   80308:	bfb8      	it	lt
   8030a:	4240      	neglt	r0, r0
   8030c:	4b11      	ldr	r3, [pc, #68]	; (80354 <rotate+0x70>)
   8030e:	4798      	blx	r3
   80310:	4629      	mov	r1, r5
   80312:	4b11      	ldr	r3, [pc, #68]	; (80358 <rotate+0x74>)
   80314:	4798      	blx	r3
   80316:	b928      	cbnz	r0, 80324 <rotate+0x40>
   80318:	2100      	movs	r1, #0
   8031a:	e8bd 47f0 	ldmia.w	sp!, {r4, r5, r6, r7, r8, r9, sl, lr}
   8031e:	4608      	mov	r0, r1
   80320:	4b0e      	ldr	r3, [pc, #56]	; (8035c <rotate+0x78>)
   80322:	4718      	bx	r3
   80324:	4639      	mov	r1, r7
   80326:	4628      	mov	r0, r5
   80328:	4b0d      	ldr	r3, [pc, #52]	; (80360 <rotate+0x7c>)
   8032a:	4798      	blx	r3
   8032c:	b118      	cbz	r0, 80336 <rotate+0x52>
   8032e:	4641      	mov	r1, r8
   80330:	4630      	mov	r0, r6
   80332:	4b0a      	ldr	r3, [pc, #40]	; (8035c <rotate+0x78>)
   80334:	4798      	blx	r3
   80336:	4639      	mov	r1, r7
   80338:	4628      	mov	r0, r5
   8033a:	4b0a      	ldr	r3, [pc, #40]	; (80364 <rotate+0x80>)
   8033c:	4798      	blx	r3
   8033e:	2800      	cmp	r0, #0
   80340:	d0dc      	beq.n	802fc <rotate+0x18>
   80342:	4640      	mov	r0, r8
   80344:	4631      	mov	r1, r6
   80346:	4b05      	ldr	r3, [pc, #20]	; (8035c <rotate+0x78>)
   80348:	4798      	blx	r3
   8034a:	e7d7      	b.n	802fc <rotate+0x18>
   8034c:	000811c1 	.word	0x000811c1
   80350:	00085041 	.word	0x00085041
   80354:	00084c0d 	.word	0x00084c0d
   80358:	00084ff1 	.word	0x00084ff1
   8035c:	00081a99 	.word	0x00081a99
   80360:	00085005 	.word	0x00085005
   80364:	0008502d 	.word	0x0008502d
   80368:	00084aa1 	.word	0x00084aa1
   8036c:	00000000 	.word	0x00000000

00080370 <getAngle>:
   80370:	e92d 41f0 	stmdb	sp!, {r4, r5, r6, r7, r8, lr}
   80374:	1a80      	subs	r0, r0, r2
   80376:	4c12      	ldr	r4, [pc, #72]	; (803c0 <getAngle+0x50>)
   80378:	461d      	mov	r5, r3
   8037a:	4688      	mov	r8, r1
   8037c:	47a0      	blx	r4
   8037e:	4606      	mov	r6, r0
   80380:	460f      	mov	r7, r1
   80382:	eba8 0005 	sub.w	r0, r8, r5
   80386:	47a0      	blx	r4
   80388:	4632      	mov	r2, r6
   8038a:	463b      	mov	r3, r7
   8038c:	4c0d      	ldr	r4, [pc, #52]	; (803c4 <getAngle+0x54>)
   8038e:	47a0      	blx	r4
   80390:	a309      	add	r3, pc, #36	; (adr r3, 803b8 <getAngle+0x48>)
   80392:	e9d3 2300 	ldrd	r2, r3, [r3]
   80396:	4c0c      	ldr	r4, [pc, #48]	; (803c8 <getAngle+0x58>)
   80398:	47a0      	blx	r4
   8039a:	2200      	movs	r2, #0
   8039c:	4b0b      	ldr	r3, [pc, #44]	; (803cc <getAngle+0x5c>)
   8039e:	4c0c      	ldr	r4, [pc, #48]	; (803d0 <getAngle+0x60>)
   803a0:	47a0      	blx	r4
   803a2:	4b0c      	ldr	r3, [pc, #48]	; (803d4 <getAngle+0x64>)
   803a4:	4798      	blx	r3
   803a6:	f5b0 7fb4 	cmp.w	r0, #360	; 0x168
   803aa:	bf08      	it	eq
   803ac:	2000      	moveq	r0, #0
   803ae:	e8bd 81f0 	ldmia.w	sp!, {r4, r5, r6, r7, r8, pc}
   803b2:	bf00      	nop
   803b4:	f3af 8000 	nop.w
   803b8:	1a63c1f8 	.word	0x1a63c1f8
   803bc:	404ca5dc 	.word	0x404ca5dc
   803c0:	000843a9 	.word	0x000843a9
   803c4:	00083bd9 	.word	0x00083bd9
   803c8:	00084475 	.word	0x00084475
   803cc:	40668000 	.word	0x40668000
   803d0:	00084111 	.word	0x00084111
   803d4:	000849a9 	.word	0x000849a9

000803d8 <angleCorrection>:
   803d8:	e92d 41f0 	stmdb	sp!, {r4, r5, r6, r7, r8, lr}
   803dc:	1a80      	subs	r0, r0, r2
   803de:	4c16      	ldr	r4, [pc, #88]	; (80438 <angleCorrection+0x60>)
   803e0:	461d      	mov	r5, r3
   803e2:	4688      	mov	r8, r1
   803e4:	47a0      	blx	r4
   803e6:	4606      	mov	r6, r0
   803e8:	460f      	mov	r7, r1
   803ea:	eba8 0005 	sub.w	r0, r8, r5
   803ee:	47a0      	blx	r4
   803f0:	4632      	mov	r2, r6
   803f2:	463b      	mov	r3, r7
   803f4:	4c11      	ldr	r4, [pc, #68]	; (8043c <angleCorrection+0x64>)
   803f6:	47a0      	blx	r4
   803f8:	a30d      	add	r3, pc, #52	; (adr r3, 80430 <angleCorrection+0x58>)
   803fa:	e9d3 2300 	ldrd	r2, r3, [r3]
   803fe:	4c10      	ldr	r4, [pc, #64]	; (80440 <angleCorrection+0x68>)
   80400:	47a0      	blx	r4
   80402:	2200      	movs	r2, #0
   80404:	4b0f      	ldr	r3, [pc, #60]	; (80444 <angleCorrection+0x6c>)
   80406:	4c10      	ldr	r4, [pc, #64]	; (80448 <angleCorrection+0x70>)
   80408:	47a0      	blx	r4
   8040a:	4b10      	ldr	r3, [pc, #64]	; (8044c <angleCorrection+0x74>)
   8040c:	4798      	blx	r3
   8040e:	9b06      	ldr	r3, [sp, #24]
   80410:	1ac0      	subs	r0, r0, r3
   80412:	28b4      	cmp	r0, #180	; 0xb4
   80414:	4b0e      	ldr	r3, [pc, #56]	; (80450 <angleCorrection+0x78>)
   80416:	dd04      	ble.n	80422 <angleCorrection+0x4a>
   80418:	f5a0 70b4 	sub.w	r0, r0, #360	; 0x168
   8041c:	4798      	blx	r3
   8041e:	e8bd 81f0 	ldmia.w	sp!, {r4, r5, r6, r7, r8, pc}
   80422:	f110 0fb4 	cmn.w	r0, #180	; 0xb4
   80426:	bfb8      	it	lt
   80428:	f500 70b4 	addlt.w	r0, r0, #360	; 0x168
   8042c:	e7f6      	b.n	8041c <angleCorrection+0x44>
   8042e:	bf00      	nop
   80430:	1a63c1f8 	.word	0x1a63c1f8
   80434:	404ca5dc 	.word	0x404ca5dc
   80438:	000843a9 	.word	0x000843a9
   8043c:	00083bd9 	.word	0x00083bd9
   80440:	00084475 	.word	0x00084475
   80444:	40668000 	.word	0x40668000
   80448:	00084111 	.word	0x00084111
   8044c:	000849a9 	.word	0x000849a9
   80450:	00084c0d 	.word	0x00084c0d

00080454 <controlCenter>:
   80454:	e92d 4ff0 	stmdb	sp!, {r4, r5, r6, r7, r8, r9, sl, fp, lr}
   80458:	4b93      	ldr	r3, [pc, #588]	; (806a8 <controlCenter+0x254>)
   8045a:	b089      	sub	sp, #36	; 0x24
   8045c:	4798      	blx	r3
   8045e:	f04f 38ff 	mov.w	r8, #4294967295
   80462:	2400      	movs	r4, #0
   80464:	9007      	str	r0, [sp, #28]
   80466:	f8df a2dc 	ldr.w	sl, [pc, #732]	; 80744 <controlCenter+0x2f0>
   8046a:	21c8      	movs	r1, #200	; 0xc8
   8046c:	a807      	add	r0, sp, #28
   8046e:	47d0      	blx	sl
   80470:	2c05      	cmp	r4, #5
   80472:	f000 816b 	beq.w	8074c <controlCenter+0x2f8>
   80476:	dc69      	bgt.n	8054c <controlCenter+0xf8>
   80478:	2c02      	cmp	r4, #2
   8047a:	f000 80f0 	beq.w	8065e <controlCenter+0x20a>
   8047e:	dc3d      	bgt.n	804fc <controlCenter+0xa8>
   80480:	2c00      	cmp	r4, #0
   80482:	f000 80a5 	beq.w	805d0 <controlCenter+0x17c>
   80486:	2c01      	cmp	r4, #1
   80488:	d1ef      	bne.n	8046a <controlCenter+0x16>
   8048a:	4b88      	ldr	r3, [pc, #544]	; (806ac <controlCenter+0x258>)
   8048c:	4888      	ldr	r0, [pc, #544]	; (806b0 <controlCenter+0x25c>)
   8048e:	4798      	blx	r3
   80490:	4620      	mov	r0, r4
   80492:	4b88      	ldr	r3, [pc, #544]	; (806b4 <controlCenter+0x260>)
   80494:	4798      	blx	r3
   80496:	4c88      	ldr	r4, [pc, #544]	; (806b8 <controlCenter+0x264>)
   80498:	f106 0214 	add.w	r2, r6, #20
   8049c:	4639      	mov	r1, r7
   8049e:	463b      	mov	r3, r7
   804a0:	f8cd 9000 	str.w	r9, [sp]
   804a4:	4630      	mov	r0, r6
   804a6:	47a0      	blx	r4
   804a8:	4b84      	ldr	r3, [pc, #528]	; (806bc <controlCenter+0x268>)
   804aa:	4798      	blx	r3
   804ac:	4b84      	ldr	r3, [pc, #528]	; (806c0 <controlCenter+0x26c>)
   804ae:	4798      	blx	r3
   804b0:	4d84      	ldr	r5, [pc, #528]	; (806c4 <controlCenter+0x270>)
   804b2:	4985      	ldr	r1, [pc, #532]	; (806c8 <controlCenter+0x274>)
   804b4:	47a8      	blx	r5
   804b6:	f8df a244 	ldr.w	sl, [pc, #580]	; 806fc <controlCenter+0x2a8>
   804ba:	4c84      	ldr	r4, [pc, #528]	; (806cc <controlCenter+0x278>)
   804bc:	f8df b208 	ldr.w	fp, [pc, #520]	; 806c8 <controlCenter+0x274>
   804c0:	47d0      	blx	sl
   804c2:	9b02      	ldr	r3, [sp, #8]
   804c4:	4283      	cmp	r3, r0
   804c6:	f300 80c2 	bgt.w	8064e <controlCenter+0x1fa>
   804ca:	2100      	movs	r1, #0
   804cc:	4608      	mov	r0, r1
   804ce:	47a0      	blx	r4
   804d0:	497d      	ldr	r1, [pc, #500]	; (806c8 <controlCenter+0x274>)
   804d2:	487f      	ldr	r0, [pc, #508]	; (806d0 <controlCenter+0x27c>)
   804d4:	47a8      	blx	r5
   804d6:	f8df a1f0 	ldr.w	sl, [pc, #496]	; 806c8 <controlCenter+0x274>
   804da:	4d7e      	ldr	r5, [pc, #504]	; (806d4 <controlCenter+0x280>)
   804dc:	47a8      	blx	r5
   804de:	9b03      	ldr	r3, [sp, #12]
   804e0:	4283      	cmp	r3, r0
   804e2:	f300 80b8 	bgt.w	80656 <controlCenter+0x202>
   804e6:	2100      	movs	r1, #0
   804e8:	4608      	mov	r0, r1
   804ea:	47a0      	blx	r4
   804ec:	2501      	movs	r5, #1
   804ee:	2402      	movs	r4, #2
   804f0:	e7b9      	b.n	80466 <controlCenter+0x12>
   804f2:	2401      	movs	r4, #1
   804f4:	e7b7      	b.n	80466 <controlCenter+0x12>
   804f6:	2504      	movs	r5, #4
   804f8:	2463      	movs	r4, #99	; 0x63
   804fa:	e7b4      	b.n	80466 <controlCenter+0x12>
   804fc:	2c03      	cmp	r4, #3
   804fe:	f000 80c7 	beq.w	80690 <controlCenter+0x23c>
   80502:	2c04      	cmp	r4, #4
   80504:	d1b1      	bne.n	8046a <controlCenter+0x16>
   80506:	4874      	ldr	r0, [pc, #464]	; (806d8 <controlCenter+0x284>)
   80508:	f8df a1a0 	ldr.w	sl, [pc, #416]	; 806ac <controlCenter+0x258>
   8050c:	47d0      	blx	sl
   8050e:	4620      	mov	r0, r4
   80510:	4b68      	ldr	r3, [pc, #416]	; (806b4 <controlCenter+0x260>)
   80512:	4798      	blx	r3
   80514:	2108      	movs	r1, #8
   80516:	2022      	movs	r0, #34	; 0x22
   80518:	4b70      	ldr	r3, [pc, #448]	; (806dc <controlCenter+0x288>)
   8051a:	4798      	blx	r3
   8051c:	2801      	cmp	r0, #1
   8051e:	f040 80bf 	bne.w	806a0 <controlCenter+0x24c>
   80522:	486f      	ldr	r0, [pc, #444]	; (806e0 <controlCenter+0x28c>)
   80524:	47d0      	blx	sl
   80526:	f04f 0a00 	mov.w	sl, #0
   8052a:	2008      	movs	r0, #8
   8052c:	4b6d      	ldr	r3, [pc, #436]	; (806e4 <controlCenter+0x290>)
   8052e:	4798      	blx	r3
   80530:	2801      	cmp	r0, #1
   80532:	d198      	bne.n	80466 <controlCenter+0x12>
   80534:	f1ba 0f00 	cmp.w	sl, #0
   80538:	d195      	bne.n	80466 <controlCenter+0x12>
   8053a:	4b6b      	ldr	r3, [pc, #428]	; (806e8 <controlCenter+0x294>)
   8053c:	781b      	ldrb	r3, [r3, #0]
   8053e:	2b14      	cmp	r3, #20
   80540:	d0d9      	beq.n	804f6 <controlCenter+0xa2>
   80542:	4961      	ldr	r1, [pc, #388]	; (806c8 <controlCenter+0x274>)
   80544:	4869      	ldr	r0, [pc, #420]	; (806ec <controlCenter+0x298>)
   80546:	4b6a      	ldr	r3, [pc, #424]	; (806f0 <controlCenter+0x29c>)
   80548:	4798      	blx	r3
   8054a:	e09f      	b.n	8068c <controlCenter+0x238>
   8054c:	2c08      	cmp	r4, #8
   8054e:	f000 8144 	beq.w	807da <controlCenter+0x386>
   80552:	dc0b      	bgt.n	8056c <controlCenter+0x118>
   80554:	2c06      	cmp	r4, #6
   80556:	f000 8133 	beq.w	807c0 <controlCenter+0x36c>
   8055a:	2c07      	cmp	r4, #7
   8055c:	d185      	bne.n	8046a <controlCenter+0x16>
   8055e:	4b53      	ldr	r3, [pc, #332]	; (806ac <controlCenter+0x258>)
   80560:	4864      	ldr	r0, [pc, #400]	; (806f4 <controlCenter+0x2a0>)
   80562:	4798      	blx	r3
   80564:	4620      	mov	r0, r4
   80566:	4b53      	ldr	r3, [pc, #332]	; (806b4 <controlCenter+0x260>)
   80568:	4798      	blx	r3
   8056a:	e77c      	b.n	80466 <controlCenter+0x12>
   8056c:	2c09      	cmp	r4, #9
   8056e:	f000 8142 	beq.w	807f6 <controlCenter+0x3a2>
   80572:	2c63      	cmp	r4, #99	; 0x63
   80574:	f47f af79 	bne.w	8046a <controlCenter+0x16>
   80578:	f8df a130 	ldr.w	sl, [pc, #304]	; 806ac <controlCenter+0x258>
   8057c:	485e      	ldr	r0, [pc, #376]	; (806f8 <controlCenter+0x2a4>)
   8057e:	47d0      	blx	sl
   80580:	4e5e      	ldr	r6, [pc, #376]	; (806fc <controlCenter+0x2a8>)
   80582:	4b4c      	ldr	r3, [pc, #304]	; (806b4 <controlCenter+0x260>)
   80584:	200a      	movs	r0, #10
   80586:	4798      	blx	r3
   80588:	47b0      	blx	r6
   8058a:	4f52      	ldr	r7, [pc, #328]	; (806d4 <controlCenter+0x280>)
   8058c:	4681      	mov	r9, r0
   8058e:	47b8      	blx	r7
   80590:	4b57      	ldr	r3, [pc, #348]	; (806f0 <controlCenter+0x29c>)
   80592:	494d      	ldr	r1, [pc, #308]	; (806c8 <controlCenter+0x274>)
   80594:	4683      	mov	fp, r0
   80596:	4855      	ldr	r0, [pc, #340]	; (806ec <controlCenter+0x298>)
   80598:	4798      	blx	r3
   8059a:	47b0      	blx	r6
   8059c:	4606      	mov	r6, r0
   8059e:	47b8      	blx	r7
   805a0:	4607      	mov	r7, r0
   805a2:	4631      	mov	r1, r6
   805a4:	4856      	ldr	r0, [pc, #344]	; (80700 <controlCenter+0x2ac>)
   805a6:	47d0      	blx	sl
   805a8:	4639      	mov	r1, r7
   805aa:	4856      	ldr	r0, [pc, #344]	; (80704 <controlCenter+0x2b0>)
   805ac:	47d0      	blx	sl
   805ae:	4659      	mov	r1, fp
   805b0:	4648      	mov	r0, r9
   805b2:	463b      	mov	r3, r7
   805b4:	f8df 9190 	ldr.w	r9, [pc, #400]	; 80748 <controlCenter+0x2f4>
   805b8:	4632      	mov	r2, r6
   805ba:	47c8      	blx	r9
   805bc:	4681      	mov	r9, r0
   805be:	4601      	mov	r1, r0
   805c0:	4851      	ldr	r0, [pc, #324]	; (80708 <controlCenter+0x2b4>)
   805c2:	47d0      	blx	sl
   805c4:	2d00      	cmp	r5, #0
   805c6:	d094      	beq.n	804f2 <controlCenter+0x9e>
   805c8:	2d04      	cmp	r5, #4
   805ca:	bf08      	it	eq
   805cc:	2405      	moveq	r4, #5
   805ce:	e74a      	b.n	80466 <controlCenter+0x12>
   805d0:	f8df a0d8 	ldr.w	sl, [pc, #216]	; 806ac <controlCenter+0x258>
   805d4:	484d      	ldr	r0, [pc, #308]	; (8070c <controlCenter+0x2b8>)
   805d6:	47d0      	blx	sl
   805d8:	4620      	mov	r0, r4
   805da:	4b36      	ldr	r3, [pc, #216]	; (806b4 <controlCenter+0x260>)
   805dc:	4798      	blx	r3
   805de:	2001      	movs	r0, #1
   805e0:	4b4b      	ldr	r3, [pc, #300]	; (80710 <controlCenter+0x2bc>)
   805e2:	4798      	blx	r3
   805e4:	4b4b      	ldr	r3, [pc, #300]	; (80714 <controlCenter+0x2c0>)
   805e6:	4798      	blx	r3
   805e8:	4a4b      	ldr	r2, [pc, #300]	; (80718 <controlCenter+0x2c4>)
   805ea:	9003      	str	r0, [sp, #12]
   805ec:	4790      	blx	r2
   805ee:	4a4b      	ldr	r2, [pc, #300]	; (8071c <controlCenter+0x2c8>)
   805f0:	4680      	mov	r8, r0
   805f2:	4790      	blx	r2
   805f4:	4a4a      	ldr	r2, [pc, #296]	; (80720 <controlCenter+0x2cc>)
   805f6:	9002      	str	r0, [sp, #8]
   805f8:	4790      	blx	r2
   805fa:	9b03      	ldr	r3, [sp, #12]
   805fc:	4683      	mov	fp, r0
   805fe:	f1a3 020f 	sub.w	r2, r3, #15
   80602:	9204      	str	r2, [sp, #16]
   80604:	f1a8 0234 	sub.w	r2, r8, #52	; 0x34
   80608:	9205      	str	r2, [sp, #20]
   8060a:	f1a0 0264 	sub.w	r2, r0, #100	; 0x64
   8060e:	9203      	str	r2, [sp, #12]
   80610:	9a02      	ldr	r2, [sp, #8]
   80612:	3201      	adds	r2, #1
   80614:	4652      	mov	r2, sl
   80616:	d107      	bne.n	80628 <controlCenter+0x1d4>
   80618:	f1b0 3fff 	cmp.w	r0, #4294967295
   8061c:	d104      	bne.n	80628 <controlCenter+0x1d4>
   8061e:	3301      	adds	r3, #1
   80620:	d102      	bne.n	80628 <controlCenter+0x1d4>
   80622:	f1b8 3fff 	cmp.w	r8, #4294967295
   80626:	d004      	beq.n	80632 <controlCenter+0x1de>
   80628:	483e      	ldr	r0, [pc, #248]	; (80724 <controlCenter+0x2d0>)
   8062a:	4790      	blx	r2
   8062c:	2500      	movs	r5, #0
   8062e:	46d8      	mov	r8, fp
   80630:	e762      	b.n	804f8 <controlCenter+0xa4>
   80632:	483d      	ldr	r0, [pc, #244]	; (80728 <controlCenter+0x2d4>)
   80634:	47d0      	blx	sl
   80636:	f06f 0364 	mvn.w	r3, #100	; 0x64
   8063a:	9303      	str	r3, [sp, #12]
   8063c:	f06f 0334 	mvn.w	r3, #52	; 0x34
   80640:	9305      	str	r3, [sp, #20]
   80642:	f06f 030f 	mvn.w	r3, #15
   80646:	f8cd 8008 	str.w	r8, [sp, #8]
   8064a:	9304      	str	r3, [sp, #16]
   8064c:	e70b      	b.n	80466 <controlCenter+0x12>
   8064e:	4659      	mov	r1, fp
   80650:	481d      	ldr	r0, [pc, #116]	; (806c8 <controlCenter+0x274>)
   80652:	47a0      	blx	r4
   80654:	e734      	b.n	804c0 <controlCenter+0x6c>
   80656:	4651      	mov	r1, sl
   80658:	481b      	ldr	r0, [pc, #108]	; (806c8 <controlCenter+0x274>)
   8065a:	47a0      	blx	r4
   8065c:	e73e      	b.n	804dc <controlCenter+0x88>
   8065e:	4b13      	ldr	r3, [pc, #76]	; (806ac <controlCenter+0x258>)
   80660:	4832      	ldr	r0, [pc, #200]	; (8072c <controlCenter+0x2d8>)
   80662:	4798      	blx	r3
   80664:	4620      	mov	r0, r4
   80666:	4b13      	ldr	r3, [pc, #76]	; (806b4 <controlCenter+0x260>)
   80668:	4798      	blx	r3
   8066a:	4b1a      	ldr	r3, [pc, #104]	; (806d4 <controlCenter+0x280>)
   8066c:	4798      	blx	r3
   8066e:	eba8 0000 	sub.w	r0, r8, r0
   80672:	4b2f      	ldr	r3, [pc, #188]	; (80730 <controlCenter+0x2dc>)
   80674:	381e      	subs	r0, #30
   80676:	4798      	blx	r3
   80678:	4d2e      	ldr	r5, [pc, #184]	; (80734 <controlCenter+0x2e0>)
   8067a:	2200      	movs	r2, #0
   8067c:	4b2e      	ldr	r3, [pc, #184]	; (80738 <controlCenter+0x2e4>)
   8067e:	47a8      	blx	r5
   80680:	4b2e      	ldr	r3, [pc, #184]	; (8073c <controlCenter+0x2e8>)
   80682:	4798      	blx	r3
   80684:	4910      	ldr	r1, [pc, #64]	; (806c8 <controlCenter+0x274>)
   80686:	4b1a      	ldr	r3, [pc, #104]	; (806f0 <controlCenter+0x29c>)
   80688:	4798      	blx	r3
   8068a:	4625      	mov	r5, r4
   8068c:	2403      	movs	r4, #3
   8068e:	e6ea      	b.n	80466 <controlCenter+0x12>
   80690:	4b06      	ldr	r3, [pc, #24]	; (806ac <controlCenter+0x258>)
   80692:	482b      	ldr	r0, [pc, #172]	; (80740 <controlCenter+0x2ec>)
   80694:	4798      	blx	r3
   80696:	4620      	mov	r0, r4
   80698:	4b06      	ldr	r3, [pc, #24]	; (806b4 <controlCenter+0x260>)
   8069a:	4798      	blx	r3
   8069c:	2404      	movs	r4, #4
   8069e:	e6e2      	b.n	80466 <controlCenter+0x12>
   806a0:	f04f 0a01 	mov.w	sl, #1
   806a4:	e741      	b.n	8052a <controlCenter+0xd6>
   806a6:	bf00      	nop
   806a8:	00082b05 	.word	0x00082b05
   806ac:	000850dd 	.word	0x000850dd
   806b0:	00088029 	.word	0x00088029
   806b4:	00080161 	.word	0x00080161
   806b8:	000803d9 	.word	0x000803d9
   806bc:	00085041 	.word	0x00085041
   806c0:	00084c0d 	.word	0x00084c0d
   806c4:	000802e5 	.word	0x000802e5
   806c8:	43160000 	.word	0x43160000
   806cc:	0008025d 	.word	0x0008025d
   806d0:	42b40000 	.word	0x42b40000
   806d4:	00080955 	.word	0x00080955
   806d8:	0008807c 	.word	0x0008807c
   806dc:	000817e5 	.word	0x000817e5
   806e0:	00088098 	.word	0x00088098
   806e4:	00081851 	.word	0x00081851
   806e8:	20070c10 	.word	0x20070c10
   806ec:	41200000 	.word	0x41200000
   806f0:	00080289 	.word	0x00080289
   806f4:	000880f4 	.word	0x000880f4
   806f8:	00087f70 	.word	0x00087f70
   806fc:	00080949 	.word	0x00080949
   80700:	00087f8b 	.word	0x00087f8b
   80704:	00087f9f 	.word	0x00087f9f
   80708:	00087fb3 	.word	0x00087fb3
   8070c:	00087fc2 	.word	0x00087fc2
   80710:	00080925 	.word	0x00080925
   80714:	00080961 	.word	0x00080961
   80718:	0008096d 	.word	0x0008096d
   8071c:	00080931 	.word	0x00080931
   80720:	0008093d 	.word	0x0008093d
   80724:	00087fde 	.word	0x00087fde
   80728:	00087ffe 	.word	0x00087ffe
   8072c:	00088045 	.word	0x00088045
   80730:	000843a9 	.word	0x000843a9
   80734:	0008410d 	.word	0x0008410d
   80738:	40368000 	.word	0x40368000
   8073c:	000849f9 	.word	0x000849f9
   80740:	00088060 	.word	0x00088060
   80744:	00082d29 	.word	0x00082d29
   80748:	00080371 	.word	0x00080371
   8074c:	4b31      	ldr	r3, [pc, #196]	; (80814 <controlCenter+0x3c0>)
   8074e:	4832      	ldr	r0, [pc, #200]	; (80818 <controlCenter+0x3c4>)
   80750:	4798      	blx	r3
   80752:	4620      	mov	r0, r4
   80754:	4b31      	ldr	r3, [pc, #196]	; (8081c <controlCenter+0x3c8>)
   80756:	4798      	blx	r3
   80758:	4c31      	ldr	r4, [pc, #196]	; (80820 <controlCenter+0x3cc>)
   8075a:	f106 0214 	add.w	r2, r6, #20
   8075e:	4639      	mov	r1, r7
   80760:	463b      	mov	r3, r7
   80762:	f8cd 9000 	str.w	r9, [sp]
   80766:	4630      	mov	r0, r6
   80768:	47a0      	blx	r4
   8076a:	4b2e      	ldr	r3, [pc, #184]	; (80824 <controlCenter+0x3d0>)
   8076c:	4798      	blx	r3
   8076e:	4b2e      	ldr	r3, [pc, #184]	; (80828 <controlCenter+0x3d4>)
   80770:	4798      	blx	r3
   80772:	4d2e      	ldr	r5, [pc, #184]	; (8082c <controlCenter+0x3d8>)
   80774:	492e      	ldr	r1, [pc, #184]	; (80830 <controlCenter+0x3dc>)
   80776:	47a8      	blx	r5
   80778:	f8df a0e8 	ldr.w	sl, [pc, #232]	; 80864 <controlCenter+0x410>
   8077c:	4c2d      	ldr	r4, [pc, #180]	; (80834 <controlCenter+0x3e0>)
   8077e:	f8df b0b0 	ldr.w	fp, [pc, #176]	; 80830 <controlCenter+0x3dc>
   80782:	47d0      	blx	sl
   80784:	9b04      	ldr	r3, [sp, #16]
   80786:	4298      	cmp	r0, r3
   80788:	db12      	blt.n	807b0 <controlCenter+0x35c>
   8078a:	2100      	movs	r1, #0
   8078c:	4608      	mov	r0, r1
   8078e:	47a0      	blx	r4
   80790:	4927      	ldr	r1, [pc, #156]	; (80830 <controlCenter+0x3dc>)
   80792:	4829      	ldr	r0, [pc, #164]	; (80838 <controlCenter+0x3e4>)
   80794:	47a8      	blx	r5
   80796:	f8df a098 	ldr.w	sl, [pc, #152]	; 80830 <controlCenter+0x3dc>
   8079a:	4d28      	ldr	r5, [pc, #160]	; (8083c <controlCenter+0x3e8>)
   8079c:	47a8      	blx	r5
   8079e:	9b05      	ldr	r3, [sp, #20]
   807a0:	4298      	cmp	r0, r3
   807a2:	db09      	blt.n	807b8 <controlCenter+0x364>
   807a4:	2100      	movs	r1, #0
   807a6:	4608      	mov	r0, r1
   807a8:	47a0      	blx	r4
   807aa:	2505      	movs	r5, #5
   807ac:	2406      	movs	r4, #6
   807ae:	e65a      	b.n	80466 <controlCenter+0x12>
   807b0:	4659      	mov	r1, fp
   807b2:	481f      	ldr	r0, [pc, #124]	; (80830 <controlCenter+0x3dc>)
   807b4:	47a0      	blx	r4
   807b6:	e7e4      	b.n	80782 <controlCenter+0x32e>
   807b8:	4651      	mov	r1, sl
   807ba:	481d      	ldr	r0, [pc, #116]	; (80830 <controlCenter+0x3dc>)
   807bc:	47a0      	blx	r4
   807be:	e7ed      	b.n	8079c <controlCenter+0x348>
   807c0:	4b14      	ldr	r3, [pc, #80]	; (80814 <controlCenter+0x3c0>)
   807c2:	481f      	ldr	r0, [pc, #124]	; (80840 <controlCenter+0x3ec>)
   807c4:	4798      	blx	r3
   807c6:	4620      	mov	r0, r4
   807c8:	4b14      	ldr	r3, [pc, #80]	; (8081c <controlCenter+0x3c8>)
   807ca:	4798      	blx	r3
   807cc:	4918      	ldr	r1, [pc, #96]	; (80830 <controlCenter+0x3dc>)
   807ce:	481d      	ldr	r0, [pc, #116]	; (80844 <controlCenter+0x3f0>)
   807d0:	4b1d      	ldr	r3, [pc, #116]	; (80848 <controlCenter+0x3f4>)
   807d2:	4625      	mov	r5, r4
   807d4:	4798      	blx	r3
   807d6:	2407      	movs	r4, #7
   807d8:	e645      	b.n	80466 <controlCenter+0x12>
   807da:	4b0e      	ldr	r3, [pc, #56]	; (80814 <controlCenter+0x3c0>)
   807dc:	481b      	ldr	r0, [pc, #108]	; (8084c <controlCenter+0x3f8>)
   807de:	4798      	blx	r3
   807e0:	4620      	mov	r0, r4
   807e2:	4b0e      	ldr	r3, [pc, #56]	; (8081c <controlCenter+0x3c8>)
   807e4:	4798      	blx	r3
   807e6:	4621      	mov	r1, r4
   807e8:	2025      	movs	r0, #37	; 0x25
   807ea:	4b19      	ldr	r3, [pc, #100]	; (80850 <controlCenter+0x3fc>)
   807ec:	4798      	blx	r3
   807ee:	2801      	cmp	r0, #1
   807f0:	bf08      	it	eq
   807f2:	2409      	moveq	r4, #9
   807f4:	e637      	b.n	80466 <controlCenter+0x12>
   807f6:	4b07      	ldr	r3, [pc, #28]	; (80814 <controlCenter+0x3c0>)
   807f8:	4814      	ldr	r0, [pc, #80]	; (8084c <controlCenter+0x3f8>)
   807fa:	4798      	blx	r3
   807fc:	4620      	mov	r0, r4
   807fe:	4b07      	ldr	r3, [pc, #28]	; (8081c <controlCenter+0x3c8>)
   80800:	4798      	blx	r3
   80802:	4914      	ldr	r1, [pc, #80]	; (80854 <controlCenter+0x400>)
   80804:	4814      	ldr	r0, [pc, #80]	; (80858 <controlCenter+0x404>)
   80806:	4b10      	ldr	r3, [pc, #64]	; (80848 <controlCenter+0x3f4>)
   80808:	4798      	blx	r3
   8080a:	4914      	ldr	r1, [pc, #80]	; (8085c <controlCenter+0x408>)
   8080c:	4814      	ldr	r0, [pc, #80]	; (80860 <controlCenter+0x40c>)
   8080e:	4b07      	ldr	r3, [pc, #28]	; (8082c <controlCenter+0x3d8>)
   80810:	4798      	blx	r3
   80812:	e628      	b.n	80466 <controlCenter+0x12>
   80814:	000850dd 	.word	0x000850dd
   80818:	000880bc 	.word	0x000880bc
   8081c:	00080161 	.word	0x00080161
   80820:	000803d9 	.word	0x000803d9
   80824:	00085041 	.word	0x00085041
   80828:	00084c0d 	.word	0x00084c0d
   8082c:	000802e5 	.word	0x000802e5
   80830:	43160000 	.word	0x43160000
   80834:	0008025d 	.word	0x0008025d
   80838:	42b40000 	.word	0x42b40000
   8083c:	00080955 	.word	0x00080955
   80840:	000880d8 	.word	0x000880d8
   80844:	41700000 	.word	0x41700000
   80848:	00080289 	.word	0x00080289
   8084c:	00088110 	.word	0x00088110
   80850:	000817e5 	.word	0x000817e5
   80854:	43e10000 	.word	0x43e10000
   80858:	c1f00000 	.word	0xc1f00000
   8085c:	43480000 	.word	0x43480000
   80860:	43340000 	.word	0x43340000
   80864:	00080949 	.word	0x00080949

00080868 <position>:
   80868:	e92d 41f3 	stmdb	sp!, {r0, r1, r4, r5, r6, r7, r8, lr}
   8086c:	4b1e      	ldr	r3, [pc, #120]	; (808e8 <position+0x80>)
   8086e:	4798      	blx	r3
   80870:	4e1e      	ldr	r6, [pc, #120]	; (808ec <position+0x84>)
   80872:	4f1f      	ldr	r7, [pc, #124]	; (808f0 <position+0x88>)
   80874:	f8df 80a8 	ldr.w	r8, [pc, #168]	; 80920 <position+0xb8>
   80878:	9001      	str	r0, [sp, #4]
   8087a:	21c8      	movs	r1, #200	; 0xc8
   8087c:	a801      	add	r0, sp, #4
   8087e:	47b0      	blx	r6
   80880:	2010      	movs	r0, #16
   80882:	47b8      	blx	r7
   80884:	2801      	cmp	r0, #1
   80886:	d1f8      	bne.n	8087a <position+0x12>
   80888:	4c1a      	ldr	r4, [pc, #104]	; (808f4 <position+0x8c>)
   8088a:	4a1b      	ldr	r2, [pc, #108]	; (808f8 <position+0x90>)
   8088c:	7823      	ldrb	r3, [r4, #0]
   8088e:	7a21      	ldrb	r1, [r4, #8]
   80890:	005b      	lsls	r3, r3, #1
   80892:	f8c8 3000 	str.w	r3, [r8]
   80896:	7863      	ldrb	r3, [r4, #1]
   80898:	4d18      	ldr	r5, [pc, #96]	; (808fc <position+0x94>)
   8089a:	005b      	lsls	r3, r3, #1
   8089c:	6013      	str	r3, [r2, #0]
   8089e:	4b18      	ldr	r3, [pc, #96]	; (80900 <position+0x98>)
   808a0:	004a      	lsls	r2, r1, #1
   808a2:	601a      	str	r2, [r3, #0]
   808a4:	7a63      	ldrb	r3, [r4, #9]
   808a6:	4a17      	ldr	r2, [pc, #92]	; (80904 <position+0x9c>)
   808a8:	005b      	lsls	r3, r3, #1
   808aa:	4817      	ldr	r0, [pc, #92]	; (80908 <position+0xa0>)
   808ac:	6013      	str	r3, [r2, #0]
   808ae:	47a8      	blx	r5
   808b0:	7a61      	ldrb	r1, [r4, #9]
   808b2:	4816      	ldr	r0, [pc, #88]	; (8090c <position+0xa4>)
   808b4:	47a8      	blx	r5
   808b6:	4b16      	ldr	r3, [pc, #88]	; (80910 <position+0xa8>)
   808b8:	681b      	ldr	r3, [r3, #0]
   808ba:	2b01      	cmp	r3, #1
   808bc:	d108      	bne.n	808d0 <position+0x68>
   808be:	78a3      	ldrb	r3, [r4, #2]
   808c0:	4a14      	ldr	r2, [pc, #80]	; (80914 <position+0xac>)
   808c2:	005b      	lsls	r3, r3, #1
   808c4:	6013      	str	r3, [r2, #0]
   808c6:	78e3      	ldrb	r3, [r4, #3]
   808c8:	4a13      	ldr	r2, [pc, #76]	; (80918 <position+0xb0>)
   808ca:	005b      	lsls	r3, r3, #1
   808cc:	6013      	str	r3, [r2, #0]
   808ce:	e7d4      	b.n	8087a <position+0x12>
   808d0:	2b02      	cmp	r3, #2
   808d2:	d105      	bne.n	808e0 <position+0x78>
   808d4:	79a3      	ldrb	r3, [r4, #6]
   808d6:	4a0f      	ldr	r2, [pc, #60]	; (80914 <position+0xac>)
   808d8:	005b      	lsls	r3, r3, #1
   808da:	6013      	str	r3, [r2, #0]
   808dc:	79e3      	ldrb	r3, [r4, #7]
   808de:	e7f3      	b.n	808c8 <position+0x60>
   808e0:	480e      	ldr	r0, [pc, #56]	; (8091c <position+0xb4>)
   808e2:	47a8      	blx	r5
   808e4:	e7c9      	b.n	8087a <position+0x12>
   808e6:	bf00      	nop
   808e8:	00082b05 	.word	0x00082b05
   808ec:	00082d29 	.word	0x00082d29
   808f0:	00081851 	.word	0x00081851
   808f4:	20070c11 	.word	0x20070c11
   808f8:	20070b48 	.word	0x20070b48
   808fc:	000850dd 	.word	0x000850dd
   80900:	20070b58 	.word	0x20070b58
   80904:	20070b5c 	.word	0x20070b5c
   80908:	0008812c 	.word	0x0008812c
   8090c:	00088134 	.word	0x00088134
   80910:	20070b4c 	.word	0x20070b4c
   80914:	20070b50 	.word	0x20070b50
   80918:	20070b54 	.word	0x20070b54
   8091c:	0008813c 	.word	0x0008813c
   80920:	20070b44 	.word	0x20070b44

00080924 <setExtension>:
   80924:	4b01      	ldr	r3, [pc, #4]	; (8092c <setExtension+0x8>)
   80926:	6018      	str	r0, [r3, #0]
   80928:	4770      	bx	lr
   8092a:	bf00      	nop
   8092c:	20070b4c 	.word	0x20070b4c

00080930 <getPickupX>:
   80930:	4b01      	ldr	r3, [pc, #4]	; (80938 <getPickupX+0x8>)
   80932:	6818      	ldr	r0, [r3, #0]
   80934:	4770      	bx	lr
   80936:	bf00      	nop
   80938:	20070b50 	.word	0x20070b50

0008093c <getPickupY>:
   8093c:	4b01      	ldr	r3, [pc, #4]	; (80944 <getPickupY+0x8>)
   8093e:	6818      	ldr	r0, [r3, #0]
   80940:	4770      	bx	lr
   80942:	bf00      	nop
   80944:	20070b54 	.word	0x20070b54

00080948 <getPositionX>:
   80948:	4b01      	ldr	r3, [pc, #4]	; (80950 <getPositionX+0x8>)
   8094a:	6818      	ldr	r0, [r3, #0]
   8094c:	4770      	bx	lr
   8094e:	bf00      	nop
   80950:	20070b58 	.word	0x20070b58

00080954 <getPositionY>:
   80954:	4b01      	ldr	r3, [pc, #4]	; (8095c <getPositionY+0x8>)
   80956:	6818      	ldr	r0, [r3, #0]
   80958:	4770      	bx	lr
   8095a:	bf00      	nop
   8095c:	20070b5c 	.word	0x20070b5c

00080960 <getDisposalX>:
   80960:	4b01      	ldr	r3, [pc, #4]	; (80968 <getDisposalX+0x8>)
   80962:	6818      	ldr	r0, [r3, #0]
   80964:	4770      	bx	lr
   80966:	bf00      	nop
   80968:	20070b44 	.word	0x20070b44

0008096c <getDisposalY>:
   8096c:	4b01      	ldr	r3, [pc, #4]	; (80974 <getDisposalY+0x8>)
   8096e:	6818      	ldr	r0, [r3, #0]
   80970:	4770      	bx	lr
   80972:	bf00      	nop
   80974:	20070b48 	.word	0x20070b48

00080978 <regulator>:
   80978:	e92d 4ff0 	stmdb	sp!, {r4, r5, r6, r7, r8, r9, sl, fp, lr}
   8097c:	4b8d      	ldr	r3, [pc, #564]	; (80bb4 <regulator+0x23c>)
   8097e:	b08b      	sub	sp, #44	; 0x2c
   80980:	4798      	blx	r3
   80982:	9009      	str	r0, [sp, #36]	; 0x24
   80984:	f44f 7196 	mov.w	r1, #300	; 0x12c
   80988:	a809      	add	r0, sp, #36	; 0x24
   8098a:	4b8b      	ldr	r3, [pc, #556]	; (80bb8 <regulator+0x240>)
   8098c:	4798      	blx	r3
   8098e:	f04f 6300 	mov.w	r3, #134217728	; 0x8000000
   80992:	4a8a      	ldr	r2, [pc, #552]	; (80bbc <regulator+0x244>)
   80994:	f8df a2d8 	ldr.w	sl, [pc, #728]	; 80c70 <regulator+0x2f8>
   80998:	6313      	str	r3, [r2, #48]	; 0x30
   8099a:	f8da 0000 	ldr.w	r0, [sl]
   8099e:	4b88      	ldr	r3, [pc, #544]	; (80bc0 <regulator+0x248>)
   809a0:	4798      	blx	r3
   809a2:	4b88      	ldr	r3, [pc, #544]	; (80bc4 <regulator+0x24c>)
   809a4:	f8df b2cc 	ldr.w	fp, [pc, #716]	; 80c74 <regulator+0x2fc>
   809a8:	6819      	ldr	r1, [r3, #0]
   809aa:	47d8      	blx	fp
   809ac:	4b86      	ldr	r3, [pc, #536]	; (80bc8 <regulator+0x250>)
   809ae:	4798      	blx	r3
   809b0:	f8df 92c4 	ldr.w	r9, [pc, #708]	; 80c78 <regulator+0x300>
   809b4:	4601      	mov	r1, r0
   809b6:	4885      	ldr	r0, [pc, #532]	; (80bcc <regulator+0x254>)
   809b8:	47c8      	blx	r9
   809ba:	4b85      	ldr	r3, [pc, #532]	; (80bd0 <regulator+0x258>)
   809bc:	4798      	blx	r3
   809be:	4b85      	ldr	r3, [pc, #532]	; (80bd4 <regulator+0x25c>)
   809c0:	4c85      	ldr	r4, [pc, #532]	; (80bd8 <regulator+0x260>)
   809c2:	6018      	str	r0, [r3, #0]
   809c4:	4b85      	ldr	r3, [pc, #532]	; (80bdc <regulator+0x264>)
   809c6:	4798      	blx	r3
   809c8:	4b85      	ldr	r3, [pc, #532]	; (80be0 <regulator+0x268>)
   809ca:	4a86      	ldr	r2, [pc, #536]	; (80be4 <regulator+0x26c>)
   809cc:	6018      	str	r0, [r3, #0]
   809ce:	9302      	str	r3, [sp, #8]
   809d0:	4790      	blx	r2
   809d2:	4a85      	ldr	r2, [pc, #532]	; (80be8 <regulator+0x270>)
   809d4:	6020      	str	r0, [r4, #0]
   809d6:	4790      	blx	r2
   809d8:	4a84      	ldr	r2, [pc, #528]	; (80bec <regulator+0x274>)
   809da:	6826      	ldr	r6, [r4, #0]
   809dc:	6811      	ldr	r1, [r2, #0]
   809de:	4d84      	ldr	r5, [pc, #528]	; (80bf0 <regulator+0x278>)
   809e0:	4431      	add	r1, r6
   809e2:	6011      	str	r1, [r2, #0]
   809e4:	4983      	ldr	r1, [pc, #524]	; (80bf4 <regulator+0x27c>)
   809e6:	6028      	str	r0, [r5, #0]
   809e8:	680a      	ldr	r2, [r1, #0]
   809ea:	4e83      	ldr	r6, [pc, #524]	; (80bf8 <regulator+0x280>)
   809ec:	4402      	add	r2, r0
   809ee:	600a      	str	r2, [r1, #0]
   809f0:	4a82      	ldr	r2, [pc, #520]	; (80bfc <regulator+0x284>)
   809f2:	4790      	blx	r2
   809f4:	6829      	ldr	r1, [r5, #0]
   809f6:	4882      	ldr	r0, [pc, #520]	; (80c00 <regulator+0x288>)
   809f8:	47c8      	blx	r9
   809fa:	6821      	ldr	r1, [r4, #0]
   809fc:	4881      	ldr	r0, [pc, #516]	; (80c04 <regulator+0x28c>)
   809fe:	47c8      	blx	r9
   80a00:	4f81      	ldr	r7, [pc, #516]	; (80c08 <regulator+0x290>)
   80a02:	6831      	ldr	r1, [r6, #0]
   80a04:	4881      	ldr	r0, [pc, #516]	; (80c0c <regulator+0x294>)
   80a06:	47c8      	blx	r9
   80a08:	4b6d      	ldr	r3, [pc, #436]	; (80bc0 <regulator+0x248>)
   80a0a:	f8da 0000 	ldr.w	r0, [sl]
   80a0e:	4798      	blx	r3
   80a10:	6839      	ldr	r1, [r7, #0]
   80a12:	47d8      	blx	fp
   80a14:	4b6c      	ldr	r3, [pc, #432]	; (80bc8 <regulator+0x250>)
   80a16:	4798      	blx	r3
   80a18:	4601      	mov	r1, r0
   80a1a:	487d      	ldr	r0, [pc, #500]	; (80c10 <regulator+0x298>)
   80a1c:	47c8      	blx	r9
   80a1e:	6830      	ldr	r0, [r6, #0]
   80a20:	4b67      	ldr	r3, [pc, #412]	; (80bc0 <regulator+0x248>)
   80a22:	4798      	blx	r3
   80a24:	4606      	mov	r6, r0
   80a26:	683f      	ldr	r7, [r7, #0]
   80a28:	6820      	ldr	r0, [r4, #0]
   80a2a:	4b65      	ldr	r3, [pc, #404]	; (80bc0 <regulator+0x248>)
   80a2c:	4798      	blx	r3
   80a2e:	4639      	mov	r1, r7
   80a30:	47d8      	blx	fp
   80a32:	4631      	mov	r1, r6
   80a34:	4b77      	ldr	r3, [pc, #476]	; (80c14 <regulator+0x29c>)
   80a36:	4798      	blx	r3
   80a38:	f8df 8240 	ldr.w	r8, [pc, #576]	; 80c7c <regulator+0x304>
   80a3c:	4b60      	ldr	r3, [pc, #384]	; (80bc0 <regulator+0x248>)
   80a3e:	f8c8 0000 	str.w	r0, [r8]
   80a42:	9000      	str	r0, [sp, #0]
   80a44:	6828      	ldr	r0, [r5, #0]
   80a46:	4798      	blx	r3
   80a48:	4639      	mov	r1, r7
   80a4a:	47d8      	blx	fp
   80a4c:	4631      	mov	r1, r6
   80a4e:	4b71      	ldr	r3, [pc, #452]	; (80c14 <regulator+0x29c>)
   80a50:	4798      	blx	r3
   80a52:	4c71      	ldr	r4, [pc, #452]	; (80c18 <regulator+0x2a0>)
   80a54:	4b5a      	ldr	r3, [pc, #360]	; (80bc0 <regulator+0x248>)
   80a56:	6020      	str	r0, [r4, #0]
   80a58:	f8da 0000 	ldr.w	r0, [sl]
   80a5c:	4798      	blx	r3
   80a5e:	9a00      	ldr	r2, [sp, #0]
   80a60:	4f6e      	ldr	r7, [pc, #440]	; (80c1c <regulator+0x2a4>)
   80a62:	4611      	mov	r1, r2
   80a64:	47d8      	blx	fp
   80a66:	4b58      	ldr	r3, [pc, #352]	; (80bc8 <regulator+0x250>)
   80a68:	4798      	blx	r3
   80a6a:	4601      	mov	r1, r0
   80a6c:	486c      	ldr	r0, [pc, #432]	; (80c20 <regulator+0x2a8>)
   80a6e:	47c8      	blx	r9
   80a70:	4b53      	ldr	r3, [pc, #332]	; (80bc0 <regulator+0x248>)
   80a72:	f8da 0000 	ldr.w	r0, [sl]
   80a76:	4798      	blx	r3
   80a78:	6821      	ldr	r1, [r4, #0]
   80a7a:	47d8      	blx	fp
   80a7c:	4b52      	ldr	r3, [pc, #328]	; (80bc8 <regulator+0x250>)
   80a7e:	4798      	blx	r3
   80a80:	4601      	mov	r1, r0
   80a82:	4868      	ldr	r0, [pc, #416]	; (80c24 <regulator+0x2ac>)
   80a84:	47c8      	blx	r9
   80a86:	4b4f      	ldr	r3, [pc, #316]	; (80bc4 <regulator+0x24c>)
   80a88:	f8d8 0000 	ldr.w	r0, [r8]
   80a8c:	681e      	ldr	r6, [r3, #0]
   80a8e:	4b61      	ldr	r3, [pc, #388]	; (80c14 <regulator+0x29c>)
   80a90:	4631      	mov	r1, r6
   80a92:	4798      	blx	r3
   80a94:	4631      	mov	r1, r6
   80a96:	4680      	mov	r8, r0
   80a98:	6038      	str	r0, [r7, #0]
   80a9a:	4b5e      	ldr	r3, [pc, #376]	; (80c14 <regulator+0x29c>)
   80a9c:	6820      	ldr	r0, [r4, #0]
   80a9e:	4798      	blx	r3
   80aa0:	4d61      	ldr	r5, [pc, #388]	; (80c28 <regulator+0x2b0>)
   80aa2:	4b47      	ldr	r3, [pc, #284]	; (80bc0 <regulator+0x248>)
   80aa4:	6028      	str	r0, [r5, #0]
   80aa6:	f8da 0000 	ldr.w	r0, [sl]
   80aaa:	4798      	blx	r3
   80aac:	4641      	mov	r1, r8
   80aae:	47d8      	blx	fp
   80ab0:	4b45      	ldr	r3, [pc, #276]	; (80bc8 <regulator+0x250>)
   80ab2:	4798      	blx	r3
   80ab4:	4601      	mov	r1, r0
   80ab6:	485d      	ldr	r0, [pc, #372]	; (80c2c <regulator+0x2b4>)
   80ab8:	47c8      	blx	r9
   80aba:	4b41      	ldr	r3, [pc, #260]	; (80bc0 <regulator+0x248>)
   80abc:	f8da 0000 	ldr.w	r0, [sl]
   80ac0:	4798      	blx	r3
   80ac2:	6829      	ldr	r1, [r5, #0]
   80ac4:	47d8      	blx	fp
   80ac6:	4b40      	ldr	r3, [pc, #256]	; (80bc8 <regulator+0x250>)
   80ac8:	4798      	blx	r3
   80aca:	4601      	mov	r1, r0
   80acc:	4858      	ldr	r0, [pc, #352]	; (80c30 <regulator+0x2b8>)
   80ace:	47c8      	blx	r9
   80ad0:	4b58      	ldr	r3, [pc, #352]	; (80c34 <regulator+0x2bc>)
   80ad2:	f8df 81ac 	ldr.w	r8, [pc, #428]	; 80c80 <regulator+0x308>
   80ad6:	681a      	ldr	r2, [r3, #0]
   80ad8:	4b57      	ldr	r3, [pc, #348]	; (80c38 <regulator+0x2c0>)
   80ada:	f8c8 2000 	str.w	r2, [r8]
   80ade:	4e57      	ldr	r6, [pc, #348]	; (80c3c <regulator+0x2c4>)
   80ae0:	681a      	ldr	r2, [r3, #0]
   80ae2:	4b3c      	ldr	r3, [pc, #240]	; (80bd4 <regulator+0x25c>)
   80ae4:	6032      	str	r2, [r6, #0]
   80ae6:	4c56      	ldr	r4, [pc, #344]	; (80c40 <regulator+0x2c8>)
   80ae8:	6818      	ldr	r0, [r3, #0]
   80aea:	6839      	ldr	r1, [r7, #0]
   80aec:	47a0      	blx	r4
   80aee:	4b51      	ldr	r3, [pc, #324]	; (80c34 <regulator+0x2bc>)
   80af0:	6829      	ldr	r1, [r5, #0]
   80af2:	6018      	str	r0, [r3, #0]
   80af4:	9b02      	ldr	r3, [sp, #8]
   80af6:	4607      	mov	r7, r0
   80af8:	6818      	ldr	r0, [r3, #0]
   80afa:	47a0      	blx	r4
   80afc:	4b4e      	ldr	r3, [pc, #312]	; (80c38 <regulator+0x2c0>)
   80afe:	6018      	str	r0, [r3, #0]
   80b00:	4b2f      	ldr	r3, [pc, #188]	; (80bc0 <regulator+0x248>)
   80b02:	f8da 0000 	ldr.w	r0, [sl]
   80b06:	4798      	blx	r3
   80b08:	4639      	mov	r1, r7
   80b0a:	47d8      	blx	fp
   80b0c:	4b2e      	ldr	r3, [pc, #184]	; (80bc8 <regulator+0x250>)
   80b0e:	4798      	blx	r3
   80b10:	4601      	mov	r1, r0
   80b12:	484c      	ldr	r0, [pc, #304]	; (80c44 <regulator+0x2cc>)
   80b14:	47c8      	blx	r9
   80b16:	f8da 0000 	ldr.w	r0, [sl]
   80b1a:	4b29      	ldr	r3, [pc, #164]	; (80bc0 <regulator+0x248>)
   80b1c:	4798      	blx	r3
   80b1e:	4b46      	ldr	r3, [pc, #280]	; (80c38 <regulator+0x2c0>)
   80b20:	4f49      	ldr	r7, [pc, #292]	; (80c48 <regulator+0x2d0>)
   80b22:	6819      	ldr	r1, [r3, #0]
   80b24:	47d8      	blx	fp
   80b26:	4b28      	ldr	r3, [pc, #160]	; (80bc8 <regulator+0x250>)
   80b28:	4798      	blx	r3
   80b2a:	4601      	mov	r1, r0
   80b2c:	4847      	ldr	r0, [pc, #284]	; (80c4c <regulator+0x2d4>)
   80b2e:	47c8      	blx	r9
   80b30:	4b40      	ldr	r3, [pc, #256]	; (80c34 <regulator+0x2bc>)
   80b32:	f8d8 1000 	ldr.w	r1, [r8]
   80b36:	6818      	ldr	r0, [r3, #0]
   80b38:	47a0      	blx	r4
   80b3a:	4b45      	ldr	r3, [pc, #276]	; (80c50 <regulator+0x2d8>)
   80b3c:	6831      	ldr	r1, [r6, #0]
   80b3e:	6018      	str	r0, [r3, #0]
   80b40:	4b3d      	ldr	r3, [pc, #244]	; (80c38 <regulator+0x2c0>)
   80b42:	4605      	mov	r5, r0
   80b44:	6818      	ldr	r0, [r3, #0]
   80b46:	47a0      	blx	r4
   80b48:	4b42      	ldr	r3, [pc, #264]	; (80c54 <regulator+0x2dc>)
   80b4a:	f8df 8138 	ldr.w	r8, [pc, #312]	; 80c84 <regulator+0x30c>
   80b4e:	6018      	str	r0, [r3, #0]
   80b50:	4b1b      	ldr	r3, [pc, #108]	; (80bc0 <regulator+0x248>)
   80b52:	f8da 0000 	ldr.w	r0, [sl]
   80b56:	4798      	blx	r3
   80b58:	4629      	mov	r1, r5
   80b5a:	47d8      	blx	fp
   80b5c:	4b1a      	ldr	r3, [pc, #104]	; (80bc8 <regulator+0x250>)
   80b5e:	4798      	blx	r3
   80b60:	4601      	mov	r1, r0
   80b62:	483d      	ldr	r0, [pc, #244]	; (80c58 <regulator+0x2e0>)
   80b64:	47c8      	blx	r9
   80b66:	f8da 0000 	ldr.w	r0, [sl]
   80b6a:	4b15      	ldr	r3, [pc, #84]	; (80bc0 <regulator+0x248>)
   80b6c:	4798      	blx	r3
   80b6e:	4b39      	ldr	r3, [pc, #228]	; (80c54 <regulator+0x2dc>)
   80b70:	4e3a      	ldr	r6, [pc, #232]	; (80c5c <regulator+0x2e4>)
   80b72:	6819      	ldr	r1, [r3, #0]
   80b74:	47d8      	blx	fp
   80b76:	4b14      	ldr	r3, [pc, #80]	; (80bc8 <regulator+0x250>)
   80b78:	4798      	blx	r3
   80b7a:	4601      	mov	r1, r0
   80b7c:	4838      	ldr	r0, [pc, #224]	; (80c60 <regulator+0x2e8>)
   80b7e:	47c8      	blx	r9
   80b80:	4b2c      	ldr	r3, [pc, #176]	; (80c34 <regulator+0x2bc>)
   80b82:	4c38      	ldr	r4, [pc, #224]	; (80c64 <regulator+0x2ec>)
   80b84:	6818      	ldr	r0, [r3, #0]
   80b86:	47c0      	blx	r8
   80b88:	47b0      	blx	r6
   80b8a:	e9d7 2300 	ldrd	r2, r3, [r7]
   80b8e:	47a0      	blx	r4
   80b90:	4604      	mov	r4, r0
   80b92:	460d      	mov	r5, r1
   80b94:	4b28      	ldr	r3, [pc, #160]	; (80c38 <regulator+0x2c0>)
   80b96:	e9c7 4500 	strd	r4, r5, [r7]
   80b9a:	6818      	ldr	r0, [r3, #0]
   80b9c:	47c0      	blx	r8
   80b9e:	47b0      	blx	r6
   80ba0:	460b      	mov	r3, r1
   80ba2:	4931      	ldr	r1, [pc, #196]	; (80c68 <regulator+0x2f0>)
   80ba4:	4602      	mov	r2, r0
   80ba6:	e9d1 0100 	ldrd	r0, r1, [r1]
   80baa:	4e2e      	ldr	r6, [pc, #184]	; (80c64 <regulator+0x2ec>)
   80bac:	47b0      	blx	r6
   80bae:	4b2e      	ldr	r3, [pc, #184]	; (80c68 <regulator+0x2f0>)
   80bb0:	4e2e      	ldr	r6, [pc, #184]	; (80c6c <regulator+0x2f4>)
   80bb2:	e069      	b.n	80c88 <regulator+0x310>
   80bb4:	00082b05 	.word	0x00082b05
   80bb8:	00082d29 	.word	0x00082d29
   80bbc:	400e1000 	.word	0x400e1000
   80bc0:	00084c0d 	.word	0x00084c0d
   80bc4:	200700f0 	.word	0x200700f0
   80bc8:	00085041 	.word	0x00085041
   80bcc:	0008816c 	.word	0x0008816c
   80bd0:	00080271 	.word	0x00080271
   80bd4:	20070bb0 	.word	0x20070bb0
   80bd8:	20070b78 	.word	0x20070b78
   80bdc:	0008027d 	.word	0x0008027d
   80be0:	20070bb8 	.word	0x20070bb8
   80be4:	0008177d 	.word	0x0008177d
   80be8:	00081791 	.word	0x00081791
   80bec:	20070b80 	.word	0x20070b80
   80bf0:	20070b7c 	.word	0x20070b7c
   80bf4:	20070b84 	.word	0x20070b84
   80bf8:	20070104 	.word	0x20070104
   80bfc:	00081759 	.word	0x00081759
   80c00:	0008819c 	.word	0x0008819c
   80c04:	000881aa 	.word	0x000881aa
   80c08:	200700f4 	.word	0x200700f4
   80c0c:	000881b7 	.word	0x000881b7
   80c10:	000881c0 	.word	0x000881c0
   80c14:	00084e1d 	.word	0x00084e1d
   80c18:	20070ba4 	.word	0x20070ba4
   80c1c:	20070bac 	.word	0x20070bac
   80c20:	000881ca 	.word	0x000881ca
   80c24:	000881dd 	.word	0x000881dd
   80c28:	20070bb4 	.word	0x20070bb4
   80c2c:	000881f1 	.word	0x000881f1
   80c30:	00088207 	.word	0x00088207
   80c34:	20070b90 	.word	0x20070b90
   80c38:	20070b94 	.word	0x20070b94
   80c3c:	20070b8c 	.word	0x20070b8c
   80c40:	00084aa1 	.word	0x00084aa1
   80c44:	0008821e 	.word	0x0008821e
   80c48:	20070b68 	.word	0x20070b68
   80c4c:	0008822e 	.word	0x0008822e
   80c50:	20070b60 	.word	0x20070b60
   80c54:	20070b64 	.word	0x20070b64
   80c58:	0008823e 	.word	0x0008823e
   80c5c:	00083b39 	.word	0x00083b39
   80c60:	0008824e 	.word	0x0008824e
   80c64:	00084111 	.word	0x00084111
   80c68:	20070b70 	.word	0x20070b70
   80c6c:	000849a9 	.word	0x000849a9
   80c70:	200700fc 	.word	0x200700fc
   80c74:	00084cb5 	.word	0x00084cb5
   80c78:	000850dd 	.word	0x000850dd
   80c7c:	20070ba0 	.word	0x20070ba0
   80c80:	20070b88 	.word	0x20070b88
   80c84:	000843cd 	.word	0x000843cd
   80c88:	e9c3 0100 	strd	r0, r1, [r3]
   80c8c:	f8da 0000 	ldr.w	r0, [sl]
   80c90:	4b8e      	ldr	r3, [pc, #568]	; (80ecc <regulator+0x554>)
   80c92:	4798      	blx	r3
   80c94:	4622      	mov	r2, r4
   80c96:	462b      	mov	r3, r5
   80c98:	4c8d      	ldr	r4, [pc, #564]	; (80ed0 <regulator+0x558>)
   80c9a:	47a0      	blx	r4
   80c9c:	47b0      	blx	r6
   80c9e:	4601      	mov	r1, r0
   80ca0:	488c      	ldr	r0, [pc, #560]	; (80ed4 <regulator+0x55c>)
   80ca2:	47c8      	blx	r9
   80ca4:	f8da 0000 	ldr.w	r0, [sl]
   80ca8:	4b88      	ldr	r3, [pc, #544]	; (80ecc <regulator+0x554>)
   80caa:	4798      	blx	r3
   80cac:	4b8a      	ldr	r3, [pc, #552]	; (80ed8 <regulator+0x560>)
   80cae:	e9d3 2300 	ldrd	r2, r3, [r3]
   80cb2:	47a0      	blx	r4
   80cb4:	47b0      	blx	r6
   80cb6:	4601      	mov	r1, r0
   80cb8:	4888      	ldr	r0, [pc, #544]	; (80edc <regulator+0x564>)
   80cba:	47c8      	blx	r9
   80cbc:	4b88      	ldr	r3, [pc, #544]	; (80ee0 <regulator+0x568>)
   80cbe:	4798      	blx	r3
   80cc0:	4b88      	ldr	r3, [pc, #544]	; (80ee4 <regulator+0x56c>)
   80cc2:	6018      	str	r0, [r3, #0]
   80cc4:	4b88      	ldr	r3, [pc, #544]	; (80ee8 <regulator+0x570>)
   80cc6:	4798      	blx	r3
   80cc8:	4b88      	ldr	r3, [pc, #544]	; (80eec <regulator+0x574>)
   80cca:	6018      	str	r0, [r3, #0]
   80ccc:	f8da 0000 	ldr.w	r0, [sl]
   80cd0:	4b87      	ldr	r3, [pc, #540]	; (80ef0 <regulator+0x578>)
   80cd2:	4798      	blx	r3
   80cd4:	4b83      	ldr	r3, [pc, #524]	; (80ee4 <regulator+0x56c>)
   80cd6:	6819      	ldr	r1, [r3, #0]
   80cd8:	47d8      	blx	fp
   80cda:	4b86      	ldr	r3, [pc, #536]	; (80ef4 <regulator+0x57c>)
   80cdc:	4798      	blx	r3
   80cde:	4601      	mov	r1, r0
   80ce0:	4885      	ldr	r0, [pc, #532]	; (80ef8 <regulator+0x580>)
   80ce2:	47c8      	blx	r9
   80ce4:	f8da 0000 	ldr.w	r0, [sl]
   80ce8:	4b81      	ldr	r3, [pc, #516]	; (80ef0 <regulator+0x578>)
   80cea:	4798      	blx	r3
   80cec:	4b7f      	ldr	r3, [pc, #508]	; (80eec <regulator+0x574>)
   80cee:	6819      	ldr	r1, [r3, #0]
   80cf0:	47d8      	blx	fp
   80cf2:	4b80      	ldr	r3, [pc, #512]	; (80ef4 <regulator+0x57c>)
   80cf4:	4798      	blx	r3
   80cf6:	4601      	mov	r1, r0
   80cf8:	4880      	ldr	r0, [pc, #512]	; (80efc <regulator+0x584>)
   80cfa:	47c8      	blx	r9
   80cfc:	4b80      	ldr	r3, [pc, #512]	; (80f00 <regulator+0x588>)
   80cfe:	6819      	ldr	r1, [r3, #0]
   80d00:	4b80      	ldr	r3, [pc, #512]	; (80f04 <regulator+0x58c>)
   80d02:	6818      	ldr	r0, [r3, #0]
   80d04:	47d8      	blx	fp
   80d06:	4b7a      	ldr	r3, [pc, #488]	; (80ef0 <regulator+0x578>)
   80d08:	4604      	mov	r4, r0
   80d0a:	f8da 0000 	ldr.w	r0, [sl]
   80d0e:	4798      	blx	r3
   80d10:	4601      	mov	r1, r0
   80d12:	4620      	mov	r0, r4
   80d14:	47d8      	blx	fp
   80d16:	4b77      	ldr	r3, [pc, #476]	; (80ef4 <regulator+0x57c>)
   80d18:	4798      	blx	r3
   80d1a:	4601      	mov	r1, r0
   80d1c:	487a      	ldr	r0, [pc, #488]	; (80f08 <regulator+0x590>)
   80d1e:	47c8      	blx	r9
   80d20:	4b7a      	ldr	r3, [pc, #488]	; (80f0c <regulator+0x594>)
   80d22:	6819      	ldr	r1, [r3, #0]
   80d24:	4b7a      	ldr	r3, [pc, #488]	; (80f10 <regulator+0x598>)
   80d26:	6818      	ldr	r0, [r3, #0]
   80d28:	4b7a      	ldr	r3, [pc, #488]	; (80f14 <regulator+0x59c>)
   80d2a:	4798      	blx	r3
   80d2c:	4b7a      	ldr	r3, [pc, #488]	; (80f18 <regulator+0x5a0>)
   80d2e:	6819      	ldr	r1, [r3, #0]
   80d30:	47d8      	blx	fp
   80d32:	4b6f      	ldr	r3, [pc, #444]	; (80ef0 <regulator+0x578>)
   80d34:	4604      	mov	r4, r0
   80d36:	f8da 0000 	ldr.w	r0, [sl]
   80d3a:	4798      	blx	r3
   80d3c:	4601      	mov	r1, r0
   80d3e:	4620      	mov	r0, r4
   80d40:	47d8      	blx	fp
   80d42:	4b6c      	ldr	r3, [pc, #432]	; (80ef4 <regulator+0x57c>)
   80d44:	4798      	blx	r3
   80d46:	4601      	mov	r1, r0
   80d48:	4874      	ldr	r0, [pc, #464]	; (80f1c <regulator+0x5a4>)
   80d4a:	47c8      	blx	r9
   80d4c:	4b74      	ldr	r3, [pc, #464]	; (80f20 <regulator+0x5a8>)
   80d4e:	4c60      	ldr	r4, [pc, #384]	; (80ed0 <regulator+0x558>)
   80d50:	6818      	ldr	r0, [r3, #0]
   80d52:	47c0      	blx	r8
   80d54:	4b60      	ldr	r3, [pc, #384]	; (80ed8 <regulator+0x560>)
   80d56:	e9d3 2300 	ldrd	r2, r3, [r3]
   80d5a:	47a0      	blx	r4
   80d5c:	4b6b      	ldr	r3, [pc, #428]	; (80f0c <regulator+0x594>)
   80d5e:	4604      	mov	r4, r0
   80d60:	6818      	ldr	r0, [r3, #0]
   80d62:	460d      	mov	r5, r1
   80d64:	47c0      	blx	r8
   80d66:	4602      	mov	r2, r0
   80d68:	460b      	mov	r3, r1
   80d6a:	4620      	mov	r0, r4
   80d6c:	4629      	mov	r1, r5
   80d6e:	4c58      	ldr	r4, [pc, #352]	; (80ed0 <regulator+0x558>)
   80d70:	47a0      	blx	r4
   80d72:	4b56      	ldr	r3, [pc, #344]	; (80ecc <regulator+0x554>)
   80d74:	4604      	mov	r4, r0
   80d76:	f8da 0000 	ldr.w	r0, [sl]
   80d7a:	460d      	mov	r5, r1
   80d7c:	4798      	blx	r3
   80d7e:	4602      	mov	r2, r0
   80d80:	460b      	mov	r3, r1
   80d82:	4620      	mov	r0, r4
   80d84:	4629      	mov	r1, r5
   80d86:	4c52      	ldr	r4, [pc, #328]	; (80ed0 <regulator+0x558>)
   80d88:	47a0      	blx	r4
   80d8a:	47b0      	blx	r6
   80d8c:	4601      	mov	r1, r0
   80d8e:	4865      	ldr	r0, [pc, #404]	; (80f24 <regulator+0x5ac>)
   80d90:	47c8      	blx	r9
   80d92:	4b5c      	ldr	r3, [pc, #368]	; (80f04 <regulator+0x58c>)
   80d94:	681b      	ldr	r3, [r3, #0]
   80d96:	9300      	str	r3, [sp, #0]
   80d98:	4b61      	ldr	r3, [pc, #388]	; (80f20 <regulator+0x5a8>)
   80d9a:	6818      	ldr	r0, [r3, #0]
   80d9c:	47c0      	blx	r8
   80d9e:	4b5b      	ldr	r3, [pc, #364]	; (80f0c <regulator+0x594>)
   80da0:	e9cd 0102 	strd	r0, r1, [sp, #8]
   80da4:	681d      	ldr	r5, [r3, #0]
   80da6:	4628      	mov	r0, r5
   80da8:	47c0      	blx	r8
   80daa:	4b5b      	ldr	r3, [pc, #364]	; (80f18 <regulator+0x5a0>)
   80dac:	e9cd 0104 	strd	r0, r1, [sp, #16]
   80db0:	e9dd 0102 	ldrd	r0, r1, [sp, #8]
   80db4:	681b      	ldr	r3, [r3, #0]
   80db6:	9307      	str	r3, [sp, #28]
   80db8:	e9d7 2300 	ldrd	r2, r3, [r7]
   80dbc:	47a0      	blx	r4
   80dbe:	e9dd 2304 	ldrd	r2, r3, [sp, #16]
   80dc2:	47a0      	blx	r4
   80dc4:	4b4e      	ldr	r3, [pc, #312]	; (80f00 <regulator+0x588>)
   80dc6:	4606      	mov	r6, r0
   80dc8:	460f      	mov	r7, r1
   80dca:	9800      	ldr	r0, [sp, #0]
   80dcc:	6819      	ldr	r1, [r3, #0]
   80dce:	47d8      	blx	fp
   80dd0:	47c0      	blx	r8
   80dd2:	4c55      	ldr	r4, [pc, #340]	; (80f28 <regulator+0x5b0>)
   80dd4:	4602      	mov	r2, r0
   80dd6:	460b      	mov	r3, r1
   80dd8:	4630      	mov	r0, r6
   80dda:	4639      	mov	r1, r7
   80ddc:	47a0      	blx	r4
   80dde:	4b4c      	ldr	r3, [pc, #304]	; (80f10 <regulator+0x598>)
   80de0:	4606      	mov	r6, r0
   80de2:	460f      	mov	r7, r1
   80de4:	9807      	ldr	r0, [sp, #28]
   80de6:	6819      	ldr	r1, [r3, #0]
   80de8:	47d8      	blx	fp
   80dea:	4629      	mov	r1, r5
   80dec:	4b49      	ldr	r3, [pc, #292]	; (80f14 <regulator+0x59c>)
   80dee:	4798      	blx	r3
   80df0:	47c0      	blx	r8
   80df2:	4602      	mov	r2, r0
   80df4:	460b      	mov	r3, r1
   80df6:	4630      	mov	r0, r6
   80df8:	4639      	mov	r1, r7
   80dfa:	47a0      	blx	r4
   80dfc:	4b39      	ldr	r3, [pc, #228]	; (80ee4 <regulator+0x56c>)
   80dfe:	4606      	mov	r6, r0
   80e00:	6818      	ldr	r0, [r3, #0]
   80e02:	460f      	mov	r7, r1
   80e04:	47c0      	blx	r8
   80e06:	4602      	mov	r2, r0
   80e08:	460b      	mov	r3, r1
   80e0a:	4630      	mov	r0, r6
   80e0c:	4639      	mov	r1, r7
   80e0e:	47a0      	blx	r4
   80e10:	4b46      	ldr	r3, [pc, #280]	; (80f2c <regulator+0x5b4>)
   80e12:	4798      	blx	r3
   80e14:	4c46      	ldr	r4, [pc, #280]	; (80f30 <regulator+0x5b8>)
   80e16:	4b30      	ldr	r3, [pc, #192]	; (80ed8 <regulator+0x560>)
   80e18:	4606      	mov	r6, r0
   80e1a:	e9d3 2300 	ldrd	r2, r3, [r3]
   80e1e:	4f2c      	ldr	r7, [pc, #176]	; (80ed0 <regulator+0x558>)
   80e20:	6020      	str	r0, [r4, #0]
   80e22:	e9dd 0102 	ldrd	r0, r1, [sp, #8]
   80e26:	47b8      	blx	r7
   80e28:	e9dd 2304 	ldrd	r2, r3, [sp, #16]
   80e2c:	47b8      	blx	r7
   80e2e:	4b41      	ldr	r3, [pc, #260]	; (80f34 <regulator+0x5bc>)
   80e30:	e9cd 0102 	strd	r0, r1, [sp, #8]
   80e34:	6819      	ldr	r1, [r3, #0]
   80e36:	9800      	ldr	r0, [sp, #0]
   80e38:	47d8      	blx	fp
   80e3a:	47c0      	blx	r8
   80e3c:	4f3a      	ldr	r7, [pc, #232]	; (80f28 <regulator+0x5b0>)
   80e3e:	4602      	mov	r2, r0
   80e40:	460b      	mov	r3, r1
   80e42:	e9dd 0102 	ldrd	r0, r1, [sp, #8]
   80e46:	47b8      	blx	r7
   80e48:	4b3b      	ldr	r3, [pc, #236]	; (80f38 <regulator+0x5c0>)
   80e4a:	e9cd 0100 	strd	r0, r1, [sp]
   80e4e:	6819      	ldr	r1, [r3, #0]
   80e50:	9807      	ldr	r0, [sp, #28]
   80e52:	47d8      	blx	fp
   80e54:	4629      	mov	r1, r5
   80e56:	4b2f      	ldr	r3, [pc, #188]	; (80f14 <regulator+0x59c>)
   80e58:	4798      	blx	r3
   80e5a:	47c0      	blx	r8
   80e5c:	4602      	mov	r2, r0
   80e5e:	460b      	mov	r3, r1
   80e60:	e9dd 0100 	ldrd	r0, r1, [sp]
   80e64:	47b8      	blx	r7
   80e66:	4b21      	ldr	r3, [pc, #132]	; (80eec <regulator+0x574>)
   80e68:	e9cd 0100 	strd	r0, r1, [sp]
   80e6c:	6818      	ldr	r0, [r3, #0]
   80e6e:	47c0      	blx	r8
   80e70:	4602      	mov	r2, r0
   80e72:	460b      	mov	r3, r1
   80e74:	e9dd 0100 	ldrd	r0, r1, [sp]
   80e78:	47b8      	blx	r7
   80e7a:	4b2c      	ldr	r3, [pc, #176]	; (80f2c <regulator+0x5b4>)
   80e7c:	4798      	blx	r3
   80e7e:	4a2f      	ldr	r2, [pc, #188]	; (80f3c <regulator+0x5c4>)
   80e80:	9002      	str	r0, [sp, #8]
   80e82:	6010      	str	r0, [r2, #0]
   80e84:	4a2e      	ldr	r2, [pc, #184]	; (80f40 <regulator+0x5c8>)
   80e86:	4630      	mov	r0, r6
   80e88:	492e      	ldr	r1, [pc, #184]	; (80f44 <regulator+0x5cc>)
   80e8a:	9200      	str	r2, [sp, #0]
   80e8c:	4790      	blx	r2
   80e8e:	4f18      	ldr	r7, [pc, #96]	; (80ef0 <regulator+0x578>)
   80e90:	465e      	mov	r6, fp
   80e92:	4d18      	ldr	r5, [pc, #96]	; (80ef4 <regulator+0x57c>)
   80e94:	46c8      	mov	r8, r9
   80e96:	b928      	cbnz	r0, 80ea4 <regulator+0x52c>
   80e98:	9b02      	ldr	r3, [sp, #8]
   80e9a:	492a      	ldr	r1, [pc, #168]	; (80f44 <regulator+0x5cc>)
   80e9c:	4618      	mov	r0, r3
   80e9e:	9a00      	ldr	r2, [sp, #0]
   80ea0:	4790      	blx	r2
   80ea2:	b108      	cbz	r0, 80ea8 <regulator+0x530>
   80ea4:	4828      	ldr	r0, [pc, #160]	; (80f48 <regulator+0x5d0>)
   80ea6:	47c0      	blx	r8
   80ea8:	f8da 0000 	ldr.w	r0, [sl]
   80eac:	47b8      	blx	r7
   80eae:	6821      	ldr	r1, [r4, #0]
   80eb0:	47b0      	blx	r6
   80eb2:	47a8      	blx	r5
   80eb4:	4601      	mov	r1, r0
   80eb6:	4825      	ldr	r0, [pc, #148]	; (80f4c <regulator+0x5d4>)
   80eb8:	47c0      	blx	r8
   80eba:	f8da 0000 	ldr.w	r0, [sl]
   80ebe:	47b8      	blx	r7
   80ec0:	4b1e      	ldr	r3, [pc, #120]	; (80f3c <regulator+0x5c4>)
   80ec2:	6819      	ldr	r1, [r3, #0]
   80ec4:	47b0      	blx	r6
   80ec6:	47a8      	blx	r5
   80ec8:	e042      	b.n	80f50 <regulator+0x5d8>
   80eca:	bf00      	nop
   80ecc:	000843a9 	.word	0x000843a9
   80ed0:	00084475 	.word	0x00084475
   80ed4:	0008825f 	.word	0x0008825f
   80ed8:	20070b70 	.word	0x20070b70
   80edc:	0008826f 	.word	0x0008826f
   80ee0:	00081ab5 	.word	0x00081ab5
   80ee4:	20070bc0 	.word	0x20070bc0
   80ee8:	00081ac1 	.word	0x00081ac1
   80eec:	20070bc8 	.word	0x20070bc8
   80ef0:	00084c0d 	.word	0x00084c0d
   80ef4:	00085041 	.word	0x00085041
   80ef8:	00088280 	.word	0x00088280
   80efc:	00088294 	.word	0x00088294
   80f00:	20070b90 	.word	0x20070b90
   80f04:	200700ec 	.word	0x200700ec
   80f08:	000882a9 	.word	0x000882a9
   80f0c:	200700f0 	.word	0x200700f0
   80f10:	20070b60 	.word	0x20070b60
   80f14:	00084e1d 	.word	0x00084e1d
   80f18:	200700e4 	.word	0x200700e4
   80f1c:	000882cc 	.word	0x000882cc
   80f20:	200700e8 	.word	0x200700e8
   80f24:	000882ec 	.word	0x000882ec
   80f28:	00084111 	.word	0x00084111
   80f2c:	000849f9 	.word	0x000849f9
   80f30:	20070bbc 	.word	0x20070bbc
   80f34:	20070b94 	.word	0x20070b94
   80f38:	20070b64 	.word	0x20070b64
   80f3c:	20070bc4 	.word	0x20070bc4
   80f40:	0008502d 	.word	0x0008502d
   80f44:	43960000 	.word	0x43960000
   80f48:	0008830d 	.word	0x0008830d
   80f4c:	00088321 	.word	0x00088321
   80f50:	4601      	mov	r1, r0
   80f52:	4867      	ldr	r0, [pc, #412]	; (810f0 <regulator+0x778>)
   80f54:	47c0      	blx	r8
   80f56:	f8da 0000 	ldr.w	r0, [sl]
   80f5a:	47b8      	blx	r7
   80f5c:	6821      	ldr	r1, [r4, #0]
   80f5e:	47b0      	blx	r6
   80f60:	47a8      	blx	r5
   80f62:	4b64      	ldr	r3, [pc, #400]	; (810f4 <regulator+0x77c>)
   80f64:	4681      	mov	r9, r0
   80f66:	4798      	blx	r3
   80f68:	4683      	mov	fp, r0
   80f6a:	f8da 0000 	ldr.w	r0, [sl]
   80f6e:	47b8      	blx	r7
   80f70:	4601      	mov	r1, r0
   80f72:	4604      	mov	r4, r0
   80f74:	4658      	mov	r0, fp
   80f76:	47b0      	blx	r6
   80f78:	47a8      	blx	r5
   80f7a:	4581      	cmp	r9, r0
   80f7c:	d031      	beq.n	80fe2 <regulator+0x66a>
   80f7e:	4b5e      	ldr	r3, [pc, #376]	; (810f8 <regulator+0x780>)
   80f80:	f8df 91bc 	ldr.w	r9, [pc, #444]	; 81140 <regulator+0x7c8>
   80f84:	f8d3 b000 	ldr.w	fp, [r3]
   80f88:	4b5c      	ldr	r3, [pc, #368]	; (810fc <regulator+0x784>)
   80f8a:	4658      	mov	r0, fp
   80f8c:	6819      	ldr	r1, [r3, #0]
   80f8e:	4b5c      	ldr	r3, [pc, #368]	; (81100 <regulator+0x788>)
   80f90:	4798      	blx	r3
   80f92:	47a8      	blx	r5
   80f94:	2800      	cmp	r0, #0
   80f96:	bfb8      	it	lt
   80f98:	4240      	neglt	r0, r0
   80f9a:	47b8      	blx	r7
   80f9c:	4b59      	ldr	r3, [pc, #356]	; (81104 <regulator+0x78c>)
   80f9e:	6819      	ldr	r1, [r3, #0]
   80fa0:	47c8      	blx	r9
   80fa2:	b158      	cbz	r0, 80fbc <regulator+0x644>
   80fa4:	4659      	mov	r1, fp
   80fa6:	4620      	mov	r0, r4
   80fa8:	47b0      	blx	r6
   80faa:	47a8      	blx	r5
   80fac:	4b56      	ldr	r3, [pc, #344]	; (81108 <regulator+0x790>)
   80fae:	4683      	mov	fp, r0
   80fb0:	6819      	ldr	r1, [r3, #0]
   80fb2:	4620      	mov	r0, r4
   80fb4:	47b0      	blx	r6
   80fb6:	47a8      	blx	r5
   80fb8:	4583      	cmp	fp, r0
   80fba:	d112      	bne.n	80fe2 <regulator+0x66a>
   80fbc:	f8df b164 	ldr.w	fp, [pc, #356]	; 81124 <regulator+0x7ac>
   80fc0:	4a52      	ldr	r2, [pc, #328]	; (8110c <regulator+0x794>)
   80fc2:	f8db 3000 	ldr.w	r3, [fp]
   80fc6:	4611      	mov	r1, r2
   80fc8:	4618      	mov	r0, r3
   80fca:	9300      	str	r3, [sp, #0]
   80fcc:	9202      	str	r2, [sp, #8]
   80fce:	47c8      	blx	r9
   80fd0:	9b00      	ldr	r3, [sp, #0]
   80fd2:	2800      	cmp	r0, #0
   80fd4:	d075      	beq.n	810c2 <regulator+0x74a>
   80fd6:	9a02      	ldr	r2, [sp, #8]
   80fd8:	f8cb 2000 	str.w	r2, [fp]
   80fdc:	2201      	movs	r2, #1
   80fde:	4b4c      	ldr	r3, [pc, #304]	; (81110 <regulator+0x798>)
   80fe0:	601a      	str	r2, [r3, #0]
   80fe2:	4b4c      	ldr	r3, [pc, #304]	; (81114 <regulator+0x79c>)
   80fe4:	4620      	mov	r0, r4
   80fe6:	6819      	ldr	r1, [r3, #0]
   80fe8:	47b0      	blx	r6
   80fea:	47a8      	blx	r5
   80fec:	4b4a      	ldr	r3, [pc, #296]	; (81118 <regulator+0x7a0>)
   80fee:	4681      	mov	r9, r0
   80ff0:	4798      	blx	r3
   80ff2:	4683      	mov	fp, r0
   80ff4:	f8da 0000 	ldr.w	r0, [sl]
   80ff8:	47b8      	blx	r7
   80ffa:	4601      	mov	r1, r0
   80ffc:	4604      	mov	r4, r0
   80ffe:	4658      	mov	r0, fp
   81000:	47b0      	blx	r6
   81002:	47a8      	blx	r5
   81004:	4581      	cmp	r9, r0
   81006:	d02d      	beq.n	81064 <regulator+0x6ec>
   81008:	4b3f      	ldr	r3, [pc, #252]	; (81108 <regulator+0x790>)
   8100a:	f8df 9134 	ldr.w	r9, [pc, #308]	; 81140 <regulator+0x7c8>
   8100e:	f8d3 b000 	ldr.w	fp, [r3]
   81012:	4b42      	ldr	r3, [pc, #264]	; (8111c <regulator+0x7a4>)
   81014:	4658      	mov	r0, fp
   81016:	6819      	ldr	r1, [r3, #0]
   81018:	4b39      	ldr	r3, [pc, #228]	; (81100 <regulator+0x788>)
   8101a:	4798      	blx	r3
   8101c:	47a8      	blx	r5
   8101e:	2800      	cmp	r0, #0
   81020:	bfb8      	it	lt
   81022:	4240      	neglt	r0, r0
   81024:	47b8      	blx	r7
   81026:	4b37      	ldr	r3, [pc, #220]	; (81104 <regulator+0x78c>)
   81028:	6819      	ldr	r1, [r3, #0]
   8102a:	47c8      	blx	r9
   8102c:	b158      	cbz	r0, 81046 <regulator+0x6ce>
   8102e:	4659      	mov	r1, fp
   81030:	4620      	mov	r0, r4
   81032:	47b0      	blx	r6
   81034:	47a8      	blx	r5
   81036:	4b30      	ldr	r3, [pc, #192]	; (810f8 <regulator+0x780>)
   81038:	4683      	mov	fp, r0
   8103a:	6819      	ldr	r1, [r3, #0]
   8103c:	4620      	mov	r0, r4
   8103e:	47b0      	blx	r6
   81040:	47a8      	blx	r5
   81042:	4583      	cmp	fp, r0
   81044:	d10e      	bne.n	81064 <regulator+0x6ec>
   81046:	4b33      	ldr	r3, [pc, #204]	; (81114 <regulator+0x79c>)
   81048:	f8df b0c0 	ldr.w	fp, [pc, #192]	; 8110c <regulator+0x794>
   8104c:	681c      	ldr	r4, [r3, #0]
   8104e:	4659      	mov	r1, fp
   81050:	4620      	mov	r0, r4
   81052:	47c8      	blx	r9
   81054:	2800      	cmp	r0, #0
   81056:	d03f      	beq.n	810d8 <regulator+0x760>
   81058:	4b2e      	ldr	r3, [pc, #184]	; (81114 <regulator+0x79c>)
   8105a:	f8c3 b000 	str.w	fp, [r3]
   8105e:	2201      	movs	r2, #1
   81060:	4b2f      	ldr	r3, [pc, #188]	; (81120 <regulator+0x7a8>)
   81062:	601a      	str	r2, [r3, #0]
   81064:	f8df b0a8 	ldr.w	fp, [pc, #168]	; 81110 <regulator+0x798>
   81068:	4c2e      	ldr	r4, [pc, #184]	; (81124 <regulator+0x7ac>)
   8106a:	f8db 3000 	ldr.w	r3, [fp]
   8106e:	b113      	cbz	r3, 81076 <regulator+0x6fe>
   81070:	6820      	ldr	r0, [r4, #0]
   81072:	4b2d      	ldr	r3, [pc, #180]	; (81128 <regulator+0x7b0>)
   81074:	4798      	blx	r3
   81076:	f8df 90a8 	ldr.w	r9, [pc, #168]	; 81120 <regulator+0x7a8>
   8107a:	f8d9 3000 	ldr.w	r3, [r9]
   8107e:	b11b      	cbz	r3, 81088 <regulator+0x710>
   81080:	4b24      	ldr	r3, [pc, #144]	; (81114 <regulator+0x79c>)
   81082:	6818      	ldr	r0, [r3, #0]
   81084:	4b29      	ldr	r3, [pc, #164]	; (8112c <regulator+0x7b4>)
   81086:	4798      	blx	r3
   81088:	2300      	movs	r3, #0
   8108a:	f8da 0000 	ldr.w	r0, [sl]
   8108e:	f8cb 3000 	str.w	r3, [fp]
   81092:	f8c9 3000 	str.w	r3, [r9]
   81096:	47b8      	blx	r7
   81098:	6821      	ldr	r1, [r4, #0]
   8109a:	47b0      	blx	r6
   8109c:	47a8      	blx	r5
   8109e:	4601      	mov	r1, r0
   810a0:	4823      	ldr	r0, [pc, #140]	; (81130 <regulator+0x7b8>)
   810a2:	47c0      	blx	r8
   810a4:	f8da 0000 	ldr.w	r0, [sl]
   810a8:	47b8      	blx	r7
   810aa:	4b1a      	ldr	r3, [pc, #104]	; (81114 <regulator+0x79c>)
   810ac:	6819      	ldr	r1, [r3, #0]
   810ae:	47b0      	blx	r6
   810b0:	47a8      	blx	r5
   810b2:	4601      	mov	r1, r0
   810b4:	481f      	ldr	r0, [pc, #124]	; (81134 <regulator+0x7bc>)
   810b6:	47c0      	blx	r8
   810b8:	f04f 6300 	mov.w	r3, #134217728	; 0x8000000
   810bc:	4a1e      	ldr	r2, [pc, #120]	; (81138 <regulator+0x7c0>)
   810be:	6353      	str	r3, [r2, #52]	; 0x34
   810c0:	e460      	b.n	80984 <regulator+0xc>
   810c2:	f8df 9080 	ldr.w	r9, [pc, #128]	; 81144 <regulator+0x7cc>
   810c6:	4618      	mov	r0, r3
   810c8:	4649      	mov	r1, r9
   810ca:	4b1c      	ldr	r3, [pc, #112]	; (8113c <regulator+0x7c4>)
   810cc:	4798      	blx	r3
   810ce:	2800      	cmp	r0, #0
   810d0:	d084      	beq.n	80fdc <regulator+0x664>
   810d2:	f8cb 9000 	str.w	r9, [fp]
   810d6:	e781      	b.n	80fdc <regulator+0x664>
   810d8:	f8df 9068 	ldr.w	r9, [pc, #104]	; 81144 <regulator+0x7cc>
   810dc:	4620      	mov	r0, r4
   810de:	4649      	mov	r1, r9
   810e0:	4b16      	ldr	r3, [pc, #88]	; (8113c <regulator+0x7c4>)
   810e2:	4798      	blx	r3
   810e4:	2800      	cmp	r0, #0
   810e6:	d0ba      	beq.n	8105e <regulator+0x6e6>
   810e8:	4b0a      	ldr	r3, [pc, #40]	; (81114 <regulator+0x79c>)
   810ea:	f8c3 9000 	str.w	r9, [r3]
   810ee:	e7b6      	b.n	8105e <regulator+0x6e6>
   810f0:	0008833f 	.word	0x0008833f
   810f4:	00081ab5 	.word	0x00081ab5
   810f8:	20070bac 	.word	0x20070bac
   810fc:	20070bb0 	.word	0x20070bb0
   81100:	00084aa1 	.word	0x00084aa1
   81104:	20070100 	.word	0x20070100
   81108:	20070bb4 	.word	0x20070bb4
   8110c:	43ed8000 	.word	0x43ed8000
   81110:	20070ba8 	.word	0x20070ba8
   81114:	20070bc4 	.word	0x20070bc4
   81118:	00081ac1 	.word	0x00081ac1
   8111c:	20070bb8 	.word	0x20070bb8
   81120:	20070bcc 	.word	0x20070bcc
   81124:	20070bbc 	.word	0x20070bbc
   81128:	0008187d 	.word	0x0008187d
   8112c:	00081995 	.word	0x00081995
   81130:	0008835e 	.word	0x0008835e
   81134:	0008837c 	.word	0x0008837c
   81138:	400e1000 	.word	0x400e1000
   8113c:	00084ff1 	.word	0x00084ff1
   81140:	0008502d 	.word	0x0008502d
   81144:	c3ed8000 	.word	0xc3ed8000

00081148 <getDisplacementLeft>:
   81148:	b508      	push	{r3, lr}
   8114a:	4b04      	ldr	r3, [pc, #16]	; (8115c <getDisplacementLeft+0x14>)
   8114c:	6818      	ldr	r0, [r3, #0]
   8114e:	4b04      	ldr	r3, [pc, #16]	; (81160 <getDisplacementLeft+0x18>)
   81150:	4798      	blx	r3
   81152:	4b04      	ldr	r3, [pc, #16]	; (81164 <getDisplacementLeft+0x1c>)
   81154:	6819      	ldr	r1, [r3, #0]
   81156:	4b04      	ldr	r3, [pc, #16]	; (81168 <getDisplacementLeft+0x20>)
   81158:	4798      	blx	r3
   8115a:	bd08      	pop	{r3, pc}
   8115c:	20070b80 	.word	0x20070b80
   81160:	00084c0d 	.word	0x00084c0d
   81164:	200700f8 	.word	0x200700f8
   81168:	00084cb5 	.word	0x00084cb5

0008116c <getDisplacementRight>:
   8116c:	b508      	push	{r3, lr}
   8116e:	4b04      	ldr	r3, [pc, #16]	; (81180 <getDisplacementRight+0x14>)
   81170:	6818      	ldr	r0, [r3, #0]
   81172:	4b04      	ldr	r3, [pc, #16]	; (81184 <getDisplacementRight+0x18>)
   81174:	4798      	blx	r3
   81176:	4b04      	ldr	r3, [pc, #16]	; (81188 <getDisplacementRight+0x1c>)
   81178:	6819      	ldr	r1, [r3, #0]
   8117a:	4b04      	ldr	r3, [pc, #16]	; (8118c <getDisplacementRight+0x20>)
   8117c:	4798      	blx	r3
   8117e:	bd08      	pop	{r3, pc}
   81180:	20070b84 	.word	0x20070b84
   81184:	00084c0d 	.word	0x00084c0d
   81188:	200700f8 	.word	0x200700f8
   8118c:	00084cb5 	.word	0x00084cb5

00081190 <getDisplacementAverage>:
   81190:	b510      	push	{r4, lr}
   81192:	4b07      	ldr	r3, [pc, #28]	; (811b0 <getDisplacementAverage+0x20>)
   81194:	4798      	blx	r3
   81196:	4b07      	ldr	r3, [pc, #28]	; (811b4 <getDisplacementAverage+0x24>)
   81198:	4604      	mov	r4, r0
   8119a:	4798      	blx	r3
   8119c:	4b06      	ldr	r3, [pc, #24]	; (811b8 <getDisplacementAverage+0x28>)
   8119e:	4601      	mov	r1, r0
   811a0:	4620      	mov	r0, r4
   811a2:	4798      	blx	r3
   811a4:	f04f 517c 	mov.w	r1, #1056964608	; 0x3f000000
   811a8:	4b04      	ldr	r3, [pc, #16]	; (811bc <getDisplacementAverage+0x2c>)
   811aa:	4798      	blx	r3
   811ac:	bd10      	pop	{r4, pc}
   811ae:	bf00      	nop
   811b0:	00081149 	.word	0x00081149
   811b4:	0008116d 	.word	0x0008116d
   811b8:	00084aa5 	.word	0x00084aa5
   811bc:	00084cb5 	.word	0x00084cb5

000811c0 <getChangeInAngle>:
   811c0:	b510      	push	{r4, lr}
   811c2:	4b0d      	ldr	r3, [pc, #52]	; (811f8 <getChangeInAngle+0x38>)
   811c4:	4c0d      	ldr	r4, [pc, #52]	; (811fc <getChangeInAngle+0x3c>)
   811c6:	6819      	ldr	r1, [r3, #0]
   811c8:	4b0d      	ldr	r3, [pc, #52]	; (81200 <getChangeInAngle+0x40>)
   811ca:	6818      	ldr	r0, [r3, #0]
   811cc:	4b0d      	ldr	r3, [pc, #52]	; (81204 <getChangeInAngle+0x44>)
   811ce:	4798      	blx	r3
   811d0:	4b0d      	ldr	r3, [pc, #52]	; (81208 <getChangeInAngle+0x48>)
   811d2:	6819      	ldr	r1, [r3, #0]
   811d4:	4b0d      	ldr	r3, [pc, #52]	; (8120c <getChangeInAngle+0x4c>)
   811d6:	4798      	blx	r3
   811d8:	4b0d      	ldr	r3, [pc, #52]	; (81210 <getChangeInAngle+0x50>)
   811da:	4798      	blx	r3
   811dc:	a304      	add	r3, pc, #16	; (adr r3, 811f0 <getChangeInAngle+0x30>)
   811de:	e9d3 2300 	ldrd	r2, r3, [r3]
   811e2:	47a0      	blx	r4
   811e4:	4b0b      	ldr	r3, [pc, #44]	; (81214 <getChangeInAngle+0x54>)
   811e6:	4798      	blx	r3
   811e8:	bd10      	pop	{r4, pc}
   811ea:	bf00      	nop
   811ec:	f3af 8000 	nop.w
   811f0:	1a63c1f8 	.word	0x1a63c1f8
   811f4:	404ca5dc 	.word	0x404ca5dc
   811f8:	20070b9c 	.word	0x20070b9c
   811fc:	00084475 	.word	0x00084475
   81200:	20070b98 	.word	0x20070b98
   81204:	00084aa1 	.word	0x00084aa1
   81208:	20070108 	.word	0x20070108
   8120c:	00084e1d 	.word	0x00084e1d
   81210:	000843cd 	.word	0x000843cd
   81214:	000849f9 	.word	0x000849f9

00081218 <pwm_clocks_generate>:
   81218:	b5f0      	push	{r4, r5, r6, r7, lr}
   8121a:	4d11      	ldr	r5, [pc, #68]	; (81260 <pwm_clocks_generate+0x48>)
   8121c:	b08d      	sub	sp, #52	; 0x34
   8121e:	ac01      	add	r4, sp, #4
   81220:	4606      	mov	r6, r0
   81222:	460f      	mov	r7, r1
   81224:	cd0f      	ldmia	r5!, {r0, r1, r2, r3}
   81226:	c40f      	stmia	r4!, {r0, r1, r2, r3}
   81228:	cd0f      	ldmia	r5!, {r0, r1, r2, r3}
   8122a:	c40f      	stmia	r4!, {r0, r1, r2, r3}
   8122c:	e895 0007 	ldmia.w	r5, {r0, r1, r2}
   81230:	2300      	movs	r3, #0
   81232:	e884 0007 	stmia.w	r4, {r0, r1, r2}
   81236:	aa01      	add	r2, sp, #4
   81238:	f852 0023 	ldr.w	r0, [r2, r3, lsl #2]
   8123c:	fbb7 f0f0 	udiv	r0, r7, r0
   81240:	fbb0 f0f6 	udiv	r0, r0, r6
   81244:	f5b0 7f80 	cmp.w	r0, #256	; 0x100
   81248:	d906      	bls.n	81258 <pwm_clocks_generate+0x40>
   8124a:	3301      	adds	r3, #1
   8124c:	2b0b      	cmp	r3, #11
   8124e:	d1f3      	bne.n	81238 <pwm_clocks_generate+0x20>
   81250:	f64f 70ff 	movw	r0, #65535	; 0xffff
   81254:	b00d      	add	sp, #52	; 0x34
   81256:	bdf0      	pop	{r4, r5, r6, r7, pc}
   81258:	ea40 2003 	orr.w	r0, r0, r3, lsl #8
   8125c:	e7fa      	b.n	81254 <pwm_clocks_generate+0x3c>
   8125e:	bf00      	nop
   81260:	0008839c 	.word	0x0008839c

00081264 <pwm_init>:
   81264:	b570      	push	{r4, r5, r6, lr}
   81266:	680c      	ldr	r4, [r1, #0]
   81268:	4606      	mov	r6, r0
   8126a:	460d      	mov	r5, r1
   8126c:	b144      	cbz	r4, 81280 <pwm_init+0x1c>
   8126e:	4620      	mov	r0, r4
   81270:	4b0c      	ldr	r3, [pc, #48]	; (812a4 <pwm_init+0x40>)
   81272:	6889      	ldr	r1, [r1, #8]
   81274:	4798      	blx	r3
   81276:	f64f 73ff 	movw	r3, #65535	; 0xffff
   8127a:	4298      	cmp	r0, r3
   8127c:	4604      	mov	r4, r0
   8127e:	d00c      	beq.n	8129a <pwm_init+0x36>
   81280:	6868      	ldr	r0, [r5, #4]
   81282:	b140      	cbz	r0, 81296 <pwm_init+0x32>
   81284:	4b07      	ldr	r3, [pc, #28]	; (812a4 <pwm_init+0x40>)
   81286:	68a9      	ldr	r1, [r5, #8]
   81288:	4798      	blx	r3
   8128a:	f64f 73ff 	movw	r3, #65535	; 0xffff
   8128e:	4298      	cmp	r0, r3
   81290:	d005      	beq.n	8129e <pwm_init+0x3a>
   81292:	ea44 4400 	orr.w	r4, r4, r0, lsl #16
   81296:	6034      	str	r4, [r6, #0]
   81298:	2400      	movs	r4, #0
   8129a:	4620      	mov	r0, r4
   8129c:	bd70      	pop	{r4, r5, r6, pc}
   8129e:	4604      	mov	r4, r0
   812a0:	e7fb      	b.n	8129a <pwm_init+0x36>
   812a2:	bf00      	nop
   812a4:	00081219 	.word	0x00081219

000812a8 <pwm_channel_init>:
   812a8:	b570      	push	{r4, r5, r6, lr}
   812aa:	684a      	ldr	r2, [r1, #4]
   812ac:	8a8c      	ldrh	r4, [r1, #20]
   812ae:	f002 020f 	and.w	r2, r2, #15
   812b2:	4322      	orrs	r2, r4
   812b4:	890c      	ldrh	r4, [r1, #8]
   812b6:	680b      	ldr	r3, [r1, #0]
   812b8:	4322      	orrs	r2, r4
   812ba:	7a8c      	ldrb	r4, [r1, #10]
   812bc:	ea42 2244 	orr.w	r2, r2, r4, lsl #9
   812c0:	7d8c      	ldrb	r4, [r1, #22]
   812c2:	ea42 4204 	orr.w	r2, r2, r4, lsl #16
   812c6:	7dcc      	ldrb	r4, [r1, #23]
   812c8:	ea42 4244 	orr.w	r2, r2, r4, lsl #17
   812cc:	7e0c      	ldrb	r4, [r1, #24]
   812ce:	ea42 4284 	orr.w	r2, r2, r4, lsl #18
   812d2:	eb00 1443 	add.w	r4, r0, r3, lsl #5
   812d6:	f8c4 2200 	str.w	r2, [r4, #512]	; 0x200
   812da:	68ca      	ldr	r2, [r1, #12]
   812dc:	f8c4 2204 	str.w	r2, [r4, #516]	; 0x204
   812e0:	690a      	ldr	r2, [r1, #16]
   812e2:	f8c4 220c 	str.w	r2, [r4, #524]	; 0x20c
   812e6:	7d8a      	ldrb	r2, [r1, #22]
   812e8:	b11a      	cbz	r2, 812f2 <pwm_channel_init+0x4a>
   812ea:	f8d1 201a 	ldr.w	r2, [r1, #26]
   812ee:	f8c4 2218 	str.w	r2, [r4, #536]	; 0x218
   812f2:	f04f 1201 	mov.w	r2, #65537	; 0x10001
   812f6:	409a      	lsls	r2, r3
   812f8:	43d2      	mvns	r2, r2
   812fa:	7fcc      	ldrb	r4, [r1, #31]
   812fc:	6c85      	ldr	r5, [r0, #72]	; 0x48
   812fe:	fa04 f603 	lsl.w	r6, r4, r3
   81302:	7f8c      	ldrb	r4, [r1, #30]
   81304:	4015      	ands	r5, r2
   81306:	409c      	lsls	r4, r3
   81308:	ea44 4406 	orr.w	r4, r4, r6, lsl #16
   8130c:	432c      	orrs	r4, r5
   8130e:	6484      	str	r4, [r0, #72]	; 0x48
   81310:	6c44      	ldr	r4, [r0, #68]	; 0x44
   81312:	4022      	ands	r2, r4
   81314:	f891 4021 	ldrb.w	r4, [r1, #33]	; 0x21
   81318:	fa04 f503 	lsl.w	r5, r4, r3
   8131c:	f891 4020 	ldrb.w	r4, [r1, #32]
   81320:	409c      	lsls	r4, r3
   81322:	ea44 4405 	orr.w	r4, r4, r5, lsl #16
   81326:	4322      	orrs	r2, r4
   81328:	6442      	str	r2, [r0, #68]	; 0x44
   8132a:	2201      	movs	r2, #1
   8132c:	f891 4022 	ldrb.w	r4, [r1, #34]	; 0x22
   81330:	409a      	lsls	r2, r3
   81332:	b324      	cbz	r4, 8137e <pwm_channel_init+0xd6>
   81334:	6a04      	ldr	r4, [r0, #32]
   81336:	4314      	orrs	r4, r2
   81338:	6204      	str	r4, [r0, #32]
   8133a:	f891 4024 	ldrb.w	r4, [r1, #36]	; 0x24
   8133e:	2c01      	cmp	r4, #1
   81340:	6e84      	ldr	r4, [r0, #104]	; 0x68
   81342:	bf0c      	ite	eq
   81344:	4314      	orreq	r4, r2
   81346:	4394      	bicne	r4, r2
   81348:	6684      	str	r4, [r0, #104]	; 0x68
   8134a:	f891 4025 	ldrb.w	r4, [r1, #37]	; 0x25
   8134e:	0412      	lsls	r2, r2, #16
   81350:	2c01      	cmp	r4, #1
   81352:	6e84      	ldr	r4, [r0, #104]	; 0x68
   81354:	bf0c      	ite	eq
   81356:	4322      	orreq	r2, r4
   81358:	ea24 0202 	bicne.w	r2, r4, r2
   8135c:	6682      	str	r2, [r0, #104]	; 0x68
   8135e:	2b03      	cmp	r3, #3
   81360:	f04f 04ff 	mov.w	r4, #255	; 0xff
   81364:	f891 2023 	ldrb.w	r2, [r1, #35]	; 0x23
   81368:	d80d      	bhi.n	81386 <pwm_channel_init+0xde>
   8136a:	00db      	lsls	r3, r3, #3
   8136c:	6ec1      	ldr	r1, [r0, #108]	; 0x6c
   8136e:	409c      	lsls	r4, r3
   81370:	ea21 0404 	bic.w	r4, r1, r4
   81374:	409a      	lsls	r2, r3
   81376:	4322      	orrs	r2, r4
   81378:	66c2      	str	r2, [r0, #108]	; 0x6c
   8137a:	2000      	movs	r0, #0
   8137c:	bd70      	pop	{r4, r5, r6, pc}
   8137e:	6a04      	ldr	r4, [r0, #32]
   81380:	ea24 0402 	bic.w	r4, r4, r2
   81384:	e7d8      	b.n	81338 <pwm_channel_init+0x90>
   81386:	3b04      	subs	r3, #4
   81388:	00db      	lsls	r3, r3, #3
   8138a:	6f01      	ldr	r1, [r0, #112]	; 0x70
   8138c:	409c      	lsls	r4, r3
   8138e:	ea21 0404 	bic.w	r4, r1, r4
   81392:	fa02 f303 	lsl.w	r3, r2, r3
   81396:	4323      	orrs	r3, r4
   81398:	6703      	str	r3, [r0, #112]	; 0x70
   8139a:	e7ee      	b.n	8137a <pwm_channel_init+0xd2>

0008139c <pwm_channel_enable>:
   8139c:	2301      	movs	r3, #1
   8139e:	fa03 f101 	lsl.w	r1, r3, r1
   813a2:	6041      	str	r1, [r0, #4]
   813a4:	4770      	bx	lr

000813a6 <pwm_channel_disable>:
   813a6:	2301      	movs	r3, #1
   813a8:	fa03 f101 	lsl.w	r1, r3, r1
   813ac:	6081      	str	r1, [r0, #8]
   813ae:	4770      	bx	lr

000813b0 <twi_set_speed>:
   813b0:	4b21      	ldr	r3, [pc, #132]	; (81438 <twi_set_speed+0x88>)
   813b2:	b510      	push	{r4, lr}
   813b4:	4299      	cmp	r1, r3
   813b6:	d83c      	bhi.n	81432 <twi_set_speed+0x82>
   813b8:	f5a3 537a 	sub.w	r3, r3, #16000	; 0x3e80
   813bc:	4299      	cmp	r1, r3
   813be:	d923      	bls.n	81408 <twi_set_speed+0x58>
   813c0:	4b1e      	ldr	r3, [pc, #120]	; (8143c <twi_set_speed+0x8c>)
   813c2:	4c1f      	ldr	r4, [pc, #124]	; (81440 <twi_set_speed+0x90>)
   813c4:	440b      	add	r3, r1
   813c6:	009b      	lsls	r3, r3, #2
   813c8:	fbb2 f4f4 	udiv	r4, r2, r4
   813cc:	fbb2 f2f3 	udiv	r2, r2, r3
   813d0:	2300      	movs	r3, #0
   813d2:	3c04      	subs	r4, #4
   813d4:	3a04      	subs	r2, #4
   813d6:	2cff      	cmp	r4, #255	; 0xff
   813d8:	d901      	bls.n	813de <twi_set_speed+0x2e>
   813da:	2b07      	cmp	r3, #7
   813dc:	d10c      	bne.n	813f8 <twi_set_speed+0x48>
   813de:	2aff      	cmp	r2, #255	; 0xff
   813e0:	d80d      	bhi.n	813fe <twi_set_speed+0x4e>
   813e2:	0212      	lsls	r2, r2, #8
   813e4:	041b      	lsls	r3, r3, #16
   813e6:	b292      	uxth	r2, r2
   813e8:	f403 23e0 	and.w	r3, r3, #458752	; 0x70000
   813ec:	431a      	orrs	r2, r3
   813ee:	b2e4      	uxtb	r4, r4
   813f0:	4322      	orrs	r2, r4
   813f2:	6102      	str	r2, [r0, #16]
   813f4:	2000      	movs	r0, #0
   813f6:	bd10      	pop	{r4, pc}
   813f8:	3301      	adds	r3, #1
   813fa:	0864      	lsrs	r4, r4, #1
   813fc:	e7eb      	b.n	813d6 <twi_set_speed+0x26>
   813fe:	2b06      	cmp	r3, #6
   81400:	d8ef      	bhi.n	813e2 <twi_set_speed+0x32>
   81402:	3301      	adds	r3, #1
   81404:	0852      	lsrs	r2, r2, #1
   81406:	e7ea      	b.n	813de <twi_set_speed+0x2e>
   81408:	0049      	lsls	r1, r1, #1
   8140a:	fbb2 f2f1 	udiv	r2, r2, r1
   8140e:	2300      	movs	r3, #0
   81410:	3a04      	subs	r2, #4
   81412:	2aff      	cmp	r2, #255	; 0xff
   81414:	d901      	bls.n	8141a <twi_set_speed+0x6a>
   81416:	2b07      	cmp	r3, #7
   81418:	d108      	bne.n	8142c <twi_set_speed+0x7c>
   8141a:	0211      	lsls	r1, r2, #8
   8141c:	041b      	lsls	r3, r3, #16
   8141e:	b289      	uxth	r1, r1
   81420:	f403 23e0 	and.w	r3, r3, #458752	; 0x70000
   81424:	430b      	orrs	r3, r1
   81426:	b2d2      	uxtb	r2, r2
   81428:	431a      	orrs	r2, r3
   8142a:	e7e2      	b.n	813f2 <twi_set_speed+0x42>
   8142c:	3301      	adds	r3, #1
   8142e:	0852      	lsrs	r2, r2, #1
   81430:	e7ef      	b.n	81412 <twi_set_speed+0x62>
   81432:	2001      	movs	r0, #1
   81434:	bd10      	pop	{r4, pc}
   81436:	bf00      	nop
   81438:	00061a80 	.word	0x00061a80
   8143c:	3ffd1200 	.word	0x3ffd1200
   81440:	000bb800 	.word	0x000bb800

00081444 <twi_master_init>:
   81444:	b538      	push	{r3, r4, r5, lr}
   81446:	f04f 33ff 	mov.w	r3, #4294967295
   8144a:	6283      	str	r3, [r0, #40]	; 0x28
   8144c:	6a03      	ldr	r3, [r0, #32]
   8144e:	2380      	movs	r3, #128	; 0x80
   81450:	6003      	str	r3, [r0, #0]
   81452:	6b03      	ldr	r3, [r0, #48]	; 0x30
   81454:	2308      	movs	r3, #8
   81456:	6003      	str	r3, [r0, #0]
   81458:	2320      	movs	r3, #32
   8145a:	6003      	str	r3, [r0, #0]
   8145c:	2304      	movs	r3, #4
   8145e:	6003      	str	r3, [r0, #0]
   81460:	460d      	mov	r5, r1
   81462:	680a      	ldr	r2, [r1, #0]
   81464:	4b06      	ldr	r3, [pc, #24]	; (81480 <twi_master_init+0x3c>)
   81466:	6849      	ldr	r1, [r1, #4]
   81468:	4604      	mov	r4, r0
   8146a:	4798      	blx	r3
   8146c:	1e43      	subs	r3, r0, #1
   8146e:	4258      	negs	r0, r3
   81470:	4158      	adcs	r0, r3
   81472:	7a6b      	ldrb	r3, [r5, #9]
   81474:	2b01      	cmp	r3, #1
   81476:	bf04      	itt	eq
   81478:	2340      	moveq	r3, #64	; 0x40
   8147a:	6023      	streq	r3, [r4, #0]
   8147c:	bd38      	pop	{r3, r4, r5, pc}
   8147e:	bf00      	nop
   81480:	000813b1 	.word	0x000813b1

00081484 <twi_mk_addr>:
   81484:	b161      	cbz	r1, 814a0 <twi_mk_addr+0x1c>
   81486:	2901      	cmp	r1, #1
   81488:	7803      	ldrb	r3, [r0, #0]
   8148a:	dd07      	ble.n	8149c <twi_mk_addr+0x18>
   8148c:	7842      	ldrb	r2, [r0, #1]
   8148e:	2902      	cmp	r1, #2
   81490:	ea42 2303 	orr.w	r3, r2, r3, lsl #8
   81494:	d002      	beq.n	8149c <twi_mk_addr+0x18>
   81496:	7882      	ldrb	r2, [r0, #2]
   81498:	ea42 2303 	orr.w	r3, r2, r3, lsl #8
   8149c:	4618      	mov	r0, r3
   8149e:	4770      	bx	lr
   814a0:	460b      	mov	r3, r1
   814a2:	e7fb      	b.n	8149c <twi_mk_addr+0x18>

000814a4 <twi_master_read>:
   814a4:	b5f8      	push	{r3, r4, r5, r6, r7, lr}
   814a6:	68cc      	ldr	r4, [r1, #12]
   814a8:	4605      	mov	r5, r0
   814aa:	4608      	mov	r0, r1
   814ac:	2c00      	cmp	r4, #0
   814ae:	d03c      	beq.n	8152a <twi_master_read+0x86>
   814b0:	2600      	movs	r6, #0
   814b2:	688f      	ldr	r7, [r1, #8]
   814b4:	606e      	str	r6, [r5, #4]
   814b6:	684b      	ldr	r3, [r1, #4]
   814b8:	7c0a      	ldrb	r2, [r1, #16]
   814ba:	021b      	lsls	r3, r3, #8
   814bc:	f403 7340 	and.w	r3, r3, #768	; 0x300
   814c0:	0412      	lsls	r2, r2, #16
   814c2:	f402 02fe 	and.w	r2, r2, #8323072	; 0x7f0000
   814c6:	f443 5380 	orr.w	r3, r3, #4096	; 0x1000
   814ca:	4313      	orrs	r3, r2
   814cc:	606b      	str	r3, [r5, #4]
   814ce:	60ee      	str	r6, [r5, #12]
   814d0:	4b19      	ldr	r3, [pc, #100]	; (81538 <twi_master_read+0x94>)
   814d2:	6849      	ldr	r1, [r1, #4]
   814d4:	4798      	blx	r3
   814d6:	2c01      	cmp	r4, #1
   814d8:	bf0c      	ite	eq
   814da:	2303      	moveq	r3, #3
   814dc:	2301      	movne	r3, #1
   814de:	60e8      	str	r0, [r5, #12]
   814e0:	bf06      	itte	eq
   814e2:	4626      	moveq	r6, r4
   814e4:	602b      	streq	r3, [r5, #0]
   814e6:	602b      	strne	r3, [r5, #0]
   814e8:	2102      	movs	r1, #2
   814ea:	f247 5330 	movw	r3, #30000	; 0x7530
   814ee:	6a2a      	ldr	r2, [r5, #32]
   814f0:	05d0      	lsls	r0, r2, #23
   814f2:	d41c      	bmi.n	8152e <twi_master_read+0x8a>
   814f4:	b1eb      	cbz	r3, 81532 <twi_master_read+0x8e>
   814f6:	2c01      	cmp	r4, #1
   814f8:	d102      	bne.n	81500 <twi_master_read+0x5c>
   814fa:	b90e      	cbnz	r6, 81500 <twi_master_read+0x5c>
   814fc:	4626      	mov	r6, r4
   814fe:	6029      	str	r1, [r5, #0]
   81500:	0792      	lsls	r2, r2, #30
   81502:	d406      	bmi.n	81512 <twi_master_read+0x6e>
   81504:	3b01      	subs	r3, #1
   81506:	463a      	mov	r2, r7
   81508:	e001      	b.n	8150e <twi_master_read+0x6a>
   8150a:	f247 5330 	movw	r3, #30000	; 0x7530
   8150e:	4617      	mov	r7, r2
   81510:	e7ed      	b.n	814ee <twi_master_read+0x4a>
   81512:	6b2b      	ldr	r3, [r5, #48]	; 0x30
   81514:	3c01      	subs	r4, #1
   81516:	f107 0201 	add.w	r2, r7, #1
   8151a:	703b      	strb	r3, [r7, #0]
   8151c:	d1f5      	bne.n	8150a <twi_master_read+0x66>
   8151e:	6a2b      	ldr	r3, [r5, #32]
   81520:	07db      	lsls	r3, r3, #31
   81522:	d5fc      	bpl.n	8151e <twi_master_read+0x7a>
   81524:	6a2b      	ldr	r3, [r5, #32]
   81526:	4620      	mov	r0, r4
   81528:	bdf8      	pop	{r3, r4, r5, r6, r7, pc}
   8152a:	2401      	movs	r4, #1
   8152c:	e7fb      	b.n	81526 <twi_master_read+0x82>
   8152e:	2405      	movs	r4, #5
   81530:	e7f9      	b.n	81526 <twi_master_read+0x82>
   81532:	2409      	movs	r4, #9
   81534:	e7f7      	b.n	81526 <twi_master_read+0x82>
   81536:	bf00      	nop
   81538:	00081485 	.word	0x00081485

0008153c <twi_master_write>:
   8153c:	b570      	push	{r4, r5, r6, lr}
   8153e:	68ce      	ldr	r6, [r1, #12]
   81540:	4604      	mov	r4, r0
   81542:	4608      	mov	r0, r1
   81544:	b34e      	cbz	r6, 8159a <twi_master_write+0x5e>
   81546:	688d      	ldr	r5, [r1, #8]
   81548:	2100      	movs	r1, #0
   8154a:	6061      	str	r1, [r4, #4]
   8154c:	7c03      	ldrb	r3, [r0, #16]
   8154e:	6842      	ldr	r2, [r0, #4]
   81550:	041b      	lsls	r3, r3, #16
   81552:	0212      	lsls	r2, r2, #8
   81554:	f402 7240 	and.w	r2, r2, #768	; 0x300
   81558:	f403 03fe 	and.w	r3, r3, #8323072	; 0x7f0000
   8155c:	4313      	orrs	r3, r2
   8155e:	6063      	str	r3, [r4, #4]
   81560:	60e1      	str	r1, [r4, #12]
   81562:	6841      	ldr	r1, [r0, #4]
   81564:	4b0f      	ldr	r3, [pc, #60]	; (815a4 <twi_master_write+0x68>)
   81566:	4798      	blx	r3
   81568:	442e      	add	r6, r5
   8156a:	60e0      	str	r0, [r4, #12]
   8156c:	42ae      	cmp	r6, r5
   8156e:	d10b      	bne.n	81588 <twi_master_write+0x4c>
   81570:	6a23      	ldr	r3, [r4, #32]
   81572:	05d9      	lsls	r1, r3, #23
   81574:	d413      	bmi.n	8159e <twi_master_write+0x62>
   81576:	075a      	lsls	r2, r3, #29
   81578:	d5fa      	bpl.n	81570 <twi_master_write+0x34>
   8157a:	2302      	movs	r3, #2
   8157c:	6023      	str	r3, [r4, #0]
   8157e:	6a23      	ldr	r3, [r4, #32]
   81580:	07db      	lsls	r3, r3, #31
   81582:	d5fc      	bpl.n	8157e <twi_master_write+0x42>
   81584:	2000      	movs	r0, #0
   81586:	bd70      	pop	{r4, r5, r6, pc}
   81588:	6a23      	ldr	r3, [r4, #32]
   8158a:	05da      	lsls	r2, r3, #23
   8158c:	d407      	bmi.n	8159e <twi_master_write+0x62>
   8158e:	0758      	lsls	r0, r3, #29
   81590:	bf44      	itt	mi
   81592:	f815 3b01 	ldrbmi.w	r3, [r5], #1
   81596:	6363      	strmi	r3, [r4, #52]	; 0x34
   81598:	e7e8      	b.n	8156c <twi_master_write+0x30>
   8159a:	2001      	movs	r0, #1
   8159c:	bd70      	pop	{r4, r5, r6, pc}
   8159e:	2005      	movs	r0, #5
   815a0:	bd70      	pop	{r4, r5, r6, pc}
   815a2:	bf00      	nop
   815a4:	00081485 	.word	0x00081485

000815a8 <rightEncoderAISR>:
   815a8:	b538      	push	{r3, r4, r5, lr}
   815aa:	4c12      	ldr	r4, [pc, #72]	; (815f4 <rightEncoderAISR+0x4c>)
   815ac:	47a0      	blx	r4
   815ae:	2800      	cmp	r0, #0
   815b0:	dd12      	ble.n	815d8 <rightEncoderAISR+0x30>
   815b2:	4a11      	ldr	r2, [pc, #68]	; (815f8 <rightEncoderAISR+0x50>)
   815b4:	6813      	ldr	r3, [r2, #0]
   815b6:	3301      	adds	r3, #1
   815b8:	6013      	str	r3, [r2, #0]
   815ba:	4d10      	ldr	r5, [pc, #64]	; (815fc <rightEncoderAISR+0x54>)
   815bc:	4c10      	ldr	r4, [pc, #64]	; (81600 <rightEncoderAISR+0x58>)
   815be:	682b      	ldr	r3, [r5, #0]
   815c0:	6023      	str	r3, [r4, #0]
   815c2:	4b10      	ldr	r3, [pc, #64]	; (81604 <rightEncoderAISR+0x5c>)
   815c4:	4798      	blx	r3
   815c6:	4a10      	ldr	r2, [pc, #64]	; (81608 <rightEncoderAISR+0x60>)
   815c8:	6823      	ldr	r3, [r4, #0]
   815ca:	6812      	ldr	r2, [r2, #0]
   815cc:	6028      	str	r0, [r5, #0]
   815ce:	fb02 0013 	mls	r0, r2, r3, r0
   815d2:	4b0e      	ldr	r3, [pc, #56]	; (8160c <rightEncoderAISR+0x64>)
   815d4:	6018      	str	r0, [r3, #0]
   815d6:	bd38      	pop	{r3, r4, r5, pc}
   815d8:	47a0      	blx	r4
   815da:	2800      	cmp	r0, #0
   815dc:	da03      	bge.n	815e6 <rightEncoderAISR+0x3e>
   815de:	4a06      	ldr	r2, [pc, #24]	; (815f8 <rightEncoderAISR+0x50>)
   815e0:	6813      	ldr	r3, [r2, #0]
   815e2:	3b01      	subs	r3, #1
   815e4:	e7e8      	b.n	815b8 <rightEncoderAISR+0x10>
   815e6:	47a0      	blx	r4
   815e8:	2800      	cmp	r0, #0
   815ea:	d1e6      	bne.n	815ba <rightEncoderAISR+0x12>
   815ec:	4b08      	ldr	r3, [pc, #32]	; (81610 <rightEncoderAISR+0x68>)
   815ee:	4798      	blx	r3
   815f0:	e7e3      	b.n	815ba <rightEncoderAISR+0x12>
   815f2:	bf00      	nop
   815f4:	00081b01 	.word	0x00081b01
   815f8:	20070bfc 	.word	0x20070bfc
   815fc:	20070bf0 	.word	0x20070bf0
   81600:	20070bf4 	.word	0x20070bf4
   81604:	00082b25 	.word	0x00082b25
   81608:	2007010c 	.word	0x2007010c
   8160c:	20070bf8 	.word	0x20070bf8
   81610:	00081ac1 	.word	0x00081ac1

00081614 <rightEncoderBISR>:
   81614:	b538      	push	{r3, r4, r5, lr}
   81616:	4c12      	ldr	r4, [pc, #72]	; (81660 <rightEncoderBISR+0x4c>)
   81618:	47a0      	blx	r4
   8161a:	2800      	cmp	r0, #0
   8161c:	dd12      	ble.n	81644 <rightEncoderBISR+0x30>
   8161e:	4a11      	ldr	r2, [pc, #68]	; (81664 <rightEncoderBISR+0x50>)
   81620:	6813      	ldr	r3, [r2, #0]
   81622:	3301      	adds	r3, #1
   81624:	6013      	str	r3, [r2, #0]
   81626:	4d10      	ldr	r5, [pc, #64]	; (81668 <rightEncoderBISR+0x54>)
   81628:	4c10      	ldr	r4, [pc, #64]	; (8166c <rightEncoderBISR+0x58>)
   8162a:	682b      	ldr	r3, [r5, #0]
   8162c:	6023      	str	r3, [r4, #0]
   8162e:	4b10      	ldr	r3, [pc, #64]	; (81670 <rightEncoderBISR+0x5c>)
   81630:	4798      	blx	r3
   81632:	4a10      	ldr	r2, [pc, #64]	; (81674 <rightEncoderBISR+0x60>)
   81634:	6823      	ldr	r3, [r4, #0]
   81636:	6812      	ldr	r2, [r2, #0]
   81638:	6028      	str	r0, [r5, #0]
   8163a:	fb02 0013 	mls	r0, r2, r3, r0
   8163e:	4b0e      	ldr	r3, [pc, #56]	; (81678 <rightEncoderBISR+0x64>)
   81640:	6018      	str	r0, [r3, #0]
   81642:	bd38      	pop	{r3, r4, r5, pc}
   81644:	47a0      	blx	r4
   81646:	2800      	cmp	r0, #0
   81648:	da03      	bge.n	81652 <rightEncoderBISR+0x3e>
   8164a:	4a06      	ldr	r2, [pc, #24]	; (81664 <rightEncoderBISR+0x50>)
   8164c:	6813      	ldr	r3, [r2, #0]
   8164e:	3b01      	subs	r3, #1
   81650:	e7e8      	b.n	81624 <rightEncoderBISR+0x10>
   81652:	47a0      	blx	r4
   81654:	2800      	cmp	r0, #0
   81656:	d1e6      	bne.n	81626 <rightEncoderBISR+0x12>
   81658:	4b08      	ldr	r3, [pc, #32]	; (8167c <rightEncoderBISR+0x68>)
   8165a:	4798      	blx	r3
   8165c:	e7e3      	b.n	81626 <rightEncoderBISR+0x12>
   8165e:	bf00      	nop
   81660:	00081b01 	.word	0x00081b01
   81664:	20070c0c 	.word	0x20070c0c
   81668:	20070c00 	.word	0x20070c00
   8166c:	20070c04 	.word	0x20070c04
   81670:	00082b25 	.word	0x00082b25
   81674:	2007010c 	.word	0x2007010c
   81678:	20070c08 	.word	0x20070c08
   8167c:	00081ac1 	.word	0x00081ac1

00081680 <leftEncoderAISR>:
   81680:	b538      	push	{r3, r4, r5, lr}
   81682:	4c12      	ldr	r4, [pc, #72]	; (816cc <leftEncoderAISR+0x4c>)
   81684:	47a0      	blx	r4
   81686:	2800      	cmp	r0, #0
   81688:	dd12      	ble.n	816b0 <leftEncoderAISR+0x30>
   8168a:	4a11      	ldr	r2, [pc, #68]	; (816d0 <leftEncoderAISR+0x50>)
   8168c:	6813      	ldr	r3, [r2, #0]
   8168e:	3301      	adds	r3, #1
   81690:	6013      	str	r3, [r2, #0]
   81692:	4d10      	ldr	r5, [pc, #64]	; (816d4 <leftEncoderAISR+0x54>)
   81694:	4c10      	ldr	r4, [pc, #64]	; (816d8 <leftEncoderAISR+0x58>)
   81696:	682b      	ldr	r3, [r5, #0]
   81698:	6023      	str	r3, [r4, #0]
   8169a:	4b10      	ldr	r3, [pc, #64]	; (816dc <leftEncoderAISR+0x5c>)
   8169c:	4798      	blx	r3
   8169e:	6823      	ldr	r3, [r4, #0]
   816a0:	6028      	str	r0, [r5, #0]
   816a2:	1ac0      	subs	r0, r0, r3
   816a4:	4b0e      	ldr	r3, [pc, #56]	; (816e0 <leftEncoderAISR+0x60>)
   816a6:	681b      	ldr	r3, [r3, #0]
   816a8:	4358      	muls	r0, r3
   816aa:	4b0e      	ldr	r3, [pc, #56]	; (816e4 <leftEncoderAISR+0x64>)
   816ac:	6018      	str	r0, [r3, #0]
   816ae:	bd38      	pop	{r3, r4, r5, pc}
   816b0:	47a0      	blx	r4
   816b2:	2800      	cmp	r0, #0
   816b4:	da03      	bge.n	816be <leftEncoderAISR+0x3e>
   816b6:	4a06      	ldr	r2, [pc, #24]	; (816d0 <leftEncoderAISR+0x50>)
   816b8:	6813      	ldr	r3, [r2, #0]
   816ba:	3b01      	subs	r3, #1
   816bc:	e7e8      	b.n	81690 <leftEncoderAISR+0x10>
   816be:	47a0      	blx	r4
   816c0:	2800      	cmp	r0, #0
   816c2:	d1e6      	bne.n	81692 <leftEncoderAISR+0x12>
   816c4:	4b08      	ldr	r3, [pc, #32]	; (816e8 <leftEncoderAISR+0x68>)
   816c6:	4798      	blx	r3
   816c8:	e7e3      	b.n	81692 <leftEncoderAISR+0x12>
   816ca:	bf00      	nop
   816cc:	00081acd 	.word	0x00081acd
   816d0:	20070bdc 	.word	0x20070bdc
   816d4:	20070bd0 	.word	0x20070bd0
   816d8:	20070bd4 	.word	0x20070bd4
   816dc:	00082b25 	.word	0x00082b25
   816e0:	2007010c 	.word	0x2007010c
   816e4:	20070bd8 	.word	0x20070bd8
   816e8:	00081ab5 	.word	0x00081ab5

000816ec <leftEncoderBISR>:
   816ec:	b538      	push	{r3, r4, r5, lr}
   816ee:	4c12      	ldr	r4, [pc, #72]	; (81738 <leftEncoderBISR+0x4c>)
   816f0:	47a0      	blx	r4
   816f2:	2800      	cmp	r0, #0
   816f4:	dd12      	ble.n	8171c <leftEncoderBISR+0x30>
   816f6:	4a11      	ldr	r2, [pc, #68]	; (8173c <leftEncoderBISR+0x50>)
   816f8:	6813      	ldr	r3, [r2, #0]
   816fa:	3301      	adds	r3, #1
   816fc:	6013      	str	r3, [r2, #0]
   816fe:	4d10      	ldr	r5, [pc, #64]	; (81740 <leftEncoderBISR+0x54>)
   81700:	4c10      	ldr	r4, [pc, #64]	; (81744 <leftEncoderBISR+0x58>)
   81702:	682b      	ldr	r3, [r5, #0]
   81704:	6023      	str	r3, [r4, #0]
   81706:	4b10      	ldr	r3, [pc, #64]	; (81748 <leftEncoderBISR+0x5c>)
   81708:	4798      	blx	r3
   8170a:	6823      	ldr	r3, [r4, #0]
   8170c:	6028      	str	r0, [r5, #0]
   8170e:	1ac0      	subs	r0, r0, r3
   81710:	4b0e      	ldr	r3, [pc, #56]	; (8174c <leftEncoderBISR+0x60>)
   81712:	681b      	ldr	r3, [r3, #0]
   81714:	4358      	muls	r0, r3
   81716:	4b0e      	ldr	r3, [pc, #56]	; (81750 <leftEncoderBISR+0x64>)
   81718:	6018      	str	r0, [r3, #0]
   8171a:	bd38      	pop	{r3, r4, r5, pc}
   8171c:	47a0      	blx	r4
   8171e:	2800      	cmp	r0, #0
   81720:	da03      	bge.n	8172a <leftEncoderBISR+0x3e>
   81722:	4a06      	ldr	r2, [pc, #24]	; (8173c <leftEncoderBISR+0x50>)
   81724:	6813      	ldr	r3, [r2, #0]
   81726:	3b01      	subs	r3, #1
   81728:	e7e8      	b.n	816fc <leftEncoderBISR+0x10>
   8172a:	47a0      	blx	r4
   8172c:	2800      	cmp	r0, #0
   8172e:	d1e6      	bne.n	816fe <leftEncoderBISR+0x12>
   81730:	4b08      	ldr	r3, [pc, #32]	; (81754 <leftEncoderBISR+0x68>)
   81732:	4798      	blx	r3
   81734:	e7e3      	b.n	816fe <leftEncoderBISR+0x12>
   81736:	bf00      	nop
   81738:	00081acd 	.word	0x00081acd
   8173c:	20070bec 	.word	0x20070bec
   81740:	20070be0 	.word	0x20070be0
   81744:	20070be4 	.word	0x20070be4
   81748:	00082b25 	.word	0x00082b25
   8174c:	2007010c 	.word	0x2007010c
   81750:	20070be8 	.word	0x20070be8
   81754:	00081ab5 	.word	0x00081ab5

00081758 <resetCounter>:
   81758:	2300      	movs	r3, #0
   8175a:	4a04      	ldr	r2, [pc, #16]	; (8176c <resetCounter+0x14>)
   8175c:	6013      	str	r3, [r2, #0]
   8175e:	4a04      	ldr	r2, [pc, #16]	; (81770 <resetCounter+0x18>)
   81760:	6013      	str	r3, [r2, #0]
   81762:	4a04      	ldr	r2, [pc, #16]	; (81774 <resetCounter+0x1c>)
   81764:	6013      	str	r3, [r2, #0]
   81766:	4a04      	ldr	r2, [pc, #16]	; (81778 <resetCounter+0x20>)
   81768:	6013      	str	r3, [r2, #0]
   8176a:	4770      	bx	lr
   8176c:	20070bdc 	.word	0x20070bdc
   81770:	20070bfc 	.word	0x20070bfc
   81774:	20070c0c 	.word	0x20070c0c
   81778:	20070bec 	.word	0x20070bec

0008177c <getLeftPulses>:
   8177c:	4b02      	ldr	r3, [pc, #8]	; (81788 <getLeftPulses+0xc>)
   8177e:	6818      	ldr	r0, [r3, #0]
   81780:	4b02      	ldr	r3, [pc, #8]	; (8178c <getLeftPulses+0x10>)
   81782:	681b      	ldr	r3, [r3, #0]
   81784:	4418      	add	r0, r3
   81786:	4770      	bx	lr
   81788:	20070bdc 	.word	0x20070bdc
   8178c:	20070bec 	.word	0x20070bec

00081790 <getRightPulses>:
   81790:	4b02      	ldr	r3, [pc, #8]	; (8179c <getRightPulses+0xc>)
   81792:	6818      	ldr	r0, [r3, #0]
   81794:	4b02      	ldr	r3, [pc, #8]	; (817a0 <getRightPulses+0x10>)
   81796:	681b      	ldr	r3, [r3, #0]
   81798:	4418      	add	r0, r3
   8179a:	4770      	bx	lr
   8179c:	20070bfc 	.word	0x20070bfc
   817a0:	20070c0c 	.word	0x20070c0c

000817a4 <init_twi>:
   817a4:	b51f      	push	{r0, r1, r2, r3, r4, lr}
   817a6:	4b0a      	ldr	r3, [pc, #40]	; (817d0 <init_twi+0x2c>)
   817a8:	2017      	movs	r0, #23
   817aa:	9302      	str	r3, [sp, #8]
   817ac:	4b09      	ldr	r3, [pc, #36]	; (817d4 <init_twi+0x30>)
   817ae:	9301      	str	r3, [sp, #4]
   817b0:	2300      	movs	r3, #0
   817b2:	f88d 300d 	strb.w	r3, [sp, #13]
   817b6:	4b08      	ldr	r3, [pc, #32]	; (817d8 <init_twi+0x34>)
   817b8:	4798      	blx	r3
   817ba:	a901      	add	r1, sp, #4
   817bc:	4b07      	ldr	r3, [pc, #28]	; (817dc <init_twi+0x38>)
   817be:	4808      	ldr	r0, [pc, #32]	; (817e0 <init_twi+0x3c>)
   817c0:	4798      	blx	r3
   817c2:	fab0 f080 	clz	r0, r0
   817c6:	0940      	lsrs	r0, r0, #5
   817c8:	b005      	add	sp, #20
   817ca:	f85d fb04 	ldr.w	pc, [sp], #4
   817ce:	bf00      	nop
   817d0:	000186a0 	.word	0x000186a0
   817d4:	0501bd00 	.word	0x0501bd00
   817d8:	00083959 	.word	0x00083959
   817dc:	00081445 	.word	0x00081445
   817e0:	40090000 	.word	0x40090000

000817e4 <send_package>:
   817e4:	b5f0      	push	{r4, r5, r6, r7, lr}
   817e6:	2908      	cmp	r1, #8
   817e8:	b08b      	sub	sp, #44	; 0x2c
   817ea:	460e      	mov	r6, r1
   817ec:	d113      	bne.n	81816 <send_package+0x32>
   817ee:	466c      	mov	r4, sp
   817f0:	4f11      	ldr	r7, [pc, #68]	; (81838 <send_package+0x54>)
   817f2:	4d12      	ldr	r5, [pc, #72]	; (8183c <send_package+0x58>)
   817f4:	7038      	strb	r0, [r7, #0]
   817f6:	cd0f      	ldmia	r5!, {r0, r1, r2, r3}
   817f8:	c40f      	stmia	r4!, {r0, r1, r2, r3}
   817fa:	4669      	mov	r1, sp
   817fc:	682b      	ldr	r3, [r5, #0]
   817fe:	9702      	str	r7, [sp, #8]
   81800:	6023      	str	r3, [r4, #0]
   81802:	f88d 6010 	strb.w	r6, [sp, #16]
   81806:	480e      	ldr	r0, [pc, #56]	; (81840 <send_package+0x5c>)
   81808:	4b0e      	ldr	r3, [pc, #56]	; (81844 <send_package+0x60>)
   8180a:	4798      	blx	r3
   8180c:	fab0 f080 	clz	r0, r0
   81810:	0940      	lsrs	r0, r0, #5
   81812:	b00b      	add	sp, #44	; 0x2c
   81814:	bdf0      	pop	{r4, r5, r6, r7, pc}
   81816:	2910      	cmp	r1, #16
   81818:	d10c      	bne.n	81834 <send_package+0x50>
   8181a:	4f0b      	ldr	r7, [pc, #44]	; (81848 <send_package+0x64>)
   8181c:	4d0b      	ldr	r5, [pc, #44]	; (8184c <send_package+0x68>)
   8181e:	ac05      	add	r4, sp, #20
   81820:	7038      	strb	r0, [r7, #0]
   81822:	cd0f      	ldmia	r5!, {r0, r1, r2, r3}
   81824:	c40f      	stmia	r4!, {r0, r1, r2, r3}
   81826:	682b      	ldr	r3, [r5, #0]
   81828:	9707      	str	r7, [sp, #28]
   8182a:	6023      	str	r3, [r4, #0]
   8182c:	a905      	add	r1, sp, #20
   8182e:	f88d 6024 	strb.w	r6, [sp, #36]	; 0x24
   81832:	e7e8      	b.n	81806 <send_package+0x22>
   81834:	2001      	movs	r0, #1
   81836:	e7ec      	b.n	81812 <send_package+0x2e>
   81838:	20070c1b 	.word	0x20070c1b
   8183c:	20070110 	.word	0x20070110
   81840:	40090000 	.word	0x40090000
   81844:	0008153d 	.word	0x0008153d
   81848:	20070c1c 	.word	0x20070c1c
   8184c:	20070124 	.word	0x20070124

00081850 <read_package>:
   81850:	2808      	cmp	r0, #8
   81852:	b508      	push	{r3, lr}
   81854:	bf08      	it	eq
   81856:	4905      	ldreq	r1, [pc, #20]	; (8186c <read_package+0x1c>)
   81858:	4b05      	ldr	r3, [pc, #20]	; (81870 <read_package+0x20>)
   8185a:	bf18      	it	ne
   8185c:	4905      	ldrne	r1, [pc, #20]	; (81874 <read_package+0x24>)
   8185e:	4806      	ldr	r0, [pc, #24]	; (81878 <read_package+0x28>)
   81860:	4798      	blx	r3
   81862:	fab0 f080 	clz	r0, r0
   81866:	0940      	lsrs	r0, r0, #5
   81868:	bd08      	pop	{r3, pc}
   8186a:	bf00      	nop
   8186c:	20070138 	.word	0x20070138
   81870:	000814a5 	.word	0x000814a5
   81874:	2007014c 	.word	0x2007014c
   81878:	40090000 	.word	0x40090000

0008187c <testDriveL>:
   8187c:	f44f 7380 	mov.w	r3, #256	; 0x100
   81880:	b5f0      	push	{r4, r5, r6, r7, lr}
   81882:	4f2a      	ldr	r7, [pc, #168]	; (8192c <testDriveL+0xb0>)
   81884:	b085      	sub	sp, #20
   81886:	633b      	str	r3, [r7, #48]	; 0x30
   81888:	4929      	ldr	r1, [pc, #164]	; (81930 <testDriveL+0xb4>)
   8188a:	4b2a      	ldr	r3, [pc, #168]	; (81934 <testDriveL+0xb8>)
   8188c:	4604      	mov	r4, r0
   8188e:	4798      	blx	r3
   81890:	2800      	cmp	r0, #0
   81892:	d042      	beq.n	8191a <testDriveL+0x9e>
   81894:	4828      	ldr	r0, [pc, #160]	; (81938 <testDriveL+0xbc>)
   81896:	4b29      	ldr	r3, [pc, #164]	; (8193c <testDriveL+0xc0>)
   81898:	4798      	blx	r3
   8189a:	4b29      	ldr	r3, [pc, #164]	; (81940 <testDriveL+0xc4>)
   8189c:	4620      	mov	r0, r4
   8189e:	601c      	str	r4, [r3, #0]
   818a0:	4b28      	ldr	r3, [pc, #160]	; (81944 <testDriveL+0xc8>)
   818a2:	4798      	blx	r3
   818a4:	4b28      	ldr	r3, [pc, #160]	; (81948 <testDriveL+0xcc>)
   818a6:	4798      	blx	r3
   818a8:	4b28      	ldr	r3, [pc, #160]	; (8194c <testDriveL+0xd0>)
   818aa:	4798      	blx	r3
   818ac:	4b28      	ldr	r3, [pc, #160]	; (81950 <testDriveL+0xd4>)
   818ae:	4601      	mov	r1, r0
   818b0:	4828      	ldr	r0, [pc, #160]	; (81954 <testDriveL+0xd8>)
   818b2:	4798      	blx	r3
   818b4:	4b28      	ldr	r3, [pc, #160]	; (81958 <testDriveL+0xdc>)
   818b6:	4798      	blx	r3
   818b8:	2600      	movs	r6, #0
   818ba:	4d28      	ldr	r5, [pc, #160]	; (8195c <testDriveL+0xe0>)
   818bc:	f04f 5180 	mov.w	r1, #268435456	; 0x10000000
   818c0:	6028      	str	r0, [r5, #0]
   818c2:	4b27      	ldr	r3, [pc, #156]	; (81960 <testDriveL+0xe4>)
   818c4:	2013      	movs	r0, #19
   818c6:	4798      	blx	r3
   818c8:	4b26      	ldr	r3, [pc, #152]	; (81964 <testDriveL+0xe8>)
   818ca:	2024      	movs	r0, #36	; 0x24
   818cc:	4798      	blx	r3
   818ce:	2101      	movs	r1, #1
   818d0:	4825      	ldr	r0, [pc, #148]	; (81968 <testDriveL+0xec>)
   818d2:	4b26      	ldr	r3, [pc, #152]	; (8196c <testDriveL+0xf0>)
   818d4:	4798      	blx	r3
   818d6:	4b26      	ldr	r3, [pc, #152]	; (81970 <testDriveL+0xf4>)
   818d8:	a901      	add	r1, sp, #4
   818da:	9301      	str	r3, [sp, #4]
   818dc:	4b25      	ldr	r3, [pc, #148]	; (81974 <testDriveL+0xf8>)
   818de:	4822      	ldr	r0, [pc, #136]	; (81968 <testDriveL+0xec>)
   818e0:	9303      	str	r3, [sp, #12]
   818e2:	4b25      	ldr	r3, [pc, #148]	; (81978 <testDriveL+0xfc>)
   818e4:	9602      	str	r6, [sp, #8]
   818e6:	4798      	blx	r3
   818e8:	230b      	movs	r3, #11
   818ea:	2401      	movs	r4, #1
   818ec:	4923      	ldr	r1, [pc, #140]	; (8197c <testDriveL+0x100>)
   818ee:	682a      	ldr	r2, [r5, #0]
   818f0:	604b      	str	r3, [r1, #4]
   818f2:	f502 53a4 	add.w	r3, r2, #5248	; 0x1480
   818f6:	3302      	adds	r3, #2
   818f8:	610b      	str	r3, [r1, #16]
   818fa:	481b      	ldr	r0, [pc, #108]	; (81968 <testDriveL+0xec>)
   818fc:	4b20      	ldr	r3, [pc, #128]	; (81980 <testDriveL+0x104>)
   818fe:	60ca      	str	r2, [r1, #12]
   81900:	600c      	str	r4, [r1, #0]
   81902:	728c      	strb	r4, [r1, #10]
   81904:	810e      	strh	r6, [r1, #8]
   81906:	4798      	blx	r3
   81908:	4621      	mov	r1, r4
   8190a:	4817      	ldr	r0, [pc, #92]	; (81968 <testDriveL+0xec>)
   8190c:	4b1d      	ldr	r3, [pc, #116]	; (81984 <testDriveL+0x108>)
   8190e:	4798      	blx	r3
   81910:	f44f 7380 	mov.w	r3, #256	; 0x100
   81914:	637b      	str	r3, [r7, #52]	; 0x34
   81916:	b005      	add	sp, #20
   81918:	bdf0      	pop	{r4, r5, r6, r7, pc}
   8191a:	491b      	ldr	r1, [pc, #108]	; (81988 <testDriveL+0x10c>)
   8191c:	4620      	mov	r0, r4
   8191e:	4b1b      	ldr	r3, [pc, #108]	; (8198c <testDriveL+0x110>)
   81920:	4798      	blx	r3
   81922:	2800      	cmp	r0, #0
   81924:	d0b9      	beq.n	8189a <testDriveL+0x1e>
   81926:	481a      	ldr	r0, [pc, #104]	; (81990 <testDriveL+0x114>)
   81928:	e7b5      	b.n	81896 <testDriveL+0x1a>
   8192a:	bf00      	nop
   8192c:	400e1400 	.word	0x400e1400
   81930:	c3ed8000 	.word	0xc3ed8000
   81934:	00084ff1 	.word	0x00084ff1
   81938:	000883c8 	.word	0x000883c8
   8193c:	000850dd 	.word	0x000850dd
   81940:	20070c20 	.word	0x20070c20
   81944:	000843cd 	.word	0x000843cd
   81948:	00083b39 	.word	0x00083b39
   8194c:	000849f9 	.word	0x000849f9
   81950:	00084aa1 	.word	0x00084aa1
   81954:	44bb8000 	.word	0x44bb8000
   81958:	00085041 	.word	0x00085041
   8195c:	20070c28 	.word	0x20070c28
   81960:	0008365d 	.word	0x0008365d
   81964:	00083959 	.word	0x00083959
   81968:	40094000 	.word	0x40094000
   8196c:	000813a7 	.word	0x000813a7
   81970:	000f4240 	.word	0x000f4240
   81974:	0501bd00 	.word	0x0501bd00
   81978:	00081265 	.word	0x00081265
   8197c:	2007ae1c 	.word	0x2007ae1c
   81980:	000812a9 	.word	0x000812a9
   81984:	0008139d 	.word	0x0008139d
   81988:	43ed8000 	.word	0x43ed8000
   8198c:	0008502d 	.word	0x0008502d
   81990:	00088401 	.word	0x00088401

00081994 <testDriveR>:
   81994:	b530      	push	{r4, r5, lr}
   81996:	4927      	ldr	r1, [pc, #156]	; (81a34 <testDriveR+0xa0>)
   81998:	b085      	sub	sp, #20
   8199a:	4b27      	ldr	r3, [pc, #156]	; (81a38 <testDriveR+0xa4>)
   8199c:	4604      	mov	r4, r0
   8199e:	4798      	blx	r3
   819a0:	2800      	cmp	r0, #0
   819a2:	d03f      	beq.n	81a24 <testDriveR+0x90>
   819a4:	4825      	ldr	r0, [pc, #148]	; (81a3c <testDriveR+0xa8>)
   819a6:	4b26      	ldr	r3, [pc, #152]	; (81a40 <testDriveR+0xac>)
   819a8:	4798      	blx	r3
   819aa:	4b26      	ldr	r3, [pc, #152]	; (81a44 <testDriveR+0xb0>)
   819ac:	4620      	mov	r0, r4
   819ae:	601c      	str	r4, [r3, #0]
   819b0:	4b25      	ldr	r3, [pc, #148]	; (81a48 <testDriveR+0xb4>)
   819b2:	4798      	blx	r3
   819b4:	4b25      	ldr	r3, [pc, #148]	; (81a4c <testDriveR+0xb8>)
   819b6:	4798      	blx	r3
   819b8:	4b25      	ldr	r3, [pc, #148]	; (81a50 <testDriveR+0xbc>)
   819ba:	4798      	blx	r3
   819bc:	4b25      	ldr	r3, [pc, #148]	; (81a54 <testDriveR+0xc0>)
   819be:	4601      	mov	r1, r0
   819c0:	4825      	ldr	r0, [pc, #148]	; (81a58 <testDriveR+0xc4>)
   819c2:	4798      	blx	r3
   819c4:	4b25      	ldr	r3, [pc, #148]	; (81a5c <testDriveR+0xc8>)
   819c6:	4798      	blx	r3
   819c8:	2400      	movs	r4, #0
   819ca:	4d25      	ldr	r5, [pc, #148]	; (81a60 <testDriveR+0xcc>)
   819cc:	f04f 5180 	mov.w	r1, #268435456	; 0x10000000
   819d0:	6028      	str	r0, [r5, #0]
   819d2:	4b24      	ldr	r3, [pc, #144]	; (81a64 <testDriveR+0xd0>)
   819d4:	2043      	movs	r0, #67	; 0x43
   819d6:	4798      	blx	r3
   819d8:	4b23      	ldr	r3, [pc, #140]	; (81a68 <testDriveR+0xd4>)
   819da:	2024      	movs	r0, #36	; 0x24
   819dc:	4798      	blx	r3
   819de:	2100      	movs	r1, #0
   819e0:	4822      	ldr	r0, [pc, #136]	; (81a6c <testDriveR+0xd8>)
   819e2:	4b23      	ldr	r3, [pc, #140]	; (81a70 <testDriveR+0xdc>)
   819e4:	4798      	blx	r3
   819e6:	4b23      	ldr	r3, [pc, #140]	; (81a74 <testDriveR+0xe0>)
   819e8:	a901      	add	r1, sp, #4
   819ea:	9301      	str	r3, [sp, #4]
   819ec:	4b22      	ldr	r3, [pc, #136]	; (81a78 <testDriveR+0xe4>)
   819ee:	481f      	ldr	r0, [pc, #124]	; (81a6c <testDriveR+0xd8>)
   819f0:	9303      	str	r3, [sp, #12]
   819f2:	4b22      	ldr	r3, [pc, #136]	; (81a7c <testDriveR+0xe8>)
   819f4:	9402      	str	r4, [sp, #8]
   819f6:	4798      	blx	r3
   819f8:	230b      	movs	r3, #11
   819fa:	4921      	ldr	r1, [pc, #132]	; (81a80 <testDriveR+0xec>)
   819fc:	682a      	ldr	r2, [r5, #0]
   819fe:	604b      	str	r3, [r1, #4]
   81a00:	2301      	movs	r3, #1
   81a02:	728b      	strb	r3, [r1, #10]
   81a04:	f502 53a4 	add.w	r3, r2, #5248	; 0x1480
   81a08:	3302      	adds	r3, #2
   81a0a:	610b      	str	r3, [r1, #16]
   81a0c:	4817      	ldr	r0, [pc, #92]	; (81a6c <testDriveR+0xd8>)
   81a0e:	4b1d      	ldr	r3, [pc, #116]	; (81a84 <testDriveR+0xf0>)
   81a10:	60ca      	str	r2, [r1, #12]
   81a12:	600c      	str	r4, [r1, #0]
   81a14:	810c      	strh	r4, [r1, #8]
   81a16:	4798      	blx	r3
   81a18:	4621      	mov	r1, r4
   81a1a:	4814      	ldr	r0, [pc, #80]	; (81a6c <testDriveR+0xd8>)
   81a1c:	4b1a      	ldr	r3, [pc, #104]	; (81a88 <testDriveR+0xf4>)
   81a1e:	4798      	blx	r3
   81a20:	b005      	add	sp, #20
   81a22:	bd30      	pop	{r4, r5, pc}
   81a24:	4919      	ldr	r1, [pc, #100]	; (81a8c <testDriveR+0xf8>)
   81a26:	4620      	mov	r0, r4
   81a28:	4b19      	ldr	r3, [pc, #100]	; (81a90 <testDriveR+0xfc>)
   81a2a:	4798      	blx	r3
   81a2c:	2800      	cmp	r0, #0
   81a2e:	d0bc      	beq.n	819aa <testDriveR+0x16>
   81a30:	4818      	ldr	r0, [pc, #96]	; (81a94 <testDriveR+0x100>)
   81a32:	e7b8      	b.n	819a6 <testDriveR+0x12>
   81a34:	c3ed8000 	.word	0xc3ed8000
   81a38:	00084ff1 	.word	0x00084ff1
   81a3c:	0008843a 	.word	0x0008843a
   81a40:	000850dd 	.word	0x000850dd
   81a44:	20070c24 	.word	0x20070c24
   81a48:	000843cd 	.word	0x000843cd
   81a4c:	00083b39 	.word	0x00083b39
   81a50:	000849f9 	.word	0x000849f9
   81a54:	00084aa1 	.word	0x00084aa1
   81a58:	44bb8000 	.word	0x44bb8000
   81a5c:	00085041 	.word	0x00085041
   81a60:	20070c28 	.word	0x20070c28
   81a64:	0008365d 	.word	0x0008365d
   81a68:	00083959 	.word	0x00083959
   81a6c:	40094000 	.word	0x40094000
   81a70:	000813a7 	.word	0x000813a7
   81a74:	000f4240 	.word	0x000f4240
   81a78:	0501bd00 	.word	0x0501bd00
   81a7c:	00081265 	.word	0x00081265
   81a80:	2007ae1c 	.word	0x2007ae1c
   81a84:	000812a9 	.word	0x000812a9
   81a88:	0008139d 	.word	0x0008139d
   81a8c:	43ed8000 	.word	0x43ed8000
   81a90:	0008502d 	.word	0x0008502d
   81a94:	00088474 	.word	0x00088474

00081a98 <drive>:
   81a98:	b510      	push	{r4, lr}
   81a9a:	460c      	mov	r4, r1
   81a9c:	4b03      	ldr	r3, [pc, #12]	; (81aac <drive+0x14>)
   81a9e:	4798      	blx	r3
   81aa0:	4620      	mov	r0, r4
   81aa2:	e8bd 4010 	ldmia.w	sp!, {r4, lr}
   81aa6:	4b02      	ldr	r3, [pc, #8]	; (81ab0 <drive+0x18>)
   81aa8:	4718      	bx	r3
   81aaa:	bf00      	nop
   81aac:	0008187d 	.word	0x0008187d
   81ab0:	00081995 	.word	0x00081995

00081ab4 <getSetLeftSpeed>:
   81ab4:	4b01      	ldr	r3, [pc, #4]	; (81abc <getSetLeftSpeed+0x8>)
   81ab6:	6818      	ldr	r0, [r3, #0]
   81ab8:	4770      	bx	lr
   81aba:	bf00      	nop
   81abc:	20070c20 	.word	0x20070c20

00081ac0 <getSetRightSpeed>:
   81ac0:	4b01      	ldr	r3, [pc, #4]	; (81ac8 <getSetRightSpeed+0x8>)
   81ac2:	6818      	ldr	r0, [r3, #0]
   81ac4:	4770      	bx	lr
   81ac6:	bf00      	nop
   81ac8:	20070c24 	.word	0x20070c24

00081acc <getSetLeftDirection>:
   81acc:	b510      	push	{r4, lr}
   81ace:	4b09      	ldr	r3, [pc, #36]	; (81af4 <getSetLeftDirection+0x28>)
   81ad0:	2100      	movs	r1, #0
   81ad2:	681c      	ldr	r4, [r3, #0]
   81ad4:	4b08      	ldr	r3, [pc, #32]	; (81af8 <getSetLeftDirection+0x2c>)
   81ad6:	4620      	mov	r0, r4
   81ad8:	4798      	blx	r3
   81ada:	b940      	cbnz	r0, 81aee <getSetLeftDirection+0x22>
   81adc:	2100      	movs	r1, #0
   81ade:	4620      	mov	r0, r4
   81ae0:	4b06      	ldr	r3, [pc, #24]	; (81afc <getSetLeftDirection+0x30>)
   81ae2:	4798      	blx	r3
   81ae4:	3000      	adds	r0, #0
   81ae6:	bf18      	it	ne
   81ae8:	2001      	movne	r0, #1
   81aea:	4240      	negs	r0, r0
   81aec:	bd10      	pop	{r4, pc}
   81aee:	2001      	movs	r0, #1
   81af0:	bd10      	pop	{r4, pc}
   81af2:	bf00      	nop
   81af4:	20070c20 	.word	0x20070c20
   81af8:	0008502d 	.word	0x0008502d
   81afc:	00084ff1 	.word	0x00084ff1

00081b00 <getSetRightDirection>:
   81b00:	b510      	push	{r4, lr}
   81b02:	4b09      	ldr	r3, [pc, #36]	; (81b28 <getSetRightDirection+0x28>)
   81b04:	2100      	movs	r1, #0
   81b06:	681c      	ldr	r4, [r3, #0]
   81b08:	4b08      	ldr	r3, [pc, #32]	; (81b2c <getSetRightDirection+0x2c>)
   81b0a:	4620      	mov	r0, r4
   81b0c:	4798      	blx	r3
   81b0e:	b940      	cbnz	r0, 81b22 <getSetRightDirection+0x22>
   81b10:	2100      	movs	r1, #0
   81b12:	4620      	mov	r0, r4
   81b14:	4b06      	ldr	r3, [pc, #24]	; (81b30 <getSetRightDirection+0x30>)
   81b16:	4798      	blx	r3
   81b18:	3000      	adds	r0, #0
   81b1a:	bf18      	it	ne
   81b1c:	2001      	movne	r0, #1
   81b1e:	4240      	negs	r0, r0
   81b20:	bd10      	pop	{r4, pc}
   81b22:	2001      	movs	r0, #1
   81b24:	bd10      	pop	{r4, pc}
   81b26:	bf00      	nop
   81b28:	20070c24 	.word	0x20070c24
   81b2c:	0008502d 	.word	0x0008502d
   81b30:	00084ff1 	.word	0x00084ff1

00081b34 <_read>:
   81b34:	e92d 41f0 	stmdb	sp!, {r4, r5, r6, r7, r8, lr}
   81b38:	460e      	mov	r6, r1
   81b3a:	4614      	mov	r4, r2
   81b3c:	b988      	cbnz	r0, 81b62 <_read+0x2e>
   81b3e:	4615      	mov	r5, r2
   81b40:	4f0a      	ldr	r7, [pc, #40]	; (81b6c <_read+0x38>)
   81b42:	f8df 802c 	ldr.w	r8, [pc, #44]	; 81b70 <_read+0x3c>
   81b46:	1b61      	subs	r1, r4, r5
   81b48:	2d00      	cmp	r5, #0
   81b4a:	4431      	add	r1, r6
   81b4c:	dc03      	bgt.n	81b56 <_read+0x22>
   81b4e:	ea24 70e4 	bic.w	r0, r4, r4, asr #31
   81b52:	e8bd 81f0 	ldmia.w	sp!, {r4, r5, r6, r7, r8, pc}
   81b56:	6838      	ldr	r0, [r7, #0]
   81b58:	f8d8 3000 	ldr.w	r3, [r8]
   81b5c:	4798      	blx	r3
   81b5e:	3d01      	subs	r5, #1
   81b60:	e7f1      	b.n	81b46 <_read+0x12>
   81b62:	f04f 30ff 	mov.w	r0, #4294967295
   81b66:	e8bd 81f0 	ldmia.w	sp!, {r4, r5, r6, r7, r8, pc}
   81b6a:	bf00      	nop
   81b6c:	2007ae4c 	.word	0x2007ae4c
   81b70:	2007ae44 	.word	0x2007ae44

00081b74 <_write>:
   81b74:	3801      	subs	r0, #1
   81b76:	2802      	cmp	r0, #2
   81b78:	e92d 41f0 	stmdb	sp!, {r4, r5, r6, r7, r8, lr}
   81b7c:	460e      	mov	r6, r1
   81b7e:	d812      	bhi.n	81ba6 <_write+0x32>
   81b80:	460c      	mov	r4, r1
   81b82:	4f0b      	ldr	r7, [pc, #44]	; (81bb0 <_write+0x3c>)
   81b84:	f8df 802c 	ldr.w	r8, [pc, #44]	; 81bb4 <_write+0x40>
   81b88:	188d      	adds	r5, r1, r2
   81b8a:	42ac      	cmp	r4, r5
   81b8c:	eba4 0006 	sub.w	r0, r4, r6
   81b90:	d101      	bne.n	81b96 <_write+0x22>
   81b92:	e8bd 81f0 	ldmia.w	sp!, {r4, r5, r6, r7, r8, pc}
   81b96:	6838      	ldr	r0, [r7, #0]
   81b98:	f814 1b01 	ldrb.w	r1, [r4], #1
   81b9c:	f8d8 3000 	ldr.w	r3, [r8]
   81ba0:	4798      	blx	r3
   81ba2:	2800      	cmp	r0, #0
   81ba4:	daf1      	bge.n	81b8a <_write+0x16>
   81ba6:	f04f 30ff 	mov.w	r0, #4294967295
   81baa:	e8bd 81f0 	ldmia.w	sp!, {r4, r5, r6, r7, r8, pc}
   81bae:	bf00      	nop
   81bb0:	2007ae4c 	.word	0x2007ae4c
   81bb4:	2007ae48 	.word	0x2007ae48

00081bb8 <uart_init>:
   81bb8:	23ac      	movs	r3, #172	; 0xac
   81bba:	b510      	push	{r4, lr}
   81bbc:	6003      	str	r3, [r0, #0]
   81bbe:	684a      	ldr	r2, [r1, #4]
   81bc0:	680b      	ldr	r3, [r1, #0]
   81bc2:	fbb3 f3f2 	udiv	r3, r3, r2
   81bc6:	f64f 72fe 	movw	r2, #65534	; 0xfffe
   81bca:	091b      	lsrs	r3, r3, #4
   81bcc:	1e5c      	subs	r4, r3, #1
   81bce:	4294      	cmp	r4, r2
   81bd0:	d80a      	bhi.n	81be8 <uart_init+0x30>
   81bd2:	6203      	str	r3, [r0, #32]
   81bd4:	688b      	ldr	r3, [r1, #8]
   81bd6:	6043      	str	r3, [r0, #4]
   81bd8:	f240 2302 	movw	r3, #514	; 0x202
   81bdc:	f8c0 3120 	str.w	r3, [r0, #288]	; 0x120
   81be0:	2350      	movs	r3, #80	; 0x50
   81be2:	6003      	str	r3, [r0, #0]
   81be4:	2000      	movs	r0, #0
   81be6:	bd10      	pop	{r4, pc}
   81be8:	2001      	movs	r0, #1
   81bea:	bd10      	pop	{r4, pc}

00081bec <uart_write>:
   81bec:	6943      	ldr	r3, [r0, #20]
   81bee:	079b      	lsls	r3, r3, #30
   81bf0:	bf46      	itte	mi
   81bf2:	61c1      	strmi	r1, [r0, #28]
   81bf4:	2000      	movmi	r0, #0
   81bf6:	2001      	movpl	r0, #1
   81bf8:	4770      	bx	lr

00081bfa <uart_read>:
   81bfa:	6943      	ldr	r3, [r0, #20]
   81bfc:	07db      	lsls	r3, r3, #31
   81bfe:	bf43      	ittte	mi
   81c00:	6983      	ldrmi	r3, [r0, #24]
   81c02:	2000      	movmi	r0, #0
   81c04:	700b      	strbmi	r3, [r1, #0]
   81c06:	2001      	movpl	r0, #1
   81c08:	4770      	bx	lr

00081c0a <usart_write>:
   81c0a:	6943      	ldr	r3, [r0, #20]
   81c0c:	079b      	lsls	r3, r3, #30
   81c0e:	bf43      	ittte	mi
   81c10:	f3c1 0108 	ubfxmi	r1, r1, #0, #9
   81c14:	61c1      	strmi	r1, [r0, #28]
   81c16:	2000      	movmi	r0, #0
   81c18:	2001      	movpl	r0, #1
   81c1a:	4770      	bx	lr

00081c1c <usart_read>:
   81c1c:	6943      	ldr	r3, [r0, #20]
   81c1e:	07db      	lsls	r3, r3, #31
   81c20:	bf41      	itttt	mi
   81c22:	6983      	ldrmi	r3, [r0, #24]
   81c24:	2000      	movmi	r0, #0
   81c26:	f3c3 0308 	ubfxmi	r3, r3, #0, #9
   81c2a:	600b      	strmi	r3, [r1, #0]
   81c2c:	bf58      	it	pl
   81c2e:	2001      	movpl	r0, #1
   81c30:	4770      	bx	lr
	...

00081c34 <usart_serial_getchar>:
   81c34:	2300      	movs	r3, #0
   81c36:	b573      	push	{r0, r1, r4, r5, r6, lr}
   81c38:	9301      	str	r3, [sp, #4]
   81c3a:	4b1b      	ldr	r3, [pc, #108]	; (81ca8 <usart_serial_getchar+0x74>)
   81c3c:	4604      	mov	r4, r0
   81c3e:	4298      	cmp	r0, r3
   81c40:	460d      	mov	r5, r1
   81c42:	d107      	bne.n	81c54 <usart_serial_getchar+0x20>
   81c44:	4e19      	ldr	r6, [pc, #100]	; (81cac <usart_serial_getchar+0x78>)
   81c46:	4629      	mov	r1, r5
   81c48:	4620      	mov	r0, r4
   81c4a:	47b0      	blx	r6
   81c4c:	2800      	cmp	r0, #0
   81c4e:	d1fa      	bne.n	81c46 <usart_serial_getchar+0x12>
   81c50:	b002      	add	sp, #8
   81c52:	bd70      	pop	{r4, r5, r6, pc}
   81c54:	4b16      	ldr	r3, [pc, #88]	; (81cb0 <usart_serial_getchar+0x7c>)
   81c56:	4298      	cmp	r0, r3
   81c58:	d108      	bne.n	81c6c <usart_serial_getchar+0x38>
   81c5a:	4e16      	ldr	r6, [pc, #88]	; (81cb4 <usart_serial_getchar+0x80>)
   81c5c:	a901      	add	r1, sp, #4
   81c5e:	4620      	mov	r0, r4
   81c60:	47b0      	blx	r6
   81c62:	2800      	cmp	r0, #0
   81c64:	d1fa      	bne.n	81c5c <usart_serial_getchar+0x28>
   81c66:	9b01      	ldr	r3, [sp, #4]
   81c68:	702b      	strb	r3, [r5, #0]
   81c6a:	e7f1      	b.n	81c50 <usart_serial_getchar+0x1c>
   81c6c:	4b12      	ldr	r3, [pc, #72]	; (81cb8 <usart_serial_getchar+0x84>)
   81c6e:	4298      	cmp	r0, r3
   81c70:	d106      	bne.n	81c80 <usart_serial_getchar+0x4c>
   81c72:	4e10      	ldr	r6, [pc, #64]	; (81cb4 <usart_serial_getchar+0x80>)
   81c74:	a901      	add	r1, sp, #4
   81c76:	4620      	mov	r0, r4
   81c78:	47b0      	blx	r6
   81c7a:	2800      	cmp	r0, #0
   81c7c:	d1fa      	bne.n	81c74 <usart_serial_getchar+0x40>
   81c7e:	e7f2      	b.n	81c66 <usart_serial_getchar+0x32>
   81c80:	4b0e      	ldr	r3, [pc, #56]	; (81cbc <usart_serial_getchar+0x88>)
   81c82:	4298      	cmp	r0, r3
   81c84:	d106      	bne.n	81c94 <usart_serial_getchar+0x60>
   81c86:	4e0b      	ldr	r6, [pc, #44]	; (81cb4 <usart_serial_getchar+0x80>)
   81c88:	a901      	add	r1, sp, #4
   81c8a:	4620      	mov	r0, r4
   81c8c:	47b0      	blx	r6
   81c8e:	2800      	cmp	r0, #0
   81c90:	d1fa      	bne.n	81c88 <usart_serial_getchar+0x54>
   81c92:	e7e8      	b.n	81c66 <usart_serial_getchar+0x32>
   81c94:	4b0a      	ldr	r3, [pc, #40]	; (81cc0 <usart_serial_getchar+0x8c>)
   81c96:	4298      	cmp	r0, r3
   81c98:	d1da      	bne.n	81c50 <usart_serial_getchar+0x1c>
   81c9a:	4e06      	ldr	r6, [pc, #24]	; (81cb4 <usart_serial_getchar+0x80>)
   81c9c:	a901      	add	r1, sp, #4
   81c9e:	4620      	mov	r0, r4
   81ca0:	47b0      	blx	r6
   81ca2:	2800      	cmp	r0, #0
   81ca4:	d1fa      	bne.n	81c9c <usart_serial_getchar+0x68>
   81ca6:	e7de      	b.n	81c66 <usart_serial_getchar+0x32>
   81ca8:	400e0800 	.word	0x400e0800
   81cac:	00081bfb 	.word	0x00081bfb
   81cb0:	40098000 	.word	0x40098000
   81cb4:	00081c1d 	.word	0x00081c1d
   81cb8:	4009c000 	.word	0x4009c000
   81cbc:	400a0000 	.word	0x400a0000
   81cc0:	400a4000 	.word	0x400a4000

00081cc4 <usart_serial_putchar>:
   81cc4:	4b1b      	ldr	r3, [pc, #108]	; (81d34 <usart_serial_putchar+0x70>)
   81cc6:	b570      	push	{r4, r5, r6, lr}
   81cc8:	4298      	cmp	r0, r3
   81cca:	4604      	mov	r4, r0
   81ccc:	460d      	mov	r5, r1
   81cce:	d107      	bne.n	81ce0 <usart_serial_putchar+0x1c>
   81cd0:	4e19      	ldr	r6, [pc, #100]	; (81d38 <usart_serial_putchar+0x74>)
   81cd2:	4629      	mov	r1, r5
   81cd4:	4620      	mov	r0, r4
   81cd6:	47b0      	blx	r6
   81cd8:	2800      	cmp	r0, #0
   81cda:	d1fa      	bne.n	81cd2 <usart_serial_putchar+0xe>
   81cdc:	2001      	movs	r0, #1
   81cde:	bd70      	pop	{r4, r5, r6, pc}
   81ce0:	4b16      	ldr	r3, [pc, #88]	; (81d3c <usart_serial_putchar+0x78>)
   81ce2:	4298      	cmp	r0, r3
   81ce4:	d106      	bne.n	81cf4 <usart_serial_putchar+0x30>
   81ce6:	4e16      	ldr	r6, [pc, #88]	; (81d40 <usart_serial_putchar+0x7c>)
   81ce8:	4629      	mov	r1, r5
   81cea:	4620      	mov	r0, r4
   81cec:	47b0      	blx	r6
   81cee:	2800      	cmp	r0, #0
   81cf0:	d1fa      	bne.n	81ce8 <usart_serial_putchar+0x24>
   81cf2:	e7f3      	b.n	81cdc <usart_serial_putchar+0x18>
   81cf4:	4b13      	ldr	r3, [pc, #76]	; (81d44 <usart_serial_putchar+0x80>)
   81cf6:	4298      	cmp	r0, r3
   81cf8:	d106      	bne.n	81d08 <usart_serial_putchar+0x44>
   81cfa:	4e11      	ldr	r6, [pc, #68]	; (81d40 <usart_serial_putchar+0x7c>)
   81cfc:	4629      	mov	r1, r5
   81cfe:	4620      	mov	r0, r4
   81d00:	47b0      	blx	r6
   81d02:	2800      	cmp	r0, #0
   81d04:	d1fa      	bne.n	81cfc <usart_serial_putchar+0x38>
   81d06:	e7e9      	b.n	81cdc <usart_serial_putchar+0x18>
   81d08:	4b0f      	ldr	r3, [pc, #60]	; (81d48 <usart_serial_putchar+0x84>)
   81d0a:	4298      	cmp	r0, r3
   81d0c:	d106      	bne.n	81d1c <usart_serial_putchar+0x58>
   81d0e:	4e0c      	ldr	r6, [pc, #48]	; (81d40 <usart_serial_putchar+0x7c>)
   81d10:	4629      	mov	r1, r5
   81d12:	4620      	mov	r0, r4
   81d14:	47b0      	blx	r6
   81d16:	2800      	cmp	r0, #0
   81d18:	d1fa      	bne.n	81d10 <usart_serial_putchar+0x4c>
   81d1a:	e7df      	b.n	81cdc <usart_serial_putchar+0x18>
   81d1c:	4b0b      	ldr	r3, [pc, #44]	; (81d4c <usart_serial_putchar+0x88>)
   81d1e:	4298      	cmp	r0, r3
   81d20:	d106      	bne.n	81d30 <usart_serial_putchar+0x6c>
   81d22:	4e07      	ldr	r6, [pc, #28]	; (81d40 <usart_serial_putchar+0x7c>)
   81d24:	4629      	mov	r1, r5
   81d26:	4620      	mov	r0, r4
   81d28:	47b0      	blx	r6
   81d2a:	2800      	cmp	r0, #0
   81d2c:	d1fa      	bne.n	81d24 <usart_serial_putchar+0x60>
   81d2e:	e7d5      	b.n	81cdc <usart_serial_putchar+0x18>
   81d30:	2000      	movs	r0, #0
   81d32:	bd70      	pop	{r4, r5, r6, pc}
   81d34:	400e0800 	.word	0x400e0800
   81d38:	00081bed 	.word	0x00081bed
   81d3c:	40098000 	.word	0x40098000
   81d40:	00081c0b 	.word	0x00081c0b
   81d44:	4009c000 	.word	0x4009c000
   81d48:	400a0000 	.word	0x400a0000
   81d4c:	400a4000 	.word	0x400a4000

00081d50 <rtos_init>:
   81d50:	b57f      	push	{r0, r1, r2, r3, r4, r5, r6, lr}
   81d52:	2400      	movs	r4, #0
   81d54:	2601      	movs	r6, #1
   81d56:	4d12      	ldr	r5, [pc, #72]	; (81da0 <rtos_init+0x50>)
   81d58:	4623      	mov	r3, r4
   81d5a:	9403      	str	r4, [sp, #12]
   81d5c:	9402      	str	r4, [sp, #8]
   81d5e:	9401      	str	r4, [sp, #4]
   81d60:	9600      	str	r6, [sp, #0]
   81d62:	f44f 7200 	mov.w	r2, #512	; 0x200
   81d66:	490f      	ldr	r1, [pc, #60]	; (81da4 <rtos_init+0x54>)
   81d68:	480f      	ldr	r0, [pc, #60]	; (81da8 <rtos_init+0x58>)
   81d6a:	47a8      	blx	r5
   81d6c:	4623      	mov	r3, r4
   81d6e:	9403      	str	r4, [sp, #12]
   81d70:	9402      	str	r4, [sp, #8]
   81d72:	9401      	str	r4, [sp, #4]
   81d74:	9600      	str	r6, [sp, #0]
   81d76:	f44f 7200 	mov.w	r2, #512	; 0x200
   81d7a:	490c      	ldr	r1, [pc, #48]	; (81dac <rtos_init+0x5c>)
   81d7c:	480c      	ldr	r0, [pc, #48]	; (81db0 <rtos_init+0x60>)
   81d7e:	47a8      	blx	r5
   81d80:	4623      	mov	r3, r4
   81d82:	f44f 7200 	mov.w	r2, #512	; 0x200
   81d86:	490b      	ldr	r1, [pc, #44]	; (81db4 <rtos_init+0x64>)
   81d88:	9403      	str	r4, [sp, #12]
   81d8a:	9402      	str	r4, [sp, #8]
   81d8c:	9401      	str	r4, [sp, #4]
   81d8e:	9600      	str	r6, [sp, #0]
   81d90:	4809      	ldr	r0, [pc, #36]	; (81db8 <rtos_init+0x68>)
   81d92:	47a8      	blx	r5
   81d94:	4b09      	ldr	r3, [pc, #36]	; (81dbc <rtos_init+0x6c>)
   81d96:	4798      	blx	r3
   81d98:	4620      	mov	r0, r4
   81d9a:	b004      	add	sp, #16
   81d9c:	bd70      	pop	{r4, r5, r6, pc}
   81d9e:	bf00      	nop
   81da0:	00082895 	.word	0x00082895
   81da4:	000884cc 	.word	0x000884cc
   81da8:	00080979 	.word	0x00080979
   81dac:	000884d6 	.word	0x000884d6
   81db0:	00080869 	.word	0x00080869
   81db4:	000884df 	.word	0x000884df
   81db8:	00080455 	.word	0x00080455
   81dbc:	00082a85 	.word	0x00082a85

00081dc0 <console_init>:
   81dc0:	b530      	push	{r4, r5, lr}
   81dc2:	2008      	movs	r0, #8
   81dc4:	b085      	sub	sp, #20
   81dc6:	4d15      	ldr	r5, [pc, #84]	; (81e1c <console_init+0x5c>)
   81dc8:	47a8      	blx	r5
   81dca:	4c15      	ldr	r4, [pc, #84]	; (81e20 <console_init+0x60>)
   81dcc:	4b15      	ldr	r3, [pc, #84]	; (81e24 <console_init+0x64>)
   81dce:	4a16      	ldr	r2, [pc, #88]	; (81e28 <console_init+0x68>)
   81dd0:	601c      	str	r4, [r3, #0]
   81dd2:	4b16      	ldr	r3, [pc, #88]	; (81e2c <console_init+0x6c>)
   81dd4:	2008      	movs	r0, #8
   81dd6:	601a      	str	r2, [r3, #0]
   81dd8:	4a15      	ldr	r2, [pc, #84]	; (81e30 <console_init+0x70>)
   81dda:	4b16      	ldr	r3, [pc, #88]	; (81e34 <console_init+0x74>)
   81ddc:	601a      	str	r2, [r3, #0]
   81dde:	4b16      	ldr	r3, [pc, #88]	; (81e38 <console_init+0x78>)
   81de0:	9301      	str	r3, [sp, #4]
   81de2:	f44f 33e1 	mov.w	r3, #115200	; 0x1c200
   81de6:	9302      	str	r3, [sp, #8]
   81de8:	f44f 6300 	mov.w	r3, #2048	; 0x800
   81dec:	9303      	str	r3, [sp, #12]
   81dee:	47a8      	blx	r5
   81df0:	4d12      	ldr	r5, [pc, #72]	; (81e3c <console_init+0x7c>)
   81df2:	a901      	add	r1, sp, #4
   81df4:	4620      	mov	r0, r4
   81df6:	4b12      	ldr	r3, [pc, #72]	; (81e40 <console_init+0x80>)
   81df8:	4798      	blx	r3
   81dfa:	682b      	ldr	r3, [r5, #0]
   81dfc:	4c11      	ldr	r4, [pc, #68]	; (81e44 <console_init+0x84>)
   81dfe:	6898      	ldr	r0, [r3, #8]
   81e00:	2100      	movs	r1, #0
   81e02:	47a0      	blx	r4
   81e04:	682b      	ldr	r3, [r5, #0]
   81e06:	2100      	movs	r1, #0
   81e08:	6858      	ldr	r0, [r3, #4]
   81e0a:	47a0      	blx	r4
   81e0c:	4c0e      	ldr	r4, [pc, #56]	; (81e48 <console_init+0x88>)
   81e0e:	480f      	ldr	r0, [pc, #60]	; (81e4c <console_init+0x8c>)
   81e10:	47a0      	blx	r4
   81e12:	480f      	ldr	r0, [pc, #60]	; (81e50 <console_init+0x90>)
   81e14:	47a0      	blx	r4
   81e16:	2000      	movs	r0, #0
   81e18:	b005      	add	sp, #20
   81e1a:	bd30      	pop	{r4, r5, pc}
   81e1c:	00083959 	.word	0x00083959
   81e20:	400e0800 	.word	0x400e0800
   81e24:	2007ae4c 	.word	0x2007ae4c
   81e28:	00081cc5 	.word	0x00081cc5
   81e2c:	2007ae48 	.word	0x2007ae48
   81e30:	00081c35 	.word	0x00081c35
   81e34:	2007ae44 	.word	0x2007ae44
   81e38:	0501bd00 	.word	0x0501bd00
   81e3c:	20070170 	.word	0x20070170
   81e40:	00081bb9 	.word	0x00081bb9
   81e44:	0008528d 	.word	0x0008528d
   81e48:	000850dd 	.word	0x000850dd
   81e4c:	000884ae 	.word	0x000884ae
   81e50:	000884bd 	.word	0x000884bd

00081e54 <interrupt_init>:
   81e54:	b5f7      	push	{r0, r1, r2, r4, r5, r6, r7, lr}
   81e56:	4c27      	ldr	r4, [pc, #156]	; (81ef4 <interrupt_init+0xa0>)
   81e58:	4b27      	ldr	r3, [pc, #156]	; (81ef8 <interrupt_init+0xa4>)
   81e5a:	200d      	movs	r0, #13
   81e5c:	4798      	blx	r3
   81e5e:	4f27      	ldr	r7, [pc, #156]	; (81efc <interrupt_init+0xa8>)
   81e60:	4620      	mov	r0, r4
   81e62:	2200      	movs	r2, #0
   81e64:	f44f 0100 	mov.w	r1, #8388608	; 0x800000
   81e68:	47b8      	blx	r7
   81e6a:	4b25      	ldr	r3, [pc, #148]	; (81f00 <interrupt_init+0xac>)
   81e6c:	4e25      	ldr	r6, [pc, #148]	; (81f04 <interrupt_init+0xb0>)
   81e6e:	9300      	str	r3, [sp, #0]
   81e70:	f44f 0200 	mov.w	r2, #8388608	; 0x800000
   81e74:	2320      	movs	r3, #32
   81e76:	210d      	movs	r1, #13
   81e78:	4620      	mov	r0, r4
   81e7a:	47b0      	blx	r6
   81e7c:	4d22      	ldr	r5, [pc, #136]	; (81f08 <interrupt_init+0xb4>)
   81e7e:	4620      	mov	r0, r4
   81e80:	f44f 0100 	mov.w	r1, #8388608	; 0x800000
   81e84:	47a8      	blx	r5
   81e86:	4620      	mov	r0, r4
   81e88:	2200      	movs	r2, #0
   81e8a:	f04f 7100 	mov.w	r1, #33554432	; 0x2000000
   81e8e:	47b8      	blx	r7
   81e90:	4b1e      	ldr	r3, [pc, #120]	; (81f0c <interrupt_init+0xb8>)
   81e92:	f04f 7200 	mov.w	r2, #33554432	; 0x2000000
   81e96:	9300      	str	r3, [sp, #0]
   81e98:	210d      	movs	r1, #13
   81e9a:	2320      	movs	r3, #32
   81e9c:	4620      	mov	r0, r4
   81e9e:	47b0      	blx	r6
   81ea0:	4620      	mov	r0, r4
   81ea2:	f04f 7100 	mov.w	r1, #33554432	; 0x2000000
   81ea6:	47a8      	blx	r5
   81ea8:	4620      	mov	r0, r4
   81eaa:	2200      	movs	r2, #0
   81eac:	2102      	movs	r1, #2
   81eae:	47b8      	blx	r7
   81eb0:	4b17      	ldr	r3, [pc, #92]	; (81f10 <interrupt_init+0xbc>)
   81eb2:	2202      	movs	r2, #2
   81eb4:	9300      	str	r3, [sp, #0]
   81eb6:	210d      	movs	r1, #13
   81eb8:	2320      	movs	r3, #32
   81eba:	4620      	mov	r0, r4
   81ebc:	47b0      	blx	r6
   81ebe:	4620      	mov	r0, r4
   81ec0:	2102      	movs	r1, #2
   81ec2:	47a8      	blx	r5
   81ec4:	4620      	mov	r0, r4
   81ec6:	2200      	movs	r2, #0
   81ec8:	f04f 5100 	mov.w	r1, #536870912	; 0x20000000
   81ecc:	47b8      	blx	r7
   81ece:	4b11      	ldr	r3, [pc, #68]	; (81f14 <interrupt_init+0xc0>)
   81ed0:	f04f 5200 	mov.w	r2, #536870912	; 0x20000000
   81ed4:	9300      	str	r3, [sp, #0]
   81ed6:	210d      	movs	r1, #13
   81ed8:	2320      	movs	r3, #32
   81eda:	4620      	mov	r0, r4
   81edc:	47b0      	blx	r6
   81ede:	4620      	mov	r0, r4
   81ee0:	f04f 5100 	mov.w	r1, #536870912	; 0x20000000
   81ee4:	47a8      	blx	r5
   81ee6:	f44f 5200 	mov.w	r2, #8192	; 0x2000
   81eea:	2000      	movs	r0, #0
   81eec:	4b0a      	ldr	r3, [pc, #40]	; (81f18 <interrupt_init+0xc4>)
   81eee:	601a      	str	r2, [r3, #0]
   81ef0:	b003      	add	sp, #12
   81ef2:	bdf0      	pop	{r4, r5, r6, r7, pc}
   81ef4:	400e1200 	.word	0x400e1200
   81ef8:	00083959 	.word	0x00083959
   81efc:	000835cf 	.word	0x000835cf
   81f00:	000815a9 	.word	0x000815a9
   81f04:	000837f1 	.word	0x000837f1
   81f08:	0008361f 	.word	0x0008361f
   81f0c:	00081681 	.word	0x00081681
   81f10:	00081615 	.word	0x00081615
   81f14:	000816ed 	.word	0x000816ed
   81f18:	e000e100 	.word	0xe000e100

00081f1c <misc_init>:
   81f1c:	b510      	push	{r4, lr}
   81f1e:	4b2e      	ldr	r3, [pc, #184]	; (81fd8 <misc_init+0xbc>)
   81f20:	4798      	blx	r3
   81f22:	4b2e      	ldr	r3, [pc, #184]	; (81fdc <misc_init+0xc0>)
   81f24:	4798      	blx	r3
   81f26:	4c2e      	ldr	r4, [pc, #184]	; (81fe0 <misc_init+0xc4>)
   81f28:	200b      	movs	r0, #11
   81f2a:	47a0      	blx	r4
   81f2c:	200c      	movs	r0, #12
   81f2e:	47a0      	blx	r4
   81f30:	200d      	movs	r0, #13
   81f32:	47a0      	blx	r4
   81f34:	200e      	movs	r0, #14
   81f36:	47a0      	blx	r4
   81f38:	4b2a      	ldr	r3, [pc, #168]	; (81fe4 <misc_init+0xc8>)
   81f3a:	4798      	blx	r3
   81f3c:	4b2a      	ldr	r3, [pc, #168]	; (81fe8 <misc_init+0xcc>)
   81f3e:	4798      	blx	r3
   81f40:	4b2a      	ldr	r3, [pc, #168]	; (81fec <misc_init+0xd0>)
   81f42:	4798      	blx	r3
   81f44:	4b2a      	ldr	r3, [pc, #168]	; (81ff0 <misc_init+0xd4>)
   81f46:	4798      	blx	r3
   81f48:	f44f 7280 	mov.w	r2, #256	; 0x100
   81f4c:	4b29      	ldr	r3, [pc, #164]	; (81ff4 <misc_init+0xd8>)
   81f4e:	f04f 5180 	mov.w	r1, #268435456	; 0x10000000
   81f52:	611a      	str	r2, [r3, #16]
   81f54:	f8c3 20a0 	str.w	r2, [r3, #160]	; 0xa0
   81f58:	f04f 6200 	mov.w	r2, #134217728	; 0x8000000
   81f5c:	f5a3 6380 	sub.w	r3, r3, #1024	; 0x400
   81f60:	611a      	str	r2, [r3, #16]
   81f62:	f8c3 20a0 	str.w	r2, [r3, #160]	; 0xa0
   81f66:	f04f 7200 	mov.w	r2, #33554432	; 0x2000000
   81f6a:	f8c3 2214 	str.w	r2, [r3, #532]	; 0x214
   81f6e:	f8c3 22a0 	str.w	r2, [r3, #672]	; 0x2a0
   81f72:	f44f 0200 	mov.w	r2, #8388608	; 0x800000
   81f76:	f8c3 2214 	str.w	r2, [r3, #532]	; 0x214
   81f7a:	f8c3 22a0 	str.w	r2, [r3, #672]	; 0x2a0
   81f7e:	4a1e      	ldr	r2, [pc, #120]	; (81ff8 <misc_init+0xdc>)
   81f80:	2063      	movs	r0, #99	; 0x63
   81f82:	6151      	str	r1, [r2, #20]
   81f84:	f8c2 10a0 	str.w	r1, [r2, #160]	; 0xa0
   81f88:	2104      	movs	r1, #4
   81f8a:	6151      	str	r1, [r2, #20]
   81f8c:	f8c2 10a0 	str.w	r1, [r2, #160]	; 0xa0
   81f90:	f44f 0280 	mov.w	r2, #4194304	; 0x400000
   81f94:	f8c3 2210 	str.w	r2, [r3, #528]	; 0x210
   81f98:	f8c3 22a0 	str.w	r2, [r3, #672]	; 0x2a0
   81f9c:	f44f 1200 	mov.w	r2, #2097152	; 0x200000
   81fa0:	f8c3 2214 	str.w	r2, [r3, #532]	; 0x214
   81fa4:	f8c3 22a0 	str.w	r2, [r3, #672]	; 0x2a0
   81fa8:	2301      	movs	r3, #1
   81faa:	4a14      	ldr	r2, [pc, #80]	; (81ffc <misc_init+0xe0>)
   81fac:	6113      	str	r3, [r2, #16]
   81fae:	f8c2 30a0 	str.w	r3, [r2, #160]	; 0xa0
   81fb2:	f5a2 2280 	sub.w	r2, r2, #262144	; 0x40000
   81fb6:	6113      	str	r3, [r2, #16]
   81fb8:	f8c2 30a0 	str.w	r3, [r2, #160]	; 0xa0
   81fbc:	f5a2 3200 	sub.w	r2, r2, #131072	; 0x20000
   81fc0:	6113      	str	r3, [r2, #16]
   81fc2:	f8c2 30a0 	str.w	r3, [r2, #160]	; 0xa0
   81fc6:	f5a2 3280 	sub.w	r2, r2, #65536	; 0x10000
   81fca:	6113      	str	r3, [r2, #16]
   81fcc:	f8c2 30a0 	str.w	r3, [r2, #160]	; 0xa0
   81fd0:	4b0b      	ldr	r3, [pc, #44]	; (82000 <misc_init+0xe4>)
   81fd2:	4798      	blx	r3
   81fd4:	2000      	movs	r0, #0
   81fd6:	bd10      	pop	{r4, pc}
   81fd8:	000834a5 	.word	0x000834a5
   81fdc:	0008350d 	.word	0x0008350d
   81fe0:	00083959 	.word	0x00083959
   81fe4:	00081dc1 	.word	0x00081dc1
   81fe8:	00081e55 	.word	0x00081e55
   81fec:	000817a5 	.word	0x000817a5
   81ff0:	00081d51 	.word	0x00081d51
   81ff4:	400e1400 	.word	0x400e1400
   81ff8:	400e0e00 	.word	0x400e0e00
   81ffc:	40160e00 	.word	0x40160e00
   82000:	00080161 	.word	0x00080161

00082004 <vListInitialise>:
   82004:	f04f 32ff 	mov.w	r2, #4294967295
   82008:	f100 0308 	add.w	r3, r0, #8
   8200c:	6082      	str	r2, [r0, #8]
   8200e:	6043      	str	r3, [r0, #4]
   82010:	60c3      	str	r3, [r0, #12]
   82012:	6103      	str	r3, [r0, #16]
   82014:	2300      	movs	r3, #0
   82016:	6003      	str	r3, [r0, #0]
   82018:	4770      	bx	lr

0008201a <vListInitialiseItem>:
   8201a:	2300      	movs	r3, #0
   8201c:	6103      	str	r3, [r0, #16]
   8201e:	4770      	bx	lr

00082020 <vListInsertEnd>:
   82020:	6843      	ldr	r3, [r0, #4]
   82022:	685a      	ldr	r2, [r3, #4]
   82024:	604a      	str	r2, [r1, #4]
   82026:	6842      	ldr	r2, [r0, #4]
   82028:	608a      	str	r2, [r1, #8]
   8202a:	685a      	ldr	r2, [r3, #4]
   8202c:	6091      	str	r1, [r2, #8]
   8202e:	6059      	str	r1, [r3, #4]
   82030:	6041      	str	r1, [r0, #4]
   82032:	6108      	str	r0, [r1, #16]
   82034:	6803      	ldr	r3, [r0, #0]
   82036:	3301      	adds	r3, #1
   82038:	6003      	str	r3, [r0, #0]
   8203a:	4770      	bx	lr

0008203c <vListInsert>:
   8203c:	680a      	ldr	r2, [r1, #0]
   8203e:	b510      	push	{r4, lr}
   82040:	1c53      	adds	r3, r2, #1
   82042:	d10a      	bne.n	8205a <vListInsert+0x1e>
   82044:	6903      	ldr	r3, [r0, #16]
   82046:	685a      	ldr	r2, [r3, #4]
   82048:	604a      	str	r2, [r1, #4]
   8204a:	6091      	str	r1, [r2, #8]
   8204c:	608b      	str	r3, [r1, #8]
   8204e:	6059      	str	r1, [r3, #4]
   82050:	6108      	str	r0, [r1, #16]
   82052:	6803      	ldr	r3, [r0, #0]
   82054:	3301      	adds	r3, #1
   82056:	6003      	str	r3, [r0, #0]
   82058:	bd10      	pop	{r4, pc}
   8205a:	f100 0308 	add.w	r3, r0, #8
   8205e:	685c      	ldr	r4, [r3, #4]
   82060:	6824      	ldr	r4, [r4, #0]
   82062:	42a2      	cmp	r2, r4
   82064:	d3ef      	bcc.n	82046 <vListInsert+0xa>
   82066:	685b      	ldr	r3, [r3, #4]
   82068:	e7f9      	b.n	8205e <vListInsert+0x22>

0008206a <uxListRemove>:
   8206a:	6843      	ldr	r3, [r0, #4]
   8206c:	6882      	ldr	r2, [r0, #8]
   8206e:	609a      	str	r2, [r3, #8]
   82070:	6883      	ldr	r3, [r0, #8]
   82072:	6842      	ldr	r2, [r0, #4]
   82074:	605a      	str	r2, [r3, #4]
   82076:	6903      	ldr	r3, [r0, #16]
   82078:	685a      	ldr	r2, [r3, #4]
   8207a:	4290      	cmp	r0, r2
   8207c:	bf04      	itt	eq
   8207e:	6882      	ldreq	r2, [r0, #8]
   82080:	605a      	streq	r2, [r3, #4]
   82082:	2200      	movs	r2, #0
   82084:	6102      	str	r2, [r0, #16]
   82086:	681a      	ldr	r2, [r3, #0]
   82088:	3a01      	subs	r2, #1
   8208a:	601a      	str	r2, [r3, #0]
   8208c:	6818      	ldr	r0, [r3, #0]
   8208e:	4770      	bx	lr

00082090 <prvPortStartFirstTask>:
   82090:	4803      	ldr	r0, [pc, #12]	; (820a0 <prvPortStartFirstTask+0x10>)
   82092:	6800      	ldr	r0, [r0, #0]
   82094:	6800      	ldr	r0, [r0, #0]
   82096:	f380 8808 	msr	MSP, r0
   8209a:	b662      	cpsie	i
   8209c:	df00      	svc	0
   8209e:	bf00      	nop
   820a0:	e000ed08 	.word	0xe000ed08

000820a4 <pxPortInitialiseStack>:
   820a4:	f04f 7380 	mov.w	r3, #16777216	; 0x1000000
   820a8:	e900 000a 	stmdb	r0, {r1, r3}
   820ac:	2300      	movs	r3, #0
   820ae:	f840 2c20 	str.w	r2, [r0, #-32]
   820b2:	f840 3c0c 	str.w	r3, [r0, #-12]
   820b6:	3840      	subs	r0, #64	; 0x40
   820b8:	4770      	bx	lr
	...

000820bc <SVC_Handler>:
   820bc:	4b06      	ldr	r3, [pc, #24]	; (820d8 <pxCurrentTCBConst2>)
   820be:	6819      	ldr	r1, [r3, #0]
   820c0:	6808      	ldr	r0, [r1, #0]
   820c2:	e8b0 0ff0 	ldmia.w	r0!, {r4, r5, r6, r7, r8, r9, sl, fp}
   820c6:	f380 8809 	msr	PSP, r0
   820ca:	f04f 0000 	mov.w	r0, #0
   820ce:	f380 8811 	msr	BASEPRI, r0
   820d2:	f04e 0e0d 	orr.w	lr, lr, #13
   820d6:	4770      	bx	lr

000820d8 <pxCurrentTCBConst2>:
   820d8:	2007ac38 	.word	0x2007ac38

000820dc <vPortYieldFromISR>:
   820dc:	f04f 5280 	mov.w	r2, #268435456	; 0x10000000
   820e0:	4b01      	ldr	r3, [pc, #4]	; (820e8 <vPortYieldFromISR+0xc>)
   820e2:	601a      	str	r2, [r3, #0]
   820e4:	4770      	bx	lr
   820e6:	bf00      	nop
   820e8:	e000ed04 	.word	0xe000ed04

000820ec <ulPortSetInterruptMask>:
   820ec:	f3ef 8011 	mrs	r0, BASEPRI
   820f0:	f04f 01a0 	mov.w	r1, #160	; 0xa0
   820f4:	f381 8811 	msr	BASEPRI, r1
   820f8:	4770      	bx	lr
   820fa:	2000      	movs	r0, #0

000820fc <vPortEnterCritical>:
   820fc:	b508      	push	{r3, lr}
   820fe:	4b03      	ldr	r3, [pc, #12]	; (8210c <vPortEnterCritical+0x10>)
   82100:	4798      	blx	r3
   82102:	4a03      	ldr	r2, [pc, #12]	; (82110 <vPortEnterCritical+0x14>)
   82104:	6813      	ldr	r3, [r2, #0]
   82106:	3301      	adds	r3, #1
   82108:	6013      	str	r3, [r2, #0]
   8210a:	bd08      	pop	{r3, pc}
   8210c:	000820ed 	.word	0x000820ed
   82110:	20070160 	.word	0x20070160

00082114 <vPortClearInterruptMask>:
   82114:	f380 8811 	msr	BASEPRI, r0
   82118:	4770      	bx	lr
	...

0008211c <vPortExitCritical>:
   8211c:	4b03      	ldr	r3, [pc, #12]	; (8212c <vPortExitCritical+0x10>)
   8211e:	6818      	ldr	r0, [r3, #0]
   82120:	3801      	subs	r0, #1
   82122:	6018      	str	r0, [r3, #0]
   82124:	b908      	cbnz	r0, 8212a <vPortExitCritical+0xe>
   82126:	4b02      	ldr	r3, [pc, #8]	; (82130 <vPortExitCritical+0x14>)
   82128:	4718      	bx	r3
   8212a:	4770      	bx	lr
   8212c:	20070160 	.word	0x20070160
   82130:	00082115 	.word	0x00082115

00082134 <PendSV_Handler>:
   82134:	f3ef 8009 	mrs	r0, PSP
   82138:	4b0c      	ldr	r3, [pc, #48]	; (8216c <pxCurrentTCBConst>)
   8213a:	681a      	ldr	r2, [r3, #0]
   8213c:	e920 0ff0 	stmdb	r0!, {r4, r5, r6, r7, r8, r9, sl, fp}
   82140:	6010      	str	r0, [r2, #0]
   82142:	e92d 4008 	stmdb	sp!, {r3, lr}
   82146:	f04f 00a0 	mov.w	r0, #160	; 0xa0
   8214a:	f380 8811 	msr	BASEPRI, r0
   8214e:	f000 fe6d 	bl	82e2c <vTaskSwitchContext>
   82152:	f04f 0000 	mov.w	r0, #0
   82156:	f380 8811 	msr	BASEPRI, r0
   8215a:	e8bd 4008 	ldmia.w	sp!, {r3, lr}
   8215e:	6819      	ldr	r1, [r3, #0]
   82160:	6808      	ldr	r0, [r1, #0]
   82162:	e8b0 0ff0 	ldmia.w	r0!, {r4, r5, r6, r7, r8, r9, sl, fp}
   82166:	f380 8809 	msr	PSP, r0
   8216a:	4770      	bx	lr

0008216c <pxCurrentTCBConst>:
   8216c:	2007ac38 	.word	0x2007ac38

00082170 <SysTick_Handler>:
   82170:	f04f 5280 	mov.w	r2, #268435456	; 0x10000000
   82174:	b510      	push	{r4, lr}
   82176:	4b05      	ldr	r3, [pc, #20]	; (8218c <SysTick_Handler+0x1c>)
   82178:	601a      	str	r2, [r3, #0]
   8217a:	4b05      	ldr	r3, [pc, #20]	; (82190 <SysTick_Handler+0x20>)
   8217c:	4798      	blx	r3
   8217e:	4b05      	ldr	r3, [pc, #20]	; (82194 <SysTick_Handler+0x24>)
   82180:	4798      	blx	r3
   82182:	e8bd 4010 	ldmia.w	sp!, {r4, lr}
   82186:	2000      	movs	r0, #0
   82188:	4b03      	ldr	r3, [pc, #12]	; (82198 <SysTick_Handler+0x28>)
   8218a:	4718      	bx	r3
   8218c:	e000ed04 	.word	0xe000ed04
   82190:	000820ed 	.word	0x000820ed
   82194:	00082b45 	.word	0x00082b45
   82198:	00082115 	.word	0x00082115

0008219c <vPortSetupTimerInterrupt>:
   8219c:	4a03      	ldr	r2, [pc, #12]	; (821ac <vPortSetupTimerInterrupt+0x10>)
   8219e:	4b04      	ldr	r3, [pc, #16]	; (821b0 <vPortSetupTimerInterrupt+0x14>)
   821a0:	601a      	str	r2, [r3, #0]
   821a2:	2207      	movs	r2, #7
   821a4:	f843 2c04 	str.w	r2, [r3, #-4]
   821a8:	4770      	bx	lr
   821aa:	bf00      	nop
   821ac:	0001481f 	.word	0x0001481f
   821b0:	e000e014 	.word	0xe000e014

000821b4 <xPortStartScheduler>:
   821b4:	b508      	push	{r3, lr}
   821b6:	4b08      	ldr	r3, [pc, #32]	; (821d8 <xPortStartScheduler+0x24>)
   821b8:	681a      	ldr	r2, [r3, #0]
   821ba:	f442 0270 	orr.w	r2, r2, #15728640	; 0xf00000
   821be:	601a      	str	r2, [r3, #0]
   821c0:	681a      	ldr	r2, [r3, #0]
   821c2:	f042 4270 	orr.w	r2, r2, #4026531840	; 0xf0000000
   821c6:	601a      	str	r2, [r3, #0]
   821c8:	4b04      	ldr	r3, [pc, #16]	; (821dc <xPortStartScheduler+0x28>)
   821ca:	4798      	blx	r3
   821cc:	2000      	movs	r0, #0
   821ce:	4b04      	ldr	r3, [pc, #16]	; (821e0 <xPortStartScheduler+0x2c>)
   821d0:	6018      	str	r0, [r3, #0]
   821d2:	4b04      	ldr	r3, [pc, #16]	; (821e4 <xPortStartScheduler+0x30>)
   821d4:	4798      	blx	r3
   821d6:	bd08      	pop	{r3, pc}
   821d8:	e000ed20 	.word	0xe000ed20
   821dc:	0008219d 	.word	0x0008219d
   821e0:	20070160 	.word	0x20070160
   821e4:	00082091 	.word	0x00082091

000821e8 <prvInsertBlockIntoFreeList>:
   821e8:	b510      	push	{r4, lr}
   821ea:	4b10      	ldr	r3, [pc, #64]	; (8222c <prvInsertBlockIntoFreeList+0x44>)
   821ec:	681a      	ldr	r2, [r3, #0]
   821ee:	4282      	cmp	r2, r0
   821f0:	d319      	bcc.n	82226 <prvInsertBlockIntoFreeList+0x3e>
   821f2:	685c      	ldr	r4, [r3, #4]
   821f4:	1919      	adds	r1, r3, r4
   821f6:	4288      	cmp	r0, r1
   821f8:	bf01      	itttt	eq
   821fa:	6841      	ldreq	r1, [r0, #4]
   821fc:	4618      	moveq	r0, r3
   821fe:	1909      	addeq	r1, r1, r4
   82200:	6059      	streq	r1, [r3, #4]
   82202:	6841      	ldr	r1, [r0, #4]
   82204:	1844      	adds	r4, r0, r1
   82206:	42a2      	cmp	r2, r4
   82208:	d108      	bne.n	8221c <prvInsertBlockIntoFreeList+0x34>
   8220a:	4c09      	ldr	r4, [pc, #36]	; (82230 <prvInsertBlockIntoFreeList+0x48>)
   8220c:	6824      	ldr	r4, [r4, #0]
   8220e:	42a2      	cmp	r2, r4
   82210:	d004      	beq.n	8221c <prvInsertBlockIntoFreeList+0x34>
   82212:	6852      	ldr	r2, [r2, #4]
   82214:	440a      	add	r2, r1
   82216:	6042      	str	r2, [r0, #4]
   82218:	681a      	ldr	r2, [r3, #0]
   8221a:	6812      	ldr	r2, [r2, #0]
   8221c:	4298      	cmp	r0, r3
   8221e:	6002      	str	r2, [r0, #0]
   82220:	bf18      	it	ne
   82222:	6018      	strne	r0, [r3, #0]
   82224:	bd10      	pop	{r4, pc}
   82226:	4613      	mov	r3, r2
   82228:	e7e0      	b.n	821ec <prvInsertBlockIntoFreeList+0x4>
   8222a:	bf00      	nop
   8222c:	2007ac30 	.word	0x2007ac30
   82230:	20070c2c 	.word	0x20070c2c

00082234 <pvPortMalloc>:
   82234:	b570      	push	{r4, r5, r6, lr}
   82236:	4b25      	ldr	r3, [pc, #148]	; (822cc <pvPortMalloc+0x98>)
   82238:	4604      	mov	r4, r0
   8223a:	4798      	blx	r3
   8223c:	4a24      	ldr	r2, [pc, #144]	; (822d0 <pvPortMalloc+0x9c>)
   8223e:	6811      	ldr	r1, [r2, #0]
   82240:	b989      	cbnz	r1, 82266 <pvPortMalloc+0x32>
   82242:	f649 75f0 	movw	r5, #40944	; 0x9ff0
   82246:	f649 76f4 	movw	r6, #40948	; 0x9ff4
   8224a:	4b22      	ldr	r3, [pc, #136]	; (822d4 <pvPortMalloc+0xa0>)
   8224c:	4822      	ldr	r0, [pc, #136]	; (822d8 <pvPortMalloc+0xa4>)
   8224e:	5199      	str	r1, [r3, r6]
   82250:	6003      	str	r3, [r0, #0]
   82252:	6041      	str	r1, [r0, #4]
   82254:	5159      	str	r1, [r3, r5]
   82256:	4821      	ldr	r0, [pc, #132]	; (822dc <pvPortMalloc+0xa8>)
   82258:	4921      	ldr	r1, [pc, #132]	; (822e0 <pvPortMalloc+0xac>)
   8225a:	e883 0021 	stmia.w	r3, {r0, r5}
   8225e:	680b      	ldr	r3, [r1, #0]
   82260:	6010      	str	r0, [r2, #0]
   82262:	3b10      	subs	r3, #16
   82264:	600b      	str	r3, [r1, #0]
   82266:	b12c      	cbz	r4, 82274 <pvPortMalloc+0x40>
   82268:	3410      	adds	r4, #16
   8226a:	0763      	lsls	r3, r4, #29
   8226c:	bf1c      	itt	ne
   8226e:	f024 0407 	bicne.w	r4, r4, #7
   82272:	3408      	addne	r4, #8
   82274:	f649 73fe 	movw	r3, #40958	; 0x9ffe
   82278:	1e61      	subs	r1, r4, #1
   8227a:	4299      	cmp	r1, r3
   8227c:	d807      	bhi.n	8228e <pvPortMalloc+0x5a>
   8227e:	4b16      	ldr	r3, [pc, #88]	; (822d8 <pvPortMalloc+0xa4>)
   82280:	681d      	ldr	r5, [r3, #0]
   82282:	6869      	ldr	r1, [r5, #4]
   82284:	428c      	cmp	r4, r1
   82286:	d804      	bhi.n	82292 <pvPortMalloc+0x5e>
   82288:	6812      	ldr	r2, [r2, #0]
   8228a:	4295      	cmp	r5, r2
   8228c:	d107      	bne.n	8229e <pvPortMalloc+0x6a>
   8228e:	2600      	movs	r6, #0
   82290:	e017      	b.n	822c2 <pvPortMalloc+0x8e>
   82292:	6829      	ldr	r1, [r5, #0]
   82294:	2900      	cmp	r1, #0
   82296:	d0f7      	beq.n	82288 <pvPortMalloc+0x54>
   82298:	462b      	mov	r3, r5
   8229a:	460d      	mov	r5, r1
   8229c:	e7f1      	b.n	82282 <pvPortMalloc+0x4e>
   8229e:	682a      	ldr	r2, [r5, #0]
   822a0:	681e      	ldr	r6, [r3, #0]
   822a2:	601a      	str	r2, [r3, #0]
   822a4:	686b      	ldr	r3, [r5, #4]
   822a6:	3610      	adds	r6, #16
   822a8:	1b1b      	subs	r3, r3, r4
   822aa:	2b20      	cmp	r3, #32
   822ac:	d904      	bls.n	822b8 <pvPortMalloc+0x84>
   822ae:	1928      	adds	r0, r5, r4
   822b0:	6043      	str	r3, [r0, #4]
   822b2:	606c      	str	r4, [r5, #4]
   822b4:	4b0b      	ldr	r3, [pc, #44]	; (822e4 <pvPortMalloc+0xb0>)
   822b6:	4798      	blx	r3
   822b8:	4a09      	ldr	r2, [pc, #36]	; (822e0 <pvPortMalloc+0xac>)
   822ba:	6869      	ldr	r1, [r5, #4]
   822bc:	6813      	ldr	r3, [r2, #0]
   822be:	1a5b      	subs	r3, r3, r1
   822c0:	6013      	str	r3, [r2, #0]
   822c2:	4b09      	ldr	r3, [pc, #36]	; (822e8 <pvPortMalloc+0xb4>)
   822c4:	4798      	blx	r3
   822c6:	4630      	mov	r0, r6
   822c8:	bd70      	pop	{r4, r5, r6, pc}
   822ca:	bf00      	nop
   822cc:	00082af5 	.word	0x00082af5
   822d0:	20070c2c 	.word	0x20070c2c
   822d4:	20070c30 	.word	0x20070c30
   822d8:	2007ac30 	.word	0x2007ac30
   822dc:	2007ac20 	.word	0x2007ac20
   822e0:	20070164 	.word	0x20070164
   822e4:	000821e9 	.word	0x000821e9
   822e8:	00082c39 	.word	0x00082c39

000822ec <vPortFree>:
   822ec:	b510      	push	{r4, lr}
   822ee:	4604      	mov	r4, r0
   822f0:	b178      	cbz	r0, 82312 <vPortFree+0x26>
   822f2:	4b08      	ldr	r3, [pc, #32]	; (82314 <vPortFree+0x28>)
   822f4:	4798      	blx	r3
   822f6:	4a08      	ldr	r2, [pc, #32]	; (82318 <vPortFree+0x2c>)
   822f8:	f854 3c0c 	ldr.w	r3, [r4, #-12]
   822fc:	6811      	ldr	r1, [r2, #0]
   822fe:	f1a4 0010 	sub.w	r0, r4, #16
   82302:	440b      	add	r3, r1
   82304:	6013      	str	r3, [r2, #0]
   82306:	4b05      	ldr	r3, [pc, #20]	; (8231c <vPortFree+0x30>)
   82308:	4798      	blx	r3
   8230a:	e8bd 4010 	ldmia.w	sp!, {r4, lr}
   8230e:	4b04      	ldr	r3, [pc, #16]	; (82320 <vPortFree+0x34>)
   82310:	4718      	bx	r3
   82312:	bd10      	pop	{r4, pc}
   82314:	00082af5 	.word	0x00082af5
   82318:	20070164 	.word	0x20070164
   8231c:	000821e9 	.word	0x000821e9
   82320:	00082c39 	.word	0x00082c39

00082324 <prvCopyDataToQueue>:
   82324:	b538      	push	{r3, r4, r5, lr}
   82326:	4604      	mov	r4, r0
   82328:	4610      	mov	r0, r2
   8232a:	6c22      	ldr	r2, [r4, #64]	; 0x40
   8232c:	b94a      	cbnz	r2, 82342 <prvCopyDataToQueue+0x1e>
   8232e:	6825      	ldr	r5, [r4, #0]
   82330:	b91d      	cbnz	r5, 8233a <prvCopyDataToQueue+0x16>
   82332:	6860      	ldr	r0, [r4, #4]
   82334:	4b11      	ldr	r3, [pc, #68]	; (8237c <prvCopyDataToQueue+0x58>)
   82336:	4798      	blx	r3
   82338:	6065      	str	r5, [r4, #4]
   8233a:	6ba3      	ldr	r3, [r4, #56]	; 0x38
   8233c:	3301      	adds	r3, #1
   8233e:	63a3      	str	r3, [r4, #56]	; 0x38
   82340:	bd38      	pop	{r3, r4, r5, pc}
   82342:	4b0f      	ldr	r3, [pc, #60]	; (82380 <prvCopyDataToQueue+0x5c>)
   82344:	b958      	cbnz	r0, 8235e <prvCopyDataToQueue+0x3a>
   82346:	68a0      	ldr	r0, [r4, #8]
   82348:	4798      	blx	r3
   8234a:	68a3      	ldr	r3, [r4, #8]
   8234c:	6c22      	ldr	r2, [r4, #64]	; 0x40
   8234e:	4413      	add	r3, r2
   82350:	6862      	ldr	r2, [r4, #4]
   82352:	60a3      	str	r3, [r4, #8]
   82354:	4293      	cmp	r3, r2
   82356:	d3f0      	bcc.n	8233a <prvCopyDataToQueue+0x16>
   82358:	6823      	ldr	r3, [r4, #0]
   8235a:	60a3      	str	r3, [r4, #8]
   8235c:	e7ed      	b.n	8233a <prvCopyDataToQueue+0x16>
   8235e:	68e0      	ldr	r0, [r4, #12]
   82360:	4798      	blx	r3
   82362:	6c23      	ldr	r3, [r4, #64]	; 0x40
   82364:	68e2      	ldr	r2, [r4, #12]
   82366:	425b      	negs	r3, r3
   82368:	6821      	ldr	r1, [r4, #0]
   8236a:	441a      	add	r2, r3
   8236c:	428a      	cmp	r2, r1
   8236e:	60e2      	str	r2, [r4, #12]
   82370:	bf3e      	ittt	cc
   82372:	6862      	ldrcc	r2, [r4, #4]
   82374:	189b      	addcc	r3, r3, r2
   82376:	60e3      	strcc	r3, [r4, #12]
   82378:	e7df      	b.n	8233a <prvCopyDataToQueue+0x16>
   8237a:	bf00      	nop
   8237c:	00083105 	.word	0x00083105
   82380:	00085105 	.word	0x00085105

00082384 <prvCopyDataFromQueue>:
   82384:	4603      	mov	r3, r0
   82386:	b430      	push	{r4, r5}
   82388:	681c      	ldr	r4, [r3, #0]
   8238a:	4608      	mov	r0, r1
   8238c:	b15c      	cbz	r4, 823a6 <prvCopyDataFromQueue+0x22>
   8238e:	68d9      	ldr	r1, [r3, #12]
   82390:	6c1a      	ldr	r2, [r3, #64]	; 0x40
   82392:	685d      	ldr	r5, [r3, #4]
   82394:	4411      	add	r1, r2
   82396:	42a9      	cmp	r1, r5
   82398:	60d9      	str	r1, [r3, #12]
   8239a:	bf28      	it	cs
   8239c:	60dc      	strcs	r4, [r3, #12]
   8239e:	68d9      	ldr	r1, [r3, #12]
   823a0:	bc30      	pop	{r4, r5}
   823a2:	4b02      	ldr	r3, [pc, #8]	; (823ac <prvCopyDataFromQueue+0x28>)
   823a4:	4718      	bx	r3
   823a6:	bc30      	pop	{r4, r5}
   823a8:	4770      	bx	lr
   823aa:	bf00      	nop
   823ac:	00085105 	.word	0x00085105

000823b0 <prvUnlockQueue>:
   823b0:	e92d 41f0 	stmdb	sp!, {r4, r5, r6, r7, r8, lr}
   823b4:	4604      	mov	r4, r0
   823b6:	4e1a      	ldr	r6, [pc, #104]	; (82420 <prvUnlockQueue+0x70>)
   823b8:	47b0      	blx	r6
   823ba:	4f1a      	ldr	r7, [pc, #104]	; (82424 <prvUnlockQueue+0x74>)
   823bc:	f8df 806c 	ldr.w	r8, [pc, #108]	; 8242c <prvUnlockQueue+0x7c>
   823c0:	f104 0524 	add.w	r5, r4, #36	; 0x24
   823c4:	6ca3      	ldr	r3, [r4, #72]	; 0x48
   823c6:	2b00      	cmp	r3, #0
   823c8:	dc14      	bgt.n	823f4 <prvUnlockQueue+0x44>
   823ca:	f04f 33ff 	mov.w	r3, #4294967295
   823ce:	4d16      	ldr	r5, [pc, #88]	; (82428 <prvUnlockQueue+0x78>)
   823d0:	64a3      	str	r3, [r4, #72]	; 0x48
   823d2:	4f14      	ldr	r7, [pc, #80]	; (82424 <prvUnlockQueue+0x74>)
   823d4:	f8df 8054 	ldr.w	r8, [pc, #84]	; 8242c <prvUnlockQueue+0x7c>
   823d8:	47a8      	blx	r5
   823da:	47b0      	blx	r6
   823dc:	f104 0610 	add.w	r6, r4, #16
   823e0:	6c63      	ldr	r3, [r4, #68]	; 0x44
   823e2:	2b00      	cmp	r3, #0
   823e4:	dc11      	bgt.n	8240a <prvUnlockQueue+0x5a>
   823e6:	f04f 33ff 	mov.w	r3, #4294967295
   823ea:	6463      	str	r3, [r4, #68]	; 0x44
   823ec:	462b      	mov	r3, r5
   823ee:	e8bd 41f0 	ldmia.w	sp!, {r4, r5, r6, r7, r8, lr}
   823f2:	4718      	bx	r3
   823f4:	6a63      	ldr	r3, [r4, #36]	; 0x24
   823f6:	2b00      	cmp	r3, #0
   823f8:	d0e7      	beq.n	823ca <prvUnlockQueue+0x1a>
   823fa:	4628      	mov	r0, r5
   823fc:	47b8      	blx	r7
   823fe:	b100      	cbz	r0, 82402 <prvUnlockQueue+0x52>
   82400:	47c0      	blx	r8
   82402:	6ca3      	ldr	r3, [r4, #72]	; 0x48
   82404:	3b01      	subs	r3, #1
   82406:	64a3      	str	r3, [r4, #72]	; 0x48
   82408:	e7dc      	b.n	823c4 <prvUnlockQueue+0x14>
   8240a:	6923      	ldr	r3, [r4, #16]
   8240c:	2b00      	cmp	r3, #0
   8240e:	d0ea      	beq.n	823e6 <prvUnlockQueue+0x36>
   82410:	4630      	mov	r0, r6
   82412:	47b8      	blx	r7
   82414:	b100      	cbz	r0, 82418 <prvUnlockQueue+0x68>
   82416:	47c0      	blx	r8
   82418:	6c63      	ldr	r3, [r4, #68]	; 0x44
   8241a:	3b01      	subs	r3, #1
   8241c:	6463      	str	r3, [r4, #68]	; 0x44
   8241e:	e7df      	b.n	823e0 <prvUnlockQueue+0x30>
   82420:	000820fd 	.word	0x000820fd
   82424:	00082f49 	.word	0x00082f49
   82428:	0008211d 	.word	0x0008211d
   8242c:	0008305d 	.word	0x0008305d

00082430 <xQueueGenericReset>:
   82430:	b538      	push	{r3, r4, r5, lr}
   82432:	460d      	mov	r5, r1
   82434:	4604      	mov	r4, r0
   82436:	b918      	cbnz	r0, 82440 <xQueueGenericReset+0x10>
   82438:	4b16      	ldr	r3, [pc, #88]	; (82494 <xQueueGenericReset+0x64>)
   8243a:	4798      	blx	r3
   8243c:	bf00      	nop
   8243e:	e7fd      	b.n	8243c <xQueueGenericReset+0xc>
   82440:	4b15      	ldr	r3, [pc, #84]	; (82498 <xQueueGenericReset+0x68>)
   82442:	4798      	blx	r3
   82444:	6c20      	ldr	r0, [r4, #64]	; 0x40
   82446:	6be3      	ldr	r3, [r4, #60]	; 0x3c
   82448:	6822      	ldr	r2, [r4, #0]
   8244a:	4343      	muls	r3, r0
   8244c:	18d1      	adds	r1, r2, r3
   8244e:	1a1b      	subs	r3, r3, r0
   82450:	4413      	add	r3, r2
   82452:	6061      	str	r1, [r4, #4]
   82454:	60e3      	str	r3, [r4, #12]
   82456:	2100      	movs	r1, #0
   82458:	f04f 33ff 	mov.w	r3, #4294967295
   8245c:	63a1      	str	r1, [r4, #56]	; 0x38
   8245e:	60a2      	str	r2, [r4, #8]
   82460:	6463      	str	r3, [r4, #68]	; 0x44
   82462:	64a3      	str	r3, [r4, #72]	; 0x48
   82464:	b96d      	cbnz	r5, 82482 <xQueueGenericReset+0x52>
   82466:	6923      	ldr	r3, [r4, #16]
   82468:	b13b      	cbz	r3, 8247a <xQueueGenericReset+0x4a>
   8246a:	f104 0010 	add.w	r0, r4, #16
   8246e:	4b0b      	ldr	r3, [pc, #44]	; (8249c <xQueueGenericReset+0x6c>)
   82470:	4798      	blx	r3
   82472:	2801      	cmp	r0, #1
   82474:	d101      	bne.n	8247a <xQueueGenericReset+0x4a>
   82476:	4b0a      	ldr	r3, [pc, #40]	; (824a0 <xQueueGenericReset+0x70>)
   82478:	4798      	blx	r3
   8247a:	4b0a      	ldr	r3, [pc, #40]	; (824a4 <xQueueGenericReset+0x74>)
   8247c:	4798      	blx	r3
   8247e:	2001      	movs	r0, #1
   82480:	bd38      	pop	{r3, r4, r5, pc}
   82482:	f104 0010 	add.w	r0, r4, #16
   82486:	4d08      	ldr	r5, [pc, #32]	; (824a8 <xQueueGenericReset+0x78>)
   82488:	47a8      	blx	r5
   8248a:	f104 0024 	add.w	r0, r4, #36	; 0x24
   8248e:	47a8      	blx	r5
   82490:	e7f3      	b.n	8247a <xQueueGenericReset+0x4a>
   82492:	bf00      	nop
   82494:	000820ed 	.word	0x000820ed
   82498:	000820fd 	.word	0x000820fd
   8249c:	00082f49 	.word	0x00082f49
   824a0:	000820dd 	.word	0x000820dd
   824a4:	0008211d 	.word	0x0008211d
   824a8:	00082005 	.word	0x00082005

000824ac <xQueueGenericCreate>:
   824ac:	e92d 41f0 	stmdb	sp!, {r4, r5, r6, r7, r8, lr}
   824b0:	460e      	mov	r6, r1
   824b2:	4690      	mov	r8, r2
   824b4:	4605      	mov	r5, r0
   824b6:	b168      	cbz	r0, 824d4 <xQueueGenericCreate+0x28>
   824b8:	2050      	movs	r0, #80	; 0x50
   824ba:	4f0e      	ldr	r7, [pc, #56]	; (824f4 <xQueueGenericCreate+0x48>)
   824bc:	47b8      	blx	r7
   824be:	4604      	mov	r4, r0
   824c0:	b140      	cbz	r0, 824d4 <xQueueGenericCreate+0x28>
   824c2:	fb06 f005 	mul.w	r0, r6, r5
   824c6:	3001      	adds	r0, #1
   824c8:	47b8      	blx	r7
   824ca:	6020      	str	r0, [r4, #0]
   824cc:	b930      	cbnz	r0, 824dc <xQueueGenericCreate+0x30>
   824ce:	4620      	mov	r0, r4
   824d0:	4b09      	ldr	r3, [pc, #36]	; (824f8 <xQueueGenericCreate+0x4c>)
   824d2:	4798      	blx	r3
   824d4:	4b09      	ldr	r3, [pc, #36]	; (824fc <xQueueGenericCreate+0x50>)
   824d6:	4798      	blx	r3
   824d8:	bf00      	nop
   824da:	e7fd      	b.n	824d8 <xQueueGenericCreate+0x2c>
   824dc:	63e5      	str	r5, [r4, #60]	; 0x3c
   824de:	6426      	str	r6, [r4, #64]	; 0x40
   824e0:	2101      	movs	r1, #1
   824e2:	4620      	mov	r0, r4
   824e4:	4b06      	ldr	r3, [pc, #24]	; (82500 <xQueueGenericCreate+0x54>)
   824e6:	4798      	blx	r3
   824e8:	f884 804d 	strb.w	r8, [r4, #77]	; 0x4d
   824ec:	4620      	mov	r0, r4
   824ee:	e8bd 81f0 	ldmia.w	sp!, {r4, r5, r6, r7, r8, pc}
   824f2:	bf00      	nop
   824f4:	00082235 	.word	0x00082235
   824f8:	000822ed 	.word	0x000822ed
   824fc:	000820ed 	.word	0x000820ed
   82500:	00082431 	.word	0x00082431

00082504 <xQueueGenericSend>:
   82504:	e92d 4ff0 	stmdb	sp!, {r4, r5, r6, r7, r8, r9, sl, fp, lr}
   82508:	b087      	sub	sp, #28
   8250a:	460f      	mov	r7, r1
   8250c:	9203      	str	r2, [sp, #12]
   8250e:	469a      	mov	sl, r3
   82510:	4604      	mov	r4, r0
   82512:	b918      	cbnz	r0, 8251c <xQueueGenericSend+0x18>
   82514:	4b36      	ldr	r3, [pc, #216]	; (825f0 <xQueueGenericSend+0xec>)
   82516:	4798      	blx	r3
   82518:	bf00      	nop
   8251a:	e7fd      	b.n	82518 <xQueueGenericSend+0x14>
   8251c:	b911      	cbnz	r1, 82524 <xQueueGenericSend+0x20>
   8251e:	6c03      	ldr	r3, [r0, #64]	; 0x40
   82520:	2b00      	cmp	r3, #0
   82522:	d160      	bne.n	825e6 <xQueueGenericSend+0xe2>
   82524:	f8df 80f0 	ldr.w	r8, [pc, #240]	; 82618 <xQueueGenericSend+0x114>
   82528:	f04f 0b00 	mov.w	fp, #0
   8252c:	46c1      	mov	r9, r8
   8252e:	4e31      	ldr	r6, [pc, #196]	; (825f4 <xQueueGenericSend+0xf0>)
   82530:	47c0      	blx	r8
   82532:	6ba2      	ldr	r2, [r4, #56]	; 0x38
   82534:	6be3      	ldr	r3, [r4, #60]	; 0x3c
   82536:	429a      	cmp	r2, r3
   82538:	d213      	bcs.n	82562 <xQueueGenericSend+0x5e>
   8253a:	4b2f      	ldr	r3, [pc, #188]	; (825f8 <xQueueGenericSend+0xf4>)
   8253c:	4652      	mov	r2, sl
   8253e:	4639      	mov	r1, r7
   82540:	4620      	mov	r0, r4
   82542:	4798      	blx	r3
   82544:	6a63      	ldr	r3, [r4, #36]	; 0x24
   82546:	b13b      	cbz	r3, 82558 <xQueueGenericSend+0x54>
   82548:	f104 0024 	add.w	r0, r4, #36	; 0x24
   8254c:	4b2b      	ldr	r3, [pc, #172]	; (825fc <xQueueGenericSend+0xf8>)
   8254e:	4798      	blx	r3
   82550:	2801      	cmp	r0, #1
   82552:	d101      	bne.n	82558 <xQueueGenericSend+0x54>
   82554:	4b2a      	ldr	r3, [pc, #168]	; (82600 <xQueueGenericSend+0xfc>)
   82556:	4798      	blx	r3
   82558:	47b0      	blx	r6
   8255a:	2001      	movs	r0, #1
   8255c:	b007      	add	sp, #28
   8255e:	e8bd 8ff0 	ldmia.w	sp!, {r4, r5, r6, r7, r8, r9, sl, fp, pc}
   82562:	9d03      	ldr	r5, [sp, #12]
   82564:	b915      	cbnz	r5, 8256c <xQueueGenericSend+0x68>
   82566:	47b0      	blx	r6
   82568:	2000      	movs	r0, #0
   8256a:	e7f7      	b.n	8255c <xQueueGenericSend+0x58>
   8256c:	f1bb 0f00 	cmp.w	fp, #0
   82570:	d102      	bne.n	82578 <xQueueGenericSend+0x74>
   82572:	a804      	add	r0, sp, #16
   82574:	4b23      	ldr	r3, [pc, #140]	; (82604 <xQueueGenericSend+0x100>)
   82576:	4798      	blx	r3
   82578:	47b0      	blx	r6
   8257a:	4b23      	ldr	r3, [pc, #140]	; (82608 <xQueueGenericSend+0x104>)
   8257c:	4798      	blx	r3
   8257e:	47c8      	blx	r9
   82580:	6c63      	ldr	r3, [r4, #68]	; 0x44
   82582:	f8df b098 	ldr.w	fp, [pc, #152]	; 8261c <xQueueGenericSend+0x118>
   82586:	3301      	adds	r3, #1
   82588:	bf04      	itt	eq
   8258a:	2300      	moveq	r3, #0
   8258c:	6463      	streq	r3, [r4, #68]	; 0x44
   8258e:	6ca3      	ldr	r3, [r4, #72]	; 0x48
   82590:	4d1e      	ldr	r5, [pc, #120]	; (8260c <xQueueGenericSend+0x108>)
   82592:	3301      	adds	r3, #1
   82594:	bf04      	itt	eq
   82596:	2300      	moveq	r3, #0
   82598:	64a3      	streq	r3, [r4, #72]	; 0x48
   8259a:	47b0      	blx	r6
   8259c:	a903      	add	r1, sp, #12
   8259e:	a804      	add	r0, sp, #16
   825a0:	4b1b      	ldr	r3, [pc, #108]	; (82610 <xQueueGenericSend+0x10c>)
   825a2:	4798      	blx	r3
   825a4:	b9d8      	cbnz	r0, 825de <xQueueGenericSend+0xda>
   825a6:	47c8      	blx	r9
   825a8:	6ba2      	ldr	r2, [r4, #56]	; 0x38
   825aa:	6be3      	ldr	r3, [r4, #60]	; 0x3c
   825ac:	9202      	str	r2, [sp, #8]
   825ae:	9301      	str	r3, [sp, #4]
   825b0:	47b0      	blx	r6
   825b2:	9b01      	ldr	r3, [sp, #4]
   825b4:	9a02      	ldr	r2, [sp, #8]
   825b6:	429a      	cmp	r2, r3
   825b8:	d10d      	bne.n	825d6 <xQueueGenericSend+0xd2>
   825ba:	9903      	ldr	r1, [sp, #12]
   825bc:	f104 0010 	add.w	r0, r4, #16
   825c0:	4b14      	ldr	r3, [pc, #80]	; (82614 <xQueueGenericSend+0x110>)
   825c2:	4798      	blx	r3
   825c4:	4620      	mov	r0, r4
   825c6:	47d8      	blx	fp
   825c8:	47a8      	blx	r5
   825ca:	b908      	cbnz	r0, 825d0 <xQueueGenericSend+0xcc>
   825cc:	4b0c      	ldr	r3, [pc, #48]	; (82600 <xQueueGenericSend+0xfc>)
   825ce:	4798      	blx	r3
   825d0:	f04f 0b01 	mov.w	fp, #1
   825d4:	e7ac      	b.n	82530 <xQueueGenericSend+0x2c>
   825d6:	4620      	mov	r0, r4
   825d8:	47d8      	blx	fp
   825da:	47a8      	blx	r5
   825dc:	e7f8      	b.n	825d0 <xQueueGenericSend+0xcc>
   825de:	4620      	mov	r0, r4
   825e0:	47d8      	blx	fp
   825e2:	47a8      	blx	r5
   825e4:	e7c0      	b.n	82568 <xQueueGenericSend+0x64>
   825e6:	4b02      	ldr	r3, [pc, #8]	; (825f0 <xQueueGenericSend+0xec>)
   825e8:	4798      	blx	r3
   825ea:	bf00      	nop
   825ec:	e7fd      	b.n	825ea <xQueueGenericSend+0xe6>
   825ee:	bf00      	nop
   825f0:	000820ed 	.word	0x000820ed
   825f4:	0008211d 	.word	0x0008211d
   825f8:	00082325 	.word	0x00082325
   825fc:	00082f49 	.word	0x00082f49
   82600:	000820dd 	.word	0x000820dd
   82604:	00082fc1 	.word	0x00082fc1
   82608:	00082af5 	.word	0x00082af5
   8260c:	00082c39 	.word	0x00082c39
   82610:	00082fe9 	.word	0x00082fe9
   82614:	00082ea1 	.word	0x00082ea1
   82618:	000820fd 	.word	0x000820fd
   8261c:	000823b1 	.word	0x000823b1

00082620 <xQueueGenericSendFromISR>:
   82620:	e92d 41f0 	stmdb	sp!, {r4, r5, r6, r7, r8, lr}
   82624:	4604      	mov	r4, r0
   82626:	460d      	mov	r5, r1
   82628:	4616      	mov	r6, r2
   8262a:	4698      	mov	r8, r3
   8262c:	4819      	ldr	r0, [pc, #100]	; (82694 <xQueueGenericSendFromISR+0x74>)
   8262e:	b914      	cbnz	r4, 82636 <xQueueGenericSendFromISR+0x16>
   82630:	4780      	blx	r0
   82632:	bf00      	nop
   82634:	e7fd      	b.n	82632 <xQueueGenericSendFromISR+0x12>
   82636:	bb21      	cbnz	r1, 82682 <xQueueGenericSendFromISR+0x62>
   82638:	6c23      	ldr	r3, [r4, #64]	; 0x40
   8263a:	b313      	cbz	r3, 82682 <xQueueGenericSendFromISR+0x62>
   8263c:	4780      	blx	r0
   8263e:	bf00      	nop
   82640:	e7fd      	b.n	8263e <xQueueGenericSendFromISR+0x1e>
   82642:	4b15      	ldr	r3, [pc, #84]	; (82698 <xQueueGenericSendFromISR+0x78>)
   82644:	4642      	mov	r2, r8
   82646:	4629      	mov	r1, r5
   82648:	4620      	mov	r0, r4
   8264a:	4798      	blx	r3
   8264c:	6ca3      	ldr	r3, [r4, #72]	; 0x48
   8264e:	3301      	adds	r3, #1
   82650:	d113      	bne.n	8267a <xQueueGenericSendFromISR+0x5a>
   82652:	6a63      	ldr	r3, [r4, #36]	; 0x24
   82654:	b90b      	cbnz	r3, 8265a <xQueueGenericSendFromISR+0x3a>
   82656:	2401      	movs	r4, #1
   82658:	e009      	b.n	8266e <xQueueGenericSendFromISR+0x4e>
   8265a:	f104 0024 	add.w	r0, r4, #36	; 0x24
   8265e:	4b0f      	ldr	r3, [pc, #60]	; (8269c <xQueueGenericSendFromISR+0x7c>)
   82660:	4798      	blx	r3
   82662:	2800      	cmp	r0, #0
   82664:	d0f7      	beq.n	82656 <xQueueGenericSendFromISR+0x36>
   82666:	2e00      	cmp	r6, #0
   82668:	d0f5      	beq.n	82656 <xQueueGenericSendFromISR+0x36>
   8266a:	2401      	movs	r4, #1
   8266c:	6034      	str	r4, [r6, #0]
   8266e:	4638      	mov	r0, r7
   82670:	4b0b      	ldr	r3, [pc, #44]	; (826a0 <xQueueGenericSendFromISR+0x80>)
   82672:	4798      	blx	r3
   82674:	4620      	mov	r0, r4
   82676:	e8bd 81f0 	ldmia.w	sp!, {r4, r5, r6, r7, r8, pc}
   8267a:	6ca3      	ldr	r3, [r4, #72]	; 0x48
   8267c:	3301      	adds	r3, #1
   8267e:	64a3      	str	r3, [r4, #72]	; 0x48
   82680:	e7e9      	b.n	82656 <xQueueGenericSendFromISR+0x36>
   82682:	4780      	blx	r0
   82684:	6be1      	ldr	r1, [r4, #60]	; 0x3c
   82686:	4607      	mov	r7, r0
   82688:	6ba0      	ldr	r0, [r4, #56]	; 0x38
   8268a:	4288      	cmp	r0, r1
   8268c:	d3d9      	bcc.n	82642 <xQueueGenericSendFromISR+0x22>
   8268e:	2400      	movs	r4, #0
   82690:	e7ed      	b.n	8266e <xQueueGenericSendFromISR+0x4e>
   82692:	bf00      	nop
   82694:	000820ed 	.word	0x000820ed
   82698:	00082325 	.word	0x00082325
   8269c:	00082f49 	.word	0x00082f49
   826a0:	00082115 	.word	0x00082115

000826a4 <xQueueGenericReceive>:
   826a4:	e92d 4ff0 	stmdb	sp!, {r4, r5, r6, r7, r8, r9, sl, fp, lr}
   826a8:	b085      	sub	sp, #20
   826aa:	460f      	mov	r7, r1
   826ac:	9201      	str	r2, [sp, #4]
   826ae:	469a      	mov	sl, r3
   826b0:	4604      	mov	r4, r0
   826b2:	b918      	cbnz	r0, 826bc <xQueueGenericReceive+0x18>
   826b4:	4b42      	ldr	r3, [pc, #264]	; (827c0 <xQueueGenericReceive+0x11c>)
   826b6:	4798      	blx	r3
   826b8:	bf00      	nop
   826ba:	e7fd      	b.n	826b8 <xQueueGenericReceive+0x14>
   826bc:	b911      	cbnz	r1, 826c4 <xQueueGenericReceive+0x20>
   826be:	6c03      	ldr	r3, [r0, #64]	; 0x40
   826c0:	2b00      	cmp	r3, #0
   826c2:	d178      	bne.n	827b6 <xQueueGenericReceive+0x112>
   826c4:	f8df 9128 	ldr.w	r9, [pc, #296]	; 827f0 <xQueueGenericReceive+0x14c>
   826c8:	f04f 0b00 	mov.w	fp, #0
   826cc:	46c8      	mov	r8, r9
   826ce:	4e3d      	ldr	r6, [pc, #244]	; (827c4 <xQueueGenericReceive+0x120>)
   826d0:	47c8      	blx	r9
   826d2:	6ba3      	ldr	r3, [r4, #56]	; 0x38
   826d4:	2b00      	cmp	r3, #0
   826d6:	d029      	beq.n	8272c <xQueueGenericReceive+0x88>
   826d8:	4639      	mov	r1, r7
   826da:	4620      	mov	r0, r4
   826dc:	4b3a      	ldr	r3, [pc, #232]	; (827c8 <xQueueGenericReceive+0x124>)
   826de:	68e5      	ldr	r5, [r4, #12]
   826e0:	4798      	blx	r3
   826e2:	f1ba 0f00 	cmp.w	sl, #0
   826e6:	d116      	bne.n	82716 <xQueueGenericReceive+0x72>
   826e8:	6ba3      	ldr	r3, [r4, #56]	; 0x38
   826ea:	3b01      	subs	r3, #1
   826ec:	63a3      	str	r3, [r4, #56]	; 0x38
   826ee:	6823      	ldr	r3, [r4, #0]
   826f0:	b913      	cbnz	r3, 826f8 <xQueueGenericReceive+0x54>
   826f2:	4b36      	ldr	r3, [pc, #216]	; (827cc <xQueueGenericReceive+0x128>)
   826f4:	4798      	blx	r3
   826f6:	6060      	str	r0, [r4, #4]
   826f8:	6923      	ldr	r3, [r4, #16]
   826fa:	b13b      	cbz	r3, 8270c <xQueueGenericReceive+0x68>
   826fc:	f104 0010 	add.w	r0, r4, #16
   82700:	4b33      	ldr	r3, [pc, #204]	; (827d0 <xQueueGenericReceive+0x12c>)
   82702:	4798      	blx	r3
   82704:	2801      	cmp	r0, #1
   82706:	d101      	bne.n	8270c <xQueueGenericReceive+0x68>
   82708:	4b32      	ldr	r3, [pc, #200]	; (827d4 <xQueueGenericReceive+0x130>)
   8270a:	4798      	blx	r3
   8270c:	47b0      	blx	r6
   8270e:	2001      	movs	r0, #1
   82710:	b005      	add	sp, #20
   82712:	e8bd 8ff0 	ldmia.w	sp!, {r4, r5, r6, r7, r8, r9, sl, fp, pc}
   82716:	6a63      	ldr	r3, [r4, #36]	; 0x24
   82718:	60e5      	str	r5, [r4, #12]
   8271a:	2b00      	cmp	r3, #0
   8271c:	d0f6      	beq.n	8270c <xQueueGenericReceive+0x68>
   8271e:	f104 0024 	add.w	r0, r4, #36	; 0x24
   82722:	4b2b      	ldr	r3, [pc, #172]	; (827d0 <xQueueGenericReceive+0x12c>)
   82724:	4798      	blx	r3
   82726:	2800      	cmp	r0, #0
   82728:	d0f0      	beq.n	8270c <xQueueGenericReceive+0x68>
   8272a:	e7ed      	b.n	82708 <xQueueGenericReceive+0x64>
   8272c:	9d01      	ldr	r5, [sp, #4]
   8272e:	b915      	cbnz	r5, 82736 <xQueueGenericReceive+0x92>
   82730:	47b0      	blx	r6
   82732:	2000      	movs	r0, #0
   82734:	e7ec      	b.n	82710 <xQueueGenericReceive+0x6c>
   82736:	f1bb 0f00 	cmp.w	fp, #0
   8273a:	d102      	bne.n	82742 <xQueueGenericReceive+0x9e>
   8273c:	a802      	add	r0, sp, #8
   8273e:	4b26      	ldr	r3, [pc, #152]	; (827d8 <xQueueGenericReceive+0x134>)
   82740:	4798      	blx	r3
   82742:	47b0      	blx	r6
   82744:	4b25      	ldr	r3, [pc, #148]	; (827dc <xQueueGenericReceive+0x138>)
   82746:	4798      	blx	r3
   82748:	47c0      	blx	r8
   8274a:	6c63      	ldr	r3, [r4, #68]	; 0x44
   8274c:	f8df b0a4 	ldr.w	fp, [pc, #164]	; 827f4 <xQueueGenericReceive+0x150>
   82750:	3301      	adds	r3, #1
   82752:	bf04      	itt	eq
   82754:	2300      	moveq	r3, #0
   82756:	6463      	streq	r3, [r4, #68]	; 0x44
   82758:	6ca3      	ldr	r3, [r4, #72]	; 0x48
   8275a:	4d21      	ldr	r5, [pc, #132]	; (827e0 <xQueueGenericReceive+0x13c>)
   8275c:	3301      	adds	r3, #1
   8275e:	bf04      	itt	eq
   82760:	2300      	moveq	r3, #0
   82762:	64a3      	streq	r3, [r4, #72]	; 0x48
   82764:	47b0      	blx	r6
   82766:	a901      	add	r1, sp, #4
   82768:	a802      	add	r0, sp, #8
   8276a:	4b1e      	ldr	r3, [pc, #120]	; (827e4 <xQueueGenericReceive+0x140>)
   8276c:	4798      	blx	r3
   8276e:	b9f0      	cbnz	r0, 827ae <xQueueGenericReceive+0x10a>
   82770:	47c0      	blx	r8
   82772:	6ba3      	ldr	r3, [r4, #56]	; 0x38
   82774:	9300      	str	r3, [sp, #0]
   82776:	47b0      	blx	r6
   82778:	9b00      	ldr	r3, [sp, #0]
   8277a:	b9a3      	cbnz	r3, 827a6 <xQueueGenericReceive+0x102>
   8277c:	6823      	ldr	r3, [r4, #0]
   8277e:	b923      	cbnz	r3, 8278a <xQueueGenericReceive+0xe6>
   82780:	47c0      	blx	r8
   82782:	6860      	ldr	r0, [r4, #4]
   82784:	4b18      	ldr	r3, [pc, #96]	; (827e8 <xQueueGenericReceive+0x144>)
   82786:	4798      	blx	r3
   82788:	47b0      	blx	r6
   8278a:	9901      	ldr	r1, [sp, #4]
   8278c:	f104 0024 	add.w	r0, r4, #36	; 0x24
   82790:	4b16      	ldr	r3, [pc, #88]	; (827ec <xQueueGenericReceive+0x148>)
   82792:	4798      	blx	r3
   82794:	4620      	mov	r0, r4
   82796:	47d8      	blx	fp
   82798:	47a8      	blx	r5
   8279a:	b908      	cbnz	r0, 827a0 <xQueueGenericReceive+0xfc>
   8279c:	4b0d      	ldr	r3, [pc, #52]	; (827d4 <xQueueGenericReceive+0x130>)
   8279e:	4798      	blx	r3
   827a0:	f04f 0b01 	mov.w	fp, #1
   827a4:	e794      	b.n	826d0 <xQueueGenericReceive+0x2c>
   827a6:	4620      	mov	r0, r4
   827a8:	47d8      	blx	fp
   827aa:	47a8      	blx	r5
   827ac:	e7f8      	b.n	827a0 <xQueueGenericReceive+0xfc>
   827ae:	4620      	mov	r0, r4
   827b0:	47d8      	blx	fp
   827b2:	47a8      	blx	r5
   827b4:	e7bd      	b.n	82732 <xQueueGenericReceive+0x8e>
   827b6:	4b02      	ldr	r3, [pc, #8]	; (827c0 <xQueueGenericReceive+0x11c>)
   827b8:	4798      	blx	r3
   827ba:	bf00      	nop
   827bc:	e7fd      	b.n	827ba <xQueueGenericReceive+0x116>
   827be:	bf00      	nop
   827c0:	000820ed 	.word	0x000820ed
   827c4:	0008211d 	.word	0x0008211d
   827c8:	00082385 	.word	0x00082385
   827cc:	00083069 	.word	0x00083069
   827d0:	00082f49 	.word	0x00082f49
   827d4:	000820dd 	.word	0x000820dd
   827d8:	00082fc1 	.word	0x00082fc1
   827dc:	00082af5 	.word	0x00082af5
   827e0:	00082c39 	.word	0x00082c39
   827e4:	00082fe9 	.word	0x00082fe9
   827e8:	00083091 	.word	0x00083091
   827ec:	00082ea1 	.word	0x00082ea1
   827f0:	000820fd 	.word	0x000820fd
   827f4:	000823b1 	.word	0x000823b1

000827f8 <vQueueWaitForMessageRestricted>:
   827f8:	b570      	push	{r4, r5, r6, lr}
   827fa:	4604      	mov	r4, r0
   827fc:	4b0d      	ldr	r3, [pc, #52]	; (82834 <vQueueWaitForMessageRestricted+0x3c>)
   827fe:	460d      	mov	r5, r1
   82800:	4798      	blx	r3
   82802:	6c63      	ldr	r3, [r4, #68]	; 0x44
   82804:	3301      	adds	r3, #1
   82806:	bf04      	itt	eq
   82808:	2300      	moveq	r3, #0
   8280a:	6463      	streq	r3, [r4, #68]	; 0x44
   8280c:	6ca3      	ldr	r3, [r4, #72]	; 0x48
   8280e:	3301      	adds	r3, #1
   82810:	bf04      	itt	eq
   82812:	2300      	moveq	r3, #0
   82814:	64a3      	streq	r3, [r4, #72]	; 0x48
   82816:	4b08      	ldr	r3, [pc, #32]	; (82838 <vQueueWaitForMessageRestricted+0x40>)
   82818:	4798      	blx	r3
   8281a:	6ba3      	ldr	r3, [r4, #56]	; 0x38
   8281c:	b923      	cbnz	r3, 82828 <vQueueWaitForMessageRestricted+0x30>
   8281e:	4629      	mov	r1, r5
   82820:	f104 0024 	add.w	r0, r4, #36	; 0x24
   82824:	4b05      	ldr	r3, [pc, #20]	; (8283c <vQueueWaitForMessageRestricted+0x44>)
   82826:	4798      	blx	r3
   82828:	4620      	mov	r0, r4
   8282a:	e8bd 4070 	ldmia.w	sp!, {r4, r5, r6, lr}
   8282e:	4b04      	ldr	r3, [pc, #16]	; (82840 <vQueueWaitForMessageRestricted+0x48>)
   82830:	4718      	bx	r3
   82832:	bf00      	nop
   82834:	000820fd 	.word	0x000820fd
   82838:	0008211d 	.word	0x0008211d
   8283c:	00082f01 	.word	0x00082f01
   82840:	000823b1 	.word	0x000823b1

00082844 <prvAddCurrentTaskToDelayedList>:
   82844:	b510      	push	{r4, lr}
   82846:	4b0d      	ldr	r3, [pc, #52]	; (8287c <prvAddCurrentTaskToDelayedList+0x38>)
   82848:	4604      	mov	r4, r0
   8284a:	681a      	ldr	r2, [r3, #0]
   8284c:	6050      	str	r0, [r2, #4]
   8284e:	4a0c      	ldr	r2, [pc, #48]	; (82880 <prvAddCurrentTaskToDelayedList+0x3c>)
   82850:	6812      	ldr	r2, [r2, #0]
   82852:	4290      	cmp	r0, r2
   82854:	4a0b      	ldr	r2, [pc, #44]	; (82884 <prvAddCurrentTaskToDelayedList+0x40>)
   82856:	d206      	bcs.n	82866 <prvAddCurrentTaskToDelayedList+0x22>
   82858:	e8bd 4010 	ldmia.w	sp!, {r4, lr}
   8285c:	490a      	ldr	r1, [pc, #40]	; (82888 <prvAddCurrentTaskToDelayedList+0x44>)
   8285e:	6808      	ldr	r0, [r1, #0]
   82860:	6819      	ldr	r1, [r3, #0]
   82862:	3104      	adds	r1, #4
   82864:	4710      	bx	r2
   82866:	4909      	ldr	r1, [pc, #36]	; (8288c <prvAddCurrentTaskToDelayedList+0x48>)
   82868:	6808      	ldr	r0, [r1, #0]
   8286a:	6819      	ldr	r1, [r3, #0]
   8286c:	3104      	adds	r1, #4
   8286e:	4790      	blx	r2
   82870:	4b07      	ldr	r3, [pc, #28]	; (82890 <prvAddCurrentTaskToDelayedList+0x4c>)
   82872:	681a      	ldr	r2, [r3, #0]
   82874:	4294      	cmp	r4, r2
   82876:	bf38      	it	cc
   82878:	601c      	strcc	r4, [r3, #0]
   8287a:	bd10      	pop	{r4, pc}
   8287c:	2007ac38 	.word	0x2007ac38
   82880:	2007ad34 	.word	0x2007ad34
   82884:	0008203d 	.word	0x0008203d
   82888:	2007ac40 	.word	0x2007ac40
   8288c:	2007ac3c 	.word	0x2007ac3c
   82890:	20070168 	.word	0x20070168

00082894 <xTaskGenericCreate>:
   82894:	e92d 4ff8 	stmdb	sp!, {r3, r4, r5, r6, r7, r8, r9, sl, fp, lr}
   82898:	9f0a      	ldr	r7, [sp, #40]	; 0x28
   8289a:	468a      	mov	sl, r1
   8289c:	4615      	mov	r5, r2
   8289e:	4699      	mov	r9, r3
   828a0:	f8dd b030 	ldr.w	fp, [sp, #48]	; 0x30
   828a4:	4680      	mov	r8, r0
   828a6:	b918      	cbnz	r0, 828b0 <xTaskGenericCreate+0x1c>
   828a8:	4b58      	ldr	r3, [pc, #352]	; (82a0c <xTaskGenericCreate+0x178>)
   828aa:	4798      	blx	r3
   828ac:	bf00      	nop
   828ae:	e7fd      	b.n	828ac <xTaskGenericCreate+0x18>
   828b0:	2f04      	cmp	r7, #4
   828b2:	d903      	bls.n	828bc <xTaskGenericCreate+0x28>
   828b4:	4b55      	ldr	r3, [pc, #340]	; (82a0c <xTaskGenericCreate+0x178>)
   828b6:	4798      	blx	r3
   828b8:	bf00      	nop
   828ba:	e7fd      	b.n	828b8 <xTaskGenericCreate+0x24>
   828bc:	204c      	movs	r0, #76	; 0x4c
   828be:	4e54      	ldr	r6, [pc, #336]	; (82a10 <xTaskGenericCreate+0x17c>)
   828c0:	47b0      	blx	r6
   828c2:	4604      	mov	r4, r0
   828c4:	b168      	cbz	r0, 828e2 <xTaskGenericCreate+0x4e>
   828c6:	f1bb 0f00 	cmp.w	fp, #0
   828ca:	d102      	bne.n	828d2 <xTaskGenericCreate+0x3e>
   828cc:	00a8      	lsls	r0, r5, #2
   828ce:	47b0      	blx	r6
   828d0:	4683      	mov	fp, r0
   828d2:	f8c4 b030 	str.w	fp, [r4, #48]	; 0x30
   828d6:	f1bb 0f00 	cmp.w	fp, #0
   828da:	d106      	bne.n	828ea <xTaskGenericCreate+0x56>
   828dc:	4620      	mov	r0, r4
   828de:	4b4d      	ldr	r3, [pc, #308]	; (82a14 <xTaskGenericCreate+0x180>)
   828e0:	4798      	blx	r3
   828e2:	f04f 30ff 	mov.w	r0, #4294967295
   828e6:	e8bd 8ff8 	ldmia.w	sp!, {r3, r4, r5, r6, r7, r8, r9, sl, fp, pc}
   828ea:	00ad      	lsls	r5, r5, #2
   828ec:	462a      	mov	r2, r5
   828ee:	21a5      	movs	r1, #165	; 0xa5
   828f0:	4658      	mov	r0, fp
   828f2:	4b49      	ldr	r3, [pc, #292]	; (82a18 <xTaskGenericCreate+0x184>)
   828f4:	4798      	blx	r3
   828f6:	6b20      	ldr	r0, [r4, #48]	; 0x30
   828f8:	3d04      	subs	r5, #4
   828fa:	4651      	mov	r1, sl
   828fc:	220a      	movs	r2, #10
   828fe:	4405      	add	r5, r0
   82900:	4b46      	ldr	r3, [pc, #280]	; (82a1c <xTaskGenericCreate+0x188>)
   82902:	f104 0034 	add.w	r0, r4, #52	; 0x34
   82906:	4798      	blx	r3
   82908:	2300      	movs	r3, #0
   8290a:	f104 0a04 	add.w	sl, r4, #4
   8290e:	f884 303d 	strb.w	r3, [r4, #61]	; 0x3d
   82912:	4650      	mov	r0, sl
   82914:	f8df b15c 	ldr.w	fp, [pc, #348]	; 82a74 <xTaskGenericCreate+0x1e0>
   82918:	62e7      	str	r7, [r4, #44]	; 0x2c
   8291a:	64a7      	str	r7, [r4, #72]	; 0x48
   8291c:	47d8      	blx	fp
   8291e:	f104 0018 	add.w	r0, r4, #24
   82922:	47d8      	blx	fp
   82924:	f025 0507 	bic.w	r5, r5, #7
   82928:	f1c7 0305 	rsb	r3, r7, #5
   8292c:	61a3      	str	r3, [r4, #24]
   8292e:	6124      	str	r4, [r4, #16]
   82930:	4b3b      	ldr	r3, [pc, #236]	; (82a20 <xTaskGenericCreate+0x18c>)
   82932:	6264      	str	r4, [r4, #36]	; 0x24
   82934:	464a      	mov	r2, r9
   82936:	4641      	mov	r1, r8
   82938:	4628      	mov	r0, r5
   8293a:	4798      	blx	r3
   8293c:	0743      	lsls	r3, r0, #29
   8293e:	6020      	str	r0, [r4, #0]
   82940:	d003      	beq.n	8294a <xTaskGenericCreate+0xb6>
   82942:	4b32      	ldr	r3, [pc, #200]	; (82a0c <xTaskGenericCreate+0x178>)
   82944:	4798      	blx	r3
   82946:	bf00      	nop
   82948:	e7fd      	b.n	82946 <xTaskGenericCreate+0xb2>
   8294a:	9b0b      	ldr	r3, [sp, #44]	; 0x2c
   8294c:	b103      	cbz	r3, 82950 <xTaskGenericCreate+0xbc>
   8294e:	601c      	str	r4, [r3, #0]
   82950:	4b34      	ldr	r3, [pc, #208]	; (82a24 <xTaskGenericCreate+0x190>)
   82952:	4798      	blx	r3
   82954:	4b34      	ldr	r3, [pc, #208]	; (82a28 <xTaskGenericCreate+0x194>)
   82956:	4e35      	ldr	r6, [pc, #212]	; (82a2c <xTaskGenericCreate+0x198>)
   82958:	681a      	ldr	r2, [r3, #0]
   8295a:	f8df 811c 	ldr.w	r8, [pc, #284]	; 82a78 <xTaskGenericCreate+0x1e4>
   8295e:	3201      	adds	r2, #1
   82960:	601a      	str	r2, [r3, #0]
   82962:	6832      	ldr	r2, [r6, #0]
   82964:	2a00      	cmp	r2, #0
   82966:	d147      	bne.n	829f8 <xTaskGenericCreate+0x164>
   82968:	6034      	str	r4, [r6, #0]
   8296a:	681b      	ldr	r3, [r3, #0]
   8296c:	2b01      	cmp	r3, #1
   8296e:	d11e      	bne.n	829ae <xTaskGenericCreate+0x11a>
   82970:	4d2f      	ldr	r5, [pc, #188]	; (82a30 <xTaskGenericCreate+0x19c>)
   82972:	4830      	ldr	r0, [pc, #192]	; (82a34 <xTaskGenericCreate+0x1a0>)
   82974:	47a8      	blx	r5
   82976:	4830      	ldr	r0, [pc, #192]	; (82a38 <xTaskGenericCreate+0x1a4>)
   82978:	47a8      	blx	r5
   8297a:	4830      	ldr	r0, [pc, #192]	; (82a3c <xTaskGenericCreate+0x1a8>)
   8297c:	47a8      	blx	r5
   8297e:	f8df b0fc 	ldr.w	fp, [pc, #252]	; 82a7c <xTaskGenericCreate+0x1e8>
   82982:	482f      	ldr	r0, [pc, #188]	; (82a40 <xTaskGenericCreate+0x1ac>)
   82984:	47a8      	blx	r5
   82986:	f8df 90f8 	ldr.w	r9, [pc, #248]	; 82a80 <xTaskGenericCreate+0x1ec>
   8298a:	482e      	ldr	r0, [pc, #184]	; (82a44 <xTaskGenericCreate+0x1b0>)
   8298c:	47a8      	blx	r5
   8298e:	4658      	mov	r0, fp
   82990:	47a8      	blx	r5
   82992:	4648      	mov	r0, r9
   82994:	47a8      	blx	r5
   82996:	482c      	ldr	r0, [pc, #176]	; (82a48 <xTaskGenericCreate+0x1b4>)
   82998:	47a8      	blx	r5
   8299a:	482c      	ldr	r0, [pc, #176]	; (82a4c <xTaskGenericCreate+0x1b8>)
   8299c:	47a8      	blx	r5
   8299e:	482c      	ldr	r0, [pc, #176]	; (82a50 <xTaskGenericCreate+0x1bc>)
   829a0:	47a8      	blx	r5
   829a2:	4b2c      	ldr	r3, [pc, #176]	; (82a54 <xTaskGenericCreate+0x1c0>)
   829a4:	f8c3 b000 	str.w	fp, [r3]
   829a8:	4b2b      	ldr	r3, [pc, #172]	; (82a58 <xTaskGenericCreate+0x1c4>)
   829aa:	f8c3 9000 	str.w	r9, [r3]
   829ae:	2014      	movs	r0, #20
   829b0:	4a2a      	ldr	r2, [pc, #168]	; (82a5c <xTaskGenericCreate+0x1c8>)
   829b2:	6ae3      	ldr	r3, [r4, #44]	; 0x2c
   829b4:	6811      	ldr	r1, [r2, #0]
   829b6:	428b      	cmp	r3, r1
   829b8:	4929      	ldr	r1, [pc, #164]	; (82a60 <xTaskGenericCreate+0x1cc>)
   829ba:	bf88      	it	hi
   829bc:	6013      	strhi	r3, [r2, #0]
   829be:	680a      	ldr	r2, [r1, #0]
   829c0:	6422      	str	r2, [r4, #64]	; 0x40
   829c2:	3201      	adds	r2, #1
   829c4:	600a      	str	r2, [r1, #0]
   829c6:	4a27      	ldr	r2, [pc, #156]	; (82a64 <xTaskGenericCreate+0x1d0>)
   829c8:	6811      	ldr	r1, [r2, #0]
   829ca:	428b      	cmp	r3, r1
   829cc:	bf88      	it	hi
   829ce:	6013      	strhi	r3, [r2, #0]
   829d0:	4a18      	ldr	r2, [pc, #96]	; (82a34 <xTaskGenericCreate+0x1a0>)
   829d2:	4651      	mov	r1, sl
   829d4:	fb00 2003 	mla	r0, r0, r3, r2
   829d8:	4b23      	ldr	r3, [pc, #140]	; (82a68 <xTaskGenericCreate+0x1d4>)
   829da:	4798      	blx	r3
   829dc:	4b23      	ldr	r3, [pc, #140]	; (82a6c <xTaskGenericCreate+0x1d8>)
   829de:	4798      	blx	r3
   829e0:	f8d8 3000 	ldr.w	r3, [r8]
   829e4:	b12b      	cbz	r3, 829f2 <xTaskGenericCreate+0x15e>
   829e6:	6833      	ldr	r3, [r6, #0]
   829e8:	6adb      	ldr	r3, [r3, #44]	; 0x2c
   829ea:	429f      	cmp	r7, r3
   829ec:	d901      	bls.n	829f2 <xTaskGenericCreate+0x15e>
   829ee:	4b20      	ldr	r3, [pc, #128]	; (82a70 <xTaskGenericCreate+0x1dc>)
   829f0:	4798      	blx	r3
   829f2:	2001      	movs	r0, #1
   829f4:	e8bd 8ff8 	ldmia.w	sp!, {r3, r4, r5, r6, r7, r8, r9, sl, fp, pc}
   829f8:	f8d8 3000 	ldr.w	r3, [r8]
   829fc:	2b00      	cmp	r3, #0
   829fe:	d1d6      	bne.n	829ae <xTaskGenericCreate+0x11a>
   82a00:	6833      	ldr	r3, [r6, #0]
   82a02:	6adb      	ldr	r3, [r3, #44]	; 0x2c
   82a04:	429f      	cmp	r7, r3
   82a06:	bf28      	it	cs
   82a08:	6034      	strcs	r4, [r6, #0]
   82a0a:	e7d0      	b.n	829ae <xTaskGenericCreate+0x11a>
   82a0c:	000820ed 	.word	0x000820ed
   82a10:	00082235 	.word	0x00082235
   82a14:	000822ed 	.word	0x000822ed
   82a18:	000851f1 	.word	0x000851f1
   82a1c:	00085489 	.word	0x00085489
   82a20:	000820a5 	.word	0x000820a5
   82a24:	000820fd 	.word	0x000820fd
   82a28:	2007aca8 	.word	0x2007aca8
   82a2c:	2007ac38 	.word	0x2007ac38
   82a30:	00082005 	.word	0x00082005
   82a34:	2007ac44 	.word	0x2007ac44
   82a38:	2007ac58 	.word	0x2007ac58
   82a3c:	2007ac6c 	.word	0x2007ac6c
   82a40:	2007ac80 	.word	0x2007ac80
   82a44:	2007ac94 	.word	0x2007ac94
   82a48:	2007acf4 	.word	0x2007acf4
   82a4c:	2007ad20 	.word	0x2007ad20
   82a50:	2007ad0c 	.word	0x2007ad0c
   82a54:	2007ac3c 	.word	0x2007ac3c
   82a58:	2007ac40 	.word	0x2007ac40
   82a5c:	2007acc0 	.word	0x2007acc0
   82a60:	2007acb4 	.word	0x2007acb4
   82a64:	2007acbc 	.word	0x2007acbc
   82a68:	00082021 	.word	0x00082021
   82a6c:	0008211d 	.word	0x0008211d
   82a70:	000820dd 	.word	0x000820dd
   82a74:	0008201b 	.word	0x0008201b
   82a78:	2007ad08 	.word	0x2007ad08
   82a7c:	2007acc4 	.word	0x2007acc4
   82a80:	2007acd8 	.word	0x2007acd8

00082a84 <vTaskStartScheduler>:
   82a84:	b530      	push	{r4, r5, lr}
   82a86:	2400      	movs	r4, #0
   82a88:	b085      	sub	sp, #20
   82a8a:	4d12      	ldr	r5, [pc, #72]	; (82ad4 <vTaskStartScheduler+0x50>)
   82a8c:	9403      	str	r4, [sp, #12]
   82a8e:	9402      	str	r4, [sp, #8]
   82a90:	9401      	str	r4, [sp, #4]
   82a92:	9400      	str	r4, [sp, #0]
   82a94:	4623      	mov	r3, r4
   82a96:	2282      	movs	r2, #130	; 0x82
   82a98:	490f      	ldr	r1, [pc, #60]	; (82ad8 <vTaskStartScheduler+0x54>)
   82a9a:	4810      	ldr	r0, [pc, #64]	; (82adc <vTaskStartScheduler+0x58>)
   82a9c:	47a8      	blx	r5
   82a9e:	2801      	cmp	r0, #1
   82aa0:	4605      	mov	r5, r0
   82aa2:	d10f      	bne.n	82ac4 <vTaskStartScheduler+0x40>
   82aa4:	4b0e      	ldr	r3, [pc, #56]	; (82ae0 <vTaskStartScheduler+0x5c>)
   82aa6:	4798      	blx	r3
   82aa8:	2801      	cmp	r0, #1
   82aaa:	4605      	mov	r5, r0
   82aac:	d10a      	bne.n	82ac4 <vTaskStartScheduler+0x40>
   82aae:	4b0d      	ldr	r3, [pc, #52]	; (82ae4 <vTaskStartScheduler+0x60>)
   82ab0:	4798      	blx	r3
   82ab2:	4b0d      	ldr	r3, [pc, #52]	; (82ae8 <vTaskStartScheduler+0x64>)
   82ab4:	601d      	str	r5, [r3, #0]
   82ab6:	4b0d      	ldr	r3, [pc, #52]	; (82aec <vTaskStartScheduler+0x68>)
   82ab8:	601c      	str	r4, [r3, #0]
   82aba:	4b0d      	ldr	r3, [pc, #52]	; (82af0 <vTaskStartScheduler+0x6c>)
   82abc:	b005      	add	sp, #20
   82abe:	e8bd 4030 	ldmia.w	sp!, {r4, r5, lr}
   82ac2:	4718      	bx	r3
   82ac4:	b91d      	cbnz	r5, 82ace <vTaskStartScheduler+0x4a>
   82ac6:	4b07      	ldr	r3, [pc, #28]	; (82ae4 <vTaskStartScheduler+0x60>)
   82ac8:	4798      	blx	r3
   82aca:	bf00      	nop
   82acc:	e7fd      	b.n	82aca <vTaskStartScheduler+0x46>
   82ace:	b005      	add	sp, #20
   82ad0:	bd30      	pop	{r4, r5, pc}
   82ad2:	bf00      	nop
   82ad4:	00082895 	.word	0x00082895
   82ad8:	000884ed 	.word	0x000884ed
   82adc:	00082dad 	.word	0x00082dad
   82ae0:	000831f5 	.word	0x000831f5
   82ae4:	000820ed 	.word	0x000820ed
   82ae8:	2007ad08 	.word	0x2007ad08
   82aec:	2007ad34 	.word	0x2007ad34
   82af0:	000821b5 	.word	0x000821b5

00082af4 <vTaskSuspendAll>:
   82af4:	4a02      	ldr	r2, [pc, #8]	; (82b00 <vTaskSuspendAll+0xc>)
   82af6:	6813      	ldr	r3, [r2, #0]
   82af8:	3301      	adds	r3, #1
   82afa:	6013      	str	r3, [r2, #0]
   82afc:	4770      	bx	lr
   82afe:	bf00      	nop
   82b00:	2007acb0 	.word	0x2007acb0

00082b04 <xTaskGetTickCount>:
   82b04:	b510      	push	{r4, lr}
   82b06:	4b04      	ldr	r3, [pc, #16]	; (82b18 <xTaskGetTickCount+0x14>)
   82b08:	4798      	blx	r3
   82b0a:	4b04      	ldr	r3, [pc, #16]	; (82b1c <xTaskGetTickCount+0x18>)
   82b0c:	681c      	ldr	r4, [r3, #0]
   82b0e:	4b04      	ldr	r3, [pc, #16]	; (82b20 <xTaskGetTickCount+0x1c>)
   82b10:	4798      	blx	r3
   82b12:	4620      	mov	r0, r4
   82b14:	bd10      	pop	{r4, pc}
   82b16:	bf00      	nop
   82b18:	000820fd 	.word	0x000820fd
   82b1c:	2007ad34 	.word	0x2007ad34
   82b20:	0008211d 	.word	0x0008211d

00082b24 <xTaskGetTickCountFromISR>:
   82b24:	b510      	push	{r4, lr}
   82b26:	4b04      	ldr	r3, [pc, #16]	; (82b38 <xTaskGetTickCountFromISR+0x14>)
   82b28:	4798      	blx	r3
   82b2a:	4b04      	ldr	r3, [pc, #16]	; (82b3c <xTaskGetTickCountFromISR+0x18>)
   82b2c:	681c      	ldr	r4, [r3, #0]
   82b2e:	4b04      	ldr	r3, [pc, #16]	; (82b40 <xTaskGetTickCountFromISR+0x1c>)
   82b30:	4798      	blx	r3
   82b32:	4620      	mov	r0, r4
   82b34:	bd10      	pop	{r4, pc}
   82b36:	bf00      	nop
   82b38:	000820ed 	.word	0x000820ed
   82b3c:	2007ad34 	.word	0x2007ad34
   82b40:	00082115 	.word	0x00082115

00082b44 <vTaskIncrementTick>:
   82b44:	e92d 47f0 	stmdb	sp!, {r4, r5, r6, r7, r8, r9, sl, lr}
   82b48:	4b2f      	ldr	r3, [pc, #188]	; (82c08 <vTaskIncrementTick+0xc4>)
   82b4a:	681b      	ldr	r3, [r3, #0]
   82b4c:	2b00      	cmp	r3, #0
   82b4e:	d155      	bne.n	82bfc <vTaskIncrementTick+0xb8>
   82b50:	4e2e      	ldr	r6, [pc, #184]	; (82c0c <vTaskIncrementTick+0xc8>)
   82b52:	6832      	ldr	r2, [r6, #0]
   82b54:	3201      	adds	r2, #1
   82b56:	6032      	str	r2, [r6, #0]
   82b58:	6832      	ldr	r2, [r6, #0]
   82b5a:	b9ba      	cbnz	r2, 82b8c <vTaskIncrementTick+0x48>
   82b5c:	4b2c      	ldr	r3, [pc, #176]	; (82c10 <vTaskIncrementTick+0xcc>)
   82b5e:	681a      	ldr	r2, [r3, #0]
   82b60:	6812      	ldr	r2, [r2, #0]
   82b62:	b11a      	cbz	r2, 82b6c <vTaskIncrementTick+0x28>
   82b64:	4b2b      	ldr	r3, [pc, #172]	; (82c14 <vTaskIncrementTick+0xd0>)
   82b66:	4798      	blx	r3
   82b68:	bf00      	nop
   82b6a:	e7fd      	b.n	82b68 <vTaskIncrementTick+0x24>
   82b6c:	4a2a      	ldr	r2, [pc, #168]	; (82c18 <vTaskIncrementTick+0xd4>)
   82b6e:	6819      	ldr	r1, [r3, #0]
   82b70:	6810      	ldr	r0, [r2, #0]
   82b72:	6018      	str	r0, [r3, #0]
   82b74:	6011      	str	r1, [r2, #0]
   82b76:	4929      	ldr	r1, [pc, #164]	; (82c1c <vTaskIncrementTick+0xd8>)
   82b78:	680a      	ldr	r2, [r1, #0]
   82b7a:	3201      	adds	r2, #1
   82b7c:	600a      	str	r2, [r1, #0]
   82b7e:	681a      	ldr	r2, [r3, #0]
   82b80:	6811      	ldr	r1, [r2, #0]
   82b82:	4a27      	ldr	r2, [pc, #156]	; (82c20 <vTaskIncrementTick+0xdc>)
   82b84:	b9b1      	cbnz	r1, 82bb4 <vTaskIncrementTick+0x70>
   82b86:	f04f 33ff 	mov.w	r3, #4294967295
   82b8a:	6013      	str	r3, [r2, #0]
   82b8c:	4c24      	ldr	r4, [pc, #144]	; (82c20 <vTaskIncrementTick+0xdc>)
   82b8e:	6832      	ldr	r2, [r6, #0]
   82b90:	6823      	ldr	r3, [r4, #0]
   82b92:	429a      	cmp	r2, r3
   82b94:	d336      	bcc.n	82c04 <vTaskIncrementTick+0xc0>
   82b96:	f8df 8078 	ldr.w	r8, [pc, #120]	; 82c10 <vTaskIncrementTick+0xcc>
   82b9a:	f8df 9094 	ldr.w	r9, [pc, #148]	; 82c30 <vTaskIncrementTick+0xec>
   82b9e:	f8df a094 	ldr.w	sl, [pc, #148]	; 82c34 <vTaskIncrementTick+0xf0>
   82ba2:	f8d8 3000 	ldr.w	r3, [r8]
   82ba6:	681b      	ldr	r3, [r3, #0]
   82ba8:	b94b      	cbnz	r3, 82bbe <vTaskIncrementTick+0x7a>
   82baa:	f04f 33ff 	mov.w	r3, #4294967295
   82bae:	6023      	str	r3, [r4, #0]
   82bb0:	e8bd 87f0 	ldmia.w	sp!, {r4, r5, r6, r7, r8, r9, sl, pc}
   82bb4:	681b      	ldr	r3, [r3, #0]
   82bb6:	68db      	ldr	r3, [r3, #12]
   82bb8:	68db      	ldr	r3, [r3, #12]
   82bba:	685b      	ldr	r3, [r3, #4]
   82bbc:	e7e5      	b.n	82b8a <vTaskIncrementTick+0x46>
   82bbe:	f8d8 3000 	ldr.w	r3, [r8]
   82bc2:	68db      	ldr	r3, [r3, #12]
   82bc4:	68dd      	ldr	r5, [r3, #12]
   82bc6:	6832      	ldr	r2, [r6, #0]
   82bc8:	686b      	ldr	r3, [r5, #4]
   82bca:	4293      	cmp	r3, r2
   82bcc:	d8ef      	bhi.n	82bae <vTaskIncrementTick+0x6a>
   82bce:	1d2f      	adds	r7, r5, #4
   82bd0:	4638      	mov	r0, r7
   82bd2:	47c8      	blx	r9
   82bd4:	6aab      	ldr	r3, [r5, #40]	; 0x28
   82bd6:	b113      	cbz	r3, 82bde <vTaskIncrementTick+0x9a>
   82bd8:	f105 0018 	add.w	r0, r5, #24
   82bdc:	47c8      	blx	r9
   82bde:	2014      	movs	r0, #20
   82be0:	6aeb      	ldr	r3, [r5, #44]	; 0x2c
   82be2:	f8da 2000 	ldr.w	r2, [sl]
   82be6:	4639      	mov	r1, r7
   82be8:	4293      	cmp	r3, r2
   82bea:	4a0e      	ldr	r2, [pc, #56]	; (82c24 <vTaskIncrementTick+0xe0>)
   82bec:	bf88      	it	hi
   82bee:	f8ca 3000 	strhi.w	r3, [sl]
   82bf2:	fb00 2003 	mla	r0, r0, r3, r2
   82bf6:	4b0c      	ldr	r3, [pc, #48]	; (82c28 <vTaskIncrementTick+0xe4>)
   82bf8:	4798      	blx	r3
   82bfa:	e7d2      	b.n	82ba2 <vTaskIncrementTick+0x5e>
   82bfc:	4a0b      	ldr	r2, [pc, #44]	; (82c2c <vTaskIncrementTick+0xe8>)
   82bfe:	6813      	ldr	r3, [r2, #0]
   82c00:	3301      	adds	r3, #1
   82c02:	6013      	str	r3, [r2, #0]
   82c04:	e8bd 87f0 	ldmia.w	sp!, {r4, r5, r6, r7, r8, r9, sl, pc}
   82c08:	2007acb0 	.word	0x2007acb0
   82c0c:	2007ad34 	.word	0x2007ad34
   82c10:	2007ac3c 	.word	0x2007ac3c
   82c14:	000820ed 	.word	0x000820ed
   82c18:	2007ac40 	.word	0x2007ac40
   82c1c:	2007acf0 	.word	0x2007acf0
   82c20:	20070168 	.word	0x20070168
   82c24:	2007ac44 	.word	0x2007ac44
   82c28:	00082021 	.word	0x00082021
   82c2c:	2007acac 	.word	0x2007acac
   82c30:	0008206b 	.word	0x0008206b
   82c34:	2007acbc 	.word	0x2007acbc

00082c38 <xTaskResumeAll>:
   82c38:	e92d 43f8 	stmdb	sp!, {r3, r4, r5, r6, r7, r8, r9, lr}
   82c3c:	4c2b      	ldr	r4, [pc, #172]	; (82cec <xTaskResumeAll+0xb4>)
   82c3e:	6823      	ldr	r3, [r4, #0]
   82c40:	b91b      	cbnz	r3, 82c4a <xTaskResumeAll+0x12>
   82c42:	4b2b      	ldr	r3, [pc, #172]	; (82cf0 <xTaskResumeAll+0xb8>)
   82c44:	4798      	blx	r3
   82c46:	bf00      	nop
   82c48:	e7fd      	b.n	82c46 <xTaskResumeAll+0xe>
   82c4a:	4b2a      	ldr	r3, [pc, #168]	; (82cf4 <xTaskResumeAll+0xbc>)
   82c4c:	4798      	blx	r3
   82c4e:	6823      	ldr	r3, [r4, #0]
   82c50:	3b01      	subs	r3, #1
   82c52:	6023      	str	r3, [r4, #0]
   82c54:	6824      	ldr	r4, [r4, #0]
   82c56:	b12c      	cbz	r4, 82c64 <xTaskResumeAll+0x2c>
   82c58:	2400      	movs	r4, #0
   82c5a:	4b27      	ldr	r3, [pc, #156]	; (82cf8 <xTaskResumeAll+0xc0>)
   82c5c:	4798      	blx	r3
   82c5e:	4620      	mov	r0, r4
   82c60:	e8bd 83f8 	ldmia.w	sp!, {r3, r4, r5, r6, r7, r8, r9, pc}
   82c64:	4b25      	ldr	r3, [pc, #148]	; (82cfc <xTaskResumeAll+0xc4>)
   82c66:	681b      	ldr	r3, [r3, #0]
   82c68:	2b00      	cmp	r3, #0
   82c6a:	d0f5      	beq.n	82c58 <xTaskResumeAll+0x20>
   82c6c:	4e24      	ldr	r6, [pc, #144]	; (82d00 <xTaskResumeAll+0xc8>)
   82c6e:	4f25      	ldr	r7, [pc, #148]	; (82d04 <xTaskResumeAll+0xcc>)
   82c70:	f8df 80b0 	ldr.w	r8, [pc, #176]	; 82d24 <xTaskResumeAll+0xec>
   82c74:	6833      	ldr	r3, [r6, #0]
   82c76:	b953      	cbnz	r3, 82c8e <xTaskResumeAll+0x56>
   82c78:	4d23      	ldr	r5, [pc, #140]	; (82d08 <xTaskResumeAll+0xd0>)
   82c7a:	682b      	ldr	r3, [r5, #0]
   82c7c:	2b00      	cmp	r3, #0
   82c7e:	d133      	bne.n	82ce8 <xTaskResumeAll+0xb0>
   82c80:	2c01      	cmp	r4, #1
   82c82:	d02a      	beq.n	82cda <xTaskResumeAll+0xa2>
   82c84:	4b21      	ldr	r3, [pc, #132]	; (82d0c <xTaskResumeAll+0xd4>)
   82c86:	681b      	ldr	r3, [r3, #0]
   82c88:	2b01      	cmp	r3, #1
   82c8a:	d1e5      	bne.n	82c58 <xTaskResumeAll+0x20>
   82c8c:	e025      	b.n	82cda <xTaskResumeAll+0xa2>
   82c8e:	68f3      	ldr	r3, [r6, #12]
   82c90:	68dd      	ldr	r5, [r3, #12]
   82c92:	f105 0904 	add.w	r9, r5, #4
   82c96:	f105 0018 	add.w	r0, r5, #24
   82c9a:	47b8      	blx	r7
   82c9c:	4648      	mov	r0, r9
   82c9e:	47b8      	blx	r7
   82ca0:	2014      	movs	r0, #20
   82ca2:	6aeb      	ldr	r3, [r5, #44]	; 0x2c
   82ca4:	f8d8 2000 	ldr.w	r2, [r8]
   82ca8:	4649      	mov	r1, r9
   82caa:	4293      	cmp	r3, r2
   82cac:	4a18      	ldr	r2, [pc, #96]	; (82d10 <xTaskResumeAll+0xd8>)
   82cae:	bf88      	it	hi
   82cb0:	f8c8 3000 	strhi.w	r3, [r8]
   82cb4:	fb00 2003 	mla	r0, r0, r3, r2
   82cb8:	4b16      	ldr	r3, [pc, #88]	; (82d14 <xTaskResumeAll+0xdc>)
   82cba:	4798      	blx	r3
   82cbc:	4b16      	ldr	r3, [pc, #88]	; (82d18 <xTaskResumeAll+0xe0>)
   82cbe:	6aea      	ldr	r2, [r5, #44]	; 0x2c
   82cc0:	681b      	ldr	r3, [r3, #0]
   82cc2:	6adb      	ldr	r3, [r3, #44]	; 0x2c
   82cc4:	429a      	cmp	r2, r3
   82cc6:	bf28      	it	cs
   82cc8:	2401      	movcs	r4, #1
   82cca:	e7d3      	b.n	82c74 <xTaskResumeAll+0x3c>
   82ccc:	47a0      	blx	r4
   82cce:	682b      	ldr	r3, [r5, #0]
   82cd0:	3b01      	subs	r3, #1
   82cd2:	602b      	str	r3, [r5, #0]
   82cd4:	682b      	ldr	r3, [r5, #0]
   82cd6:	2b00      	cmp	r3, #0
   82cd8:	d1f8      	bne.n	82ccc <xTaskResumeAll+0x94>
   82cda:	2200      	movs	r2, #0
   82cdc:	4b0b      	ldr	r3, [pc, #44]	; (82d0c <xTaskResumeAll+0xd4>)
   82cde:	2401      	movs	r4, #1
   82ce0:	601a      	str	r2, [r3, #0]
   82ce2:	4b0e      	ldr	r3, [pc, #56]	; (82d1c <xTaskResumeAll+0xe4>)
   82ce4:	4798      	blx	r3
   82ce6:	e7b8      	b.n	82c5a <xTaskResumeAll+0x22>
   82ce8:	4c0d      	ldr	r4, [pc, #52]	; (82d20 <xTaskResumeAll+0xe8>)
   82cea:	e7f3      	b.n	82cd4 <xTaskResumeAll+0x9c>
   82cec:	2007acb0 	.word	0x2007acb0
   82cf0:	000820ed 	.word	0x000820ed
   82cf4:	000820fd 	.word	0x000820fd
   82cf8:	0008211d 	.word	0x0008211d
   82cfc:	2007aca8 	.word	0x2007aca8
   82d00:	2007acf4 	.word	0x2007acf4
   82d04:	0008206b 	.word	0x0008206b
   82d08:	2007acac 	.word	0x2007acac
   82d0c:	2007acec 	.word	0x2007acec
   82d10:	2007ac44 	.word	0x2007ac44
   82d14:	00082021 	.word	0x00082021
   82d18:	2007ac38 	.word	0x2007ac38
   82d1c:	000820dd 	.word	0x000820dd
   82d20:	00082b45 	.word	0x00082b45
   82d24:	2007acbc 	.word	0x2007acbc

00082d28 <vTaskDelayUntil>:
   82d28:	b510      	push	{r4, lr}
   82d2a:	b918      	cbnz	r0, 82d34 <vTaskDelayUntil+0xc>
   82d2c:	4b17      	ldr	r3, [pc, #92]	; (82d8c <vTaskDelayUntil+0x64>)
   82d2e:	4798      	blx	r3
   82d30:	bf00      	nop
   82d32:	e7fd      	b.n	82d30 <vTaskDelayUntil+0x8>
   82d34:	b919      	cbnz	r1, 82d3e <vTaskDelayUntil+0x16>
   82d36:	4b15      	ldr	r3, [pc, #84]	; (82d8c <vTaskDelayUntil+0x64>)
   82d38:	4798      	blx	r3
   82d3a:	bf00      	nop
   82d3c:	e7fd      	b.n	82d3a <vTaskDelayUntil+0x12>
   82d3e:	4b14      	ldr	r3, [pc, #80]	; (82d90 <vTaskDelayUntil+0x68>)
   82d40:	4798      	blx	r3
   82d42:	4a14      	ldr	r2, [pc, #80]	; (82d94 <vTaskDelayUntil+0x6c>)
   82d44:	6803      	ldr	r3, [r0, #0]
   82d46:	18cc      	adds	r4, r1, r3
   82d48:	6811      	ldr	r1, [r2, #0]
   82d4a:	428b      	cmp	r3, r1
   82d4c:	d917      	bls.n	82d7e <vTaskDelayUntil+0x56>
   82d4e:	42a3      	cmp	r3, r4
   82d50:	d919      	bls.n	82d86 <vTaskDelayUntil+0x5e>
   82d52:	6813      	ldr	r3, [r2, #0]
   82d54:	429c      	cmp	r4, r3
   82d56:	bf94      	ite	ls
   82d58:	2300      	movls	r3, #0
   82d5a:	2301      	movhi	r3, #1
   82d5c:	6004      	str	r4, [r0, #0]
   82d5e:	b13b      	cbz	r3, 82d70 <vTaskDelayUntil+0x48>
   82d60:	4b0d      	ldr	r3, [pc, #52]	; (82d98 <vTaskDelayUntil+0x70>)
   82d62:	6818      	ldr	r0, [r3, #0]
   82d64:	4b0d      	ldr	r3, [pc, #52]	; (82d9c <vTaskDelayUntil+0x74>)
   82d66:	3004      	adds	r0, #4
   82d68:	4798      	blx	r3
   82d6a:	4620      	mov	r0, r4
   82d6c:	4b0c      	ldr	r3, [pc, #48]	; (82da0 <vTaskDelayUntil+0x78>)
   82d6e:	4798      	blx	r3
   82d70:	4b0c      	ldr	r3, [pc, #48]	; (82da4 <vTaskDelayUntil+0x7c>)
   82d72:	4798      	blx	r3
   82d74:	b948      	cbnz	r0, 82d8a <vTaskDelayUntil+0x62>
   82d76:	e8bd 4010 	ldmia.w	sp!, {r4, lr}
   82d7a:	4b0b      	ldr	r3, [pc, #44]	; (82da8 <vTaskDelayUntil+0x80>)
   82d7c:	4718      	bx	r3
   82d7e:	42a3      	cmp	r3, r4
   82d80:	d9e7      	bls.n	82d52 <vTaskDelayUntil+0x2a>
   82d82:	2301      	movs	r3, #1
   82d84:	e7ea      	b.n	82d5c <vTaskDelayUntil+0x34>
   82d86:	2300      	movs	r3, #0
   82d88:	e7e8      	b.n	82d5c <vTaskDelayUntil+0x34>
   82d8a:	bd10      	pop	{r4, pc}
   82d8c:	000820ed 	.word	0x000820ed
   82d90:	00082af5 	.word	0x00082af5
   82d94:	2007ad34 	.word	0x2007ad34
   82d98:	2007ac38 	.word	0x2007ac38
   82d9c:	0008206b 	.word	0x0008206b
   82da0:	00082845 	.word	0x00082845
   82da4:	00082c39 	.word	0x00082c39
   82da8:	000820dd 	.word	0x000820dd

00082dac <prvIdleTask>:
   82dac:	b580      	push	{r7, lr}
   82dae:	4c14      	ldr	r4, [pc, #80]	; (82e00 <prvIdleTask+0x54>)
   82db0:	4e14      	ldr	r6, [pc, #80]	; (82e04 <prvIdleTask+0x58>)
   82db2:	4d15      	ldr	r5, [pc, #84]	; (82e08 <prvIdleTask+0x5c>)
   82db4:	6823      	ldr	r3, [r4, #0]
   82db6:	b933      	cbnz	r3, 82dc6 <prvIdleTask+0x1a>
   82db8:	4b14      	ldr	r3, [pc, #80]	; (82e0c <prvIdleTask+0x60>)
   82dba:	681b      	ldr	r3, [r3, #0]
   82dbc:	2b01      	cmp	r3, #1
   82dbe:	d9f8      	bls.n	82db2 <prvIdleTask+0x6>
   82dc0:	4b13      	ldr	r3, [pc, #76]	; (82e10 <prvIdleTask+0x64>)
   82dc2:	4798      	blx	r3
   82dc4:	e7f5      	b.n	82db2 <prvIdleTask+0x6>
   82dc6:	47b0      	blx	r6
   82dc8:	682f      	ldr	r7, [r5, #0]
   82dca:	4b12      	ldr	r3, [pc, #72]	; (82e14 <prvIdleTask+0x68>)
   82dcc:	4798      	blx	r3
   82dce:	2f00      	cmp	r7, #0
   82dd0:	d0f0      	beq.n	82db4 <prvIdleTask+0x8>
   82dd2:	4b11      	ldr	r3, [pc, #68]	; (82e18 <prvIdleTask+0x6c>)
   82dd4:	4798      	blx	r3
   82dd6:	68eb      	ldr	r3, [r5, #12]
   82dd8:	4f10      	ldr	r7, [pc, #64]	; (82e1c <prvIdleTask+0x70>)
   82dda:	68dd      	ldr	r5, [r3, #12]
   82ddc:	4b10      	ldr	r3, [pc, #64]	; (82e20 <prvIdleTask+0x74>)
   82dde:	1d28      	adds	r0, r5, #4
   82de0:	4798      	blx	r3
   82de2:	4a10      	ldr	r2, [pc, #64]	; (82e24 <prvIdleTask+0x78>)
   82de4:	6813      	ldr	r3, [r2, #0]
   82de6:	3b01      	subs	r3, #1
   82de8:	6013      	str	r3, [r2, #0]
   82dea:	6823      	ldr	r3, [r4, #0]
   82dec:	3b01      	subs	r3, #1
   82dee:	6023      	str	r3, [r4, #0]
   82df0:	4b0d      	ldr	r3, [pc, #52]	; (82e28 <prvIdleTask+0x7c>)
   82df2:	4798      	blx	r3
   82df4:	6b28      	ldr	r0, [r5, #48]	; 0x30
   82df6:	47b8      	blx	r7
   82df8:	4628      	mov	r0, r5
   82dfa:	47b8      	blx	r7
   82dfc:	e7d9      	b.n	82db2 <prvIdleTask+0x6>
   82dfe:	bf00      	nop
   82e00:	2007acb8 	.word	0x2007acb8
   82e04:	00082af5 	.word	0x00082af5
   82e08:	2007ad20 	.word	0x2007ad20
   82e0c:	2007ac44 	.word	0x2007ac44
   82e10:	000820dd 	.word	0x000820dd
   82e14:	00082c39 	.word	0x00082c39
   82e18:	000820fd 	.word	0x000820fd
   82e1c:	000822ed 	.word	0x000822ed
   82e20:	0008206b 	.word	0x0008206b
   82e24:	2007aca8 	.word	0x2007aca8
   82e28:	0008211d 	.word	0x0008211d

00082e2c <vTaskSwitchContext>:
   82e2c:	b538      	push	{r3, r4, r5, lr}
   82e2e:	4b16      	ldr	r3, [pc, #88]	; (82e88 <vTaskSwitchContext+0x5c>)
   82e30:	681b      	ldr	r3, [r3, #0]
   82e32:	b9d3      	cbnz	r3, 82e6a <vTaskSwitchContext+0x3e>
   82e34:	4a15      	ldr	r2, [pc, #84]	; (82e8c <vTaskSwitchContext+0x60>)
   82e36:	2314      	movs	r3, #20
   82e38:	4615      	mov	r5, r2
   82e3a:	4915      	ldr	r1, [pc, #84]	; (82e90 <vTaskSwitchContext+0x64>)
   82e3c:	6808      	ldr	r0, [r1, #0]
   82e3e:	4358      	muls	r0, r3
   82e40:	5810      	ldr	r0, [r2, r0]
   82e42:	b1b0      	cbz	r0, 82e72 <vTaskSwitchContext+0x46>
   82e44:	6809      	ldr	r1, [r1, #0]
   82e46:	434b      	muls	r3, r1
   82e48:	18d0      	adds	r0, r2, r3
   82e4a:	6844      	ldr	r4, [r0, #4]
   82e4c:	3308      	adds	r3, #8
   82e4e:	6864      	ldr	r4, [r4, #4]
   82e50:	4413      	add	r3, r2
   82e52:	6044      	str	r4, [r0, #4]
   82e54:	429c      	cmp	r4, r3
   82e56:	bf04      	itt	eq
   82e58:	6863      	ldreq	r3, [r4, #4]
   82e5a:	6043      	streq	r3, [r0, #4]
   82e5c:	2314      	movs	r3, #20
   82e5e:	fb03 5101 	mla	r1, r3, r1, r5
   82e62:	684b      	ldr	r3, [r1, #4]
   82e64:	68da      	ldr	r2, [r3, #12]
   82e66:	4b0b      	ldr	r3, [pc, #44]	; (82e94 <vTaskSwitchContext+0x68>)
   82e68:	e001      	b.n	82e6e <vTaskSwitchContext+0x42>
   82e6a:	2201      	movs	r2, #1
   82e6c:	4b0a      	ldr	r3, [pc, #40]	; (82e98 <vTaskSwitchContext+0x6c>)
   82e6e:	601a      	str	r2, [r3, #0]
   82e70:	bd38      	pop	{r3, r4, r5, pc}
   82e72:	6808      	ldr	r0, [r1, #0]
   82e74:	b918      	cbnz	r0, 82e7e <vTaskSwitchContext+0x52>
   82e76:	4b09      	ldr	r3, [pc, #36]	; (82e9c <vTaskSwitchContext+0x70>)
   82e78:	4798      	blx	r3
   82e7a:	bf00      	nop
   82e7c:	e7fd      	b.n	82e7a <vTaskSwitchContext+0x4e>
   82e7e:	6808      	ldr	r0, [r1, #0]
   82e80:	3801      	subs	r0, #1
   82e82:	6008      	str	r0, [r1, #0]
   82e84:	e7da      	b.n	82e3c <vTaskSwitchContext+0x10>
   82e86:	bf00      	nop
   82e88:	2007acb0 	.word	0x2007acb0
   82e8c:	2007ac44 	.word	0x2007ac44
   82e90:	2007acbc 	.word	0x2007acbc
   82e94:	2007ac38 	.word	0x2007ac38
   82e98:	2007acec 	.word	0x2007acec
   82e9c:	000820ed 	.word	0x000820ed

00082ea0 <vTaskPlaceOnEventList>:
   82ea0:	b570      	push	{r4, r5, r6, lr}
   82ea2:	460d      	mov	r5, r1
   82ea4:	b918      	cbnz	r0, 82eae <vTaskPlaceOnEventList+0xe>
   82ea6:	4b0e      	ldr	r3, [pc, #56]	; (82ee0 <vTaskPlaceOnEventList+0x40>)
   82ea8:	4798      	blx	r3
   82eaa:	bf00      	nop
   82eac:	e7fd      	b.n	82eaa <vTaskPlaceOnEventList+0xa>
   82eae:	4c0d      	ldr	r4, [pc, #52]	; (82ee4 <vTaskPlaceOnEventList+0x44>)
   82eb0:	4b0d      	ldr	r3, [pc, #52]	; (82ee8 <vTaskPlaceOnEventList+0x48>)
   82eb2:	6821      	ldr	r1, [r4, #0]
   82eb4:	3118      	adds	r1, #24
   82eb6:	4798      	blx	r3
   82eb8:	6820      	ldr	r0, [r4, #0]
   82eba:	4b0c      	ldr	r3, [pc, #48]	; (82eec <vTaskPlaceOnEventList+0x4c>)
   82ebc:	3004      	adds	r0, #4
   82ebe:	4798      	blx	r3
   82ec0:	1c6b      	adds	r3, r5, #1
   82ec2:	d106      	bne.n	82ed2 <vTaskPlaceOnEventList+0x32>
   82ec4:	6821      	ldr	r1, [r4, #0]
   82ec6:	480a      	ldr	r0, [pc, #40]	; (82ef0 <vTaskPlaceOnEventList+0x50>)
   82ec8:	3104      	adds	r1, #4
   82eca:	4b0a      	ldr	r3, [pc, #40]	; (82ef4 <vTaskPlaceOnEventList+0x54>)
   82ecc:	e8bd 4070 	ldmia.w	sp!, {r4, r5, r6, lr}
   82ed0:	4718      	bx	r3
   82ed2:	4b09      	ldr	r3, [pc, #36]	; (82ef8 <vTaskPlaceOnEventList+0x58>)
   82ed4:	6818      	ldr	r0, [r3, #0]
   82ed6:	4b09      	ldr	r3, [pc, #36]	; (82efc <vTaskPlaceOnEventList+0x5c>)
   82ed8:	4428      	add	r0, r5
   82eda:	e8bd 4070 	ldmia.w	sp!, {r4, r5, r6, lr}
   82ede:	4718      	bx	r3
   82ee0:	000820ed 	.word	0x000820ed
   82ee4:	2007ac38 	.word	0x2007ac38
   82ee8:	0008203d 	.word	0x0008203d
   82eec:	0008206b 	.word	0x0008206b
   82ef0:	2007ad0c 	.word	0x2007ad0c
   82ef4:	00082021 	.word	0x00082021
   82ef8:	2007ad34 	.word	0x2007ad34
   82efc:	00082845 	.word	0x00082845

00082f00 <vTaskPlaceOnEventListRestricted>:
   82f00:	b570      	push	{r4, r5, r6, lr}
   82f02:	460d      	mov	r5, r1
   82f04:	b918      	cbnz	r0, 82f0e <vTaskPlaceOnEventListRestricted+0xe>
   82f06:	4b0a      	ldr	r3, [pc, #40]	; (82f30 <vTaskPlaceOnEventListRestricted+0x30>)
   82f08:	4798      	blx	r3
   82f0a:	bf00      	nop
   82f0c:	e7fd      	b.n	82f0a <vTaskPlaceOnEventListRestricted+0xa>
   82f0e:	4c09      	ldr	r4, [pc, #36]	; (82f34 <vTaskPlaceOnEventListRestricted+0x34>)
   82f10:	4b09      	ldr	r3, [pc, #36]	; (82f38 <vTaskPlaceOnEventListRestricted+0x38>)
   82f12:	6821      	ldr	r1, [r4, #0]
   82f14:	3118      	adds	r1, #24
   82f16:	4798      	blx	r3
   82f18:	6820      	ldr	r0, [r4, #0]
   82f1a:	4b08      	ldr	r3, [pc, #32]	; (82f3c <vTaskPlaceOnEventListRestricted+0x3c>)
   82f1c:	3004      	adds	r0, #4
   82f1e:	4798      	blx	r3
   82f20:	4b07      	ldr	r3, [pc, #28]	; (82f40 <vTaskPlaceOnEventListRestricted+0x40>)
   82f22:	6818      	ldr	r0, [r3, #0]
   82f24:	4b07      	ldr	r3, [pc, #28]	; (82f44 <vTaskPlaceOnEventListRestricted+0x44>)
   82f26:	4428      	add	r0, r5
   82f28:	e8bd 4070 	ldmia.w	sp!, {r4, r5, r6, lr}
   82f2c:	4718      	bx	r3
   82f2e:	bf00      	nop
   82f30:	000820ed 	.word	0x000820ed
   82f34:	2007ac38 	.word	0x2007ac38
   82f38:	00082021 	.word	0x00082021
   82f3c:	0008206b 	.word	0x0008206b
   82f40:	2007ad34 	.word	0x2007ad34
   82f44:	00082845 	.word	0x00082845

00082f48 <xTaskRemoveFromEventList>:
   82f48:	b5f8      	push	{r3, r4, r5, r6, r7, lr}
   82f4a:	68c3      	ldr	r3, [r0, #12]
   82f4c:	68dc      	ldr	r4, [r3, #12]
   82f4e:	b91c      	cbnz	r4, 82f58 <xTaskRemoveFromEventList+0x10>
   82f50:	4b13      	ldr	r3, [pc, #76]	; (82fa0 <xTaskRemoveFromEventList+0x58>)
   82f52:	4798      	blx	r3
   82f54:	bf00      	nop
   82f56:	e7fd      	b.n	82f54 <xTaskRemoveFromEventList+0xc>
   82f58:	f104 0618 	add.w	r6, r4, #24
   82f5c:	4630      	mov	r0, r6
   82f5e:	4f11      	ldr	r7, [pc, #68]	; (82fa4 <xTaskRemoveFromEventList+0x5c>)
   82f60:	47b8      	blx	r7
   82f62:	4b11      	ldr	r3, [pc, #68]	; (82fa8 <xTaskRemoveFromEventList+0x60>)
   82f64:	4d11      	ldr	r5, [pc, #68]	; (82fac <xTaskRemoveFromEventList+0x64>)
   82f66:	681b      	ldr	r3, [r3, #0]
   82f68:	b9bb      	cbnz	r3, 82f9a <xTaskRemoveFromEventList+0x52>
   82f6a:	1d26      	adds	r6, r4, #4
   82f6c:	4630      	mov	r0, r6
   82f6e:	47b8      	blx	r7
   82f70:	4a0f      	ldr	r2, [pc, #60]	; (82fb0 <xTaskRemoveFromEventList+0x68>)
   82f72:	2014      	movs	r0, #20
   82f74:	6811      	ldr	r1, [r2, #0]
   82f76:	6ae3      	ldr	r3, [r4, #44]	; 0x2c
   82f78:	428b      	cmp	r3, r1
   82f7a:	4631      	mov	r1, r6
   82f7c:	bf88      	it	hi
   82f7e:	6013      	strhi	r3, [r2, #0]
   82f80:	4a0c      	ldr	r2, [pc, #48]	; (82fb4 <xTaskRemoveFromEventList+0x6c>)
   82f82:	fb00 2003 	mla	r0, r0, r3, r2
   82f86:	47a8      	blx	r5
   82f88:	4b0b      	ldr	r3, [pc, #44]	; (82fb8 <xTaskRemoveFromEventList+0x70>)
   82f8a:	6ae0      	ldr	r0, [r4, #44]	; 0x2c
   82f8c:	681b      	ldr	r3, [r3, #0]
   82f8e:	6adb      	ldr	r3, [r3, #44]	; 0x2c
   82f90:	4298      	cmp	r0, r3
   82f92:	bf34      	ite	cc
   82f94:	2000      	movcc	r0, #0
   82f96:	2001      	movcs	r0, #1
   82f98:	bdf8      	pop	{r3, r4, r5, r6, r7, pc}
   82f9a:	4631      	mov	r1, r6
   82f9c:	4807      	ldr	r0, [pc, #28]	; (82fbc <xTaskRemoveFromEventList+0x74>)
   82f9e:	e7f2      	b.n	82f86 <xTaskRemoveFromEventList+0x3e>
   82fa0:	000820ed 	.word	0x000820ed
   82fa4:	0008206b 	.word	0x0008206b
   82fa8:	2007acb0 	.word	0x2007acb0
   82fac:	00082021 	.word	0x00082021
   82fb0:	2007acbc 	.word	0x2007acbc
   82fb4:	2007ac44 	.word	0x2007ac44
   82fb8:	2007ac38 	.word	0x2007ac38
   82fbc:	2007acf4 	.word	0x2007acf4

00082fc0 <vTaskSetTimeOutState>:
   82fc0:	b508      	push	{r3, lr}
   82fc2:	b918      	cbnz	r0, 82fcc <vTaskSetTimeOutState+0xc>
   82fc4:	4b05      	ldr	r3, [pc, #20]	; (82fdc <vTaskSetTimeOutState+0x1c>)
   82fc6:	4798      	blx	r3
   82fc8:	bf00      	nop
   82fca:	e7fd      	b.n	82fc8 <vTaskSetTimeOutState+0x8>
   82fcc:	4b04      	ldr	r3, [pc, #16]	; (82fe0 <vTaskSetTimeOutState+0x20>)
   82fce:	681b      	ldr	r3, [r3, #0]
   82fd0:	6003      	str	r3, [r0, #0]
   82fd2:	4b04      	ldr	r3, [pc, #16]	; (82fe4 <vTaskSetTimeOutState+0x24>)
   82fd4:	681b      	ldr	r3, [r3, #0]
   82fd6:	6043      	str	r3, [r0, #4]
   82fd8:	bd08      	pop	{r3, pc}
   82fda:	bf00      	nop
   82fdc:	000820ed 	.word	0x000820ed
   82fe0:	2007acf0 	.word	0x2007acf0
   82fe4:	2007ad34 	.word	0x2007ad34

00082fe8 <xTaskCheckForTimeOut>:
   82fe8:	b538      	push	{r3, r4, r5, lr}
   82fea:	460d      	mov	r5, r1
   82fec:	4604      	mov	r4, r0
   82fee:	b918      	cbnz	r0, 82ff8 <xTaskCheckForTimeOut+0x10>
   82ff0:	4b14      	ldr	r3, [pc, #80]	; (83044 <xTaskCheckForTimeOut+0x5c>)
   82ff2:	4798      	blx	r3
   82ff4:	bf00      	nop
   82ff6:	e7fd      	b.n	82ff4 <xTaskCheckForTimeOut+0xc>
   82ff8:	b919      	cbnz	r1, 83002 <xTaskCheckForTimeOut+0x1a>
   82ffa:	4b12      	ldr	r3, [pc, #72]	; (83044 <xTaskCheckForTimeOut+0x5c>)
   82ffc:	4798      	blx	r3
   82ffe:	bf00      	nop
   83000:	e7fd      	b.n	82ffe <xTaskCheckForTimeOut+0x16>
   83002:	4b11      	ldr	r3, [pc, #68]	; (83048 <xTaskCheckForTimeOut+0x60>)
   83004:	4798      	blx	r3
   83006:	682b      	ldr	r3, [r5, #0]
   83008:	1c5a      	adds	r2, r3, #1
   8300a:	d014      	beq.n	83036 <xTaskCheckForTimeOut+0x4e>
   8300c:	4a0f      	ldr	r2, [pc, #60]	; (8304c <xTaskCheckForTimeOut+0x64>)
   8300e:	6821      	ldr	r1, [r4, #0]
   83010:	6812      	ldr	r2, [r2, #0]
   83012:	4291      	cmp	r1, r2
   83014:	4a0e      	ldr	r2, [pc, #56]	; (83050 <xTaskCheckForTimeOut+0x68>)
   83016:	6861      	ldr	r1, [r4, #4]
   83018:	d002      	beq.n	83020 <xTaskCheckForTimeOut+0x38>
   8301a:	6810      	ldr	r0, [r2, #0]
   8301c:	4281      	cmp	r1, r0
   8301e:	d90f      	bls.n	83040 <xTaskCheckForTimeOut+0x58>
   83020:	6810      	ldr	r0, [r2, #0]
   83022:	1a40      	subs	r0, r0, r1
   83024:	4283      	cmp	r3, r0
   83026:	d90b      	bls.n	83040 <xTaskCheckForTimeOut+0x58>
   83028:	6812      	ldr	r2, [r2, #0]
   8302a:	4620      	mov	r0, r4
   8302c:	1a52      	subs	r2, r2, r1
   8302e:	1a9b      	subs	r3, r3, r2
   83030:	602b      	str	r3, [r5, #0]
   83032:	4b08      	ldr	r3, [pc, #32]	; (83054 <xTaskCheckForTimeOut+0x6c>)
   83034:	4798      	blx	r3
   83036:	2400      	movs	r4, #0
   83038:	4b07      	ldr	r3, [pc, #28]	; (83058 <xTaskCheckForTimeOut+0x70>)
   8303a:	4798      	blx	r3
   8303c:	4620      	mov	r0, r4
   8303e:	bd38      	pop	{r3, r4, r5, pc}
   83040:	2401      	movs	r4, #1
   83042:	e7f9      	b.n	83038 <xTaskCheckForTimeOut+0x50>
   83044:	000820ed 	.word	0x000820ed
   83048:	000820fd 	.word	0x000820fd
   8304c:	2007acf0 	.word	0x2007acf0
   83050:	2007ad34 	.word	0x2007ad34
   83054:	00082fc1 	.word	0x00082fc1
   83058:	0008211d 	.word	0x0008211d

0008305c <vTaskMissedYield>:
   8305c:	2201      	movs	r2, #1
   8305e:	4b01      	ldr	r3, [pc, #4]	; (83064 <vTaskMissedYield+0x8>)
   83060:	601a      	str	r2, [r3, #0]
   83062:	4770      	bx	lr
   83064:	2007acec 	.word	0x2007acec

00083068 <xTaskGetCurrentTaskHandle>:
   83068:	4b01      	ldr	r3, [pc, #4]	; (83070 <xTaskGetCurrentTaskHandle+0x8>)
   8306a:	6818      	ldr	r0, [r3, #0]
   8306c:	4770      	bx	lr
   8306e:	bf00      	nop
   83070:	2007ac38 	.word	0x2007ac38

00083074 <xTaskGetSchedulerState>:
   83074:	4b04      	ldr	r3, [pc, #16]	; (83088 <xTaskGetSchedulerState+0x14>)
   83076:	6818      	ldr	r0, [r3, #0]
   83078:	b128      	cbz	r0, 83086 <xTaskGetSchedulerState+0x12>
   8307a:	4b04      	ldr	r3, [pc, #16]	; (8308c <xTaskGetSchedulerState+0x18>)
   8307c:	681b      	ldr	r3, [r3, #0]
   8307e:	2b00      	cmp	r3, #0
   83080:	bf0c      	ite	eq
   83082:	2001      	moveq	r0, #1
   83084:	2002      	movne	r0, #2
   83086:	4770      	bx	lr
   83088:	2007ad08 	.word	0x2007ad08
   8308c:	2007acb0 	.word	0x2007acb0

00083090 <vTaskPriorityInherit>:
   83090:	e92d 41f0 	stmdb	sp!, {r4, r5, r6, r7, r8, lr}
   83094:	4604      	mov	r4, r0
   83096:	b340      	cbz	r0, 830ea <vTaskPriorityInherit+0x5a>
   83098:	4d15      	ldr	r5, [pc, #84]	; (830f0 <vTaskPriorityInherit+0x60>)
   8309a:	6ac3      	ldr	r3, [r0, #44]	; 0x2c
   8309c:	682a      	ldr	r2, [r5, #0]
   8309e:	6ad2      	ldr	r2, [r2, #44]	; 0x2c
   830a0:	4293      	cmp	r3, r2
   830a2:	d222      	bcs.n	830ea <vTaskPriorityInherit+0x5a>
   830a4:	682a      	ldr	r2, [r5, #0]
   830a6:	4e13      	ldr	r6, [pc, #76]	; (830f4 <vTaskPriorityInherit+0x64>)
   830a8:	6ad2      	ldr	r2, [r2, #44]	; 0x2c
   830aa:	f1c2 0205 	rsb	r2, r2, #5
   830ae:	6182      	str	r2, [r0, #24]
   830b0:	2214      	movs	r2, #20
   830b2:	fb02 6303 	mla	r3, r2, r3, r6
   830b6:	6942      	ldr	r2, [r0, #20]
   830b8:	429a      	cmp	r2, r3
   830ba:	d113      	bne.n	830e4 <vTaskPriorityInherit+0x54>
   830bc:	1d07      	adds	r7, r0, #4
   830be:	4638      	mov	r0, r7
   830c0:	4b0d      	ldr	r3, [pc, #52]	; (830f8 <vTaskPriorityInherit+0x68>)
   830c2:	4798      	blx	r3
   830c4:	2014      	movs	r0, #20
   830c6:	682b      	ldr	r3, [r5, #0]
   830c8:	4a0c      	ldr	r2, [pc, #48]	; (830fc <vTaskPriorityInherit+0x6c>)
   830ca:	6adb      	ldr	r3, [r3, #44]	; 0x2c
   830cc:	6811      	ldr	r1, [r2, #0]
   830ce:	62e3      	str	r3, [r4, #44]	; 0x2c
   830d0:	428b      	cmp	r3, r1
   830d2:	bf88      	it	hi
   830d4:	6013      	strhi	r3, [r2, #0]
   830d6:	fb00 6003 	mla	r0, r0, r3, r6
   830da:	4639      	mov	r1, r7
   830dc:	e8bd 41f0 	ldmia.w	sp!, {r4, r5, r6, r7, r8, lr}
   830e0:	4b07      	ldr	r3, [pc, #28]	; (83100 <vTaskPriorityInherit+0x70>)
   830e2:	4718      	bx	r3
   830e4:	682b      	ldr	r3, [r5, #0]
   830e6:	6adb      	ldr	r3, [r3, #44]	; 0x2c
   830e8:	62c3      	str	r3, [r0, #44]	; 0x2c
   830ea:	e8bd 81f0 	ldmia.w	sp!, {r4, r5, r6, r7, r8, pc}
   830ee:	bf00      	nop
   830f0:	2007ac38 	.word	0x2007ac38
   830f4:	2007ac44 	.word	0x2007ac44
   830f8:	0008206b 	.word	0x0008206b
   830fc:	2007acbc 	.word	0x2007acbc
   83100:	00082021 	.word	0x00082021

00083104 <vTaskPriorityDisinherit>:
   83104:	b570      	push	{r4, r5, r6, lr}
   83106:	4604      	mov	r4, r0
   83108:	b1d0      	cbz	r0, 83140 <vTaskPriorityDisinherit+0x3c>
   8310a:	6ac2      	ldr	r2, [r0, #44]	; 0x2c
   8310c:	6c83      	ldr	r3, [r0, #72]	; 0x48
   8310e:	429a      	cmp	r2, r3
   83110:	d016      	beq.n	83140 <vTaskPriorityDisinherit+0x3c>
   83112:	1d05      	adds	r5, r0, #4
   83114:	4628      	mov	r0, r5
   83116:	4b0b      	ldr	r3, [pc, #44]	; (83144 <vTaskPriorityDisinherit+0x40>)
   83118:	4798      	blx	r3
   8311a:	2014      	movs	r0, #20
   8311c:	6ca3      	ldr	r3, [r4, #72]	; 0x48
   8311e:	f1c3 0205 	rsb	r2, r3, #5
   83122:	61a2      	str	r2, [r4, #24]
   83124:	4a08      	ldr	r2, [pc, #32]	; (83148 <vTaskPriorityDisinherit+0x44>)
   83126:	62e3      	str	r3, [r4, #44]	; 0x2c
   83128:	6811      	ldr	r1, [r2, #0]
   8312a:	428b      	cmp	r3, r1
   8312c:	bf88      	it	hi
   8312e:	6013      	strhi	r3, [r2, #0]
   83130:	4a06      	ldr	r2, [pc, #24]	; (8314c <vTaskPriorityDisinherit+0x48>)
   83132:	4629      	mov	r1, r5
   83134:	e8bd 4070 	ldmia.w	sp!, {r4, r5, r6, lr}
   83138:	fb00 2003 	mla	r0, r0, r3, r2
   8313c:	4b04      	ldr	r3, [pc, #16]	; (83150 <vTaskPriorityDisinherit+0x4c>)
   8313e:	4718      	bx	r3
   83140:	bd70      	pop	{r4, r5, r6, pc}
   83142:	bf00      	nop
   83144:	0008206b 	.word	0x0008206b
   83148:	2007acbc 	.word	0x2007acbc
   8314c:	2007ac44 	.word	0x2007ac44
   83150:	00082021 	.word	0x00082021

00083154 <prvCheckForValidListAndQueue>:
   83154:	e92d 41f0 	stmdb	sp!, {r4, r5, r6, r7, r8, lr}
   83158:	4c0d      	ldr	r4, [pc, #52]	; (83190 <prvCheckForValidListAndQueue+0x3c>)
   8315a:	4b0e      	ldr	r3, [pc, #56]	; (83194 <prvCheckForValidListAndQueue+0x40>)
   8315c:	4798      	blx	r3
   8315e:	6825      	ldr	r5, [r4, #0]
   83160:	b98d      	cbnz	r5, 83186 <prvCheckForValidListAndQueue+0x32>
   83162:	4f0d      	ldr	r7, [pc, #52]	; (83198 <prvCheckForValidListAndQueue+0x44>)
   83164:	4e0d      	ldr	r6, [pc, #52]	; (8319c <prvCheckForValidListAndQueue+0x48>)
   83166:	4638      	mov	r0, r7
   83168:	f8df 8044 	ldr.w	r8, [pc, #68]	; 831b0 <prvCheckForValidListAndQueue+0x5c>
   8316c:	47c0      	blx	r8
   8316e:	4630      	mov	r0, r6
   83170:	47c0      	blx	r8
   83172:	4b0b      	ldr	r3, [pc, #44]	; (831a0 <prvCheckForValidListAndQueue+0x4c>)
   83174:	462a      	mov	r2, r5
   83176:	601f      	str	r7, [r3, #0]
   83178:	4b0a      	ldr	r3, [pc, #40]	; (831a4 <prvCheckForValidListAndQueue+0x50>)
   8317a:	210c      	movs	r1, #12
   8317c:	601e      	str	r6, [r3, #0]
   8317e:	2005      	movs	r0, #5
   83180:	4b09      	ldr	r3, [pc, #36]	; (831a8 <prvCheckForValidListAndQueue+0x54>)
   83182:	4798      	blx	r3
   83184:	6020      	str	r0, [r4, #0]
   83186:	4b09      	ldr	r3, [pc, #36]	; (831ac <prvCheckForValidListAndQueue+0x58>)
   83188:	e8bd 41f0 	ldmia.w	sp!, {r4, r5, r6, r7, r8, lr}
   8318c:	4718      	bx	r3
   8318e:	bf00      	nop
   83190:	2007ad6c 	.word	0x2007ad6c
   83194:	000820fd 	.word	0x000820fd
   83198:	2007ad40 	.word	0x2007ad40
   8319c:	2007ad54 	.word	0x2007ad54
   831a0:	2007ad38 	.word	0x2007ad38
   831a4:	2007ad3c 	.word	0x2007ad3c
   831a8:	000824ad 	.word	0x000824ad
   831ac:	0008211d 	.word	0x0008211d
   831b0:	00082005 	.word	0x00082005

000831b4 <prvInsertTimerInActiveList>:
   831b4:	4291      	cmp	r1, r2
   831b6:	b508      	push	{r3, lr}
   831b8:	6041      	str	r1, [r0, #4]
   831ba:	6100      	str	r0, [r0, #16]
   831bc:	d80a      	bhi.n	831d4 <prvInsertTimerInActiveList+0x20>
   831be:	1ad2      	subs	r2, r2, r3
   831c0:	6983      	ldr	r3, [r0, #24]
   831c2:	429a      	cmp	r2, r3
   831c4:	d20d      	bcs.n	831e2 <prvInsertTimerInActiveList+0x2e>
   831c6:	4b08      	ldr	r3, [pc, #32]	; (831e8 <prvInsertTimerInActiveList+0x34>)
   831c8:	1d01      	adds	r1, r0, #4
   831ca:	6818      	ldr	r0, [r3, #0]
   831cc:	4b07      	ldr	r3, [pc, #28]	; (831ec <prvInsertTimerInActiveList+0x38>)
   831ce:	4798      	blx	r3
   831d0:	2000      	movs	r0, #0
   831d2:	bd08      	pop	{r3, pc}
   831d4:	429a      	cmp	r2, r3
   831d6:	d201      	bcs.n	831dc <prvInsertTimerInActiveList+0x28>
   831d8:	4299      	cmp	r1, r3
   831da:	d202      	bcs.n	831e2 <prvInsertTimerInActiveList+0x2e>
   831dc:	1d01      	adds	r1, r0, #4
   831de:	4b04      	ldr	r3, [pc, #16]	; (831f0 <prvInsertTimerInActiveList+0x3c>)
   831e0:	e7f3      	b.n	831ca <prvInsertTimerInActiveList+0x16>
   831e2:	2001      	movs	r0, #1
   831e4:	bd08      	pop	{r3, pc}
   831e6:	bf00      	nop
   831e8:	2007ad3c 	.word	0x2007ad3c
   831ec:	0008203d 	.word	0x0008203d
   831f0:	2007ad38 	.word	0x2007ad38

000831f4 <xTimerCreateTimerTask>:
   831f4:	b51f      	push	{r0, r1, r2, r3, r4, lr}
   831f6:	4b0c      	ldr	r3, [pc, #48]	; (83228 <xTimerCreateTimerTask+0x34>)
   831f8:	4798      	blx	r3
   831fa:	4b0c      	ldr	r3, [pc, #48]	; (8322c <xTimerCreateTimerTask+0x38>)
   831fc:	681b      	ldr	r3, [r3, #0]
   831fe:	b91b      	cbnz	r3, 83208 <xTimerCreateTimerTask+0x14>
   83200:	4b0b      	ldr	r3, [pc, #44]	; (83230 <xTimerCreateTimerTask+0x3c>)
   83202:	4798      	blx	r3
   83204:	bf00      	nop
   83206:	e7fd      	b.n	83204 <xTimerCreateTimerTask+0x10>
   83208:	2300      	movs	r3, #0
   8320a:	2204      	movs	r2, #4
   8320c:	9303      	str	r3, [sp, #12]
   8320e:	9200      	str	r2, [sp, #0]
   83210:	9302      	str	r3, [sp, #8]
   83212:	9301      	str	r3, [sp, #4]
   83214:	f44f 7282 	mov.w	r2, #260	; 0x104
   83218:	4906      	ldr	r1, [pc, #24]	; (83234 <xTimerCreateTimerTask+0x40>)
   8321a:	4807      	ldr	r0, [pc, #28]	; (83238 <xTimerCreateTimerTask+0x44>)
   8321c:	4c07      	ldr	r4, [pc, #28]	; (8323c <xTimerCreateTimerTask+0x48>)
   8321e:	47a0      	blx	r4
   83220:	2800      	cmp	r0, #0
   83222:	d0ed      	beq.n	83200 <xTimerCreateTimerTask+0xc>
   83224:	b004      	add	sp, #16
   83226:	bd10      	pop	{r4, pc}
   83228:	00083155 	.word	0x00083155
   8322c:	2007ad6c 	.word	0x2007ad6c
   83230:	000820ed 	.word	0x000820ed
   83234:	000884f2 	.word	0x000884f2
   83238:	0008330d 	.word	0x0008330d
   8323c:	00082895 	.word	0x00082895

00083240 <xTimerGenericCommand>:
   83240:	b57f      	push	{r0, r1, r2, r3, r4, r5, r6, lr}
   83242:	4d0e      	ldr	r5, [pc, #56]	; (8327c <xTimerGenericCommand+0x3c>)
   83244:	4606      	mov	r6, r0
   83246:	6828      	ldr	r0, [r5, #0]
   83248:	461c      	mov	r4, r3
   8324a:	b170      	cbz	r0, 8326a <xTimerGenericCommand+0x2a>
   8324c:	9101      	str	r1, [sp, #4]
   8324e:	9202      	str	r2, [sp, #8]
   83250:	9603      	str	r6, [sp, #12]
   83252:	b963      	cbnz	r3, 8326e <xTimerGenericCommand+0x2e>
   83254:	4b0a      	ldr	r3, [pc, #40]	; (83280 <xTimerGenericCommand+0x40>)
   83256:	4798      	blx	r3
   83258:	2801      	cmp	r0, #1
   8325a:	4623      	mov	r3, r4
   8325c:	4e09      	ldr	r6, [pc, #36]	; (83284 <xTimerGenericCommand+0x44>)
   8325e:	bf0c      	ite	eq
   83260:	9a08      	ldreq	r2, [sp, #32]
   83262:	4622      	movne	r2, r4
   83264:	a901      	add	r1, sp, #4
   83266:	6828      	ldr	r0, [r5, #0]
   83268:	47b0      	blx	r6
   8326a:	b004      	add	sp, #16
   8326c:	bd70      	pop	{r4, r5, r6, pc}
   8326e:	4622      	mov	r2, r4
   83270:	2300      	movs	r3, #0
   83272:	a901      	add	r1, sp, #4
   83274:	4c04      	ldr	r4, [pc, #16]	; (83288 <xTimerGenericCommand+0x48>)
   83276:	47a0      	blx	r4
   83278:	e7f7      	b.n	8326a <xTimerGenericCommand+0x2a>
   8327a:	bf00      	nop
   8327c:	2007ad6c 	.word	0x2007ad6c
   83280:	00083075 	.word	0x00083075
   83284:	00082505 	.word	0x00082505
   83288:	00082621 	.word	0x00082621

0008328c <prvSwitchTimerLists.isra.1>:
   8328c:	e92d 41f3 	stmdb	sp!, {r0, r1, r4, r5, r6, r7, r8, lr}
   83290:	4d18      	ldr	r5, [pc, #96]	; (832f4 <prvSwitchTimerLists.isra.1+0x68>)
   83292:	4f19      	ldr	r7, [pc, #100]	; (832f8 <prvSwitchTimerLists.isra.1+0x6c>)
   83294:	682b      	ldr	r3, [r5, #0]
   83296:	681a      	ldr	r2, [r3, #0]
   83298:	b932      	cbnz	r2, 832a8 <prvSwitchTimerLists.isra.1+0x1c>
   8329a:	4a18      	ldr	r2, [pc, #96]	; (832fc <prvSwitchTimerLists.isra.1+0x70>)
   8329c:	6811      	ldr	r1, [r2, #0]
   8329e:	6013      	str	r3, [r2, #0]
   832a0:	6029      	str	r1, [r5, #0]
   832a2:	b002      	add	sp, #8
   832a4:	e8bd 81f0 	ldmia.w	sp!, {r4, r5, r6, r7, r8, pc}
   832a8:	68da      	ldr	r2, [r3, #12]
   832aa:	6816      	ldr	r6, [r2, #0]
   832ac:	68db      	ldr	r3, [r3, #12]
   832ae:	68dc      	ldr	r4, [r3, #12]
   832b0:	f104 0804 	add.w	r8, r4, #4
   832b4:	4640      	mov	r0, r8
   832b6:	47b8      	blx	r7
   832b8:	6a63      	ldr	r3, [r4, #36]	; 0x24
   832ba:	4620      	mov	r0, r4
   832bc:	4798      	blx	r3
   832be:	69e3      	ldr	r3, [r4, #28]
   832c0:	2b01      	cmp	r3, #1
   832c2:	d1e7      	bne.n	83294 <prvSwitchTimerLists.isra.1+0x8>
   832c4:	69a3      	ldr	r3, [r4, #24]
   832c6:	4433      	add	r3, r6
   832c8:	429e      	cmp	r6, r3
   832ca:	d206      	bcs.n	832da <prvSwitchTimerLists.isra.1+0x4e>
   832cc:	6063      	str	r3, [r4, #4]
   832ce:	6124      	str	r4, [r4, #16]
   832d0:	4641      	mov	r1, r8
   832d2:	6828      	ldr	r0, [r5, #0]
   832d4:	4b0a      	ldr	r3, [pc, #40]	; (83300 <prvSwitchTimerLists.isra.1+0x74>)
   832d6:	4798      	blx	r3
   832d8:	e7dc      	b.n	83294 <prvSwitchTimerLists.isra.1+0x8>
   832da:	2300      	movs	r3, #0
   832dc:	4620      	mov	r0, r4
   832de:	9300      	str	r3, [sp, #0]
   832e0:	4632      	mov	r2, r6
   832e2:	4619      	mov	r1, r3
   832e4:	4c07      	ldr	r4, [pc, #28]	; (83304 <prvSwitchTimerLists.isra.1+0x78>)
   832e6:	47a0      	blx	r4
   832e8:	2800      	cmp	r0, #0
   832ea:	d1d3      	bne.n	83294 <prvSwitchTimerLists.isra.1+0x8>
   832ec:	4b06      	ldr	r3, [pc, #24]	; (83308 <prvSwitchTimerLists.isra.1+0x7c>)
   832ee:	4798      	blx	r3
   832f0:	bf00      	nop
   832f2:	e7fd      	b.n	832f0 <prvSwitchTimerLists.isra.1+0x64>
   832f4:	2007ad38 	.word	0x2007ad38
   832f8:	0008206b 	.word	0x0008206b
   832fc:	2007ad3c 	.word	0x2007ad3c
   83300:	0008203d 	.word	0x0008203d
   83304:	00083241 	.word	0x00083241
   83308:	000820ed 	.word	0x000820ed

0008330c <prvTimerTask>:
   8330c:	e92d 4ff0 	stmdb	sp!, {r4, r5, r6, r7, r8, r9, sl, fp, lr}
   83310:	f8df 8188 	ldr.w	r8, [pc, #392]	; 8349c <prvTimerTask+0x190>
   83314:	b089      	sub	sp, #36	; 0x24
   83316:	f8df b188 	ldr.w	fp, [pc, #392]	; 834a0 <prvTimerTask+0x194>
   8331a:	f8db 2000 	ldr.w	r2, [fp]
   8331e:	f8d2 9000 	ldr.w	r9, [r2]
   83322:	f1b9 0f00 	cmp.w	r9, #0
   83326:	d039      	beq.n	8339c <prvTimerTask+0x90>
   83328:	68d2      	ldr	r2, [r2, #12]
   8332a:	6815      	ldr	r5, [r2, #0]
   8332c:	4a4e      	ldr	r2, [pc, #312]	; (83468 <prvTimerTask+0x15c>)
   8332e:	4c4f      	ldr	r4, [pc, #316]	; (8346c <prvTimerTask+0x160>)
   83330:	4790      	blx	r2
   83332:	47a0      	blx	r4
   83334:	4f4e      	ldr	r7, [pc, #312]	; (83470 <prvTimerTask+0x164>)
   83336:	4606      	mov	r6, r0
   83338:	683a      	ldr	r2, [r7, #0]
   8333a:	9403      	str	r4, [sp, #12]
   8333c:	4290      	cmp	r0, r2
   8333e:	d22f      	bcs.n	833a0 <prvTimerTask+0x94>
   83340:	4a4c      	ldr	r2, [pc, #304]	; (83474 <prvTimerTask+0x168>)
   83342:	4790      	blx	r2
   83344:	f04f 0a01 	mov.w	sl, #1
   83348:	603e      	str	r6, [r7, #0]
   8334a:	4c4b      	ldr	r4, [pc, #300]	; (83478 <prvTimerTask+0x16c>)
   8334c:	f1ba 0f00 	cmp.w	sl, #0
   83350:	d176      	bne.n	83440 <prvTimerTask+0x134>
   83352:	f1b9 0f00 	cmp.w	r9, #0
   83356:	d068      	beq.n	8342a <prvTimerTask+0x11e>
   83358:	42b5      	cmp	r5, r6
   8335a:	d866      	bhi.n	8342a <prvTimerTask+0x11e>
   8335c:	47a0      	blx	r4
   8335e:	f8db 3000 	ldr.w	r3, [fp]
   83362:	68db      	ldr	r3, [r3, #12]
   83364:	68dc      	ldr	r4, [r3, #12]
   83366:	1d20      	adds	r0, r4, #4
   83368:	47c0      	blx	r8
   8336a:	69e3      	ldr	r3, [r4, #28]
   8336c:	2b01      	cmp	r3, #1
   8336e:	d11a      	bne.n	833a6 <prvTimerTask+0x9a>
   83370:	69a1      	ldr	r1, [r4, #24]
   83372:	4632      	mov	r2, r6
   83374:	462b      	mov	r3, r5
   83376:	4429      	add	r1, r5
   83378:	4620      	mov	r0, r4
   8337a:	4e40      	ldr	r6, [pc, #256]	; (8347c <prvTimerTask+0x170>)
   8337c:	47b0      	blx	r6
   8337e:	2801      	cmp	r0, #1
   83380:	d111      	bne.n	833a6 <prvTimerTask+0x9a>
   83382:	462a      	mov	r2, r5
   83384:	f8cd a000 	str.w	sl, [sp]
   83388:	4653      	mov	r3, sl
   8338a:	4651      	mov	r1, sl
   8338c:	4620      	mov	r0, r4
   8338e:	4d3c      	ldr	r5, [pc, #240]	; (83480 <prvTimerTask+0x174>)
   83390:	47a8      	blx	r5
   83392:	b940      	cbnz	r0, 833a6 <prvTimerTask+0x9a>
   83394:	4b3b      	ldr	r3, [pc, #236]	; (83484 <prvTimerTask+0x178>)
   83396:	4798      	blx	r3
   83398:	bf00      	nop
   8339a:	e7fd      	b.n	83398 <prvTimerTask+0x8c>
   8339c:	464d      	mov	r5, r9
   8339e:	e7c5      	b.n	8332c <prvTimerTask+0x20>
   833a0:	f04f 0a00 	mov.w	sl, #0
   833a4:	e7d0      	b.n	83348 <prvTimerTask+0x3c>
   833a6:	6a63      	ldr	r3, [r4, #36]	; 0x24
   833a8:	4620      	mov	r0, r4
   833aa:	4798      	blx	r3
   833ac:	9b03      	ldr	r3, [sp, #12]
   833ae:	4798      	blx	r3
   833b0:	683b      	ldr	r3, [r7, #0]
   833b2:	4605      	mov	r5, r0
   833b4:	4298      	cmp	r0, r3
   833b6:	d201      	bcs.n	833bc <prvTimerTask+0xb0>
   833b8:	4b2e      	ldr	r3, [pc, #184]	; (83474 <prvTimerTask+0x168>)
   833ba:	4798      	blx	r3
   833bc:	f8df 90cc 	ldr.w	r9, [pc, #204]	; 8348c <prvTimerTask+0x180>
   833c0:	603d      	str	r5, [r7, #0]
   833c2:	4f31      	ldr	r7, [pc, #196]	; (83488 <prvTimerTask+0x17c>)
   833c4:	2300      	movs	r3, #0
   833c6:	a905      	add	r1, sp, #20
   833c8:	461a      	mov	r2, r3
   833ca:	f8d9 0000 	ldr.w	r0, [r9]
   833ce:	47b8      	blx	r7
   833d0:	2800      	cmp	r0, #0
   833d2:	d0a0      	beq.n	83316 <prvTimerTask+0xa>
   833d4:	9c07      	ldr	r4, [sp, #28]
   833d6:	b11c      	cbz	r4, 833e0 <prvTimerTask+0xd4>
   833d8:	6963      	ldr	r3, [r4, #20]
   833da:	b10b      	cbz	r3, 833e0 <prvTimerTask+0xd4>
   833dc:	1d20      	adds	r0, r4, #4
   833de:	47c0      	blx	r8
   833e0:	9e05      	ldr	r6, [sp, #20]
   833e2:	2e02      	cmp	r6, #2
   833e4:	d02e      	beq.n	83444 <prvTimerTask+0x138>
   833e6:	2e03      	cmp	r6, #3
   833e8:	d03a      	beq.n	83460 <prvTimerTask+0x154>
   833ea:	2e00      	cmp	r6, #0
   833ec:	d1ea      	bne.n	833c4 <prvTimerTask+0xb8>
   833ee:	69a1      	ldr	r1, [r4, #24]
   833f0:	9b06      	ldr	r3, [sp, #24]
   833f2:	462a      	mov	r2, r5
   833f4:	4419      	add	r1, r3
   833f6:	4620      	mov	r0, r4
   833f8:	4f20      	ldr	r7, [pc, #128]	; (8347c <prvTimerTask+0x170>)
   833fa:	47b8      	blx	r7
   833fc:	2801      	cmp	r0, #1
   833fe:	d1e0      	bne.n	833c2 <prvTimerTask+0xb6>
   83400:	6a63      	ldr	r3, [r4, #36]	; 0x24
   83402:	4620      	mov	r0, r4
   83404:	4798      	blx	r3
   83406:	69e3      	ldr	r3, [r4, #28]
   83408:	2b01      	cmp	r3, #1
   8340a:	d1da      	bne.n	833c2 <prvTimerTask+0xb6>
   8340c:	69a2      	ldr	r2, [r4, #24]
   8340e:	9906      	ldr	r1, [sp, #24]
   83410:	4620      	mov	r0, r4
   83412:	440a      	add	r2, r1
   83414:	9600      	str	r6, [sp, #0]
   83416:	4633      	mov	r3, r6
   83418:	4631      	mov	r1, r6
   8341a:	4c19      	ldr	r4, [pc, #100]	; (83480 <prvTimerTask+0x174>)
   8341c:	47a0      	blx	r4
   8341e:	2800      	cmp	r0, #0
   83420:	d1cf      	bne.n	833c2 <prvTimerTask+0xb6>
   83422:	4b18      	ldr	r3, [pc, #96]	; (83484 <prvTimerTask+0x178>)
   83424:	4798      	blx	r3
   83426:	bf00      	nop
   83428:	e7fd      	b.n	83426 <prvTimerTask+0x11a>
   8342a:	4b18      	ldr	r3, [pc, #96]	; (8348c <prvTimerTask+0x180>)
   8342c:	1ba9      	subs	r1, r5, r6
   8342e:	6818      	ldr	r0, [r3, #0]
   83430:	4b17      	ldr	r3, [pc, #92]	; (83490 <prvTimerTask+0x184>)
   83432:	4798      	blx	r3
   83434:	47a0      	blx	r4
   83436:	2800      	cmp	r0, #0
   83438:	d1b8      	bne.n	833ac <prvTimerTask+0xa0>
   8343a:	4b16      	ldr	r3, [pc, #88]	; (83494 <prvTimerTask+0x188>)
   8343c:	4798      	blx	r3
   8343e:	e7b5      	b.n	833ac <prvTimerTask+0xa0>
   83440:	47a0      	blx	r4
   83442:	e7b3      	b.n	833ac <prvTimerTask+0xa0>
   83444:	9906      	ldr	r1, [sp, #24]
   83446:	61a1      	str	r1, [r4, #24]
   83448:	b919      	cbnz	r1, 83452 <prvTimerTask+0x146>
   8344a:	4b0e      	ldr	r3, [pc, #56]	; (83484 <prvTimerTask+0x178>)
   8344c:	4798      	blx	r3
   8344e:	bf00      	nop
   83450:	e7fd      	b.n	8344e <prvTimerTask+0x142>
   83452:	462b      	mov	r3, r5
   83454:	462a      	mov	r2, r5
   83456:	4429      	add	r1, r5
   83458:	4620      	mov	r0, r4
   8345a:	4c08      	ldr	r4, [pc, #32]	; (8347c <prvTimerTask+0x170>)
   8345c:	47a0      	blx	r4
   8345e:	e7b0      	b.n	833c2 <prvTimerTask+0xb6>
   83460:	4620      	mov	r0, r4
   83462:	4b0d      	ldr	r3, [pc, #52]	; (83498 <prvTimerTask+0x18c>)
   83464:	4798      	blx	r3
   83466:	e7ac      	b.n	833c2 <prvTimerTask+0xb6>
   83468:	00082af5 	.word	0x00082af5
   8346c:	00082b05 	.word	0x00082b05
   83470:	2007ad68 	.word	0x2007ad68
   83474:	0008328d 	.word	0x0008328d
   83478:	00082c39 	.word	0x00082c39
   8347c:	000831b5 	.word	0x000831b5
   83480:	00083241 	.word	0x00083241
   83484:	000820ed 	.word	0x000820ed
   83488:	000826a5 	.word	0x000826a5
   8348c:	2007ad6c 	.word	0x2007ad6c
   83490:	000827f9 	.word	0x000827f9
   83494:	000820dd 	.word	0x000820dd
   83498:	000822ed 	.word	0x000822ed
   8349c:	0008206b 	.word	0x0008206b
   834a0:	2007ad38 	.word	0x2007ad38

000834a4 <sysclk_init>:
   834a4:	b570      	push	{r4, r5, r6, lr}
   834a6:	480f      	ldr	r0, [pc, #60]	; (834e4 <sysclk_init+0x40>)
   834a8:	4c0f      	ldr	r4, [pc, #60]	; (834e8 <sysclk_init+0x44>)
   834aa:	47a0      	blx	r4
   834ac:	213e      	movs	r1, #62	; 0x3e
   834ae:	2000      	movs	r0, #0
   834b0:	4b0e      	ldr	r3, [pc, #56]	; (834ec <sysclk_init+0x48>)
   834b2:	4798      	blx	r3
   834b4:	4d0e      	ldr	r5, [pc, #56]	; (834f0 <sysclk_init+0x4c>)
   834b6:	47a8      	blx	r5
   834b8:	2800      	cmp	r0, #0
   834ba:	d0fc      	beq.n	834b6 <sysclk_init+0x12>
   834bc:	4b0d      	ldr	r3, [pc, #52]	; (834f4 <sysclk_init+0x50>)
   834be:	4798      	blx	r3
   834c0:	4a0d      	ldr	r2, [pc, #52]	; (834f8 <sysclk_init+0x54>)
   834c2:	4b0e      	ldr	r3, [pc, #56]	; (834fc <sysclk_init+0x58>)
   834c4:	4d0e      	ldr	r5, [pc, #56]	; (83500 <sysclk_init+0x5c>)
   834c6:	629a      	str	r2, [r3, #40]	; 0x28
   834c8:	47a8      	blx	r5
   834ca:	2800      	cmp	r0, #0
   834cc:	d0fc      	beq.n	834c8 <sysclk_init+0x24>
   834ce:	4b0d      	ldr	r3, [pc, #52]	; (83504 <sysclk_init+0x60>)
   834d0:	2010      	movs	r0, #16
   834d2:	4798      	blx	r3
   834d4:	4b0c      	ldr	r3, [pc, #48]	; (83508 <sysclk_init+0x64>)
   834d6:	4798      	blx	r3
   834d8:	4623      	mov	r3, r4
   834da:	e8bd 4070 	ldmia.w	sp!, {r4, r5, r6, lr}
   834de:	4801      	ldr	r0, [pc, #4]	; (834e4 <sysclk_init+0x40>)
   834e0:	4718      	bx	r3
   834e2:	bf00      	nop
   834e4:	0501bd00 	.word	0x0501bd00
   834e8:	20070081 	.word	0x20070081
   834ec:	000838e1 	.word	0x000838e1
   834f0:	00083929 	.word	0x00083929
   834f4:	00083939 	.word	0x00083939
   834f8:	200d3f01 	.word	0x200d3f01
   834fc:	400e0600 	.word	0x400e0600
   83500:	00083949 	.word	0x00083949
   83504:	0008389d 	.word	0x0008389d
   83508:	00083a19 	.word	0x00083a19

0008350c <board_init>:
   8350c:	f44f 4200 	mov.w	r2, #32768	; 0x8000
   83510:	4b17      	ldr	r3, [pc, #92]	; (83570 <board_init+0x64>)
   83512:	b510      	push	{r4, lr}
   83514:	200b      	movs	r0, #11
   83516:	605a      	str	r2, [r3, #4]
   83518:	4c16      	ldr	r4, [pc, #88]	; (83574 <board_init+0x68>)
   8351a:	47a0      	blx	r4
   8351c:	200c      	movs	r0, #12
   8351e:	47a0      	blx	r4
   83520:	200d      	movs	r0, #13
   83522:	47a0      	blx	r4
   83524:	200e      	movs	r0, #14
   83526:	47a0      	blx	r4
   83528:	4c13      	ldr	r4, [pc, #76]	; (83578 <board_init+0x6c>)
   8352a:	f04f 5160 	mov.w	r1, #939524096	; 0x38000000
   8352e:	203b      	movs	r0, #59	; 0x3b
   83530:	47a0      	blx	r4
   83532:	f04f 5160 	mov.w	r1, #939524096	; 0x38000000
   83536:	2055      	movs	r0, #85	; 0x55
   83538:	47a0      	blx	r4
   8353a:	f04f 5160 	mov.w	r1, #939524096	; 0x38000000
   8353e:	2056      	movs	r0, #86	; 0x56
   83540:	47a0      	blx	r4
   83542:	490e      	ldr	r1, [pc, #56]	; (8357c <board_init+0x70>)
   83544:	2068      	movs	r0, #104	; 0x68
   83546:	47a0      	blx	r4
   83548:	490d      	ldr	r1, [pc, #52]	; (83580 <board_init+0x74>)
   8354a:	205c      	movs	r0, #92	; 0x5c
   8354c:	47a0      	blx	r4
   8354e:	4b0d      	ldr	r3, [pc, #52]	; (83584 <board_init+0x78>)
   83550:	4a0d      	ldr	r2, [pc, #52]	; (83588 <board_init+0x7c>)
   83552:	f44f 7140 	mov.w	r1, #768	; 0x300
   83556:	480d      	ldr	r0, [pc, #52]	; (8358c <board_init+0x80>)
   83558:	4798      	blx	r3
   8355a:	f04f 6100 	mov.w	r1, #134217728	; 0x8000000
   8355e:	202b      	movs	r0, #43	; 0x2b
   83560:	47a0      	blx	r4
   83562:	4623      	mov	r3, r4
   83564:	e8bd 4010 	ldmia.w	sp!, {r4, lr}
   83568:	f04f 6100 	mov.w	r1, #134217728	; 0x8000000
   8356c:	202a      	movs	r0, #42	; 0x2a
   8356e:	4718      	bx	r3
   83570:	400e1a50 	.word	0x400e1a50
   83574:	00083959 	.word	0x00083959
   83578:	0008365d 	.word	0x0008365d
   8357c:	28000079 	.word	0x28000079
   83580:	28000001 	.word	0x28000001
   83584:	00083721 	.word	0x00083721
   83588:	08000001 	.word	0x08000001
   8358c:	400e0e00 	.word	0x400e0e00

00083590 <pio_set_peripheral>:
   83590:	f1b1 5f80 	cmp.w	r1, #268435456	; 0x10000000
   83594:	6442      	str	r2, [r0, #68]	; 0x44
   83596:	d017      	beq.n	835c8 <pio_set_peripheral+0x38>
   83598:	d805      	bhi.n	835a6 <pio_set_peripheral+0x16>
   8359a:	b119      	cbz	r1, 835a4 <pio_set_peripheral+0x14>
   8359c:	f1b1 6f00 	cmp.w	r1, #134217728	; 0x8000000
   835a0:	d00b      	beq.n	835ba <pio_set_peripheral+0x2a>
   835a2:	6042      	str	r2, [r0, #4]
   835a4:	4770      	bx	lr
   835a6:	f1b1 5f40 	cmp.w	r1, #805306368	; 0x30000000
   835aa:	d0fb      	beq.n	835a4 <pio_set_peripheral+0x14>
   835ac:	f1b1 5f60 	cmp.w	r1, #939524096	; 0x38000000
   835b0:	d0f8      	beq.n	835a4 <pio_set_peripheral+0x14>
   835b2:	f1b1 5f20 	cmp.w	r1, #671088640	; 0x28000000
   835b6:	d1f4      	bne.n	835a2 <pio_set_peripheral+0x12>
   835b8:	4770      	bx	lr
   835ba:	6f03      	ldr	r3, [r0, #112]	; 0x70
   835bc:	6f01      	ldr	r1, [r0, #112]	; 0x70
   835be:	400b      	ands	r3, r1
   835c0:	ea23 0302 	bic.w	r3, r3, r2
   835c4:	6703      	str	r3, [r0, #112]	; 0x70
   835c6:	e7ec      	b.n	835a2 <pio_set_peripheral+0x12>
   835c8:	6f03      	ldr	r3, [r0, #112]	; 0x70
   835ca:	4313      	orrs	r3, r2
   835cc:	e7fa      	b.n	835c4 <pio_set_peripheral+0x34>

000835ce <pio_set_input>:
   835ce:	07d3      	lsls	r3, r2, #31
   835d0:	6441      	str	r1, [r0, #68]	; 0x44
   835d2:	bf4c      	ite	mi
   835d4:	6641      	strmi	r1, [r0, #100]	; 0x64
   835d6:	6601      	strpl	r1, [r0, #96]	; 0x60
   835d8:	f012 0f0a 	tst.w	r2, #10
   835dc:	bf14      	ite	ne
   835de:	6201      	strne	r1, [r0, #32]
   835e0:	6241      	streq	r1, [r0, #36]	; 0x24
   835e2:	0793      	lsls	r3, r2, #30
   835e4:	d504      	bpl.n	835f0 <pio_set_input+0x22>
   835e6:	f8c0 1080 	str.w	r1, [r0, #128]	; 0x80
   835ea:	6141      	str	r1, [r0, #20]
   835ec:	6001      	str	r1, [r0, #0]
   835ee:	4770      	bx	lr
   835f0:	0713      	lsls	r3, r2, #28
   835f2:	bf48      	it	mi
   835f4:	f8c0 1084 	strmi.w	r1, [r0, #132]	; 0x84
   835f8:	e7f7      	b.n	835ea <pio_set_input+0x1c>

000835fa <pio_set_output>:
   835fa:	b510      	push	{r4, lr}
   835fc:	9c02      	ldr	r4, [sp, #8]
   835fe:	6441      	str	r1, [r0, #68]	; 0x44
   83600:	b13c      	cbz	r4, 83612 <pio_set_output+0x18>
   83602:	6641      	str	r1, [r0, #100]	; 0x64
   83604:	b13b      	cbz	r3, 83616 <pio_set_output+0x1c>
   83606:	6501      	str	r1, [r0, #80]	; 0x50
   83608:	b13a      	cbz	r2, 8361a <pio_set_output+0x20>
   8360a:	6301      	str	r1, [r0, #48]	; 0x30
   8360c:	6101      	str	r1, [r0, #16]
   8360e:	6001      	str	r1, [r0, #0]
   83610:	bd10      	pop	{r4, pc}
   83612:	6601      	str	r1, [r0, #96]	; 0x60
   83614:	e7f6      	b.n	83604 <pio_set_output+0xa>
   83616:	6541      	str	r1, [r0, #84]	; 0x54
   83618:	e7f6      	b.n	83608 <pio_set_output+0xe>
   8361a:	6341      	str	r1, [r0, #52]	; 0x34
   8361c:	e7f6      	b.n	8360c <pio_set_output+0x12>

0008361e <pio_enable_interrupt>:
   8361e:	6401      	str	r1, [r0, #64]	; 0x40
   83620:	4770      	bx	lr

00083622 <pio_get_interrupt_status>:
   83622:	6cc0      	ldr	r0, [r0, #76]	; 0x4c
   83624:	4770      	bx	lr

00083626 <pio_get_interrupt_mask>:
   83626:	6c80      	ldr	r0, [r0, #72]	; 0x48
   83628:	4770      	bx	lr

0008362a <pio_set_additional_interrupt_mode>:
   8362a:	06d3      	lsls	r3, r2, #27
   8362c:	d50e      	bpl.n	8364c <pio_set_additional_interrupt_mode+0x22>
   8362e:	0693      	lsls	r3, r2, #26
   83630:	f8c0 10b0 	str.w	r1, [r0, #176]	; 0xb0
   83634:	bf4c      	ite	mi
   83636:	f8c0 10d4 	strmi.w	r1, [r0, #212]	; 0xd4
   8363a:	f8c0 10d0 	strpl.w	r1, [r0, #208]	; 0xd0
   8363e:	0653      	lsls	r3, r2, #25
   83640:	bf4c      	ite	mi
   83642:	f8c0 10c0 	strmi.w	r1, [r0, #192]	; 0xc0
   83646:	f8c0 10c4 	strpl.w	r1, [r0, #196]	; 0xc4
   8364a:	4770      	bx	lr
   8364c:	f8c0 10b4 	str.w	r1, [r0, #180]	; 0xb4
   83650:	4770      	bx	lr
	...

00083654 <pio_configure_interrupt>:
   83654:	4b00      	ldr	r3, [pc, #0]	; (83658 <pio_configure_interrupt+0x4>)
   83656:	4718      	bx	r3
   83658:	0008362b 	.word	0x0008362b

0008365c <pio_configure_pin>:
   8365c:	b5f7      	push	{r0, r1, r2, r4, r5, r6, r7, lr}
   8365e:	0945      	lsrs	r5, r0, #5
   83660:	460e      	mov	r6, r1
   83662:	f505 1500 	add.w	r5, r5, #2097152	; 0x200000
   83666:	f001 41f0 	and.w	r1, r1, #2013265920	; 0x78000000
   8366a:	f205 7507 	addw	r5, r5, #1799	; 0x707
   8366e:	f1b1 5f20 	cmp.w	r1, #671088640	; 0x28000000
   83672:	ea4f 2545 	mov.w	r5, r5, lsl #9
   83676:	d042      	beq.n	836fe <pio_configure_pin+0xa2>
   83678:	d807      	bhi.n	8368a <pio_configure_pin+0x2e>
   8367a:	f1b1 6f00 	cmp.w	r1, #134217728	; 0x8000000
   8367e:	d01e      	beq.n	836be <pio_configure_pin+0x62>
   83680:	f1b1 5f80 	cmp.w	r1, #268435456	; 0x10000000
   83684:	d02b      	beq.n	836de <pio_configure_pin+0x82>
   83686:	2000      	movs	r0, #0
   83688:	e027      	b.n	836da <pio_configure_pin+0x7e>
   8368a:	f1b1 5f40 	cmp.w	r1, #805306368	; 0x30000000
   8368e:	d002      	beq.n	83696 <pio_configure_pin+0x3a>
   83690:	f1b1 5f60 	cmp.w	r1, #939524096	; 0x38000000
   83694:	d1f7      	bne.n	83686 <pio_configure_pin+0x2a>
   83696:	2401      	movs	r4, #1
   83698:	f006 5260 	and.w	r2, r6, #939524096	; 0x38000000
   8369c:	f000 011f 	and.w	r1, r0, #31
   836a0:	f102 4048 	add.w	r0, r2, #3355443200	; 0xc8000000
   836a4:	ea06 0304 	and.w	r3, r6, r4
   836a8:	4242      	negs	r2, r0
   836aa:	9300      	str	r3, [sp, #0]
   836ac:	4142      	adcs	r2, r0
   836ae:	f3c6 0380 	ubfx	r3, r6, #2, #1
   836b2:	4628      	mov	r0, r5
   836b4:	fa04 f101 	lsl.w	r1, r4, r1
   836b8:	4d16      	ldr	r5, [pc, #88]	; (83714 <pio_configure_pin+0xb8>)
   836ba:	47a8      	blx	r5
   836bc:	e028      	b.n	83710 <pio_configure_pin+0xb4>
   836be:	2701      	movs	r7, #1
   836c0:	f000 041f 	and.w	r4, r0, #31
   836c4:	fa07 f404 	lsl.w	r4, r7, r4
   836c8:	4628      	mov	r0, r5
   836ca:	4622      	mov	r2, r4
   836cc:	4b12      	ldr	r3, [pc, #72]	; (83718 <pio_configure_pin+0xbc>)
   836ce:	4798      	blx	r3
   836d0:	4638      	mov	r0, r7
   836d2:	07f6      	lsls	r6, r6, #31
   836d4:	bf4c      	ite	mi
   836d6:	666c      	strmi	r4, [r5, #100]	; 0x64
   836d8:	662c      	strpl	r4, [r5, #96]	; 0x60
   836da:	b003      	add	sp, #12
   836dc:	bdf0      	pop	{r4, r5, r6, r7, pc}
   836de:	f000 011f 	and.w	r1, r0, #31
   836e2:	2001      	movs	r0, #1
   836e4:	fa00 f101 	lsl.w	r1, r0, r1
   836e8:	6469      	str	r1, [r5, #68]	; 0x44
   836ea:	6f2b      	ldr	r3, [r5, #112]	; 0x70
   836ec:	07f4      	lsls	r4, r6, #31
   836ee:	ea43 0301 	orr.w	r3, r3, r1
   836f2:	672b      	str	r3, [r5, #112]	; 0x70
   836f4:	6069      	str	r1, [r5, #4]
   836f6:	bf4c      	ite	mi
   836f8:	6669      	strmi	r1, [r5, #100]	; 0x64
   836fa:	6629      	strpl	r1, [r5, #96]	; 0x60
   836fc:	e7ed      	b.n	836da <pio_configure_pin+0x7e>
   836fe:	2401      	movs	r4, #1
   83700:	f000 011f 	and.w	r1, r0, #31
   83704:	4632      	mov	r2, r6
   83706:	fa04 f101 	lsl.w	r1, r4, r1
   8370a:	4628      	mov	r0, r5
   8370c:	4b03      	ldr	r3, [pc, #12]	; (8371c <pio_configure_pin+0xc0>)
   8370e:	4798      	blx	r3
   83710:	4620      	mov	r0, r4
   83712:	e7e2      	b.n	836da <pio_configure_pin+0x7e>
   83714:	000835fb 	.word	0x000835fb
   83718:	00083591 	.word	0x00083591
   8371c:	000835cf 	.word	0x000835cf

00083720 <pio_configure_pin_group>:
   83720:	f002 43f0 	and.w	r3, r2, #2013265920	; 0x78000000
   83724:	f1b3 5f20 	cmp.w	r3, #671088640	; 0x28000000
   83728:	b573      	push	{r0, r1, r4, r5, r6, lr}
   8372a:	4604      	mov	r4, r0
   8372c:	460d      	mov	r5, r1
   8372e:	4616      	mov	r6, r2
   83730:	d02f      	beq.n	83792 <pio_configure_pin_group+0x72>
   83732:	d807      	bhi.n	83744 <pio_configure_pin_group+0x24>
   83734:	f1b3 6f00 	cmp.w	r3, #134217728	; 0x8000000
   83738:	d01a      	beq.n	83770 <pio_configure_pin_group+0x50>
   8373a:	f1b3 5f80 	cmp.w	r3, #268435456	; 0x10000000
   8373e:	d022      	beq.n	83786 <pio_configure_pin_group+0x66>
   83740:	2000      	movs	r0, #0
   83742:	e01e      	b.n	83782 <pio_configure_pin_group+0x62>
   83744:	f1b3 5f40 	cmp.w	r3, #805306368	; 0x30000000
   83748:	d002      	beq.n	83750 <pio_configure_pin_group+0x30>
   8374a:	f1b3 5f60 	cmp.w	r3, #939524096	; 0x38000000
   8374e:	d1f7      	bne.n	83740 <pio_configure_pin_group+0x20>
   83750:	f006 5260 	and.w	r2, r6, #939524096	; 0x38000000
   83754:	f102 4148 	add.w	r1, r2, #3355443200	; 0xc8000000
   83758:	f006 0301 	and.w	r3, r6, #1
   8375c:	424a      	negs	r2, r1
   8375e:	9300      	str	r3, [sp, #0]
   83760:	414a      	adcs	r2, r1
   83762:	4620      	mov	r0, r4
   83764:	f3c6 0380 	ubfx	r3, r6, #2, #1
   83768:	4629      	mov	r1, r5
   8376a:	4c0b      	ldr	r4, [pc, #44]	; (83798 <pio_configure_pin_group+0x78>)
   8376c:	47a0      	blx	r4
   8376e:	e007      	b.n	83780 <pio_configure_pin_group+0x60>
   83770:	460a      	mov	r2, r1
   83772:	4619      	mov	r1, r3
   83774:	4b09      	ldr	r3, [pc, #36]	; (8379c <pio_configure_pin_group+0x7c>)
   83776:	4798      	blx	r3
   83778:	07f0      	lsls	r0, r6, #31
   8377a:	bf4c      	ite	mi
   8377c:	6665      	strmi	r5, [r4, #100]	; 0x64
   8377e:	6625      	strpl	r5, [r4, #96]	; 0x60
   83780:	2001      	movs	r0, #1
   83782:	b002      	add	sp, #8
   83784:	bd70      	pop	{r4, r5, r6, pc}
   83786:	6461      	str	r1, [r4, #68]	; 0x44
   83788:	6f03      	ldr	r3, [r0, #112]	; 0x70
   8378a:	430b      	orrs	r3, r1
   8378c:	6703      	str	r3, [r0, #112]	; 0x70
   8378e:	6061      	str	r1, [r4, #4]
   83790:	e7f2      	b.n	83778 <pio_configure_pin_group+0x58>
   83792:	4b03      	ldr	r3, [pc, #12]	; (837a0 <pio_configure_pin_group+0x80>)
   83794:	4798      	blx	r3
   83796:	e7f3      	b.n	83780 <pio_configure_pin_group+0x60>
   83798:	000835fb 	.word	0x000835fb
   8379c:	00083591 	.word	0x00083591
   837a0:	000835cf 	.word	0x000835cf

000837a4 <pio_handler_process>:
   837a4:	b5f8      	push	{r3, r4, r5, r6, r7, lr}
   837a6:	4b0f      	ldr	r3, [pc, #60]	; (837e4 <pio_handler_process+0x40>)
   837a8:	4604      	mov	r4, r0
   837aa:	460e      	mov	r6, r1
   837ac:	4798      	blx	r3
   837ae:	4b0e      	ldr	r3, [pc, #56]	; (837e8 <pio_handler_process+0x44>)
   837b0:	4605      	mov	r5, r0
   837b2:	4620      	mov	r0, r4
   837b4:	4798      	blx	r3
   837b6:	4005      	ands	r5, r0
   837b8:	d013      	beq.n	837e2 <pio_handler_process+0x3e>
   837ba:	4c0c      	ldr	r4, [pc, #48]	; (837ec <pio_handler_process+0x48>)
   837bc:	f104 0760 	add.w	r7, r4, #96	; 0x60
   837c0:	6823      	ldr	r3, [r4, #0]
   837c2:	42b3      	cmp	r3, r6
   837c4:	d108      	bne.n	837d8 <pio_handler_process+0x34>
   837c6:	6861      	ldr	r1, [r4, #4]
   837c8:	4229      	tst	r1, r5
   837ca:	d005      	beq.n	837d8 <pio_handler_process+0x34>
   837cc:	68e3      	ldr	r3, [r4, #12]
   837ce:	4630      	mov	r0, r6
   837d0:	4798      	blx	r3
   837d2:	6863      	ldr	r3, [r4, #4]
   837d4:	ea25 0503 	bic.w	r5, r5, r3
   837d8:	42bc      	cmp	r4, r7
   837da:	d002      	beq.n	837e2 <pio_handler_process+0x3e>
   837dc:	3410      	adds	r4, #16
   837de:	2d00      	cmp	r5, #0
   837e0:	d1ee      	bne.n	837c0 <pio_handler_process+0x1c>
   837e2:	bdf8      	pop	{r3, r4, r5, r6, r7, pc}
   837e4:	00083623 	.word	0x00083623
   837e8:	00083627 	.word	0x00083627
   837ec:	2007ad70 	.word	0x2007ad70

000837f0 <pio_handler_set>:
   837f0:	e92d 43f8 	stmdb	sp!, {r3, r4, r5, r6, r7, r8, r9, lr}
   837f4:	4e16      	ldr	r6, [pc, #88]	; (83850 <pio_handler_set+0x60>)
   837f6:	4689      	mov	r9, r1
   837f8:	6834      	ldr	r4, [r6, #0]
   837fa:	4611      	mov	r1, r2
   837fc:	2c06      	cmp	r4, #6
   837fe:	46b4      	mov	ip, r6
   83800:	d823      	bhi.n	8384a <pio_handler_set+0x5a>
   83802:	2600      	movs	r6, #0
   83804:	4f13      	ldr	r7, [pc, #76]	; (83854 <pio_handler_set+0x64>)
   83806:	fa5f f886 	uxtb.w	r8, r6
   8380a:	4544      	cmp	r4, r8
   8380c:	d210      	bcs.n	83830 <pio_handler_set+0x40>
   8380e:	9a08      	ldr	r2, [sp, #32]
   83810:	3401      	adds	r4, #1
   83812:	60ab      	str	r3, [r5, #8]
   83814:	60ea      	str	r2, [r5, #12]
   83816:	4544      	cmp	r4, r8
   83818:	461a      	mov	r2, r3
   8381a:	f8c5 9000 	str.w	r9, [r5]
   8381e:	6069      	str	r1, [r5, #4]
   83820:	4b0d      	ldr	r3, [pc, #52]	; (83858 <pio_handler_set+0x68>)
   83822:	bf08      	it	eq
   83824:	f8cc 8000 	streq.w	r8, [ip]
   83828:	4798      	blx	r3
   8382a:	2000      	movs	r0, #0
   8382c:	e8bd 83f8 	ldmia.w	sp!, {r3, r4, r5, r6, r7, r8, r9, pc}
   83830:	ea4f 1e08 	mov.w	lr, r8, lsl #4
   83834:	f857 200e 	ldr.w	r2, [r7, lr]
   83838:	eb07 050e 	add.w	r5, r7, lr
   8383c:	454a      	cmp	r2, r9
   8383e:	d102      	bne.n	83846 <pio_handler_set+0x56>
   83840:	686a      	ldr	r2, [r5, #4]
   83842:	428a      	cmp	r2, r1
   83844:	d0e3      	beq.n	8380e <pio_handler_set+0x1e>
   83846:	3601      	adds	r6, #1
   83848:	e7dd      	b.n	83806 <pio_handler_set+0x16>
   8384a:	2001      	movs	r0, #1
   8384c:	e8bd 83f8 	ldmia.w	sp!, {r3, r4, r5, r6, r7, r8, r9, pc}
   83850:	2007ade0 	.word	0x2007ade0
   83854:	2007ad70 	.word	0x2007ad70
   83858:	00083655 	.word	0x00083655

0008385c <PIOA_Handler>:
   8385c:	210b      	movs	r1, #11
   8385e:	4801      	ldr	r0, [pc, #4]	; (83864 <PIOA_Handler+0x8>)
   83860:	4b01      	ldr	r3, [pc, #4]	; (83868 <PIOA_Handler+0xc>)
   83862:	4718      	bx	r3
   83864:	400e0e00 	.word	0x400e0e00
   83868:	000837a5 	.word	0x000837a5

0008386c <PIOB_Handler>:
   8386c:	210c      	movs	r1, #12
   8386e:	4801      	ldr	r0, [pc, #4]	; (83874 <PIOB_Handler+0x8>)
   83870:	4b01      	ldr	r3, [pc, #4]	; (83878 <PIOB_Handler+0xc>)
   83872:	4718      	bx	r3
   83874:	400e1000 	.word	0x400e1000
   83878:	000837a5 	.word	0x000837a5

0008387c <PIOC_Handler>:
   8387c:	210d      	movs	r1, #13
   8387e:	4801      	ldr	r0, [pc, #4]	; (83884 <PIOC_Handler+0x8>)
   83880:	4b01      	ldr	r3, [pc, #4]	; (83888 <PIOC_Handler+0xc>)
   83882:	4718      	bx	r3
   83884:	400e1200 	.word	0x400e1200
   83888:	000837a5 	.word	0x000837a5

0008388c <PIOD_Handler>:
   8388c:	210e      	movs	r1, #14
   8388e:	4801      	ldr	r0, [pc, #4]	; (83894 <PIOD_Handler+0x8>)
   83890:	4b01      	ldr	r3, [pc, #4]	; (83898 <PIOD_Handler+0xc>)
   83892:	4718      	bx	r3
   83894:	400e1400 	.word	0x400e1400
   83898:	000837a5 	.word	0x000837a5

0008389c <pmc_switch_mck_to_pllack>:
   8389c:	4b0f      	ldr	r3, [pc, #60]	; (838dc <pmc_switch_mck_to_pllack+0x40>)
   8389e:	6b1a      	ldr	r2, [r3, #48]	; 0x30
   838a0:	f022 0270 	bic.w	r2, r2, #112	; 0x70
   838a4:	4310      	orrs	r0, r2
   838a6:	f640 0201 	movw	r2, #2049	; 0x801
   838aa:	6318      	str	r0, [r3, #48]	; 0x30
   838ac:	6e99      	ldr	r1, [r3, #104]	; 0x68
   838ae:	0708      	lsls	r0, r1, #28
   838b0:	d50c      	bpl.n	838cc <pmc_switch_mck_to_pllack+0x30>
   838b2:	6b1a      	ldr	r2, [r3, #48]	; 0x30
   838b4:	f022 0203 	bic.w	r2, r2, #3
   838b8:	f042 0202 	orr.w	r2, r2, #2
   838bc:	631a      	str	r2, [r3, #48]	; 0x30
   838be:	f640 0201 	movw	r2, #2049	; 0x801
   838c2:	6e99      	ldr	r1, [r3, #104]	; 0x68
   838c4:	0709      	lsls	r1, r1, #28
   838c6:	d505      	bpl.n	838d4 <pmc_switch_mck_to_pllack+0x38>
   838c8:	2000      	movs	r0, #0
   838ca:	4770      	bx	lr
   838cc:	3a01      	subs	r2, #1
   838ce:	d1ed      	bne.n	838ac <pmc_switch_mck_to_pllack+0x10>
   838d0:	2001      	movs	r0, #1
   838d2:	4770      	bx	lr
   838d4:	3a01      	subs	r2, #1
   838d6:	d1f4      	bne.n	838c2 <pmc_switch_mck_to_pllack+0x26>
   838d8:	e7fa      	b.n	838d0 <pmc_switch_mck_to_pllack+0x34>
   838da:	bf00      	nop
   838dc:	400e0600 	.word	0x400e0600

000838e0 <pmc_switch_mainck_to_xtal>:
   838e0:	4a0e      	ldr	r2, [pc, #56]	; (8391c <pmc_switch_mainck_to_xtal+0x3c>)
   838e2:	6a13      	ldr	r3, [r2, #32]
   838e4:	b128      	cbz	r0, 838f2 <pmc_switch_mainck_to_xtal+0x12>
   838e6:	490e      	ldr	r1, [pc, #56]	; (83920 <pmc_switch_mainck_to_xtal+0x40>)
   838e8:	4019      	ands	r1, r3
   838ea:	4b0e      	ldr	r3, [pc, #56]	; (83924 <pmc_switch_mainck_to_xtal+0x44>)
   838ec:	430b      	orrs	r3, r1
   838ee:	6213      	str	r3, [r2, #32]
   838f0:	4770      	bx	lr
   838f2:	f423 135c 	bic.w	r3, r3, #3604480	; 0x370000
   838f6:	f023 0303 	bic.w	r3, r3, #3
   838fa:	0209      	lsls	r1, r1, #8
   838fc:	f443 135c 	orr.w	r3, r3, #3604480	; 0x370000
   83900:	b289      	uxth	r1, r1
   83902:	f043 0301 	orr.w	r3, r3, #1
   83906:	430b      	orrs	r3, r1
   83908:	6213      	str	r3, [r2, #32]
   8390a:	6e93      	ldr	r3, [r2, #104]	; 0x68
   8390c:	07db      	lsls	r3, r3, #31
   8390e:	d5fc      	bpl.n	8390a <pmc_switch_mainck_to_xtal+0x2a>
   83910:	6a13      	ldr	r3, [r2, #32]
   83912:	f043 739b 	orr.w	r3, r3, #20316160	; 0x1360000
   83916:	f443 3380 	orr.w	r3, r3, #65536	; 0x10000
   8391a:	e7e8      	b.n	838ee <pmc_switch_mainck_to_xtal+0xe>
   8391c:	400e0600 	.word	0x400e0600
   83920:	fec8fffc 	.word	0xfec8fffc
   83924:	01370002 	.word	0x01370002

00083928 <pmc_osc_is_ready_mainck>:
   83928:	4b02      	ldr	r3, [pc, #8]	; (83934 <pmc_osc_is_ready_mainck+0xc>)
   8392a:	6e98      	ldr	r0, [r3, #104]	; 0x68
   8392c:	f400 3080 	and.w	r0, r0, #65536	; 0x10000
   83930:	4770      	bx	lr
   83932:	bf00      	nop
   83934:	400e0600 	.word	0x400e0600

00083938 <pmc_disable_pllack>:
   83938:	f04f 5200 	mov.w	r2, #536870912	; 0x20000000
   8393c:	4b01      	ldr	r3, [pc, #4]	; (83944 <pmc_disable_pllack+0xc>)
   8393e:	629a      	str	r2, [r3, #40]	; 0x28
   83940:	4770      	bx	lr
   83942:	bf00      	nop
   83944:	400e0600 	.word	0x400e0600

00083948 <pmc_is_locked_pllack>:
   83948:	4b02      	ldr	r3, [pc, #8]	; (83954 <pmc_is_locked_pllack+0xc>)
   8394a:	6e98      	ldr	r0, [r3, #104]	; 0x68
   8394c:	f000 0002 	and.w	r0, r0, #2
   83950:	4770      	bx	lr
   83952:	bf00      	nop
   83954:	400e0600 	.word	0x400e0600

00083958 <pmc_enable_periph_clk>:
   83958:	282c      	cmp	r0, #44	; 0x2c
   8395a:	d818      	bhi.n	8398e <pmc_enable_periph_clk+0x36>
   8395c:	281f      	cmp	r0, #31
   8395e:	4a0d      	ldr	r2, [pc, #52]	; (83994 <pmc_enable_periph_clk+0x3c>)
   83960:	f04f 0301 	mov.w	r3, #1
   83964:	d808      	bhi.n	83978 <pmc_enable_periph_clk+0x20>
   83966:	6991      	ldr	r1, [r2, #24]
   83968:	fa03 f000 	lsl.w	r0, r3, r0
   8396c:	ea30 0301 	bics.w	r3, r0, r1
   83970:	d000      	beq.n	83974 <pmc_enable_periph_clk+0x1c>
   83972:	6110      	str	r0, [r2, #16]
   83974:	2000      	movs	r0, #0
   83976:	4770      	bx	lr
   83978:	3820      	subs	r0, #32
   8397a:	f8d2 1108 	ldr.w	r1, [r2, #264]	; 0x108
   8397e:	fa03 f000 	lsl.w	r0, r3, r0
   83982:	ea30 0301 	bics.w	r3, r0, r1
   83986:	d0f5      	beq.n	83974 <pmc_enable_periph_clk+0x1c>
   83988:	f8c2 0100 	str.w	r0, [r2, #256]	; 0x100
   8398c:	e7f2      	b.n	83974 <pmc_enable_periph_clk+0x1c>
   8398e:	2001      	movs	r0, #1
   83990:	4770      	bx	lr
   83992:	bf00      	nop
   83994:	400e0600 	.word	0x400e0600

00083998 <Dummy_Handler>:
   83998:	e7fe      	b.n	83998 <Dummy_Handler>
	...

0008399c <Reset_Handler>:
   8399c:	b508      	push	{r3, lr}
   8399e:	4a15      	ldr	r2, [pc, #84]	; (839f4 <Reset_Handler+0x58>)
   839a0:	4b15      	ldr	r3, [pc, #84]	; (839f8 <Reset_Handler+0x5c>)
   839a2:	429a      	cmp	r2, r3
   839a4:	d119      	bne.n	839da <Reset_Handler+0x3e>
   839a6:	2100      	movs	r1, #0
   839a8:	4b14      	ldr	r3, [pc, #80]	; (839fc <Reset_Handler+0x60>)
   839aa:	4a15      	ldr	r2, [pc, #84]	; (83a00 <Reset_Handler+0x64>)
   839ac:	4293      	cmp	r3, r2
   839ae:	d31d      	bcc.n	839ec <Reset_Handler+0x50>
   839b0:	4b14      	ldr	r3, [pc, #80]	; (83a04 <Reset_Handler+0x68>)
   839b2:	4a15      	ldr	r2, [pc, #84]	; (83a08 <Reset_Handler+0x6c>)
   839b4:	f023 4160 	bic.w	r1, r3, #3758096384	; 0xe0000000
   839b8:	f021 017f 	bic.w	r1, r1, #127	; 0x7f
   839bc:	f103 4360 	add.w	r3, r3, #3758096384	; 0xe0000000
   839c0:	f5b3 1f80 	cmp.w	r3, #1048576	; 0x100000
   839c4:	6091      	str	r1, [r2, #8]
   839c6:	bf3e      	ittt	cc
   839c8:	6893      	ldrcc	r3, [r2, #8]
   839ca:	f043 5300 	orrcc.w	r3, r3, #536870912	; 0x20000000
   839ce:	6093      	strcc	r3, [r2, #8]
   839d0:	4b0e      	ldr	r3, [pc, #56]	; (83a0c <Reset_Handler+0x70>)
   839d2:	4798      	blx	r3
   839d4:	4b0e      	ldr	r3, [pc, #56]	; (83a10 <Reset_Handler+0x74>)
   839d6:	4798      	blx	r3
   839d8:	e7fe      	b.n	839d8 <Reset_Handler+0x3c>
   839da:	490e      	ldr	r1, [pc, #56]	; (83a14 <Reset_Handler+0x78>)
   839dc:	3a04      	subs	r2, #4
   839de:	428b      	cmp	r3, r1
   839e0:	d2e1      	bcs.n	839a6 <Reset_Handler+0xa>
   839e2:	f852 0f04 	ldr.w	r0, [r2, #4]!
   839e6:	f843 0b04 	str.w	r0, [r3], #4
   839ea:	e7f8      	b.n	839de <Reset_Handler+0x42>
   839ec:	f843 1b04 	str.w	r1, [r3], #4
   839f0:	e7dc      	b.n	839ac <Reset_Handler+0x10>
   839f2:	bf00      	nop
   839f4:	000886d4 	.word	0x000886d4
   839f8:	20070000 	.word	0x20070000
   839fc:	20070b20 	.word	0x20070b20
   83a00:	2007ae78 	.word	0x2007ae78
   83a04:	00080000 	.word	0x00080000
   83a08:	e000ed00 	.word	0xe000ed00
   83a0c:	0008508d 	.word	0x0008508d
   83a10:	00083b29 	.word	0x00083b29
   83a14:	20070b20 	.word	0x20070b20

00083a18 <SystemCoreClockUpdate>:
   83a18:	b510      	push	{r4, lr}
   83a1a:	4a2b      	ldr	r2, [pc, #172]	; (83ac8 <SystemCoreClockUpdate+0xb0>)
   83a1c:	6b13      	ldr	r3, [r2, #48]	; 0x30
   83a1e:	f003 0303 	and.w	r3, r3, #3
   83a22:	2b01      	cmp	r3, #1
   83a24:	4b29      	ldr	r3, [pc, #164]	; (83acc <SystemCoreClockUpdate+0xb4>)
   83a26:	d00f      	beq.n	83a48 <SystemCoreClockUpdate+0x30>
   83a28:	d304      	bcc.n	83a34 <SystemCoreClockUpdate+0x1c>
   83a2a:	6a11      	ldr	r1, [r2, #32]
   83a2c:	01cc      	lsls	r4, r1, #7
   83a2e:	d52c      	bpl.n	83a8a <SystemCoreClockUpdate+0x72>
   83a30:	4927      	ldr	r1, [pc, #156]	; (83ad0 <SystemCoreClockUpdate+0xb8>)
   83a32:	e046      	b.n	83ac2 <SystemCoreClockUpdate+0xaa>
   83a34:	4927      	ldr	r1, [pc, #156]	; (83ad4 <SystemCoreClockUpdate+0xbc>)
   83a36:	6949      	ldr	r1, [r1, #20]
   83a38:	0608      	lsls	r0, r1, #24
   83a3a:	bf4c      	ite	mi
   83a3c:	f44f 4100 	movmi.w	r1, #32768	; 0x8000
   83a40:	f44f 41fa 	movpl.w	r1, #32000	; 0x7d00
   83a44:	6019      	str	r1, [r3, #0]
   83a46:	e00d      	b.n	83a64 <SystemCoreClockUpdate+0x4c>
   83a48:	6a11      	ldr	r1, [r2, #32]
   83a4a:	01c9      	lsls	r1, r1, #7
   83a4c:	d501      	bpl.n	83a52 <SystemCoreClockUpdate+0x3a>
   83a4e:	4920      	ldr	r1, [pc, #128]	; (83ad0 <SystemCoreClockUpdate+0xb8>)
   83a50:	e7f8      	b.n	83a44 <SystemCoreClockUpdate+0x2c>
   83a52:	4921      	ldr	r1, [pc, #132]	; (83ad8 <SystemCoreClockUpdate+0xc0>)
   83a54:	6019      	str	r1, [r3, #0]
   83a56:	6a11      	ldr	r1, [r2, #32]
   83a58:	f001 0170 	and.w	r1, r1, #112	; 0x70
   83a5c:	2910      	cmp	r1, #16
   83a5e:	d012      	beq.n	83a86 <SystemCoreClockUpdate+0x6e>
   83a60:	2920      	cmp	r1, #32
   83a62:	d0f4      	beq.n	83a4e <SystemCoreClockUpdate+0x36>
   83a64:	6b11      	ldr	r1, [r2, #48]	; 0x30
   83a66:	f001 0170 	and.w	r1, r1, #112	; 0x70
   83a6a:	2970      	cmp	r1, #112	; 0x70
   83a6c:	bf05      	ittet	eq
   83a6e:	2103      	moveq	r1, #3
   83a70:	681a      	ldreq	r2, [r3, #0]
   83a72:	6b11      	ldrne	r1, [r2, #48]	; 0x30
   83a74:	fbb2 f2f1 	udiveq	r2, r2, r1
   83a78:	bf1e      	ittt	ne
   83a7a:	681a      	ldrne	r2, [r3, #0]
   83a7c:	f3c1 1102 	ubfxne	r1, r1, #4, #3
   83a80:	40ca      	lsrne	r2, r1
   83a82:	601a      	str	r2, [r3, #0]
   83a84:	bd10      	pop	{r4, pc}
   83a86:	4915      	ldr	r1, [pc, #84]	; (83adc <SystemCoreClockUpdate+0xc4>)
   83a88:	e7dc      	b.n	83a44 <SystemCoreClockUpdate+0x2c>
   83a8a:	4913      	ldr	r1, [pc, #76]	; (83ad8 <SystemCoreClockUpdate+0xc0>)
   83a8c:	6019      	str	r1, [r3, #0]
   83a8e:	6a11      	ldr	r1, [r2, #32]
   83a90:	f001 0170 	and.w	r1, r1, #112	; 0x70
   83a94:	2910      	cmp	r1, #16
   83a96:	d013      	beq.n	83ac0 <SystemCoreClockUpdate+0xa8>
   83a98:	2920      	cmp	r1, #32
   83a9a:	d0c9      	beq.n	83a30 <SystemCoreClockUpdate+0x18>
   83a9c:	6b11      	ldr	r1, [r2, #48]	; 0x30
   83a9e:	f001 0103 	and.w	r1, r1, #3
   83aa2:	2902      	cmp	r1, #2
   83aa4:	bf01      	itttt	eq
   83aa6:	6a94      	ldreq	r4, [r2, #40]	; 0x28
   83aa8:	6819      	ldreq	r1, [r3, #0]
   83aaa:	f3c4 440a 	ubfxeq	r4, r4, #16, #11
   83aae:	fb04 1101 	mlaeq	r1, r4, r1, r1
   83ab2:	bf09      	itett	eq
   83ab4:	6a90      	ldreq	r0, [r2, #40]	; 0x28
   83ab6:	490a      	ldrne	r1, [pc, #40]	; (83ae0 <SystemCoreClockUpdate+0xc8>)
   83ab8:	b2c0      	uxtbeq	r0, r0
   83aba:	fbb1 f1f0 	udiveq	r1, r1, r0
   83abe:	e7c1      	b.n	83a44 <SystemCoreClockUpdate+0x2c>
   83ac0:	4906      	ldr	r1, [pc, #24]	; (83adc <SystemCoreClockUpdate+0xc4>)
   83ac2:	6019      	str	r1, [r3, #0]
   83ac4:	e7ea      	b.n	83a9c <SystemCoreClockUpdate+0x84>
   83ac6:	bf00      	nop
   83ac8:	400e0600 	.word	0x400e0600
   83acc:	2007016c 	.word	0x2007016c
   83ad0:	00b71b00 	.word	0x00b71b00
   83ad4:	400e1a10 	.word	0x400e1a10
   83ad8:	003d0900 	.word	0x003d0900
   83adc:	007a1200 	.word	0x007a1200
   83ae0:	0e4e1c00 	.word	0x0e4e1c00

00083ae4 <_sbrk>:
   83ae4:	4b07      	ldr	r3, [pc, #28]	; (83b04 <_sbrk+0x20>)
   83ae6:	681a      	ldr	r2, [r3, #0]
   83ae8:	b90a      	cbnz	r2, 83aee <_sbrk+0xa>
   83aea:	4a07      	ldr	r2, [pc, #28]	; (83b08 <_sbrk+0x24>)
   83aec:	601a      	str	r2, [r3, #0]
   83aee:	681a      	ldr	r2, [r3, #0]
   83af0:	4906      	ldr	r1, [pc, #24]	; (83b0c <_sbrk+0x28>)
   83af2:	4410      	add	r0, r2
   83af4:	4281      	cmp	r1, r0
   83af6:	bfa6      	itte	ge
   83af8:	6018      	strge	r0, [r3, #0]
   83afa:	4610      	movge	r0, r2
   83afc:	f04f 30ff 	movlt.w	r0, #4294967295
   83b00:	4770      	bx	lr
   83b02:	bf00      	nop
   83b04:	2007ade4 	.word	0x2007ade4
   83b08:	2007ce78 	.word	0x2007ce78
   83b0c:	20087ffc 	.word	0x20087ffc

00083b10 <_close>:
   83b10:	f04f 30ff 	mov.w	r0, #4294967295
   83b14:	4770      	bx	lr

00083b16 <_fstat>:
   83b16:	f44f 5300 	mov.w	r3, #8192	; 0x2000
   83b1a:	2000      	movs	r0, #0
   83b1c:	604b      	str	r3, [r1, #4]
   83b1e:	4770      	bx	lr

00083b20 <_isatty>:
   83b20:	2001      	movs	r0, #1
   83b22:	4770      	bx	lr

00083b24 <_lseek>:
   83b24:	2000      	movs	r0, #0
   83b26:	4770      	bx	lr

00083b28 <main>:
   83b28:	b508      	push	{r3, lr}
   83b2a:	4b02      	ldr	r3, [pc, #8]	; (83b34 <main+0xc>)
   83b2c:	4798      	blx	r3
   83b2e:	2000      	movs	r0, #0
   83b30:	bd08      	pop	{r3, pc}
   83b32:	bf00      	nop
   83b34:	00081f1d 	.word	0x00081f1d

00083b38 <round>:
   83b38:	b5f8      	push	{r3, r4, r5, r6, r7, lr}
   83b3a:	f3c1 560a 	ubfx	r6, r1, #20, #11
   83b3e:	f2a6 35ff 	subw	r5, r6, #1023	; 0x3ff
   83b42:	2d13      	cmp	r5, #19
   83b44:	460a      	mov	r2, r1
   83b46:	460b      	mov	r3, r1
   83b48:	4604      	mov	r4, r0
   83b4a:	dc11      	bgt.n	83b70 <round+0x38>
   83b4c:	2d00      	cmp	r5, #0
   83b4e:	db2e      	blt.n	83bae <round+0x76>
   83b50:	468e      	mov	lr, r1
   83b52:	4920      	ldr	r1, [pc, #128]	; (83bd4 <round+0x9c>)
   83b54:	4129      	asrs	r1, r5
   83b56:	420a      	tst	r2, r1
   83b58:	d025      	beq.n	83ba6 <round+0x6e>
   83b5a:	f44f 2300 	mov.w	r3, #524288	; 0x80000
   83b5e:	2600      	movs	r6, #0
   83b60:	412b      	asrs	r3, r5
   83b62:	4473      	add	r3, lr
   83b64:	ea23 0301 	bic.w	r3, r3, r1
   83b68:	4619      	mov	r1, r3
   83b6a:	4634      	mov	r4, r6
   83b6c:	4620      	mov	r0, r4
   83b6e:	bdf8      	pop	{r3, r4, r5, r6, r7, pc}
   83b70:	2d33      	cmp	r5, #51	; 0x33
   83b72:	dd05      	ble.n	83b80 <round+0x48>
   83b74:	f5b5 6f80 	cmp.w	r5, #1024	; 0x400
   83b78:	d01f      	beq.n	83bba <round+0x82>
   83b7a:	4611      	mov	r1, r2
   83b7c:	4620      	mov	r0, r4
   83b7e:	bdf8      	pop	{r3, r4, r5, r6, r7, pc}
   83b80:	f04f 31ff 	mov.w	r1, #4294967295
   83b84:	f2a6 4613 	subw	r6, r6, #1043	; 0x413
   83b88:	fa21 f606 	lsr.w	r6, r1, r6
   83b8c:	4230      	tst	r0, r6
   83b8e:	d0f4      	beq.n	83b7a <round+0x42>
   83b90:	2101      	movs	r1, #1
   83b92:	f1c5 0233 	rsb	r2, r5, #51	; 0x33
   83b96:	fa01 f202 	lsl.w	r2, r1, r2
   83b9a:	1812      	adds	r2, r2, r0
   83b9c:	bf28      	it	cs
   83b9e:	185b      	addcs	r3, r3, r1
   83ba0:	ea22 0606 	bic.w	r6, r2, r6
   83ba4:	e7e0      	b.n	83b68 <round+0x30>
   83ba6:	2800      	cmp	r0, #0
   83ba8:	d1d7      	bne.n	83b5a <round+0x22>
   83baa:	4611      	mov	r1, r2
   83bac:	e7e6      	b.n	83b7c <round+0x44>
   83bae:	3501      	adds	r5, #1
   83bb0:	f001 4300 	and.w	r3, r1, #2147483648	; 0x80000000
   83bb4:	d007      	beq.n	83bc6 <round+0x8e>
   83bb6:	2600      	movs	r6, #0
   83bb8:	e7d6      	b.n	83b68 <round+0x30>
   83bba:	4602      	mov	r2, r0
   83bbc:	460b      	mov	r3, r1
   83bbe:	f000 faa7 	bl	84110 <__adddf3>
   83bc2:	4604      	mov	r4, r0
   83bc4:	e7d2      	b.n	83b6c <round+0x34>
   83bc6:	f043 537f 	orr.w	r3, r3, #1069547520	; 0x3fc00000
   83bca:	f443 1340 	orr.w	r3, r3, #3145728	; 0x300000
   83bce:	2600      	movs	r6, #0
   83bd0:	e7ca      	b.n	83b68 <round+0x30>
   83bd2:	bf00      	nop
   83bd4:	000fffff 	.word	0x000fffff

00083bd8 <atan2>:
   83bd8:	f000 b802 	b.w	83be0 <__ieee754_atan2>
   83bdc:	0000      	movs	r0, r0
	...

00083be0 <__ieee754_atan2>:
   83be0:	e92d 4ff8 	stmdb	sp!, {r3, r4, r5, r6, r7, r8, r9, sl, fp, lr}
   83be4:	4254      	negs	r4, r2
   83be6:	4314      	orrs	r4, r2
   83be8:	f023 4900 	bic.w	r9, r3, #2147483648	; 0x80000000
   83bec:	f8df e1c0 	ldr.w	lr, [pc, #448]	; 83db0 <__ieee754_atan2+0x1d0>
   83bf0:	ea49 74d4 	orr.w	r4, r9, r4, lsr #31
   83bf4:	4574      	cmp	r4, lr
   83bf6:	4606      	mov	r6, r0
   83bf8:	460d      	mov	r5, r1
   83bfa:	d840      	bhi.n	83c7e <__ieee754_atan2+0x9e>
   83bfc:	4244      	negs	r4, r0
   83bfe:	4304      	orrs	r4, r0
   83c00:	f021 4b00 	bic.w	fp, r1, #2147483648	; 0x80000000
   83c04:	ea4b 74d4 	orr.w	r4, fp, r4, lsr #31
   83c08:	4574      	cmp	r4, lr
   83c0a:	468a      	mov	sl, r1
   83c0c:	d837      	bhi.n	83c7e <__ieee754_atan2+0x9e>
   83c0e:	f103 4440 	add.w	r4, r3, #3221225472	; 0xc0000000
   83c12:	f504 1480 	add.w	r4, r4, #1048576	; 0x100000
   83c16:	4314      	orrs	r4, r2
   83c18:	d04a      	beq.n	83cb0 <__ieee754_atan2+0xd0>
   83c1a:	179c      	asrs	r4, r3, #30
   83c1c:	f004 0402 	and.w	r4, r4, #2
   83c20:	ea44 74d1 	orr.w	r4, r4, r1, lsr #31
   83c24:	ea50 010b 	orrs.w	r1, r0, fp
   83c28:	d031      	beq.n	83c8e <__ieee754_atan2+0xae>
   83c2a:	ea52 0109 	orrs.w	r1, r2, r9
   83c2e:	d037      	beq.n	83ca0 <__ieee754_atan2+0xc0>
   83c30:	45f1      	cmp	r9, lr
   83c32:	d052      	beq.n	83cda <__ieee754_atan2+0xfa>
   83c34:	45f3      	cmp	fp, lr
   83c36:	d033      	beq.n	83ca0 <__ieee754_atan2+0xc0>
   83c38:	ebab 0909 	sub.w	r9, fp, r9
   83c3c:	ea4f 5929 	mov.w	r9, r9, asr #20
   83c40:	f1b9 0f3c 	cmp.w	r9, #60	; 0x3c
   83c44:	dc3b      	bgt.n	83cbe <__ieee754_atan2+0xde>
   83c46:	2b00      	cmp	r3, #0
   83c48:	db66      	blt.n	83d18 <__ieee754_atan2+0x138>
   83c4a:	4630      	mov	r0, r6
   83c4c:	4629      	mov	r1, r5
   83c4e:	f000 fd3b 	bl	846c8 <__aeabi_ddiv>
   83c52:	f000 fa53 	bl	840fc <fabs>
   83c56:	f000 f8af 	bl	83db8 <atan>
   83c5a:	2c01      	cmp	r4, #1
   83c5c:	d058      	beq.n	83d10 <__ieee754_atan2+0x130>
   83c5e:	2c02      	cmp	r4, #2
   83c60:	d048      	beq.n	83cf4 <__ieee754_atan2+0x114>
   83c62:	2c00      	cmp	r4, #0
   83c64:	d05e      	beq.n	83d24 <__ieee754_atan2+0x144>
   83c66:	a340      	add	r3, pc, #256	; (adr r3, 83d68 <__ieee754_atan2+0x188>)
   83c68:	e9d3 2300 	ldrd	r2, r3, [r3]
   83c6c:	f000 fa4e 	bl	8410c <__aeabi_dsub>
   83c70:	a33f      	add	r3, pc, #252	; (adr r3, 83d70 <__ieee754_atan2+0x190>)
   83c72:	e9d3 2300 	ldrd	r2, r3, [r3]
   83c76:	f000 fa49 	bl	8410c <__aeabi_dsub>
   83c7a:	e8bd 8ff8 	ldmia.w	sp!, {r3, r4, r5, r6, r7, r8, r9, sl, fp, pc}
   83c7e:	4610      	mov	r0, r2
   83c80:	4619      	mov	r1, r3
   83c82:	4632      	mov	r2, r6
   83c84:	462b      	mov	r3, r5
   83c86:	f000 fa43 	bl	84110 <__adddf3>
   83c8a:	e8bd 8ff8 	ldmia.w	sp!, {r3, r4, r5, r6, r7, r8, r9, sl, fp, pc}
   83c8e:	2c02      	cmp	r4, #2
   83c90:	d019      	beq.n	83cc6 <__ieee754_atan2+0xe6>
   83c92:	2c03      	cmp	r4, #3
   83c94:	d110      	bne.n	83cb8 <__ieee754_atan2+0xd8>
   83c96:	a138      	add	r1, pc, #224	; (adr r1, 83d78 <__ieee754_atan2+0x198>)
   83c98:	e9d1 0100 	ldrd	r0, r1, [r1]
   83c9c:	e8bd 8ff8 	ldmia.w	sp!, {r3, r4, r5, r6, r7, r8, r9, sl, fp, pc}
   83ca0:	f1ba 0f00 	cmp.w	sl, #0
   83ca4:	db14      	blt.n	83cd0 <__ieee754_atan2+0xf0>
   83ca6:	a136      	add	r1, pc, #216	; (adr r1, 83d80 <__ieee754_atan2+0x1a0>)
   83ca8:	e9d1 0100 	ldrd	r0, r1, [r1]
   83cac:	e8bd 8ff8 	ldmia.w	sp!, {r3, r4, r5, r6, r7, r8, r9, sl, fp, pc}
   83cb0:	e8bd 4ff8 	ldmia.w	sp!, {r3, r4, r5, r6, r7, r8, r9, sl, fp, lr}
   83cb4:	f000 b880 	b.w	83db8 <atan>
   83cb8:	4629      	mov	r1, r5
   83cba:	e8bd 8ff8 	ldmia.w	sp!, {r3, r4, r5, r6, r7, r8, r9, sl, fp, pc}
   83cbe:	a130      	add	r1, pc, #192	; (adr r1, 83d80 <__ieee754_atan2+0x1a0>)
   83cc0:	e9d1 0100 	ldrd	r0, r1, [r1]
   83cc4:	e7c9      	b.n	83c5a <__ieee754_atan2+0x7a>
   83cc6:	a12a      	add	r1, pc, #168	; (adr r1, 83d70 <__ieee754_atan2+0x190>)
   83cc8:	e9d1 0100 	ldrd	r0, r1, [r1]
   83ccc:	e8bd 8ff8 	ldmia.w	sp!, {r3, r4, r5, r6, r7, r8, r9, sl, fp, pc}
   83cd0:	a12d      	add	r1, pc, #180	; (adr r1, 83d88 <__ieee754_atan2+0x1a8>)
   83cd2:	e9d1 0100 	ldrd	r0, r1, [r1]
   83cd6:	e8bd 8ff8 	ldmia.w	sp!, {r3, r4, r5, r6, r7, r8, r9, sl, fp, pc}
   83cda:	45cb      	cmp	fp, r9
   83cdc:	d024      	beq.n	83d28 <__ieee754_atan2+0x148>
   83cde:	2c02      	cmp	r4, #2
   83ce0:	d0f1      	beq.n	83cc6 <__ieee754_atan2+0xe6>
   83ce2:	2c03      	cmp	r4, #3
   83ce4:	d0d7      	beq.n	83c96 <__ieee754_atan2+0xb6>
   83ce6:	2c01      	cmp	r4, #1
   83ce8:	f04f 0000 	mov.w	r0, #0
   83cec:	d027      	beq.n	83d3e <__ieee754_atan2+0x15e>
   83cee:	2100      	movs	r1, #0
   83cf0:	e8bd 8ff8 	ldmia.w	sp!, {r3, r4, r5, r6, r7, r8, r9, sl, fp, pc}
   83cf4:	a31c      	add	r3, pc, #112	; (adr r3, 83d68 <__ieee754_atan2+0x188>)
   83cf6:	e9d3 2300 	ldrd	r2, r3, [r3]
   83cfa:	f000 fa07 	bl	8410c <__aeabi_dsub>
   83cfe:	4602      	mov	r2, r0
   83d00:	460b      	mov	r3, r1
   83d02:	a11b      	add	r1, pc, #108	; (adr r1, 83d70 <__ieee754_atan2+0x190>)
   83d04:	e9d1 0100 	ldrd	r0, r1, [r1]
   83d08:	f000 fa00 	bl	8410c <__aeabi_dsub>
   83d0c:	e8bd 8ff8 	ldmia.w	sp!, {r3, r4, r5, r6, r7, r8, r9, sl, fp, pc}
   83d10:	f101 4100 	add.w	r1, r1, #2147483648	; 0x80000000
   83d14:	e8bd 8ff8 	ldmia.w	sp!, {r3, r4, r5, r6, r7, r8, r9, sl, fp, pc}
   83d18:	f119 0f3c 	cmn.w	r9, #60	; 0x3c
   83d1c:	da95      	bge.n	83c4a <__ieee754_atan2+0x6a>
   83d1e:	2000      	movs	r0, #0
   83d20:	2100      	movs	r1, #0
   83d22:	e79a      	b.n	83c5a <__ieee754_atan2+0x7a>
   83d24:	e8bd 8ff8 	ldmia.w	sp!, {r3, r4, r5, r6, r7, r8, r9, sl, fp, pc}
   83d28:	2c02      	cmp	r4, #2
   83d2a:	d016      	beq.n	83d5a <__ieee754_atan2+0x17a>
   83d2c:	2c03      	cmp	r4, #3
   83d2e:	d00f      	beq.n	83d50 <__ieee754_atan2+0x170>
   83d30:	2c01      	cmp	r4, #1
   83d32:	d008      	beq.n	83d46 <__ieee754_atan2+0x166>
   83d34:	a116      	add	r1, pc, #88	; (adr r1, 83d90 <__ieee754_atan2+0x1b0>)
   83d36:	e9d1 0100 	ldrd	r0, r1, [r1]
   83d3a:	e8bd 8ff8 	ldmia.w	sp!, {r3, r4, r5, r6, r7, r8, r9, sl, fp, pc}
   83d3e:	f04f 4100 	mov.w	r1, #2147483648	; 0x80000000
   83d42:	e8bd 8ff8 	ldmia.w	sp!, {r3, r4, r5, r6, r7, r8, r9, sl, fp, pc}
   83d46:	a114      	add	r1, pc, #80	; (adr r1, 83d98 <__ieee754_atan2+0x1b8>)
   83d48:	e9d1 0100 	ldrd	r0, r1, [r1]
   83d4c:	e8bd 8ff8 	ldmia.w	sp!, {r3, r4, r5, r6, r7, r8, r9, sl, fp, pc}
   83d50:	a113      	add	r1, pc, #76	; (adr r1, 83da0 <__ieee754_atan2+0x1c0>)
   83d52:	e9d1 0100 	ldrd	r0, r1, [r1]
   83d56:	e8bd 8ff8 	ldmia.w	sp!, {r3, r4, r5, r6, r7, r8, r9, sl, fp, pc}
   83d5a:	a113      	add	r1, pc, #76	; (adr r1, 83da8 <__ieee754_atan2+0x1c8>)
   83d5c:	e9d1 0100 	ldrd	r0, r1, [r1]
   83d60:	e8bd 8ff8 	ldmia.w	sp!, {r3, r4, r5, r6, r7, r8, r9, sl, fp, pc}
   83d64:	f3af 8000 	nop.w
   83d68:	33145c07 	.word	0x33145c07
   83d6c:	3ca1a626 	.word	0x3ca1a626
   83d70:	54442d18 	.word	0x54442d18
   83d74:	400921fb 	.word	0x400921fb
   83d78:	54442d18 	.word	0x54442d18
   83d7c:	c00921fb 	.word	0xc00921fb
   83d80:	54442d18 	.word	0x54442d18
   83d84:	3ff921fb 	.word	0x3ff921fb
   83d88:	54442d18 	.word	0x54442d18
   83d8c:	bff921fb 	.word	0xbff921fb
   83d90:	54442d18 	.word	0x54442d18
   83d94:	3fe921fb 	.word	0x3fe921fb
   83d98:	54442d18 	.word	0x54442d18
   83d9c:	bfe921fb 	.word	0xbfe921fb
   83da0:	7f3321d2 	.word	0x7f3321d2
   83da4:	c002d97c 	.word	0xc002d97c
   83da8:	7f3321d2 	.word	0x7f3321d2
   83dac:	4002d97c 	.word	0x4002d97c
   83db0:	7ff00000 	.word	0x7ff00000
   83db4:	00000000 	.word	0x00000000

00083db8 <atan>:
   83db8:	e92d 4ff8 	stmdb	sp!, {r3, r4, r5, r6, r7, r8, r9, sl, fp, lr}
   83dbc:	4bc2      	ldr	r3, [pc, #776]	; (840c8 <atan+0x310>)
   83dbe:	f021 4600 	bic.w	r6, r1, #2147483648	; 0x80000000
   83dc2:	429e      	cmp	r6, r3
   83dc4:	460d      	mov	r5, r1
   83dc6:	468a      	mov	sl, r1
   83dc8:	4604      	mov	r4, r0
   83dca:	dd10      	ble.n	83dee <atan+0x36>
   83dcc:	4bbf      	ldr	r3, [pc, #764]	; (840cc <atan+0x314>)
   83dce:	429e      	cmp	r6, r3
   83dd0:	f300 80b5 	bgt.w	83f3e <atan+0x186>
   83dd4:	f000 80b0 	beq.w	83f38 <atan+0x180>
   83dd8:	4bbd      	ldr	r3, [pc, #756]	; (840d0 <atan+0x318>)
   83dda:	49be      	ldr	r1, [pc, #760]	; (840d4 <atan+0x31c>)
   83ddc:	4cbe      	ldr	r4, [pc, #760]	; (840d8 <atan+0x320>)
   83dde:	f1ba 0f00 	cmp.w	sl, #0
   83de2:	bfd8      	it	le
   83de4:	460b      	movle	r3, r1
   83de6:	4620      	mov	r0, r4
   83de8:	4619      	mov	r1, r3
   83dea:	e8bd 8ff8 	ldmia.w	sp!, {r3, r4, r5, r6, r7, r8, r9, sl, fp, pc}
   83dee:	4bbb      	ldr	r3, [pc, #748]	; (840dc <atan+0x324>)
   83df0:	429e      	cmp	r6, r3
   83df2:	f300 80c1 	bgt.w	83f78 <atan+0x1c0>
   83df6:	f1a3 73de 	sub.w	r3, r3, #29097984	; 0x1bc0000
   83dfa:	429e      	cmp	r6, r3
   83dfc:	f340 80ab 	ble.w	83f56 <atan+0x19e>
   83e00:	f04f 3bff 	mov.w	fp, #4294967295
   83e04:	4622      	mov	r2, r4
   83e06:	462b      	mov	r3, r5
   83e08:	4620      	mov	r0, r4
   83e0a:	4629      	mov	r1, r5
   83e0c:	f000 fb32 	bl	84474 <__aeabi_dmul>
   83e10:	4602      	mov	r2, r0
   83e12:	460b      	mov	r3, r1
   83e14:	4680      	mov	r8, r0
   83e16:	4689      	mov	r9, r1
   83e18:	f000 fb2c 	bl	84474 <__aeabi_dmul>
   83e1c:	a392      	add	r3, pc, #584	; (adr r3, 84068 <atan+0x2b0>)
   83e1e:	e9d3 2300 	ldrd	r2, r3, [r3]
   83e22:	4606      	mov	r6, r0
   83e24:	460f      	mov	r7, r1
   83e26:	f000 fb25 	bl	84474 <__aeabi_dmul>
   83e2a:	a391      	add	r3, pc, #580	; (adr r3, 84070 <atan+0x2b8>)
   83e2c:	e9d3 2300 	ldrd	r2, r3, [r3]
   83e30:	f000 f96e 	bl	84110 <__adddf3>
   83e34:	4632      	mov	r2, r6
   83e36:	463b      	mov	r3, r7
   83e38:	f000 fb1c 	bl	84474 <__aeabi_dmul>
   83e3c:	a38e      	add	r3, pc, #568	; (adr r3, 84078 <atan+0x2c0>)
   83e3e:	e9d3 2300 	ldrd	r2, r3, [r3]
   83e42:	f000 f965 	bl	84110 <__adddf3>
   83e46:	4632      	mov	r2, r6
   83e48:	463b      	mov	r3, r7
   83e4a:	f000 fb13 	bl	84474 <__aeabi_dmul>
   83e4e:	a38c      	add	r3, pc, #560	; (adr r3, 84080 <atan+0x2c8>)
   83e50:	e9d3 2300 	ldrd	r2, r3, [r3]
   83e54:	f000 f95c 	bl	84110 <__adddf3>
   83e58:	4632      	mov	r2, r6
   83e5a:	463b      	mov	r3, r7
   83e5c:	f000 fb0a 	bl	84474 <__aeabi_dmul>
   83e60:	a389      	add	r3, pc, #548	; (adr r3, 84088 <atan+0x2d0>)
   83e62:	e9d3 2300 	ldrd	r2, r3, [r3]
   83e66:	f000 f953 	bl	84110 <__adddf3>
   83e6a:	4632      	mov	r2, r6
   83e6c:	463b      	mov	r3, r7
   83e6e:	f000 fb01 	bl	84474 <__aeabi_dmul>
   83e72:	a387      	add	r3, pc, #540	; (adr r3, 84090 <atan+0x2d8>)
   83e74:	e9d3 2300 	ldrd	r2, r3, [r3]
   83e78:	f000 f94a 	bl	84110 <__adddf3>
   83e7c:	4642      	mov	r2, r8
   83e7e:	464b      	mov	r3, r9
   83e80:	f000 faf8 	bl	84474 <__aeabi_dmul>
   83e84:	a384      	add	r3, pc, #528	; (adr r3, 84098 <atan+0x2e0>)
   83e86:	e9d3 2300 	ldrd	r2, r3, [r3]
   83e8a:	4680      	mov	r8, r0
   83e8c:	4689      	mov	r9, r1
   83e8e:	4630      	mov	r0, r6
   83e90:	4639      	mov	r1, r7
   83e92:	f000 faef 	bl	84474 <__aeabi_dmul>
   83e96:	a382      	add	r3, pc, #520	; (adr r3, 840a0 <atan+0x2e8>)
   83e98:	e9d3 2300 	ldrd	r2, r3, [r3]
   83e9c:	f000 f936 	bl	8410c <__aeabi_dsub>
   83ea0:	4632      	mov	r2, r6
   83ea2:	463b      	mov	r3, r7
   83ea4:	f000 fae6 	bl	84474 <__aeabi_dmul>
   83ea8:	a37f      	add	r3, pc, #508	; (adr r3, 840a8 <atan+0x2f0>)
   83eaa:	e9d3 2300 	ldrd	r2, r3, [r3]
   83eae:	f000 f92d 	bl	8410c <__aeabi_dsub>
   83eb2:	4632      	mov	r2, r6
   83eb4:	463b      	mov	r3, r7
   83eb6:	f000 fadd 	bl	84474 <__aeabi_dmul>
   83eba:	a37d      	add	r3, pc, #500	; (adr r3, 840b0 <atan+0x2f8>)
   83ebc:	e9d3 2300 	ldrd	r2, r3, [r3]
   83ec0:	f000 f924 	bl	8410c <__aeabi_dsub>
   83ec4:	4632      	mov	r2, r6
   83ec6:	463b      	mov	r3, r7
   83ec8:	f000 fad4 	bl	84474 <__aeabi_dmul>
   83ecc:	a37a      	add	r3, pc, #488	; (adr r3, 840b8 <atan+0x300>)
   83ece:	e9d3 2300 	ldrd	r2, r3, [r3]
   83ed2:	f000 f91b 	bl	8410c <__aeabi_dsub>
   83ed6:	4632      	mov	r2, r6
   83ed8:	463b      	mov	r3, r7
   83eda:	f000 facb 	bl	84474 <__aeabi_dmul>
   83ede:	f1bb 3fff 	cmp.w	fp, #4294967295
   83ee2:	4602      	mov	r2, r0
   83ee4:	460b      	mov	r3, r1
   83ee6:	d06e      	beq.n	83fc6 <atan+0x20e>
   83ee8:	4640      	mov	r0, r8
   83eea:	4649      	mov	r1, r9
   83eec:	f000 f910 	bl	84110 <__adddf3>
   83ef0:	4622      	mov	r2, r4
   83ef2:	462b      	mov	r3, r5
   83ef4:	f000 fabe 	bl	84474 <__aeabi_dmul>
   83ef8:	4e79      	ldr	r6, [pc, #484]	; (840e0 <atan+0x328>)
   83efa:	4b7a      	ldr	r3, [pc, #488]	; (840e4 <atan+0x32c>)
   83efc:	ea4f 0bcb 	mov.w	fp, fp, lsl #3
   83f00:	445e      	add	r6, fp
   83f02:	449b      	add	fp, r3
   83f04:	e9db 2300 	ldrd	r2, r3, [fp]
   83f08:	f000 f900 	bl	8410c <__aeabi_dsub>
   83f0c:	4622      	mov	r2, r4
   83f0e:	462b      	mov	r3, r5
   83f10:	f000 f8fc 	bl	8410c <__aeabi_dsub>
   83f14:	460b      	mov	r3, r1
   83f16:	4602      	mov	r2, r0
   83f18:	e9d6 0100 	ldrd	r0, r1, [r6]
   83f1c:	f000 f8f6 	bl	8410c <__aeabi_dsub>
   83f20:	f1ba 0f00 	cmp.w	sl, #0
   83f24:	4604      	mov	r4, r0
   83f26:	460b      	mov	r3, r1
   83f28:	f6bf af5d 	bge.w	83de6 <atan+0x2e>
   83f2c:	f101 4300 	add.w	r3, r1, #2147483648	; 0x80000000
   83f30:	4620      	mov	r0, r4
   83f32:	4619      	mov	r1, r3
   83f34:	e8bd 8ff8 	ldmia.w	sp!, {r3, r4, r5, r6, r7, r8, r9, sl, fp, pc}
   83f38:	2800      	cmp	r0, #0
   83f3a:	f43f af4d 	beq.w	83dd8 <atan+0x20>
   83f3e:	4622      	mov	r2, r4
   83f40:	462b      	mov	r3, r5
   83f42:	4620      	mov	r0, r4
   83f44:	4629      	mov	r1, r5
   83f46:	f000 f8e3 	bl	84110 <__adddf3>
   83f4a:	4604      	mov	r4, r0
   83f4c:	460b      	mov	r3, r1
   83f4e:	4620      	mov	r0, r4
   83f50:	4619      	mov	r1, r3
   83f52:	e8bd 8ff8 	ldmia.w	sp!, {r3, r4, r5, r6, r7, r8, r9, sl, fp, pc}
   83f56:	a35a      	add	r3, pc, #360	; (adr r3, 840c0 <atan+0x308>)
   83f58:	e9d3 2300 	ldrd	r2, r3, [r3]
   83f5c:	f000 f8d8 	bl	84110 <__adddf3>
   83f60:	2200      	movs	r2, #0
   83f62:	4b61      	ldr	r3, [pc, #388]	; (840e8 <atan+0x330>)
   83f64:	f000 fd16 	bl	84994 <__aeabi_dcmpgt>
   83f68:	2800      	cmp	r0, #0
   83f6a:	f43f af49 	beq.w	83e00 <atan+0x48>
   83f6e:	462b      	mov	r3, r5
   83f70:	4620      	mov	r0, r4
   83f72:	4619      	mov	r1, r3
   83f74:	e8bd 8ff8 	ldmia.w	sp!, {r3, r4, r5, r6, r7, r8, r9, sl, fp, pc}
   83f78:	f000 f8c0 	bl	840fc <fabs>
   83f7c:	4b5b      	ldr	r3, [pc, #364]	; (840ec <atan+0x334>)
   83f7e:	4604      	mov	r4, r0
   83f80:	429e      	cmp	r6, r3
   83f82:	460d      	mov	r5, r1
   83f84:	dc30      	bgt.n	83fe8 <atan+0x230>
   83f86:	f5a3 2350 	sub.w	r3, r3, #851968	; 0xd0000
   83f8a:	429e      	cmp	r6, r3
   83f8c:	dc55      	bgt.n	8403a <atan+0x282>
   83f8e:	4602      	mov	r2, r0
   83f90:	460b      	mov	r3, r1
   83f92:	f000 f8bd 	bl	84110 <__adddf3>
   83f96:	2200      	movs	r2, #0
   83f98:	4b53      	ldr	r3, [pc, #332]	; (840e8 <atan+0x330>)
   83f9a:	f000 f8b7 	bl	8410c <__aeabi_dsub>
   83f9e:	2200      	movs	r2, #0
   83fa0:	4606      	mov	r6, r0
   83fa2:	460f      	mov	r7, r1
   83fa4:	f04f 4380 	mov.w	r3, #1073741824	; 0x40000000
   83fa8:	4620      	mov	r0, r4
   83faa:	4629      	mov	r1, r5
   83fac:	f000 f8b0 	bl	84110 <__adddf3>
   83fb0:	4602      	mov	r2, r0
   83fb2:	460b      	mov	r3, r1
   83fb4:	4630      	mov	r0, r6
   83fb6:	4639      	mov	r1, r7
   83fb8:	f000 fb86 	bl	846c8 <__aeabi_ddiv>
   83fbc:	f04f 0b00 	mov.w	fp, #0
   83fc0:	4604      	mov	r4, r0
   83fc2:	460d      	mov	r5, r1
   83fc4:	e71e      	b.n	83e04 <atan+0x4c>
   83fc6:	4640      	mov	r0, r8
   83fc8:	4649      	mov	r1, r9
   83fca:	f000 f8a1 	bl	84110 <__adddf3>
   83fce:	4622      	mov	r2, r4
   83fd0:	462b      	mov	r3, r5
   83fd2:	f000 fa4f 	bl	84474 <__aeabi_dmul>
   83fd6:	460b      	mov	r3, r1
   83fd8:	4602      	mov	r2, r0
   83fda:	4629      	mov	r1, r5
   83fdc:	4620      	mov	r0, r4
   83fde:	f000 f895 	bl	8410c <__aeabi_dsub>
   83fe2:	4604      	mov	r4, r0
   83fe4:	460b      	mov	r3, r1
   83fe6:	e6fe      	b.n	83de6 <atan+0x2e>
   83fe8:	4b41      	ldr	r3, [pc, #260]	; (840f0 <atan+0x338>)
   83fea:	429e      	cmp	r6, r3
   83fec:	dc1a      	bgt.n	84024 <atan+0x26c>
   83fee:	2200      	movs	r2, #0
   83ff0:	4b40      	ldr	r3, [pc, #256]	; (840f4 <atan+0x33c>)
   83ff2:	f000 f88b 	bl	8410c <__aeabi_dsub>
   83ff6:	2200      	movs	r2, #0
   83ff8:	4606      	mov	r6, r0
   83ffa:	460f      	mov	r7, r1
   83ffc:	4b3d      	ldr	r3, [pc, #244]	; (840f4 <atan+0x33c>)
   83ffe:	4620      	mov	r0, r4
   84000:	4629      	mov	r1, r5
   84002:	f000 fa37 	bl	84474 <__aeabi_dmul>
   84006:	2200      	movs	r2, #0
   84008:	4b37      	ldr	r3, [pc, #220]	; (840e8 <atan+0x330>)
   8400a:	f000 f881 	bl	84110 <__adddf3>
   8400e:	4602      	mov	r2, r0
   84010:	460b      	mov	r3, r1
   84012:	4630      	mov	r0, r6
   84014:	4639      	mov	r1, r7
   84016:	f000 fb57 	bl	846c8 <__aeabi_ddiv>
   8401a:	f04f 0b02 	mov.w	fp, #2
   8401e:	4604      	mov	r4, r0
   84020:	460d      	mov	r5, r1
   84022:	e6ef      	b.n	83e04 <atan+0x4c>
   84024:	4602      	mov	r2, r0
   84026:	460b      	mov	r3, r1
   84028:	2000      	movs	r0, #0
   8402a:	4933      	ldr	r1, [pc, #204]	; (840f8 <atan+0x340>)
   8402c:	f000 fb4c 	bl	846c8 <__aeabi_ddiv>
   84030:	f04f 0b03 	mov.w	fp, #3
   84034:	4604      	mov	r4, r0
   84036:	460d      	mov	r5, r1
   84038:	e6e4      	b.n	83e04 <atan+0x4c>
   8403a:	2200      	movs	r2, #0
   8403c:	4b2a      	ldr	r3, [pc, #168]	; (840e8 <atan+0x330>)
   8403e:	f000 f865 	bl	8410c <__aeabi_dsub>
   84042:	2200      	movs	r2, #0
   84044:	4606      	mov	r6, r0
   84046:	460f      	mov	r7, r1
   84048:	4b27      	ldr	r3, [pc, #156]	; (840e8 <atan+0x330>)
   8404a:	4620      	mov	r0, r4
   8404c:	4629      	mov	r1, r5
   8404e:	f000 f85f 	bl	84110 <__adddf3>
   84052:	4602      	mov	r2, r0
   84054:	460b      	mov	r3, r1
   84056:	4630      	mov	r0, r6
   84058:	4639      	mov	r1, r7
   8405a:	f000 fb35 	bl	846c8 <__aeabi_ddiv>
   8405e:	f04f 0b01 	mov.w	fp, #1
   84062:	4604      	mov	r4, r0
   84064:	460d      	mov	r5, r1
   84066:	e6cd      	b.n	83e04 <atan+0x4c>
   84068:	e322da11 	.word	0xe322da11
   8406c:	3f90ad3a 	.word	0x3f90ad3a
   84070:	24760deb 	.word	0x24760deb
   84074:	3fa97b4b 	.word	0x3fa97b4b
   84078:	a0d03d51 	.word	0xa0d03d51
   8407c:	3fb10d66 	.word	0x3fb10d66
   84080:	c54c206e 	.word	0xc54c206e
   84084:	3fb745cd 	.word	0x3fb745cd
   84088:	920083ff 	.word	0x920083ff
   8408c:	3fc24924 	.word	0x3fc24924
   84090:	5555550d 	.word	0x5555550d
   84094:	3fd55555 	.word	0x3fd55555
   84098:	2c6a6c2f 	.word	0x2c6a6c2f
   8409c:	bfa2b444 	.word	0xbfa2b444
   840a0:	52defd9a 	.word	0x52defd9a
   840a4:	3fadde2d 	.word	0x3fadde2d
   840a8:	af749a6d 	.word	0xaf749a6d
   840ac:	3fb3b0f2 	.word	0x3fb3b0f2
   840b0:	fe231671 	.word	0xfe231671
   840b4:	3fbc71c6 	.word	0x3fbc71c6
   840b8:	9998ebc4 	.word	0x9998ebc4
   840bc:	3fc99999 	.word	0x3fc99999
   840c0:	8800759c 	.word	0x8800759c
   840c4:	7e37e43c 	.word	0x7e37e43c
   840c8:	440fffff 	.word	0x440fffff
   840cc:	7ff00000 	.word	0x7ff00000
   840d0:	3ff921fb 	.word	0x3ff921fb
   840d4:	bff921fb 	.word	0xbff921fb
   840d8:	54442d18 	.word	0x54442d18
   840dc:	3fdbffff 	.word	0x3fdbffff
   840e0:	00088500 	.word	0x00088500
   840e4:	00088520 	.word	0x00088520
   840e8:	3ff00000 	.word	0x3ff00000
   840ec:	3ff2ffff 	.word	0x3ff2ffff
   840f0:	40037fff 	.word	0x40037fff
   840f4:	3ff80000 	.word	0x3ff80000
   840f8:	bff00000 	.word	0xbff00000

000840fc <fabs>:
   840fc:	f021 4100 	bic.w	r1, r1, #2147483648	; 0x80000000
   84100:	4770      	bx	lr
   84102:	bf00      	nop

00084104 <__aeabi_drsub>:
   84104:	f081 4100 	eor.w	r1, r1, #2147483648	; 0x80000000
   84108:	e002      	b.n	84110 <__adddf3>
   8410a:	bf00      	nop

0008410c <__aeabi_dsub>:
   8410c:	f083 4300 	eor.w	r3, r3, #2147483648	; 0x80000000

00084110 <__adddf3>:
   84110:	b530      	push	{r4, r5, lr}
   84112:	ea4f 0441 	mov.w	r4, r1, lsl #1
   84116:	ea4f 0543 	mov.w	r5, r3, lsl #1
   8411a:	ea94 0f05 	teq	r4, r5
   8411e:	bf08      	it	eq
   84120:	ea90 0f02 	teqeq	r0, r2
   84124:	bf1f      	itttt	ne
   84126:	ea54 0c00 	orrsne.w	ip, r4, r0
   8412a:	ea55 0c02 	orrsne.w	ip, r5, r2
   8412e:	ea7f 5c64 	mvnsne.w	ip, r4, asr #21
   84132:	ea7f 5c65 	mvnsne.w	ip, r5, asr #21
   84136:	f000 80e2 	beq.w	842fe <__adddf3+0x1ee>
   8413a:	ea4f 5454 	mov.w	r4, r4, lsr #21
   8413e:	ebd4 5555 	rsbs	r5, r4, r5, lsr #21
   84142:	bfb8      	it	lt
   84144:	426d      	neglt	r5, r5
   84146:	dd0c      	ble.n	84162 <__adddf3+0x52>
   84148:	442c      	add	r4, r5
   8414a:	ea80 0202 	eor.w	r2, r0, r2
   8414e:	ea81 0303 	eor.w	r3, r1, r3
   84152:	ea82 0000 	eor.w	r0, r2, r0
   84156:	ea83 0101 	eor.w	r1, r3, r1
   8415a:	ea80 0202 	eor.w	r2, r0, r2
   8415e:	ea81 0303 	eor.w	r3, r1, r3
   84162:	2d36      	cmp	r5, #54	; 0x36
   84164:	bf88      	it	hi
   84166:	bd30      	pophi	{r4, r5, pc}
   84168:	f011 4f00 	tst.w	r1, #2147483648	; 0x80000000
   8416c:	ea4f 3101 	mov.w	r1, r1, lsl #12
   84170:	f44f 1c80 	mov.w	ip, #1048576	; 0x100000
   84174:	ea4c 3111 	orr.w	r1, ip, r1, lsr #12
   84178:	d002      	beq.n	84180 <__adddf3+0x70>
   8417a:	4240      	negs	r0, r0
   8417c:	eb61 0141 	sbc.w	r1, r1, r1, lsl #1
   84180:	f013 4f00 	tst.w	r3, #2147483648	; 0x80000000
   84184:	ea4f 3303 	mov.w	r3, r3, lsl #12
   84188:	ea4c 3313 	orr.w	r3, ip, r3, lsr #12
   8418c:	d002      	beq.n	84194 <__adddf3+0x84>
   8418e:	4252      	negs	r2, r2
   84190:	eb63 0343 	sbc.w	r3, r3, r3, lsl #1
   84194:	ea94 0f05 	teq	r4, r5
   84198:	f000 80a7 	beq.w	842ea <__adddf3+0x1da>
   8419c:	f1a4 0401 	sub.w	r4, r4, #1
   841a0:	f1d5 0e20 	rsbs	lr, r5, #32
   841a4:	db0d      	blt.n	841c2 <__adddf3+0xb2>
   841a6:	fa02 fc0e 	lsl.w	ip, r2, lr
   841aa:	fa22 f205 	lsr.w	r2, r2, r5
   841ae:	1880      	adds	r0, r0, r2
   841b0:	f141 0100 	adc.w	r1, r1, #0
   841b4:	fa03 f20e 	lsl.w	r2, r3, lr
   841b8:	1880      	adds	r0, r0, r2
   841ba:	fa43 f305 	asr.w	r3, r3, r5
   841be:	4159      	adcs	r1, r3
   841c0:	e00e      	b.n	841e0 <__adddf3+0xd0>
   841c2:	f1a5 0520 	sub.w	r5, r5, #32
   841c6:	f10e 0e20 	add.w	lr, lr, #32
   841ca:	2a01      	cmp	r2, #1
   841cc:	fa03 fc0e 	lsl.w	ip, r3, lr
   841d0:	bf28      	it	cs
   841d2:	f04c 0c02 	orrcs.w	ip, ip, #2
   841d6:	fa43 f305 	asr.w	r3, r3, r5
   841da:	18c0      	adds	r0, r0, r3
   841dc:	eb51 71e3 	adcs.w	r1, r1, r3, asr #31
   841e0:	f001 4500 	and.w	r5, r1, #2147483648	; 0x80000000
   841e4:	d507      	bpl.n	841f6 <__adddf3+0xe6>
   841e6:	f04f 0e00 	mov.w	lr, #0
   841ea:	f1dc 0c00 	rsbs	ip, ip, #0
   841ee:	eb7e 0000 	sbcs.w	r0, lr, r0
   841f2:	eb6e 0101 	sbc.w	r1, lr, r1
   841f6:	f5b1 1f80 	cmp.w	r1, #1048576	; 0x100000
   841fa:	d31b      	bcc.n	84234 <__adddf3+0x124>
   841fc:	f5b1 1f00 	cmp.w	r1, #2097152	; 0x200000
   84200:	d30c      	bcc.n	8421c <__adddf3+0x10c>
   84202:	0849      	lsrs	r1, r1, #1
   84204:	ea5f 0030 	movs.w	r0, r0, rrx
   84208:	ea4f 0c3c 	mov.w	ip, ip, rrx
   8420c:	f104 0401 	add.w	r4, r4, #1
   84210:	ea4f 5244 	mov.w	r2, r4, lsl #21
   84214:	f512 0f80 	cmn.w	r2, #4194304	; 0x400000
   84218:	f080 809a 	bcs.w	84350 <__adddf3+0x240>
   8421c:	f1bc 4f00 	cmp.w	ip, #2147483648	; 0x80000000
   84220:	bf08      	it	eq
   84222:	ea5f 0c50 	movseq.w	ip, r0, lsr #1
   84226:	f150 0000 	adcs.w	r0, r0, #0
   8422a:	eb41 5104 	adc.w	r1, r1, r4, lsl #20
   8422e:	ea41 0105 	orr.w	r1, r1, r5
   84232:	bd30      	pop	{r4, r5, pc}
   84234:	ea5f 0c4c 	movs.w	ip, ip, lsl #1
   84238:	4140      	adcs	r0, r0
   8423a:	eb41 0101 	adc.w	r1, r1, r1
   8423e:	f411 1f80 	tst.w	r1, #1048576	; 0x100000
   84242:	f1a4 0401 	sub.w	r4, r4, #1
   84246:	d1e9      	bne.n	8421c <__adddf3+0x10c>
   84248:	f091 0f00 	teq	r1, #0
   8424c:	bf04      	itt	eq
   8424e:	4601      	moveq	r1, r0
   84250:	2000      	moveq	r0, #0
   84252:	fab1 f381 	clz	r3, r1
   84256:	bf08      	it	eq
   84258:	3320      	addeq	r3, #32
   8425a:	f1a3 030b 	sub.w	r3, r3, #11
   8425e:	f1b3 0220 	subs.w	r2, r3, #32
   84262:	da0c      	bge.n	8427e <__adddf3+0x16e>
   84264:	320c      	adds	r2, #12
   84266:	dd08      	ble.n	8427a <__adddf3+0x16a>
   84268:	f102 0c14 	add.w	ip, r2, #20
   8426c:	f1c2 020c 	rsb	r2, r2, #12
   84270:	fa01 f00c 	lsl.w	r0, r1, ip
   84274:	fa21 f102 	lsr.w	r1, r1, r2
   84278:	e00c      	b.n	84294 <__adddf3+0x184>
   8427a:	f102 0214 	add.w	r2, r2, #20
   8427e:	bfd8      	it	le
   84280:	f1c2 0c20 	rsble	ip, r2, #32
   84284:	fa01 f102 	lsl.w	r1, r1, r2
   84288:	fa20 fc0c 	lsr.w	ip, r0, ip
   8428c:	bfdc      	itt	le
   8428e:	ea41 010c 	orrle.w	r1, r1, ip
   84292:	4090      	lslle	r0, r2
   84294:	1ae4      	subs	r4, r4, r3
   84296:	bfa2      	ittt	ge
   84298:	eb01 5104 	addge.w	r1, r1, r4, lsl #20
   8429c:	4329      	orrge	r1, r5
   8429e:	bd30      	popge	{r4, r5, pc}
   842a0:	ea6f 0404 	mvn.w	r4, r4
   842a4:	3c1f      	subs	r4, #31
   842a6:	da1c      	bge.n	842e2 <__adddf3+0x1d2>
   842a8:	340c      	adds	r4, #12
   842aa:	dc0e      	bgt.n	842ca <__adddf3+0x1ba>
   842ac:	f104 0414 	add.w	r4, r4, #20
   842b0:	f1c4 0220 	rsb	r2, r4, #32
   842b4:	fa20 f004 	lsr.w	r0, r0, r4
   842b8:	fa01 f302 	lsl.w	r3, r1, r2
   842bc:	ea40 0003 	orr.w	r0, r0, r3
   842c0:	fa21 f304 	lsr.w	r3, r1, r4
   842c4:	ea45 0103 	orr.w	r1, r5, r3
   842c8:	bd30      	pop	{r4, r5, pc}
   842ca:	f1c4 040c 	rsb	r4, r4, #12
   842ce:	f1c4 0220 	rsb	r2, r4, #32
   842d2:	fa20 f002 	lsr.w	r0, r0, r2
   842d6:	fa01 f304 	lsl.w	r3, r1, r4
   842da:	ea40 0003 	orr.w	r0, r0, r3
   842de:	4629      	mov	r1, r5
   842e0:	bd30      	pop	{r4, r5, pc}
   842e2:	fa21 f004 	lsr.w	r0, r1, r4
   842e6:	4629      	mov	r1, r5
   842e8:	bd30      	pop	{r4, r5, pc}
   842ea:	f094 0f00 	teq	r4, #0
   842ee:	f483 1380 	eor.w	r3, r3, #1048576	; 0x100000
   842f2:	bf06      	itte	eq
   842f4:	f481 1180 	eoreq.w	r1, r1, #1048576	; 0x100000
   842f8:	3401      	addeq	r4, #1
   842fa:	3d01      	subne	r5, #1
   842fc:	e74e      	b.n	8419c <__adddf3+0x8c>
   842fe:	ea7f 5c64 	mvns.w	ip, r4, asr #21
   84302:	bf18      	it	ne
   84304:	ea7f 5c65 	mvnsne.w	ip, r5, asr #21
   84308:	d029      	beq.n	8435e <__adddf3+0x24e>
   8430a:	ea94 0f05 	teq	r4, r5
   8430e:	bf08      	it	eq
   84310:	ea90 0f02 	teqeq	r0, r2
   84314:	d005      	beq.n	84322 <__adddf3+0x212>
   84316:	ea54 0c00 	orrs.w	ip, r4, r0
   8431a:	bf04      	itt	eq
   8431c:	4619      	moveq	r1, r3
   8431e:	4610      	moveq	r0, r2
   84320:	bd30      	pop	{r4, r5, pc}
   84322:	ea91 0f03 	teq	r1, r3
   84326:	bf1e      	ittt	ne
   84328:	2100      	movne	r1, #0
   8432a:	2000      	movne	r0, #0
   8432c:	bd30      	popne	{r4, r5, pc}
   8432e:	ea5f 5c54 	movs.w	ip, r4, lsr #21
   84332:	d105      	bne.n	84340 <__adddf3+0x230>
   84334:	0040      	lsls	r0, r0, #1
   84336:	4149      	adcs	r1, r1
   84338:	bf28      	it	cs
   8433a:	f041 4100 	orrcs.w	r1, r1, #2147483648	; 0x80000000
   8433e:	bd30      	pop	{r4, r5, pc}
   84340:	f514 0480 	adds.w	r4, r4, #4194304	; 0x400000
   84344:	bf3c      	itt	cc
   84346:	f501 1180 	addcc.w	r1, r1, #1048576	; 0x100000
   8434a:	bd30      	popcc	{r4, r5, pc}
   8434c:	f001 4500 	and.w	r5, r1, #2147483648	; 0x80000000
   84350:	f045 41fe 	orr.w	r1, r5, #2130706432	; 0x7f000000
   84354:	f441 0170 	orr.w	r1, r1, #15728640	; 0xf00000
   84358:	f04f 0000 	mov.w	r0, #0
   8435c:	bd30      	pop	{r4, r5, pc}
   8435e:	ea7f 5c64 	mvns.w	ip, r4, asr #21
   84362:	bf1a      	itte	ne
   84364:	4619      	movne	r1, r3
   84366:	4610      	movne	r0, r2
   84368:	ea7f 5c65 	mvnseq.w	ip, r5, asr #21
   8436c:	bf1c      	itt	ne
   8436e:	460b      	movne	r3, r1
   84370:	4602      	movne	r2, r0
   84372:	ea50 3401 	orrs.w	r4, r0, r1, lsl #12
   84376:	bf06      	itte	eq
   84378:	ea52 3503 	orrseq.w	r5, r2, r3, lsl #12
   8437c:	ea91 0f03 	teqeq	r1, r3
   84380:	f441 2100 	orrne.w	r1, r1, #524288	; 0x80000
   84384:	bd30      	pop	{r4, r5, pc}
   84386:	bf00      	nop

00084388 <__aeabi_ui2d>:
   84388:	f090 0f00 	teq	r0, #0
   8438c:	bf04      	itt	eq
   8438e:	2100      	moveq	r1, #0
   84390:	4770      	bxeq	lr
   84392:	b530      	push	{r4, r5, lr}
   84394:	f44f 6480 	mov.w	r4, #1024	; 0x400
   84398:	f104 0432 	add.w	r4, r4, #50	; 0x32
   8439c:	f04f 0500 	mov.w	r5, #0
   843a0:	f04f 0100 	mov.w	r1, #0
   843a4:	e750      	b.n	84248 <__adddf3+0x138>
   843a6:	bf00      	nop

000843a8 <__aeabi_i2d>:
   843a8:	f090 0f00 	teq	r0, #0
   843ac:	bf04      	itt	eq
   843ae:	2100      	moveq	r1, #0
   843b0:	4770      	bxeq	lr
   843b2:	b530      	push	{r4, r5, lr}
   843b4:	f44f 6480 	mov.w	r4, #1024	; 0x400
   843b8:	f104 0432 	add.w	r4, r4, #50	; 0x32
   843bc:	f010 4500 	ands.w	r5, r0, #2147483648	; 0x80000000
   843c0:	bf48      	it	mi
   843c2:	4240      	negmi	r0, r0
   843c4:	f04f 0100 	mov.w	r1, #0
   843c8:	e73e      	b.n	84248 <__adddf3+0x138>
   843ca:	bf00      	nop

000843cc <__aeabi_f2d>:
   843cc:	0042      	lsls	r2, r0, #1
   843ce:	ea4f 01e2 	mov.w	r1, r2, asr #3
   843d2:	ea4f 0131 	mov.w	r1, r1, rrx
   843d6:	ea4f 7002 	mov.w	r0, r2, lsl #28
   843da:	bf1f      	itttt	ne
   843dc:	f012 437f 	andsne.w	r3, r2, #4278190080	; 0xff000000
   843e0:	f093 4f7f 	teqne	r3, #4278190080	; 0xff000000
   843e4:	f081 5160 	eorne.w	r1, r1, #939524096	; 0x38000000
   843e8:	4770      	bxne	lr
   843ea:	f092 0f00 	teq	r2, #0
   843ee:	bf14      	ite	ne
   843f0:	f093 4f7f 	teqne	r3, #4278190080	; 0xff000000
   843f4:	4770      	bxeq	lr
   843f6:	b530      	push	{r4, r5, lr}
   843f8:	f44f 7460 	mov.w	r4, #896	; 0x380
   843fc:	f001 4500 	and.w	r5, r1, #2147483648	; 0x80000000
   84400:	f021 4100 	bic.w	r1, r1, #2147483648	; 0x80000000
   84404:	e720      	b.n	84248 <__adddf3+0x138>
   84406:	bf00      	nop

00084408 <__aeabi_ul2d>:
   84408:	ea50 0201 	orrs.w	r2, r0, r1
   8440c:	bf08      	it	eq
   8440e:	4770      	bxeq	lr
   84410:	b530      	push	{r4, r5, lr}
   84412:	f04f 0500 	mov.w	r5, #0
   84416:	e00a      	b.n	8442e <__aeabi_l2d+0x16>

00084418 <__aeabi_l2d>:
   84418:	ea50 0201 	orrs.w	r2, r0, r1
   8441c:	bf08      	it	eq
   8441e:	4770      	bxeq	lr
   84420:	b530      	push	{r4, r5, lr}
   84422:	f011 4500 	ands.w	r5, r1, #2147483648	; 0x80000000
   84426:	d502      	bpl.n	8442e <__aeabi_l2d+0x16>
   84428:	4240      	negs	r0, r0
   8442a:	eb61 0141 	sbc.w	r1, r1, r1, lsl #1
   8442e:	f44f 6480 	mov.w	r4, #1024	; 0x400
   84432:	f104 0432 	add.w	r4, r4, #50	; 0x32
   84436:	ea5f 5c91 	movs.w	ip, r1, lsr #22
   8443a:	f43f aedc 	beq.w	841f6 <__adddf3+0xe6>
   8443e:	f04f 0203 	mov.w	r2, #3
   84442:	ea5f 0cdc 	movs.w	ip, ip, lsr #3
   84446:	bf18      	it	ne
   84448:	3203      	addne	r2, #3
   8444a:	ea5f 0cdc 	movs.w	ip, ip, lsr #3
   8444e:	bf18      	it	ne
   84450:	3203      	addne	r2, #3
   84452:	eb02 02dc 	add.w	r2, r2, ip, lsr #3
   84456:	f1c2 0320 	rsb	r3, r2, #32
   8445a:	fa00 fc03 	lsl.w	ip, r0, r3
   8445e:	fa20 f002 	lsr.w	r0, r0, r2
   84462:	fa01 fe03 	lsl.w	lr, r1, r3
   84466:	ea40 000e 	orr.w	r0, r0, lr
   8446a:	fa21 f102 	lsr.w	r1, r1, r2
   8446e:	4414      	add	r4, r2
   84470:	e6c1      	b.n	841f6 <__adddf3+0xe6>
   84472:	bf00      	nop

00084474 <__aeabi_dmul>:
   84474:	b570      	push	{r4, r5, r6, lr}
   84476:	f04f 0cff 	mov.w	ip, #255	; 0xff
   8447a:	f44c 6ce0 	orr.w	ip, ip, #1792	; 0x700
   8447e:	ea1c 5411 	ands.w	r4, ip, r1, lsr #20
   84482:	bf1d      	ittte	ne
   84484:	ea1c 5513 	andsne.w	r5, ip, r3, lsr #20
   84488:	ea94 0f0c 	teqne	r4, ip
   8448c:	ea95 0f0c 	teqne	r5, ip
   84490:	f000 f8de 	bleq	84650 <__aeabi_dmul+0x1dc>
   84494:	442c      	add	r4, r5
   84496:	ea81 0603 	eor.w	r6, r1, r3
   8449a:	ea21 514c 	bic.w	r1, r1, ip, lsl #21
   8449e:	ea23 534c 	bic.w	r3, r3, ip, lsl #21
   844a2:	ea50 3501 	orrs.w	r5, r0, r1, lsl #12
   844a6:	bf18      	it	ne
   844a8:	ea52 3503 	orrsne.w	r5, r2, r3, lsl #12
   844ac:	f441 1180 	orr.w	r1, r1, #1048576	; 0x100000
   844b0:	f443 1380 	orr.w	r3, r3, #1048576	; 0x100000
   844b4:	d038      	beq.n	84528 <__aeabi_dmul+0xb4>
   844b6:	fba0 ce02 	umull	ip, lr, r0, r2
   844ba:	f04f 0500 	mov.w	r5, #0
   844be:	fbe1 e502 	umlal	lr, r5, r1, r2
   844c2:	f006 4200 	and.w	r2, r6, #2147483648	; 0x80000000
   844c6:	fbe0 e503 	umlal	lr, r5, r0, r3
   844ca:	f04f 0600 	mov.w	r6, #0
   844ce:	fbe1 5603 	umlal	r5, r6, r1, r3
   844d2:	f09c 0f00 	teq	ip, #0
   844d6:	bf18      	it	ne
   844d8:	f04e 0e01 	orrne.w	lr, lr, #1
   844dc:	f1a4 04ff 	sub.w	r4, r4, #255	; 0xff
   844e0:	f5b6 7f00 	cmp.w	r6, #512	; 0x200
   844e4:	f564 7440 	sbc.w	r4, r4, #768	; 0x300
   844e8:	d204      	bcs.n	844f4 <__aeabi_dmul+0x80>
   844ea:	ea5f 0e4e 	movs.w	lr, lr, lsl #1
   844ee:	416d      	adcs	r5, r5
   844f0:	eb46 0606 	adc.w	r6, r6, r6
   844f4:	ea42 21c6 	orr.w	r1, r2, r6, lsl #11
   844f8:	ea41 5155 	orr.w	r1, r1, r5, lsr #21
   844fc:	ea4f 20c5 	mov.w	r0, r5, lsl #11
   84500:	ea40 505e 	orr.w	r0, r0, lr, lsr #21
   84504:	ea4f 2ece 	mov.w	lr, lr, lsl #11
   84508:	f1b4 0cfd 	subs.w	ip, r4, #253	; 0xfd
   8450c:	bf88      	it	hi
   8450e:	f5bc 6fe0 	cmphi.w	ip, #1792	; 0x700
   84512:	d81e      	bhi.n	84552 <__aeabi_dmul+0xde>
   84514:	f1be 4f00 	cmp.w	lr, #2147483648	; 0x80000000
   84518:	bf08      	it	eq
   8451a:	ea5f 0e50 	movseq.w	lr, r0, lsr #1
   8451e:	f150 0000 	adcs.w	r0, r0, #0
   84522:	eb41 5104 	adc.w	r1, r1, r4, lsl #20
   84526:	bd70      	pop	{r4, r5, r6, pc}
   84528:	f006 4600 	and.w	r6, r6, #2147483648	; 0x80000000
   8452c:	ea46 0101 	orr.w	r1, r6, r1
   84530:	ea40 0002 	orr.w	r0, r0, r2
   84534:	ea81 0103 	eor.w	r1, r1, r3
   84538:	ebb4 045c 	subs.w	r4, r4, ip, lsr #1
   8453c:	bfc2      	ittt	gt
   8453e:	ebd4 050c 	rsbsgt	r5, r4, ip
   84542:	ea41 5104 	orrgt.w	r1, r1, r4, lsl #20
   84546:	bd70      	popgt	{r4, r5, r6, pc}
   84548:	f441 1180 	orr.w	r1, r1, #1048576	; 0x100000
   8454c:	f04f 0e00 	mov.w	lr, #0
   84550:	3c01      	subs	r4, #1
   84552:	f300 80ab 	bgt.w	846ac <__aeabi_dmul+0x238>
   84556:	f114 0f36 	cmn.w	r4, #54	; 0x36
   8455a:	bfde      	ittt	le
   8455c:	2000      	movle	r0, #0
   8455e:	f001 4100 	andle.w	r1, r1, #2147483648	; 0x80000000
   84562:	bd70      	pople	{r4, r5, r6, pc}
   84564:	f1c4 0400 	rsb	r4, r4, #0
   84568:	3c20      	subs	r4, #32
   8456a:	da35      	bge.n	845d8 <__aeabi_dmul+0x164>
   8456c:	340c      	adds	r4, #12
   8456e:	dc1b      	bgt.n	845a8 <__aeabi_dmul+0x134>
   84570:	f104 0414 	add.w	r4, r4, #20
   84574:	f1c4 0520 	rsb	r5, r4, #32
   84578:	fa00 f305 	lsl.w	r3, r0, r5
   8457c:	fa20 f004 	lsr.w	r0, r0, r4
   84580:	fa01 f205 	lsl.w	r2, r1, r5
   84584:	ea40 0002 	orr.w	r0, r0, r2
   84588:	f001 4200 	and.w	r2, r1, #2147483648	; 0x80000000
   8458c:	f021 4100 	bic.w	r1, r1, #2147483648	; 0x80000000
   84590:	eb10 70d3 	adds.w	r0, r0, r3, lsr #31
   84594:	fa21 f604 	lsr.w	r6, r1, r4
   84598:	eb42 0106 	adc.w	r1, r2, r6
   8459c:	ea5e 0e43 	orrs.w	lr, lr, r3, lsl #1
   845a0:	bf08      	it	eq
   845a2:	ea20 70d3 	biceq.w	r0, r0, r3, lsr #31
   845a6:	bd70      	pop	{r4, r5, r6, pc}
   845a8:	f1c4 040c 	rsb	r4, r4, #12
   845ac:	f1c4 0520 	rsb	r5, r4, #32
   845b0:	fa00 f304 	lsl.w	r3, r0, r4
   845b4:	fa20 f005 	lsr.w	r0, r0, r5
   845b8:	fa01 f204 	lsl.w	r2, r1, r4
   845bc:	ea40 0002 	orr.w	r0, r0, r2
   845c0:	f001 4100 	and.w	r1, r1, #2147483648	; 0x80000000
   845c4:	eb10 70d3 	adds.w	r0, r0, r3, lsr #31
   845c8:	f141 0100 	adc.w	r1, r1, #0
   845cc:	ea5e 0e43 	orrs.w	lr, lr, r3, lsl #1
   845d0:	bf08      	it	eq
   845d2:	ea20 70d3 	biceq.w	r0, r0, r3, lsr #31
   845d6:	bd70      	pop	{r4, r5, r6, pc}
   845d8:	f1c4 0520 	rsb	r5, r4, #32
   845dc:	fa00 f205 	lsl.w	r2, r0, r5
   845e0:	ea4e 0e02 	orr.w	lr, lr, r2
   845e4:	fa20 f304 	lsr.w	r3, r0, r4
   845e8:	fa01 f205 	lsl.w	r2, r1, r5
   845ec:	ea43 0302 	orr.w	r3, r3, r2
   845f0:	fa21 f004 	lsr.w	r0, r1, r4
   845f4:	f001 4100 	and.w	r1, r1, #2147483648	; 0x80000000
   845f8:	fa21 f204 	lsr.w	r2, r1, r4
   845fc:	ea20 0002 	bic.w	r0, r0, r2
   84600:	eb00 70d3 	add.w	r0, r0, r3, lsr #31
   84604:	ea5e 0e43 	orrs.w	lr, lr, r3, lsl #1
   84608:	bf08      	it	eq
   8460a:	ea20 70d3 	biceq.w	r0, r0, r3, lsr #31
   8460e:	bd70      	pop	{r4, r5, r6, pc}
   84610:	f094 0f00 	teq	r4, #0
   84614:	d10f      	bne.n	84636 <__aeabi_dmul+0x1c2>
   84616:	f001 4600 	and.w	r6, r1, #2147483648	; 0x80000000
   8461a:	0040      	lsls	r0, r0, #1
   8461c:	eb41 0101 	adc.w	r1, r1, r1
   84620:	f411 1f80 	tst.w	r1, #1048576	; 0x100000
   84624:	bf08      	it	eq
   84626:	3c01      	subeq	r4, #1
   84628:	d0f7      	beq.n	8461a <__aeabi_dmul+0x1a6>
   8462a:	ea41 0106 	orr.w	r1, r1, r6
   8462e:	f095 0f00 	teq	r5, #0
   84632:	bf18      	it	ne
   84634:	4770      	bxne	lr
   84636:	f003 4600 	and.w	r6, r3, #2147483648	; 0x80000000
   8463a:	0052      	lsls	r2, r2, #1
   8463c:	eb43 0303 	adc.w	r3, r3, r3
   84640:	f413 1f80 	tst.w	r3, #1048576	; 0x100000
   84644:	bf08      	it	eq
   84646:	3d01      	subeq	r5, #1
   84648:	d0f7      	beq.n	8463a <__aeabi_dmul+0x1c6>
   8464a:	ea43 0306 	orr.w	r3, r3, r6
   8464e:	4770      	bx	lr
   84650:	ea94 0f0c 	teq	r4, ip
   84654:	ea0c 5513 	and.w	r5, ip, r3, lsr #20
   84658:	bf18      	it	ne
   8465a:	ea95 0f0c 	teqne	r5, ip
   8465e:	d00c      	beq.n	8467a <__aeabi_dmul+0x206>
   84660:	ea50 0641 	orrs.w	r6, r0, r1, lsl #1
   84664:	bf18      	it	ne
   84666:	ea52 0643 	orrsne.w	r6, r2, r3, lsl #1
   8466a:	d1d1      	bne.n	84610 <__aeabi_dmul+0x19c>
   8466c:	ea81 0103 	eor.w	r1, r1, r3
   84670:	f001 4100 	and.w	r1, r1, #2147483648	; 0x80000000
   84674:	f04f 0000 	mov.w	r0, #0
   84678:	bd70      	pop	{r4, r5, r6, pc}
   8467a:	ea50 0641 	orrs.w	r6, r0, r1, lsl #1
   8467e:	bf06      	itte	eq
   84680:	4610      	moveq	r0, r2
   84682:	4619      	moveq	r1, r3
   84684:	ea52 0643 	orrsne.w	r6, r2, r3, lsl #1
   84688:	d019      	beq.n	846be <__aeabi_dmul+0x24a>
   8468a:	ea94 0f0c 	teq	r4, ip
   8468e:	d102      	bne.n	84696 <__aeabi_dmul+0x222>
   84690:	ea50 3601 	orrs.w	r6, r0, r1, lsl #12
   84694:	d113      	bne.n	846be <__aeabi_dmul+0x24a>
   84696:	ea95 0f0c 	teq	r5, ip
   8469a:	d105      	bne.n	846a8 <__aeabi_dmul+0x234>
   8469c:	ea52 3603 	orrs.w	r6, r2, r3, lsl #12
   846a0:	bf1c      	itt	ne
   846a2:	4610      	movne	r0, r2
   846a4:	4619      	movne	r1, r3
   846a6:	d10a      	bne.n	846be <__aeabi_dmul+0x24a>
   846a8:	ea81 0103 	eor.w	r1, r1, r3
   846ac:	f001 4100 	and.w	r1, r1, #2147483648	; 0x80000000
   846b0:	f041 41fe 	orr.w	r1, r1, #2130706432	; 0x7f000000
   846b4:	f441 0170 	orr.w	r1, r1, #15728640	; 0xf00000
   846b8:	f04f 0000 	mov.w	r0, #0
   846bc:	bd70      	pop	{r4, r5, r6, pc}
   846be:	f041 41fe 	orr.w	r1, r1, #2130706432	; 0x7f000000
   846c2:	f441 0178 	orr.w	r1, r1, #16252928	; 0xf80000
   846c6:	bd70      	pop	{r4, r5, r6, pc}

000846c8 <__aeabi_ddiv>:
   846c8:	b570      	push	{r4, r5, r6, lr}
   846ca:	f04f 0cff 	mov.w	ip, #255	; 0xff
   846ce:	f44c 6ce0 	orr.w	ip, ip, #1792	; 0x700
   846d2:	ea1c 5411 	ands.w	r4, ip, r1, lsr #20
   846d6:	bf1d      	ittte	ne
   846d8:	ea1c 5513 	andsne.w	r5, ip, r3, lsr #20
   846dc:	ea94 0f0c 	teqne	r4, ip
   846e0:	ea95 0f0c 	teqne	r5, ip
   846e4:	f000 f8a7 	bleq	84836 <__aeabi_ddiv+0x16e>
   846e8:	eba4 0405 	sub.w	r4, r4, r5
   846ec:	ea81 0e03 	eor.w	lr, r1, r3
   846f0:	ea52 3503 	orrs.w	r5, r2, r3, lsl #12
   846f4:	ea4f 3101 	mov.w	r1, r1, lsl #12
   846f8:	f000 8088 	beq.w	8480c <__aeabi_ddiv+0x144>
   846fc:	ea4f 3303 	mov.w	r3, r3, lsl #12
   84700:	f04f 5580 	mov.w	r5, #268435456	; 0x10000000
   84704:	ea45 1313 	orr.w	r3, r5, r3, lsr #4
   84708:	ea43 6312 	orr.w	r3, r3, r2, lsr #24
   8470c:	ea4f 2202 	mov.w	r2, r2, lsl #8
   84710:	ea45 1511 	orr.w	r5, r5, r1, lsr #4
   84714:	ea45 6510 	orr.w	r5, r5, r0, lsr #24
   84718:	ea4f 2600 	mov.w	r6, r0, lsl #8
   8471c:	f00e 4100 	and.w	r1, lr, #2147483648	; 0x80000000
   84720:	429d      	cmp	r5, r3
   84722:	bf08      	it	eq
   84724:	4296      	cmpeq	r6, r2
   84726:	f144 04fd 	adc.w	r4, r4, #253	; 0xfd
   8472a:	f504 7440 	add.w	r4, r4, #768	; 0x300
   8472e:	d202      	bcs.n	84736 <__aeabi_ddiv+0x6e>
   84730:	085b      	lsrs	r3, r3, #1
   84732:	ea4f 0232 	mov.w	r2, r2, rrx
   84736:	1ab6      	subs	r6, r6, r2
   84738:	eb65 0503 	sbc.w	r5, r5, r3
   8473c:	085b      	lsrs	r3, r3, #1
   8473e:	ea4f 0232 	mov.w	r2, r2, rrx
   84742:	f44f 1080 	mov.w	r0, #1048576	; 0x100000
   84746:	f44f 2c00 	mov.w	ip, #524288	; 0x80000
   8474a:	ebb6 0e02 	subs.w	lr, r6, r2
   8474e:	eb75 0e03 	sbcs.w	lr, r5, r3
   84752:	bf22      	ittt	cs
   84754:	1ab6      	subcs	r6, r6, r2
   84756:	4675      	movcs	r5, lr
   84758:	ea40 000c 	orrcs.w	r0, r0, ip
   8475c:	085b      	lsrs	r3, r3, #1
   8475e:	ea4f 0232 	mov.w	r2, r2, rrx
   84762:	ebb6 0e02 	subs.w	lr, r6, r2
   84766:	eb75 0e03 	sbcs.w	lr, r5, r3
   8476a:	bf22      	ittt	cs
   8476c:	1ab6      	subcs	r6, r6, r2
   8476e:	4675      	movcs	r5, lr
   84770:	ea40 005c 	orrcs.w	r0, r0, ip, lsr #1
   84774:	085b      	lsrs	r3, r3, #1
   84776:	ea4f 0232 	mov.w	r2, r2, rrx
   8477a:	ebb6 0e02 	subs.w	lr, r6, r2
   8477e:	eb75 0e03 	sbcs.w	lr, r5, r3
   84782:	bf22      	ittt	cs
   84784:	1ab6      	subcs	r6, r6, r2
   84786:	4675      	movcs	r5, lr
   84788:	ea40 009c 	orrcs.w	r0, r0, ip, lsr #2
   8478c:	085b      	lsrs	r3, r3, #1
   8478e:	ea4f 0232 	mov.w	r2, r2, rrx
   84792:	ebb6 0e02 	subs.w	lr, r6, r2
   84796:	eb75 0e03 	sbcs.w	lr, r5, r3
   8479a:	bf22      	ittt	cs
   8479c:	1ab6      	subcs	r6, r6, r2
   8479e:	4675      	movcs	r5, lr
   847a0:	ea40 00dc 	orrcs.w	r0, r0, ip, lsr #3
   847a4:	ea55 0e06 	orrs.w	lr, r5, r6
   847a8:	d018      	beq.n	847dc <__aeabi_ddiv+0x114>
   847aa:	ea4f 1505 	mov.w	r5, r5, lsl #4
   847ae:	ea45 7516 	orr.w	r5, r5, r6, lsr #28
   847b2:	ea4f 1606 	mov.w	r6, r6, lsl #4
   847b6:	ea4f 03c3 	mov.w	r3, r3, lsl #3
   847ba:	ea43 7352 	orr.w	r3, r3, r2, lsr #29
   847be:	ea4f 02c2 	mov.w	r2, r2, lsl #3
   847c2:	ea5f 1c1c 	movs.w	ip, ip, lsr #4
   847c6:	d1c0      	bne.n	8474a <__aeabi_ddiv+0x82>
   847c8:	f411 1f80 	tst.w	r1, #1048576	; 0x100000
   847cc:	d10b      	bne.n	847e6 <__aeabi_ddiv+0x11e>
   847ce:	ea41 0100 	orr.w	r1, r1, r0
   847d2:	f04f 0000 	mov.w	r0, #0
   847d6:	f04f 4c00 	mov.w	ip, #2147483648	; 0x80000000
   847da:	e7b6      	b.n	8474a <__aeabi_ddiv+0x82>
   847dc:	f411 1f80 	tst.w	r1, #1048576	; 0x100000
   847e0:	bf04      	itt	eq
   847e2:	4301      	orreq	r1, r0
   847e4:	2000      	moveq	r0, #0
   847e6:	f1b4 0cfd 	subs.w	ip, r4, #253	; 0xfd
   847ea:	bf88      	it	hi
   847ec:	f5bc 6fe0 	cmphi.w	ip, #1792	; 0x700
   847f0:	f63f aeaf 	bhi.w	84552 <__aeabi_dmul+0xde>
   847f4:	ebb5 0c03 	subs.w	ip, r5, r3
   847f8:	bf04      	itt	eq
   847fa:	ebb6 0c02 	subseq.w	ip, r6, r2
   847fe:	ea5f 0c50 	movseq.w	ip, r0, lsr #1
   84802:	f150 0000 	adcs.w	r0, r0, #0
   84806:	eb41 5104 	adc.w	r1, r1, r4, lsl #20
   8480a:	bd70      	pop	{r4, r5, r6, pc}
   8480c:	f00e 4e00 	and.w	lr, lr, #2147483648	; 0x80000000
   84810:	ea4e 3111 	orr.w	r1, lr, r1, lsr #12
   84814:	eb14 045c 	adds.w	r4, r4, ip, lsr #1
   84818:	bfc2      	ittt	gt
   8481a:	ebd4 050c 	rsbsgt	r5, r4, ip
   8481e:	ea41 5104 	orrgt.w	r1, r1, r4, lsl #20
   84822:	bd70      	popgt	{r4, r5, r6, pc}
   84824:	f441 1180 	orr.w	r1, r1, #1048576	; 0x100000
   84828:	f04f 0e00 	mov.w	lr, #0
   8482c:	3c01      	subs	r4, #1
   8482e:	e690      	b.n	84552 <__aeabi_dmul+0xde>
   84830:	ea45 0e06 	orr.w	lr, r5, r6
   84834:	e68d      	b.n	84552 <__aeabi_dmul+0xde>
   84836:	ea0c 5513 	and.w	r5, ip, r3, lsr #20
   8483a:	ea94 0f0c 	teq	r4, ip
   8483e:	bf08      	it	eq
   84840:	ea95 0f0c 	teqeq	r5, ip
   84844:	f43f af3b 	beq.w	846be <__aeabi_dmul+0x24a>
   84848:	ea94 0f0c 	teq	r4, ip
   8484c:	d10a      	bne.n	84864 <__aeabi_ddiv+0x19c>
   8484e:	ea50 3401 	orrs.w	r4, r0, r1, lsl #12
   84852:	f47f af34 	bne.w	846be <__aeabi_dmul+0x24a>
   84856:	ea95 0f0c 	teq	r5, ip
   8485a:	f47f af25 	bne.w	846a8 <__aeabi_dmul+0x234>
   8485e:	4610      	mov	r0, r2
   84860:	4619      	mov	r1, r3
   84862:	e72c      	b.n	846be <__aeabi_dmul+0x24a>
   84864:	ea95 0f0c 	teq	r5, ip
   84868:	d106      	bne.n	84878 <__aeabi_ddiv+0x1b0>
   8486a:	ea52 3503 	orrs.w	r5, r2, r3, lsl #12
   8486e:	f43f aefd 	beq.w	8466c <__aeabi_dmul+0x1f8>
   84872:	4610      	mov	r0, r2
   84874:	4619      	mov	r1, r3
   84876:	e722      	b.n	846be <__aeabi_dmul+0x24a>
   84878:	ea50 0641 	orrs.w	r6, r0, r1, lsl #1
   8487c:	bf18      	it	ne
   8487e:	ea52 0643 	orrsne.w	r6, r2, r3, lsl #1
   84882:	f47f aec5 	bne.w	84610 <__aeabi_dmul+0x19c>
   84886:	ea50 0441 	orrs.w	r4, r0, r1, lsl #1
   8488a:	f47f af0d 	bne.w	846a8 <__aeabi_dmul+0x234>
   8488e:	ea52 0543 	orrs.w	r5, r2, r3, lsl #1
   84892:	f47f aeeb 	bne.w	8466c <__aeabi_dmul+0x1f8>
   84896:	e712      	b.n	846be <__aeabi_dmul+0x24a>

00084898 <__gedf2>:
   84898:	f04f 3cff 	mov.w	ip, #4294967295
   8489c:	e006      	b.n	848ac <__cmpdf2+0x4>
   8489e:	bf00      	nop

000848a0 <__ledf2>:
   848a0:	f04f 0c01 	mov.w	ip, #1
   848a4:	e002      	b.n	848ac <__cmpdf2+0x4>
   848a6:	bf00      	nop

000848a8 <__cmpdf2>:
   848a8:	f04f 0c01 	mov.w	ip, #1
   848ac:	f84d cd04 	str.w	ip, [sp, #-4]!
   848b0:	ea4f 0c41 	mov.w	ip, r1, lsl #1
   848b4:	ea7f 5c6c 	mvns.w	ip, ip, asr #21
   848b8:	ea4f 0c43 	mov.w	ip, r3, lsl #1
   848bc:	bf18      	it	ne
   848be:	ea7f 5c6c 	mvnsne.w	ip, ip, asr #21
   848c2:	d01b      	beq.n	848fc <__cmpdf2+0x54>
   848c4:	b001      	add	sp, #4
   848c6:	ea50 0c41 	orrs.w	ip, r0, r1, lsl #1
   848ca:	bf0c      	ite	eq
   848cc:	ea52 0c43 	orrseq.w	ip, r2, r3, lsl #1
   848d0:	ea91 0f03 	teqne	r1, r3
   848d4:	bf02      	ittt	eq
   848d6:	ea90 0f02 	teqeq	r0, r2
   848da:	2000      	moveq	r0, #0
   848dc:	4770      	bxeq	lr
   848de:	f110 0f00 	cmn.w	r0, #0
   848e2:	ea91 0f03 	teq	r1, r3
   848e6:	bf58      	it	pl
   848e8:	4299      	cmppl	r1, r3
   848ea:	bf08      	it	eq
   848ec:	4290      	cmpeq	r0, r2
   848ee:	bf2c      	ite	cs
   848f0:	17d8      	asrcs	r0, r3, #31
   848f2:	ea6f 70e3 	mvncc.w	r0, r3, asr #31
   848f6:	f040 0001 	orr.w	r0, r0, #1
   848fa:	4770      	bx	lr
   848fc:	ea4f 0c41 	mov.w	ip, r1, lsl #1
   84900:	ea7f 5c6c 	mvns.w	ip, ip, asr #21
   84904:	d102      	bne.n	8490c <__cmpdf2+0x64>
   84906:	ea50 3c01 	orrs.w	ip, r0, r1, lsl #12
   8490a:	d107      	bne.n	8491c <__cmpdf2+0x74>
   8490c:	ea4f 0c43 	mov.w	ip, r3, lsl #1
   84910:	ea7f 5c6c 	mvns.w	ip, ip, asr #21
   84914:	d1d6      	bne.n	848c4 <__cmpdf2+0x1c>
   84916:	ea52 3c03 	orrs.w	ip, r2, r3, lsl #12
   8491a:	d0d3      	beq.n	848c4 <__cmpdf2+0x1c>
   8491c:	f85d 0b04 	ldr.w	r0, [sp], #4
   84920:	4770      	bx	lr
   84922:	bf00      	nop

00084924 <__aeabi_cdrcmple>:
   84924:	4684      	mov	ip, r0
   84926:	4610      	mov	r0, r2
   84928:	4662      	mov	r2, ip
   8492a:	468c      	mov	ip, r1
   8492c:	4619      	mov	r1, r3
   8492e:	4663      	mov	r3, ip
   84930:	e000      	b.n	84934 <__aeabi_cdcmpeq>
   84932:	bf00      	nop

00084934 <__aeabi_cdcmpeq>:
   84934:	b501      	push	{r0, lr}
   84936:	f7ff ffb7 	bl	848a8 <__cmpdf2>
   8493a:	2800      	cmp	r0, #0
   8493c:	bf48      	it	mi
   8493e:	f110 0f00 	cmnmi.w	r0, #0
   84942:	bd01      	pop	{r0, pc}

00084944 <__aeabi_dcmpeq>:
   84944:	f84d ed08 	str.w	lr, [sp, #-8]!
   84948:	f7ff fff4 	bl	84934 <__aeabi_cdcmpeq>
   8494c:	bf0c      	ite	eq
   8494e:	2001      	moveq	r0, #1
   84950:	2000      	movne	r0, #0
   84952:	f85d fb08 	ldr.w	pc, [sp], #8
   84956:	bf00      	nop

00084958 <__aeabi_dcmplt>:
   84958:	f84d ed08 	str.w	lr, [sp, #-8]!
   8495c:	f7ff ffea 	bl	84934 <__aeabi_cdcmpeq>
   84960:	bf34      	ite	cc
   84962:	2001      	movcc	r0, #1
   84964:	2000      	movcs	r0, #0
   84966:	f85d fb08 	ldr.w	pc, [sp], #8
   8496a:	bf00      	nop

0008496c <__aeabi_dcmple>:
   8496c:	f84d ed08 	str.w	lr, [sp, #-8]!
   84970:	f7ff ffe0 	bl	84934 <__aeabi_cdcmpeq>
   84974:	bf94      	ite	ls
   84976:	2001      	movls	r0, #1
   84978:	2000      	movhi	r0, #0
   8497a:	f85d fb08 	ldr.w	pc, [sp], #8
   8497e:	bf00      	nop

00084980 <__aeabi_dcmpge>:
   84980:	f84d ed08 	str.w	lr, [sp, #-8]!
   84984:	f7ff ffce 	bl	84924 <__aeabi_cdrcmple>
   84988:	bf94      	ite	ls
   8498a:	2001      	movls	r0, #1
   8498c:	2000      	movhi	r0, #0
   8498e:	f85d fb08 	ldr.w	pc, [sp], #8
   84992:	bf00      	nop

00084994 <__aeabi_dcmpgt>:
   84994:	f84d ed08 	str.w	lr, [sp, #-8]!
   84998:	f7ff ffc4 	bl	84924 <__aeabi_cdrcmple>
   8499c:	bf34      	ite	cc
   8499e:	2001      	movcc	r0, #1
   849a0:	2000      	movcs	r0, #0
   849a2:	f85d fb08 	ldr.w	pc, [sp], #8
   849a6:	bf00      	nop

000849a8 <__aeabi_d2iz>:
   849a8:	ea4f 0241 	mov.w	r2, r1, lsl #1
   849ac:	f512 1200 	adds.w	r2, r2, #2097152	; 0x200000
   849b0:	d215      	bcs.n	849de <__aeabi_d2iz+0x36>
   849b2:	d511      	bpl.n	849d8 <__aeabi_d2iz+0x30>
   849b4:	f46f 7378 	mvn.w	r3, #992	; 0x3e0
   849b8:	ebb3 5262 	subs.w	r2, r3, r2, asr #21
   849bc:	d912      	bls.n	849e4 <__aeabi_d2iz+0x3c>
   849be:	ea4f 23c1 	mov.w	r3, r1, lsl #11
   849c2:	f043 4300 	orr.w	r3, r3, #2147483648	; 0x80000000
   849c6:	ea43 5350 	orr.w	r3, r3, r0, lsr #21
   849ca:	f011 4f00 	tst.w	r1, #2147483648	; 0x80000000
   849ce:	fa23 f002 	lsr.w	r0, r3, r2
   849d2:	bf18      	it	ne
   849d4:	4240      	negne	r0, r0
   849d6:	4770      	bx	lr
   849d8:	f04f 0000 	mov.w	r0, #0
   849dc:	4770      	bx	lr
   849de:	ea50 3001 	orrs.w	r0, r0, r1, lsl #12
   849e2:	d105      	bne.n	849f0 <__aeabi_d2iz+0x48>
   849e4:	f011 4000 	ands.w	r0, r1, #2147483648	; 0x80000000
   849e8:	bf08      	it	eq
   849ea:	f06f 4000 	mvneq.w	r0, #2147483648	; 0x80000000
   849ee:	4770      	bx	lr
   849f0:	f04f 0000 	mov.w	r0, #0
   849f4:	4770      	bx	lr
   849f6:	bf00      	nop

000849f8 <__aeabi_d2f>:
   849f8:	ea4f 0241 	mov.w	r2, r1, lsl #1
   849fc:	f1b2 43e0 	subs.w	r3, r2, #1879048192	; 0x70000000
   84a00:	bf24      	itt	cs
   84a02:	f5b3 1c00 	subscs.w	ip, r3, #2097152	; 0x200000
   84a06:	f1dc 5cfe 	rsbscs	ip, ip, #532676608	; 0x1fc00000
   84a0a:	d90d      	bls.n	84a28 <__aeabi_d2f+0x30>
   84a0c:	f001 4c00 	and.w	ip, r1, #2147483648	; 0x80000000
   84a10:	ea4f 02c0 	mov.w	r2, r0, lsl #3
   84a14:	ea4c 7050 	orr.w	r0, ip, r0, lsr #29
   84a18:	f1b2 4f00 	cmp.w	r2, #2147483648	; 0x80000000
   84a1c:	eb40 0083 	adc.w	r0, r0, r3, lsl #2
   84a20:	bf08      	it	eq
   84a22:	f020 0001 	biceq.w	r0, r0, #1
   84a26:	4770      	bx	lr
   84a28:	f011 4f80 	tst.w	r1, #1073741824	; 0x40000000
   84a2c:	d121      	bne.n	84a72 <__aeabi_d2f+0x7a>
   84a2e:	f113 7238 	adds.w	r2, r3, #48234496	; 0x2e00000
   84a32:	bfbc      	itt	lt
   84a34:	f001 4000 	andlt.w	r0, r1, #2147483648	; 0x80000000
   84a38:	4770      	bxlt	lr
   84a3a:	f441 1180 	orr.w	r1, r1, #1048576	; 0x100000
   84a3e:	ea4f 5252 	mov.w	r2, r2, lsr #21
   84a42:	f1c2 0218 	rsb	r2, r2, #24
   84a46:	f1c2 0c20 	rsb	ip, r2, #32
   84a4a:	fa10 f30c 	lsls.w	r3, r0, ip
   84a4e:	fa20 f002 	lsr.w	r0, r0, r2
   84a52:	bf18      	it	ne
   84a54:	f040 0001 	orrne.w	r0, r0, #1
   84a58:	ea4f 23c1 	mov.w	r3, r1, lsl #11
   84a5c:	ea4f 23d3 	mov.w	r3, r3, lsr #11
   84a60:	fa03 fc0c 	lsl.w	ip, r3, ip
   84a64:	ea40 000c 	orr.w	r0, r0, ip
   84a68:	fa23 f302 	lsr.w	r3, r3, r2
   84a6c:	ea4f 0343 	mov.w	r3, r3, lsl #1
   84a70:	e7cc      	b.n	84a0c <__aeabi_d2f+0x14>
   84a72:	ea7f 5362 	mvns.w	r3, r2, asr #21
   84a76:	d107      	bne.n	84a88 <__aeabi_d2f+0x90>
   84a78:	ea50 3301 	orrs.w	r3, r0, r1, lsl #12
   84a7c:	bf1e      	ittt	ne
   84a7e:	f04f 40fe 	movne.w	r0, #2130706432	; 0x7f000000
   84a82:	f440 0040 	orrne.w	r0, r0, #12582912	; 0xc00000
   84a86:	4770      	bxne	lr
   84a88:	f001 4000 	and.w	r0, r1, #2147483648	; 0x80000000
   84a8c:	f040 40fe 	orr.w	r0, r0, #2130706432	; 0x7f000000
   84a90:	f440 0000 	orr.w	r0, r0, #8388608	; 0x800000
   84a94:	4770      	bx	lr
   84a96:	bf00      	nop

00084a98 <__aeabi_frsub>:
   84a98:	f080 4000 	eor.w	r0, r0, #2147483648	; 0x80000000
   84a9c:	e002      	b.n	84aa4 <__addsf3>
   84a9e:	bf00      	nop

00084aa0 <__aeabi_fsub>:
   84aa0:	f081 4100 	eor.w	r1, r1, #2147483648	; 0x80000000

00084aa4 <__addsf3>:
   84aa4:	0042      	lsls	r2, r0, #1
   84aa6:	bf1f      	itttt	ne
   84aa8:	ea5f 0341 	movsne.w	r3, r1, lsl #1
   84aac:	ea92 0f03 	teqne	r2, r3
   84ab0:	ea7f 6c22 	mvnsne.w	ip, r2, asr #24
   84ab4:	ea7f 6c23 	mvnsne.w	ip, r3, asr #24
   84ab8:	d06a      	beq.n	84b90 <__addsf3+0xec>
   84aba:	ea4f 6212 	mov.w	r2, r2, lsr #24
   84abe:	ebd2 6313 	rsbs	r3, r2, r3, lsr #24
   84ac2:	bfc1      	itttt	gt
   84ac4:	18d2      	addgt	r2, r2, r3
   84ac6:	4041      	eorgt	r1, r0
   84ac8:	4048      	eorgt	r0, r1
   84aca:	4041      	eorgt	r1, r0
   84acc:	bfb8      	it	lt
   84ace:	425b      	neglt	r3, r3
   84ad0:	2b19      	cmp	r3, #25
   84ad2:	bf88      	it	hi
   84ad4:	4770      	bxhi	lr
   84ad6:	f010 4f00 	tst.w	r0, #2147483648	; 0x80000000
   84ada:	f440 0000 	orr.w	r0, r0, #8388608	; 0x800000
   84ade:	f020 407f 	bic.w	r0, r0, #4278190080	; 0xff000000
   84ae2:	bf18      	it	ne
   84ae4:	4240      	negne	r0, r0
   84ae6:	f011 4f00 	tst.w	r1, #2147483648	; 0x80000000
   84aea:	f441 0100 	orr.w	r1, r1, #8388608	; 0x800000
   84aee:	f021 417f 	bic.w	r1, r1, #4278190080	; 0xff000000
   84af2:	bf18      	it	ne
   84af4:	4249      	negne	r1, r1
   84af6:	ea92 0f03 	teq	r2, r3
   84afa:	d03f      	beq.n	84b7c <__addsf3+0xd8>
   84afc:	f1a2 0201 	sub.w	r2, r2, #1
   84b00:	fa41 fc03 	asr.w	ip, r1, r3
   84b04:	eb10 000c 	adds.w	r0, r0, ip
   84b08:	f1c3 0320 	rsb	r3, r3, #32
   84b0c:	fa01 f103 	lsl.w	r1, r1, r3
   84b10:	f000 4300 	and.w	r3, r0, #2147483648	; 0x80000000
   84b14:	d502      	bpl.n	84b1c <__addsf3+0x78>
   84b16:	4249      	negs	r1, r1
   84b18:	eb60 0040 	sbc.w	r0, r0, r0, lsl #1
   84b1c:	f5b0 0f00 	cmp.w	r0, #8388608	; 0x800000
   84b20:	d313      	bcc.n	84b4a <__addsf3+0xa6>
   84b22:	f1b0 7f80 	cmp.w	r0, #16777216	; 0x1000000
   84b26:	d306      	bcc.n	84b36 <__addsf3+0x92>
   84b28:	0840      	lsrs	r0, r0, #1
   84b2a:	ea4f 0131 	mov.w	r1, r1, rrx
   84b2e:	f102 0201 	add.w	r2, r2, #1
   84b32:	2afe      	cmp	r2, #254	; 0xfe
   84b34:	d251      	bcs.n	84bda <__addsf3+0x136>
   84b36:	f1b1 4f00 	cmp.w	r1, #2147483648	; 0x80000000
   84b3a:	eb40 50c2 	adc.w	r0, r0, r2, lsl #23
   84b3e:	bf08      	it	eq
   84b40:	f020 0001 	biceq.w	r0, r0, #1
   84b44:	ea40 0003 	orr.w	r0, r0, r3
   84b48:	4770      	bx	lr
   84b4a:	0049      	lsls	r1, r1, #1
   84b4c:	eb40 0000 	adc.w	r0, r0, r0
   84b50:	f410 0f00 	tst.w	r0, #8388608	; 0x800000
   84b54:	f1a2 0201 	sub.w	r2, r2, #1
   84b58:	d1ed      	bne.n	84b36 <__addsf3+0x92>
   84b5a:	fab0 fc80 	clz	ip, r0
   84b5e:	f1ac 0c08 	sub.w	ip, ip, #8
   84b62:	ebb2 020c 	subs.w	r2, r2, ip
   84b66:	fa00 f00c 	lsl.w	r0, r0, ip
   84b6a:	bfaa      	itet	ge
   84b6c:	eb00 50c2 	addge.w	r0, r0, r2, lsl #23
   84b70:	4252      	neglt	r2, r2
   84b72:	4318      	orrge	r0, r3
   84b74:	bfbc      	itt	lt
   84b76:	40d0      	lsrlt	r0, r2
   84b78:	4318      	orrlt	r0, r3
   84b7a:	4770      	bx	lr
   84b7c:	f092 0f00 	teq	r2, #0
   84b80:	f481 0100 	eor.w	r1, r1, #8388608	; 0x800000
   84b84:	bf06      	itte	eq
   84b86:	f480 0000 	eoreq.w	r0, r0, #8388608	; 0x800000
   84b8a:	3201      	addeq	r2, #1
   84b8c:	3b01      	subne	r3, #1
   84b8e:	e7b5      	b.n	84afc <__addsf3+0x58>
   84b90:	ea4f 0341 	mov.w	r3, r1, lsl #1
   84b94:	ea7f 6c22 	mvns.w	ip, r2, asr #24
   84b98:	bf18      	it	ne
   84b9a:	ea7f 6c23 	mvnsne.w	ip, r3, asr #24
   84b9e:	d021      	beq.n	84be4 <__addsf3+0x140>
   84ba0:	ea92 0f03 	teq	r2, r3
   84ba4:	d004      	beq.n	84bb0 <__addsf3+0x10c>
   84ba6:	f092 0f00 	teq	r2, #0
   84baa:	bf08      	it	eq
   84bac:	4608      	moveq	r0, r1
   84bae:	4770      	bx	lr
   84bb0:	ea90 0f01 	teq	r0, r1
   84bb4:	bf1c      	itt	ne
   84bb6:	2000      	movne	r0, #0
   84bb8:	4770      	bxne	lr
   84bba:	f012 4f7f 	tst.w	r2, #4278190080	; 0xff000000
   84bbe:	d104      	bne.n	84bca <__addsf3+0x126>
   84bc0:	0040      	lsls	r0, r0, #1
   84bc2:	bf28      	it	cs
   84bc4:	f040 4000 	orrcs.w	r0, r0, #2147483648	; 0x80000000
   84bc8:	4770      	bx	lr
   84bca:	f112 7200 	adds.w	r2, r2, #33554432	; 0x2000000
   84bce:	bf3c      	itt	cc
   84bd0:	f500 0000 	addcc.w	r0, r0, #8388608	; 0x800000
   84bd4:	4770      	bxcc	lr
   84bd6:	f000 4300 	and.w	r3, r0, #2147483648	; 0x80000000
   84bda:	f043 40fe 	orr.w	r0, r3, #2130706432	; 0x7f000000
   84bde:	f440 0000 	orr.w	r0, r0, #8388608	; 0x800000
   84be2:	4770      	bx	lr
   84be4:	ea7f 6222 	mvns.w	r2, r2, asr #24
   84be8:	bf16      	itet	ne
   84bea:	4608      	movne	r0, r1
   84bec:	ea7f 6323 	mvnseq.w	r3, r3, asr #24
   84bf0:	4601      	movne	r1, r0
   84bf2:	0242      	lsls	r2, r0, #9
   84bf4:	bf06      	itte	eq
   84bf6:	ea5f 2341 	movseq.w	r3, r1, lsl #9
   84bfa:	ea90 0f01 	teqeq	r0, r1
   84bfe:	f440 0080 	orrne.w	r0, r0, #4194304	; 0x400000
   84c02:	4770      	bx	lr

00084c04 <__aeabi_ui2f>:
   84c04:	f04f 0300 	mov.w	r3, #0
   84c08:	e004      	b.n	84c14 <__aeabi_i2f+0x8>
   84c0a:	bf00      	nop

00084c0c <__aeabi_i2f>:
   84c0c:	f010 4300 	ands.w	r3, r0, #2147483648	; 0x80000000
   84c10:	bf48      	it	mi
   84c12:	4240      	negmi	r0, r0
   84c14:	ea5f 0c00 	movs.w	ip, r0
   84c18:	bf08      	it	eq
   84c1a:	4770      	bxeq	lr
   84c1c:	f043 4396 	orr.w	r3, r3, #1258291200	; 0x4b000000
   84c20:	4601      	mov	r1, r0
   84c22:	f04f 0000 	mov.w	r0, #0
   84c26:	e01c      	b.n	84c62 <__aeabi_l2f+0x2a>

00084c28 <__aeabi_ul2f>:
   84c28:	ea50 0201 	orrs.w	r2, r0, r1
   84c2c:	bf08      	it	eq
   84c2e:	4770      	bxeq	lr
   84c30:	f04f 0300 	mov.w	r3, #0
   84c34:	e00a      	b.n	84c4c <__aeabi_l2f+0x14>
   84c36:	bf00      	nop

00084c38 <__aeabi_l2f>:
   84c38:	ea50 0201 	orrs.w	r2, r0, r1
   84c3c:	bf08      	it	eq
   84c3e:	4770      	bxeq	lr
   84c40:	f011 4300 	ands.w	r3, r1, #2147483648	; 0x80000000
   84c44:	d502      	bpl.n	84c4c <__aeabi_l2f+0x14>
   84c46:	4240      	negs	r0, r0
   84c48:	eb61 0141 	sbc.w	r1, r1, r1, lsl #1
   84c4c:	ea5f 0c01 	movs.w	ip, r1
   84c50:	bf02      	ittt	eq
   84c52:	4684      	moveq	ip, r0
   84c54:	4601      	moveq	r1, r0
   84c56:	2000      	moveq	r0, #0
   84c58:	f043 43b6 	orr.w	r3, r3, #1526726656	; 0x5b000000
   84c5c:	bf08      	it	eq
   84c5e:	f1a3 5380 	subeq.w	r3, r3, #268435456	; 0x10000000
   84c62:	f5a3 0300 	sub.w	r3, r3, #8388608	; 0x800000
   84c66:	fabc f28c 	clz	r2, ip
   84c6a:	3a08      	subs	r2, #8
   84c6c:	eba3 53c2 	sub.w	r3, r3, r2, lsl #23
   84c70:	db10      	blt.n	84c94 <__aeabi_l2f+0x5c>
   84c72:	fa01 fc02 	lsl.w	ip, r1, r2
   84c76:	4463      	add	r3, ip
   84c78:	fa00 fc02 	lsl.w	ip, r0, r2
   84c7c:	f1c2 0220 	rsb	r2, r2, #32
   84c80:	f1bc 4f00 	cmp.w	ip, #2147483648	; 0x80000000
   84c84:	fa20 f202 	lsr.w	r2, r0, r2
   84c88:	eb43 0002 	adc.w	r0, r3, r2
   84c8c:	bf08      	it	eq
   84c8e:	f020 0001 	biceq.w	r0, r0, #1
   84c92:	4770      	bx	lr
   84c94:	f102 0220 	add.w	r2, r2, #32
   84c98:	fa01 fc02 	lsl.w	ip, r1, r2
   84c9c:	f1c2 0220 	rsb	r2, r2, #32
   84ca0:	ea50 004c 	orrs.w	r0, r0, ip, lsl #1
   84ca4:	fa21 f202 	lsr.w	r2, r1, r2
   84ca8:	eb43 0002 	adc.w	r0, r3, r2
   84cac:	bf08      	it	eq
   84cae:	ea20 70dc 	biceq.w	r0, r0, ip, lsr #31
   84cb2:	4770      	bx	lr

00084cb4 <__aeabi_fmul>:
   84cb4:	f04f 0cff 	mov.w	ip, #255	; 0xff
   84cb8:	ea1c 52d0 	ands.w	r2, ip, r0, lsr #23
   84cbc:	bf1e      	ittt	ne
   84cbe:	ea1c 53d1 	andsne.w	r3, ip, r1, lsr #23
   84cc2:	ea92 0f0c 	teqne	r2, ip
   84cc6:	ea93 0f0c 	teqne	r3, ip
   84cca:	d06f      	beq.n	84dac <__aeabi_fmul+0xf8>
   84ccc:	441a      	add	r2, r3
   84cce:	ea80 0c01 	eor.w	ip, r0, r1
   84cd2:	0240      	lsls	r0, r0, #9
   84cd4:	bf18      	it	ne
   84cd6:	ea5f 2141 	movsne.w	r1, r1, lsl #9
   84cda:	d01e      	beq.n	84d1a <__aeabi_fmul+0x66>
   84cdc:	f04f 6300 	mov.w	r3, #134217728	; 0x8000000
   84ce0:	ea43 1050 	orr.w	r0, r3, r0, lsr #5
   84ce4:	ea43 1151 	orr.w	r1, r3, r1, lsr #5
   84ce8:	fba0 3101 	umull	r3, r1, r0, r1
   84cec:	f00c 4000 	and.w	r0, ip, #2147483648	; 0x80000000
   84cf0:	f5b1 0f00 	cmp.w	r1, #8388608	; 0x800000
   84cf4:	bf3e      	ittt	cc
   84cf6:	0049      	lslcc	r1, r1, #1
   84cf8:	ea41 71d3 	orrcc.w	r1, r1, r3, lsr #31
   84cfc:	005b      	lslcc	r3, r3, #1
   84cfe:	ea40 0001 	orr.w	r0, r0, r1
   84d02:	f162 027f 	sbc.w	r2, r2, #127	; 0x7f
   84d06:	2afd      	cmp	r2, #253	; 0xfd
   84d08:	d81d      	bhi.n	84d46 <__aeabi_fmul+0x92>
   84d0a:	f1b3 4f00 	cmp.w	r3, #2147483648	; 0x80000000
   84d0e:	eb40 50c2 	adc.w	r0, r0, r2, lsl #23
   84d12:	bf08      	it	eq
   84d14:	f020 0001 	biceq.w	r0, r0, #1
   84d18:	4770      	bx	lr
   84d1a:	f090 0f00 	teq	r0, #0
   84d1e:	f00c 4c00 	and.w	ip, ip, #2147483648	; 0x80000000
   84d22:	bf08      	it	eq
   84d24:	0249      	lsleq	r1, r1, #9
   84d26:	ea4c 2050 	orr.w	r0, ip, r0, lsr #9
   84d2a:	ea40 2051 	orr.w	r0, r0, r1, lsr #9
   84d2e:	3a7f      	subs	r2, #127	; 0x7f
   84d30:	bfc2      	ittt	gt
   84d32:	f1d2 03ff 	rsbsgt	r3, r2, #255	; 0xff
   84d36:	ea40 50c2 	orrgt.w	r0, r0, r2, lsl #23
   84d3a:	4770      	bxgt	lr
   84d3c:	f440 0000 	orr.w	r0, r0, #8388608	; 0x800000
   84d40:	f04f 0300 	mov.w	r3, #0
   84d44:	3a01      	subs	r2, #1
   84d46:	dc5d      	bgt.n	84e04 <__aeabi_fmul+0x150>
   84d48:	f112 0f19 	cmn.w	r2, #25
   84d4c:	bfdc      	itt	le
   84d4e:	f000 4000 	andle.w	r0, r0, #2147483648	; 0x80000000
   84d52:	4770      	bxle	lr
   84d54:	f1c2 0200 	rsb	r2, r2, #0
   84d58:	0041      	lsls	r1, r0, #1
   84d5a:	fa21 f102 	lsr.w	r1, r1, r2
   84d5e:	f1c2 0220 	rsb	r2, r2, #32
   84d62:	fa00 fc02 	lsl.w	ip, r0, r2
   84d66:	ea5f 0031 	movs.w	r0, r1, rrx
   84d6a:	f140 0000 	adc.w	r0, r0, #0
   84d6e:	ea53 034c 	orrs.w	r3, r3, ip, lsl #1
   84d72:	bf08      	it	eq
   84d74:	ea20 70dc 	biceq.w	r0, r0, ip, lsr #31
   84d78:	4770      	bx	lr
   84d7a:	f092 0f00 	teq	r2, #0
   84d7e:	f000 4c00 	and.w	ip, r0, #2147483648	; 0x80000000
   84d82:	bf02      	ittt	eq
   84d84:	0040      	lsleq	r0, r0, #1
   84d86:	f410 0f00 	tsteq.w	r0, #8388608	; 0x800000
   84d8a:	3a01      	subeq	r2, #1
   84d8c:	d0f9      	beq.n	84d82 <__aeabi_fmul+0xce>
   84d8e:	ea40 000c 	orr.w	r0, r0, ip
   84d92:	f093 0f00 	teq	r3, #0
   84d96:	f001 4c00 	and.w	ip, r1, #2147483648	; 0x80000000
   84d9a:	bf02      	ittt	eq
   84d9c:	0049      	lsleq	r1, r1, #1
   84d9e:	f411 0f00 	tsteq.w	r1, #8388608	; 0x800000
   84da2:	3b01      	subeq	r3, #1
   84da4:	d0f9      	beq.n	84d9a <__aeabi_fmul+0xe6>
   84da6:	ea41 010c 	orr.w	r1, r1, ip
   84daa:	e78f      	b.n	84ccc <__aeabi_fmul+0x18>
   84dac:	ea0c 53d1 	and.w	r3, ip, r1, lsr #23
   84db0:	ea92 0f0c 	teq	r2, ip
   84db4:	bf18      	it	ne
   84db6:	ea93 0f0c 	teqne	r3, ip
   84dba:	d00a      	beq.n	84dd2 <__aeabi_fmul+0x11e>
   84dbc:	f030 4c00 	bics.w	ip, r0, #2147483648	; 0x80000000
   84dc0:	bf18      	it	ne
   84dc2:	f031 4c00 	bicsne.w	ip, r1, #2147483648	; 0x80000000
   84dc6:	d1d8      	bne.n	84d7a <__aeabi_fmul+0xc6>
   84dc8:	ea80 0001 	eor.w	r0, r0, r1
   84dcc:	f000 4000 	and.w	r0, r0, #2147483648	; 0x80000000
   84dd0:	4770      	bx	lr
   84dd2:	f090 0f00 	teq	r0, #0
   84dd6:	bf17      	itett	ne
   84dd8:	f090 4f00 	teqne	r0, #2147483648	; 0x80000000
   84ddc:	4608      	moveq	r0, r1
   84dde:	f091 0f00 	teqne	r1, #0
   84de2:	f091 4f00 	teqne	r1, #2147483648	; 0x80000000
   84de6:	d014      	beq.n	84e12 <__aeabi_fmul+0x15e>
   84de8:	ea92 0f0c 	teq	r2, ip
   84dec:	d101      	bne.n	84df2 <__aeabi_fmul+0x13e>
   84dee:	0242      	lsls	r2, r0, #9
   84df0:	d10f      	bne.n	84e12 <__aeabi_fmul+0x15e>
   84df2:	ea93 0f0c 	teq	r3, ip
   84df6:	d103      	bne.n	84e00 <__aeabi_fmul+0x14c>
   84df8:	024b      	lsls	r3, r1, #9
   84dfa:	bf18      	it	ne
   84dfc:	4608      	movne	r0, r1
   84dfe:	d108      	bne.n	84e12 <__aeabi_fmul+0x15e>
   84e00:	ea80 0001 	eor.w	r0, r0, r1
   84e04:	f000 4000 	and.w	r0, r0, #2147483648	; 0x80000000
   84e08:	f040 40fe 	orr.w	r0, r0, #2130706432	; 0x7f000000
   84e0c:	f440 0000 	orr.w	r0, r0, #8388608	; 0x800000
   84e10:	4770      	bx	lr
   84e12:	f040 40fe 	orr.w	r0, r0, #2130706432	; 0x7f000000
   84e16:	f440 0040 	orr.w	r0, r0, #12582912	; 0xc00000
   84e1a:	4770      	bx	lr

00084e1c <__aeabi_fdiv>:
   84e1c:	f04f 0cff 	mov.w	ip, #255	; 0xff
   84e20:	ea1c 52d0 	ands.w	r2, ip, r0, lsr #23
   84e24:	bf1e      	ittt	ne
   84e26:	ea1c 53d1 	andsne.w	r3, ip, r1, lsr #23
   84e2a:	ea92 0f0c 	teqne	r2, ip
   84e2e:	ea93 0f0c 	teqne	r3, ip
   84e32:	d069      	beq.n	84f08 <__aeabi_fdiv+0xec>
   84e34:	eba2 0203 	sub.w	r2, r2, r3
   84e38:	ea80 0c01 	eor.w	ip, r0, r1
   84e3c:	0249      	lsls	r1, r1, #9
   84e3e:	ea4f 2040 	mov.w	r0, r0, lsl #9
   84e42:	d037      	beq.n	84eb4 <__aeabi_fdiv+0x98>
   84e44:	f04f 5380 	mov.w	r3, #268435456	; 0x10000000
   84e48:	ea43 1111 	orr.w	r1, r3, r1, lsr #4
   84e4c:	ea43 1310 	orr.w	r3, r3, r0, lsr #4
   84e50:	f00c 4000 	and.w	r0, ip, #2147483648	; 0x80000000
   84e54:	428b      	cmp	r3, r1
   84e56:	bf38      	it	cc
   84e58:	005b      	lslcc	r3, r3, #1
   84e5a:	f142 027d 	adc.w	r2, r2, #125	; 0x7d
   84e5e:	f44f 0c00 	mov.w	ip, #8388608	; 0x800000
   84e62:	428b      	cmp	r3, r1
   84e64:	bf24      	itt	cs
   84e66:	1a5b      	subcs	r3, r3, r1
   84e68:	ea40 000c 	orrcs.w	r0, r0, ip
   84e6c:	ebb3 0f51 	cmp.w	r3, r1, lsr #1
   84e70:	bf24      	itt	cs
   84e72:	eba3 0351 	subcs.w	r3, r3, r1, lsr #1
   84e76:	ea40 005c 	orrcs.w	r0, r0, ip, lsr #1
   84e7a:	ebb3 0f91 	cmp.w	r3, r1, lsr #2
   84e7e:	bf24      	itt	cs
   84e80:	eba3 0391 	subcs.w	r3, r3, r1, lsr #2
   84e84:	ea40 009c 	orrcs.w	r0, r0, ip, lsr #2
   84e88:	ebb3 0fd1 	cmp.w	r3, r1, lsr #3
   84e8c:	bf24      	itt	cs
   84e8e:	eba3 03d1 	subcs.w	r3, r3, r1, lsr #3
   84e92:	ea40 00dc 	orrcs.w	r0, r0, ip, lsr #3
   84e96:	011b      	lsls	r3, r3, #4
   84e98:	bf18      	it	ne
   84e9a:	ea5f 1c1c 	movsne.w	ip, ip, lsr #4
   84e9e:	d1e0      	bne.n	84e62 <__aeabi_fdiv+0x46>
   84ea0:	2afd      	cmp	r2, #253	; 0xfd
   84ea2:	f63f af50 	bhi.w	84d46 <__aeabi_fmul+0x92>
   84ea6:	428b      	cmp	r3, r1
   84ea8:	eb40 50c2 	adc.w	r0, r0, r2, lsl #23
   84eac:	bf08      	it	eq
   84eae:	f020 0001 	biceq.w	r0, r0, #1
   84eb2:	4770      	bx	lr
   84eb4:	f00c 4c00 	and.w	ip, ip, #2147483648	; 0x80000000
   84eb8:	ea4c 2050 	orr.w	r0, ip, r0, lsr #9
   84ebc:	327f      	adds	r2, #127	; 0x7f
   84ebe:	bfc2      	ittt	gt
   84ec0:	f1d2 03ff 	rsbsgt	r3, r2, #255	; 0xff
   84ec4:	ea40 50c2 	orrgt.w	r0, r0, r2, lsl #23
   84ec8:	4770      	bxgt	lr
   84eca:	f440 0000 	orr.w	r0, r0, #8388608	; 0x800000
   84ece:	f04f 0300 	mov.w	r3, #0
   84ed2:	3a01      	subs	r2, #1
   84ed4:	e737      	b.n	84d46 <__aeabi_fmul+0x92>
   84ed6:	f092 0f00 	teq	r2, #0
   84eda:	f000 4c00 	and.w	ip, r0, #2147483648	; 0x80000000
   84ede:	bf02      	ittt	eq
   84ee0:	0040      	lsleq	r0, r0, #1
   84ee2:	f410 0f00 	tsteq.w	r0, #8388608	; 0x800000
   84ee6:	3a01      	subeq	r2, #1
   84ee8:	d0f9      	beq.n	84ede <__aeabi_fdiv+0xc2>
   84eea:	ea40 000c 	orr.w	r0, r0, ip
   84eee:	f093 0f00 	teq	r3, #0
   84ef2:	f001 4c00 	and.w	ip, r1, #2147483648	; 0x80000000
   84ef6:	bf02      	ittt	eq
   84ef8:	0049      	lsleq	r1, r1, #1
   84efa:	f411 0f00 	tsteq.w	r1, #8388608	; 0x800000
   84efe:	3b01      	subeq	r3, #1
   84f00:	d0f9      	beq.n	84ef6 <__aeabi_fdiv+0xda>
   84f02:	ea41 010c 	orr.w	r1, r1, ip
   84f06:	e795      	b.n	84e34 <__aeabi_fdiv+0x18>
   84f08:	ea0c 53d1 	and.w	r3, ip, r1, lsr #23
   84f0c:	ea92 0f0c 	teq	r2, ip
   84f10:	d108      	bne.n	84f24 <__aeabi_fdiv+0x108>
   84f12:	0242      	lsls	r2, r0, #9
   84f14:	f47f af7d 	bne.w	84e12 <__aeabi_fmul+0x15e>
   84f18:	ea93 0f0c 	teq	r3, ip
   84f1c:	f47f af70 	bne.w	84e00 <__aeabi_fmul+0x14c>
   84f20:	4608      	mov	r0, r1
   84f22:	e776      	b.n	84e12 <__aeabi_fmul+0x15e>
   84f24:	ea93 0f0c 	teq	r3, ip
   84f28:	d104      	bne.n	84f34 <__aeabi_fdiv+0x118>
   84f2a:	024b      	lsls	r3, r1, #9
   84f2c:	f43f af4c 	beq.w	84dc8 <__aeabi_fmul+0x114>
   84f30:	4608      	mov	r0, r1
   84f32:	e76e      	b.n	84e12 <__aeabi_fmul+0x15e>
   84f34:	f030 4c00 	bics.w	ip, r0, #2147483648	; 0x80000000
   84f38:	bf18      	it	ne
   84f3a:	f031 4c00 	bicsne.w	ip, r1, #2147483648	; 0x80000000
   84f3e:	d1ca      	bne.n	84ed6 <__aeabi_fdiv+0xba>
   84f40:	f030 4200 	bics.w	r2, r0, #2147483648	; 0x80000000
   84f44:	f47f af5c 	bne.w	84e00 <__aeabi_fmul+0x14c>
   84f48:	f031 4300 	bics.w	r3, r1, #2147483648	; 0x80000000
   84f4c:	f47f af3c 	bne.w	84dc8 <__aeabi_fmul+0x114>
   84f50:	e75f      	b.n	84e12 <__aeabi_fmul+0x15e>
   84f52:	bf00      	nop

00084f54 <__gesf2>:
   84f54:	f04f 3cff 	mov.w	ip, #4294967295
   84f58:	e006      	b.n	84f68 <__cmpsf2+0x4>
   84f5a:	bf00      	nop

00084f5c <__lesf2>:
   84f5c:	f04f 0c01 	mov.w	ip, #1
   84f60:	e002      	b.n	84f68 <__cmpsf2+0x4>
   84f62:	bf00      	nop

00084f64 <__cmpsf2>:
   84f64:	f04f 0c01 	mov.w	ip, #1
   84f68:	f84d cd04 	str.w	ip, [sp, #-4]!
   84f6c:	ea4f 0240 	mov.w	r2, r0, lsl #1
   84f70:	ea4f 0341 	mov.w	r3, r1, lsl #1
   84f74:	ea7f 6c22 	mvns.w	ip, r2, asr #24
   84f78:	bf18      	it	ne
   84f7a:	ea7f 6c23 	mvnsne.w	ip, r3, asr #24
   84f7e:	d011      	beq.n	84fa4 <__cmpsf2+0x40>
   84f80:	b001      	add	sp, #4
   84f82:	ea52 0c53 	orrs.w	ip, r2, r3, lsr #1
   84f86:	bf18      	it	ne
   84f88:	ea90 0f01 	teqne	r0, r1
   84f8c:	bf58      	it	pl
   84f8e:	ebb2 0003 	subspl.w	r0, r2, r3
   84f92:	bf88      	it	hi
   84f94:	17c8      	asrhi	r0, r1, #31
   84f96:	bf38      	it	cc
   84f98:	ea6f 70e1 	mvncc.w	r0, r1, asr #31
   84f9c:	bf18      	it	ne
   84f9e:	f040 0001 	orrne.w	r0, r0, #1
   84fa2:	4770      	bx	lr
   84fa4:	ea7f 6c22 	mvns.w	ip, r2, asr #24
   84fa8:	d102      	bne.n	84fb0 <__cmpsf2+0x4c>
   84faa:	ea5f 2c40 	movs.w	ip, r0, lsl #9
   84fae:	d105      	bne.n	84fbc <__cmpsf2+0x58>
   84fb0:	ea7f 6c23 	mvns.w	ip, r3, asr #24
   84fb4:	d1e4      	bne.n	84f80 <__cmpsf2+0x1c>
   84fb6:	ea5f 2c41 	movs.w	ip, r1, lsl #9
   84fba:	d0e1      	beq.n	84f80 <__cmpsf2+0x1c>
   84fbc:	f85d 0b04 	ldr.w	r0, [sp], #4
   84fc0:	4770      	bx	lr
   84fc2:	bf00      	nop

00084fc4 <__aeabi_cfrcmple>:
   84fc4:	4684      	mov	ip, r0
   84fc6:	4608      	mov	r0, r1
   84fc8:	4661      	mov	r1, ip
   84fca:	e7ff      	b.n	84fcc <__aeabi_cfcmpeq>

00084fcc <__aeabi_cfcmpeq>:
   84fcc:	b50f      	push	{r0, r1, r2, r3, lr}
   84fce:	f7ff ffc9 	bl	84f64 <__cmpsf2>
   84fd2:	2800      	cmp	r0, #0
   84fd4:	bf48      	it	mi
   84fd6:	f110 0f00 	cmnmi.w	r0, #0
   84fda:	bd0f      	pop	{r0, r1, r2, r3, pc}

00084fdc <__aeabi_fcmpeq>:
   84fdc:	f84d ed08 	str.w	lr, [sp, #-8]!
   84fe0:	f7ff fff4 	bl	84fcc <__aeabi_cfcmpeq>
   84fe4:	bf0c      	ite	eq
   84fe6:	2001      	moveq	r0, #1
   84fe8:	2000      	movne	r0, #0
   84fea:	f85d fb08 	ldr.w	pc, [sp], #8
   84fee:	bf00      	nop

00084ff0 <__aeabi_fcmplt>:
   84ff0:	f84d ed08 	str.w	lr, [sp, #-8]!
   84ff4:	f7ff ffea 	bl	84fcc <__aeabi_cfcmpeq>
   84ff8:	bf34      	ite	cc
   84ffa:	2001      	movcc	r0, #1
   84ffc:	2000      	movcs	r0, #0
   84ffe:	f85d fb08 	ldr.w	pc, [sp], #8
   85002:	bf00      	nop

00085004 <__aeabi_fcmple>:
   85004:	f84d ed08 	str.w	lr, [sp, #-8]!
   85008:	f7ff ffe0 	bl	84fcc <__aeabi_cfcmpeq>
   8500c:	bf94      	ite	ls
   8500e:	2001      	movls	r0, #1
   85010:	2000      	movhi	r0, #0
   85012:	f85d fb08 	ldr.w	pc, [sp], #8
   85016:	bf00      	nop

00085018 <__aeabi_fcmpge>:
   85018:	f84d ed08 	str.w	lr, [sp, #-8]!
   8501c:	f7ff ffd2 	bl	84fc4 <__aeabi_cfrcmple>
   85020:	bf94      	ite	ls
   85022:	2001      	movls	r0, #1
   85024:	2000      	movhi	r0, #0
   85026:	f85d fb08 	ldr.w	pc, [sp], #8
   8502a:	bf00      	nop

0008502c <__aeabi_fcmpgt>:
   8502c:	f84d ed08 	str.w	lr, [sp, #-8]!
   85030:	f7ff ffc8 	bl	84fc4 <__aeabi_cfrcmple>
   85034:	bf34      	ite	cc
   85036:	2001      	movcc	r0, #1
   85038:	2000      	movcs	r0, #0
   8503a:	f85d fb08 	ldr.w	pc, [sp], #8
   8503e:	bf00      	nop

00085040 <__aeabi_f2iz>:
   85040:	ea4f 0240 	mov.w	r2, r0, lsl #1
   85044:	f1b2 4ffe 	cmp.w	r2, #2130706432	; 0x7f000000
   85048:	d30f      	bcc.n	8506a <__aeabi_f2iz+0x2a>
   8504a:	f04f 039e 	mov.w	r3, #158	; 0x9e
   8504e:	ebb3 6212 	subs.w	r2, r3, r2, lsr #24
   85052:	d90d      	bls.n	85070 <__aeabi_f2iz+0x30>
   85054:	ea4f 2300 	mov.w	r3, r0, lsl #8
   85058:	f043 4300 	orr.w	r3, r3, #2147483648	; 0x80000000
   8505c:	f010 4f00 	tst.w	r0, #2147483648	; 0x80000000
   85060:	fa23 f002 	lsr.w	r0, r3, r2
   85064:	bf18      	it	ne
   85066:	4240      	negne	r0, r0
   85068:	4770      	bx	lr
   8506a:	f04f 0000 	mov.w	r0, #0
   8506e:	4770      	bx	lr
   85070:	f112 0f61 	cmn.w	r2, #97	; 0x61
   85074:	d101      	bne.n	8507a <__aeabi_f2iz+0x3a>
   85076:	0242      	lsls	r2, r0, #9
   85078:	d105      	bne.n	85086 <__aeabi_f2iz+0x46>
   8507a:	f010 4000 	ands.w	r0, r0, #2147483648	; 0x80000000
   8507e:	bf08      	it	eq
   85080:	f06f 4000 	mvneq.w	r0, #2147483648	; 0x80000000
   85084:	4770      	bx	lr
   85086:	f04f 0000 	mov.w	r0, #0
   8508a:	4770      	bx	lr

0008508c <__libc_init_array>:
   8508c:	b570      	push	{r4, r5, r6, lr}
   8508e:	4e0f      	ldr	r6, [pc, #60]	; (850cc <__libc_init_array+0x40>)
   85090:	4d0f      	ldr	r5, [pc, #60]	; (850d0 <__libc_init_array+0x44>)
   85092:	1b76      	subs	r6, r6, r5
   85094:	10b6      	asrs	r6, r6, #2
   85096:	bf18      	it	ne
   85098:	2400      	movne	r4, #0
   8509a:	d005      	beq.n	850a8 <__libc_init_array+0x1c>
   8509c:	3401      	adds	r4, #1
   8509e:	f855 3b04 	ldr.w	r3, [r5], #4
   850a2:	4798      	blx	r3
   850a4:	42a6      	cmp	r6, r4
   850a6:	d1f9      	bne.n	8509c <__libc_init_array+0x10>
   850a8:	4e0a      	ldr	r6, [pc, #40]	; (850d4 <__libc_init_array+0x48>)
   850aa:	4d0b      	ldr	r5, [pc, #44]	; (850d8 <__libc_init_array+0x4c>)
   850ac:	f003 fafc 	bl	886a8 <_init>
   850b0:	1b76      	subs	r6, r6, r5
   850b2:	10b6      	asrs	r6, r6, #2
   850b4:	bf18      	it	ne
   850b6:	2400      	movne	r4, #0
   850b8:	d006      	beq.n	850c8 <__libc_init_array+0x3c>
   850ba:	3401      	adds	r4, #1
   850bc:	f855 3b04 	ldr.w	r3, [r5], #4
   850c0:	4798      	blx	r3
   850c2:	42a6      	cmp	r6, r4
   850c4:	d1f9      	bne.n	850ba <__libc_init_array+0x2e>
   850c6:	bd70      	pop	{r4, r5, r6, pc}
   850c8:	bd70      	pop	{r4, r5, r6, pc}
   850ca:	bf00      	nop
   850cc:	000886b4 	.word	0x000886b4
   850d0:	000886b4 	.word	0x000886b4
   850d4:	000886bc 	.word	0x000886bc
   850d8:	000886b4 	.word	0x000886b4

000850dc <iprintf>:
   850dc:	b40f      	push	{r0, r1, r2, r3}
   850de:	b510      	push	{r4, lr}
   850e0:	4b07      	ldr	r3, [pc, #28]	; (85100 <iprintf+0x24>)
   850e2:	b082      	sub	sp, #8
   850e4:	ac04      	add	r4, sp, #16
   850e6:	f854 2b04 	ldr.w	r2, [r4], #4
   850ea:	6818      	ldr	r0, [r3, #0]
   850ec:	4623      	mov	r3, r4
   850ee:	6881      	ldr	r1, [r0, #8]
   850f0:	9401      	str	r4, [sp, #4]
   850f2:	f000 fa3b 	bl	8556c <_vfiprintf_r>
   850f6:	b002      	add	sp, #8
   850f8:	e8bd 4010 	ldmia.w	sp!, {r4, lr}
   850fc:	b004      	add	sp, #16
   850fe:	4770      	bx	lr
   85100:	20070170 	.word	0x20070170

00085104 <memcpy>:
   85104:	4684      	mov	ip, r0
   85106:	ea41 0300 	orr.w	r3, r1, r0
   8510a:	f013 0303 	ands.w	r3, r3, #3
   8510e:	d149      	bne.n	851a4 <memcpy+0xa0>
   85110:	3a40      	subs	r2, #64	; 0x40
   85112:	d323      	bcc.n	8515c <memcpy+0x58>
   85114:	680b      	ldr	r3, [r1, #0]
   85116:	6003      	str	r3, [r0, #0]
   85118:	684b      	ldr	r3, [r1, #4]
   8511a:	6043      	str	r3, [r0, #4]
   8511c:	688b      	ldr	r3, [r1, #8]
   8511e:	6083      	str	r3, [r0, #8]
   85120:	68cb      	ldr	r3, [r1, #12]
   85122:	60c3      	str	r3, [r0, #12]
   85124:	690b      	ldr	r3, [r1, #16]
   85126:	6103      	str	r3, [r0, #16]
   85128:	694b      	ldr	r3, [r1, #20]
   8512a:	6143      	str	r3, [r0, #20]
   8512c:	698b      	ldr	r3, [r1, #24]
   8512e:	6183      	str	r3, [r0, #24]
   85130:	69cb      	ldr	r3, [r1, #28]
   85132:	61c3      	str	r3, [r0, #28]
   85134:	6a0b      	ldr	r3, [r1, #32]
   85136:	6203      	str	r3, [r0, #32]
   85138:	6a4b      	ldr	r3, [r1, #36]	; 0x24
   8513a:	6243      	str	r3, [r0, #36]	; 0x24
   8513c:	6a8b      	ldr	r3, [r1, #40]	; 0x28
   8513e:	6283      	str	r3, [r0, #40]	; 0x28
   85140:	6acb      	ldr	r3, [r1, #44]	; 0x2c
   85142:	62c3      	str	r3, [r0, #44]	; 0x2c
   85144:	6b0b      	ldr	r3, [r1, #48]	; 0x30
   85146:	6303      	str	r3, [r0, #48]	; 0x30
   85148:	6b4b      	ldr	r3, [r1, #52]	; 0x34
   8514a:	6343      	str	r3, [r0, #52]	; 0x34
   8514c:	6b8b      	ldr	r3, [r1, #56]	; 0x38
   8514e:	6383      	str	r3, [r0, #56]	; 0x38
   85150:	6bcb      	ldr	r3, [r1, #60]	; 0x3c
   85152:	63c3      	str	r3, [r0, #60]	; 0x3c
   85154:	3040      	adds	r0, #64	; 0x40
   85156:	3140      	adds	r1, #64	; 0x40
   85158:	3a40      	subs	r2, #64	; 0x40
   8515a:	d2db      	bcs.n	85114 <memcpy+0x10>
   8515c:	3230      	adds	r2, #48	; 0x30
   8515e:	d30b      	bcc.n	85178 <memcpy+0x74>
   85160:	680b      	ldr	r3, [r1, #0]
   85162:	6003      	str	r3, [r0, #0]
   85164:	684b      	ldr	r3, [r1, #4]
   85166:	6043      	str	r3, [r0, #4]
   85168:	688b      	ldr	r3, [r1, #8]
   8516a:	6083      	str	r3, [r0, #8]
   8516c:	68cb      	ldr	r3, [r1, #12]
   8516e:	60c3      	str	r3, [r0, #12]
   85170:	3010      	adds	r0, #16
   85172:	3110      	adds	r1, #16
   85174:	3a10      	subs	r2, #16
   85176:	d2f3      	bcs.n	85160 <memcpy+0x5c>
   85178:	320c      	adds	r2, #12
   8517a:	d305      	bcc.n	85188 <memcpy+0x84>
   8517c:	f851 3b04 	ldr.w	r3, [r1], #4
   85180:	f840 3b04 	str.w	r3, [r0], #4
   85184:	3a04      	subs	r2, #4
   85186:	d2f9      	bcs.n	8517c <memcpy+0x78>
   85188:	3204      	adds	r2, #4
   8518a:	d008      	beq.n	8519e <memcpy+0x9a>
   8518c:	07d2      	lsls	r2, r2, #31
   8518e:	bf1c      	itt	ne
   85190:	f811 3b01 	ldrbne.w	r3, [r1], #1
   85194:	f800 3b01 	strbne.w	r3, [r0], #1
   85198:	d301      	bcc.n	8519e <memcpy+0x9a>
   8519a:	880b      	ldrh	r3, [r1, #0]
   8519c:	8003      	strh	r3, [r0, #0]
   8519e:	4660      	mov	r0, ip
   851a0:	4770      	bx	lr
   851a2:	bf00      	nop
   851a4:	2a08      	cmp	r2, #8
   851a6:	d313      	bcc.n	851d0 <memcpy+0xcc>
   851a8:	078b      	lsls	r3, r1, #30
   851aa:	d0b1      	beq.n	85110 <memcpy+0xc>
   851ac:	f010 0303 	ands.w	r3, r0, #3
   851b0:	d0ae      	beq.n	85110 <memcpy+0xc>
   851b2:	f1c3 0304 	rsb	r3, r3, #4
   851b6:	1ad2      	subs	r2, r2, r3
   851b8:	07db      	lsls	r3, r3, #31
   851ba:	bf1c      	itt	ne
   851bc:	f811 3b01 	ldrbne.w	r3, [r1], #1
   851c0:	f800 3b01 	strbne.w	r3, [r0], #1
   851c4:	d3a4      	bcc.n	85110 <memcpy+0xc>
   851c6:	f831 3b02 	ldrh.w	r3, [r1], #2
   851ca:	f820 3b02 	strh.w	r3, [r0], #2
   851ce:	e79f      	b.n	85110 <memcpy+0xc>
   851d0:	3a04      	subs	r2, #4
   851d2:	d3d9      	bcc.n	85188 <memcpy+0x84>
   851d4:	3a01      	subs	r2, #1
   851d6:	f811 3b01 	ldrb.w	r3, [r1], #1
   851da:	f800 3b01 	strb.w	r3, [r0], #1
   851de:	d2f9      	bcs.n	851d4 <memcpy+0xd0>
   851e0:	780b      	ldrb	r3, [r1, #0]
   851e2:	7003      	strb	r3, [r0, #0]
   851e4:	784b      	ldrb	r3, [r1, #1]
   851e6:	7043      	strb	r3, [r0, #1]
   851e8:	788b      	ldrb	r3, [r1, #2]
   851ea:	7083      	strb	r3, [r0, #2]
   851ec:	4660      	mov	r0, ip
   851ee:	4770      	bx	lr

000851f0 <memset>:
   851f0:	b470      	push	{r4, r5, r6}
   851f2:	0786      	lsls	r6, r0, #30
   851f4:	d046      	beq.n	85284 <memset+0x94>
   851f6:	1e54      	subs	r4, r2, #1
   851f8:	2a00      	cmp	r2, #0
   851fa:	d041      	beq.n	85280 <memset+0x90>
   851fc:	b2ca      	uxtb	r2, r1
   851fe:	4603      	mov	r3, r0
   85200:	e002      	b.n	85208 <memset+0x18>
   85202:	f114 34ff 	adds.w	r4, r4, #4294967295
   85206:	d33b      	bcc.n	85280 <memset+0x90>
   85208:	f803 2b01 	strb.w	r2, [r3], #1
   8520c:	079d      	lsls	r5, r3, #30
   8520e:	d1f8      	bne.n	85202 <memset+0x12>
   85210:	2c03      	cmp	r4, #3
   85212:	d92e      	bls.n	85272 <memset+0x82>
   85214:	b2cd      	uxtb	r5, r1
   85216:	ea45 2505 	orr.w	r5, r5, r5, lsl #8
   8521a:	2c0f      	cmp	r4, #15
   8521c:	ea45 4505 	orr.w	r5, r5, r5, lsl #16
   85220:	d919      	bls.n	85256 <memset+0x66>
   85222:	4626      	mov	r6, r4
   85224:	f103 0210 	add.w	r2, r3, #16
   85228:	3e10      	subs	r6, #16
   8522a:	2e0f      	cmp	r6, #15
   8522c:	f842 5c10 	str.w	r5, [r2, #-16]
   85230:	f842 5c0c 	str.w	r5, [r2, #-12]
   85234:	f842 5c08 	str.w	r5, [r2, #-8]
   85238:	f842 5c04 	str.w	r5, [r2, #-4]
   8523c:	f102 0210 	add.w	r2, r2, #16
   85240:	d8f2      	bhi.n	85228 <memset+0x38>
   85242:	f1a4 0210 	sub.w	r2, r4, #16
   85246:	f022 020f 	bic.w	r2, r2, #15
   8524a:	f004 040f 	and.w	r4, r4, #15
   8524e:	3210      	adds	r2, #16
   85250:	2c03      	cmp	r4, #3
   85252:	4413      	add	r3, r2
   85254:	d90d      	bls.n	85272 <memset+0x82>
   85256:	461e      	mov	r6, r3
   85258:	4622      	mov	r2, r4
   8525a:	3a04      	subs	r2, #4
   8525c:	2a03      	cmp	r2, #3
   8525e:	f846 5b04 	str.w	r5, [r6], #4
   85262:	d8fa      	bhi.n	8525a <memset+0x6a>
   85264:	1f22      	subs	r2, r4, #4
   85266:	f022 0203 	bic.w	r2, r2, #3
   8526a:	3204      	adds	r2, #4
   8526c:	4413      	add	r3, r2
   8526e:	f004 0403 	and.w	r4, r4, #3
   85272:	b12c      	cbz	r4, 85280 <memset+0x90>
   85274:	b2c9      	uxtb	r1, r1
   85276:	441c      	add	r4, r3
   85278:	f803 1b01 	strb.w	r1, [r3], #1
   8527c:	429c      	cmp	r4, r3
   8527e:	d1fb      	bne.n	85278 <memset+0x88>
   85280:	bc70      	pop	{r4, r5, r6}
   85282:	4770      	bx	lr
   85284:	4614      	mov	r4, r2
   85286:	4603      	mov	r3, r0
   85288:	e7c2      	b.n	85210 <memset+0x20>
   8528a:	bf00      	nop

0008528c <setbuf>:
   8528c:	2900      	cmp	r1, #0
   8528e:	bf0c      	ite	eq
   85290:	2202      	moveq	r2, #2
   85292:	2200      	movne	r2, #0
   85294:	f44f 6380 	mov.w	r3, #1024	; 0x400
   85298:	f000 b800 	b.w	8529c <setvbuf>

0008529c <setvbuf>:
   8529c:	e92d 43f0 	stmdb	sp!, {r4, r5, r6, r7, r8, r9, lr}
   852a0:	4d61      	ldr	r5, [pc, #388]	; (85428 <setvbuf+0x18c>)
   852a2:	b083      	sub	sp, #12
   852a4:	682d      	ldr	r5, [r5, #0]
   852a6:	4604      	mov	r4, r0
   852a8:	460f      	mov	r7, r1
   852aa:	4690      	mov	r8, r2
   852ac:	461e      	mov	r6, r3
   852ae:	b115      	cbz	r5, 852b6 <setvbuf+0x1a>
   852b0:	6bab      	ldr	r3, [r5, #56]	; 0x38
   852b2:	2b00      	cmp	r3, #0
   852b4:	d064      	beq.n	85380 <setvbuf+0xe4>
   852b6:	f1b8 0f02 	cmp.w	r8, #2
   852ba:	d006      	beq.n	852ca <setvbuf+0x2e>
   852bc:	f1b8 0f01 	cmp.w	r8, #1
   852c0:	f200 809f 	bhi.w	85402 <setvbuf+0x166>
   852c4:	2e00      	cmp	r6, #0
   852c6:	f2c0 809c 	blt.w	85402 <setvbuf+0x166>
   852ca:	6e63      	ldr	r3, [r4, #100]	; 0x64
   852cc:	07d8      	lsls	r0, r3, #31
   852ce:	d534      	bpl.n	8533a <setvbuf+0x9e>
   852d0:	4621      	mov	r1, r4
   852d2:	4628      	mov	r0, r5
   852d4:	f001 f8e2 	bl	8649c <_fflush_r>
   852d8:	6b21      	ldr	r1, [r4, #48]	; 0x30
   852da:	b141      	cbz	r1, 852ee <setvbuf+0x52>
   852dc:	f104 0340 	add.w	r3, r4, #64	; 0x40
   852e0:	4299      	cmp	r1, r3
   852e2:	d002      	beq.n	852ea <setvbuf+0x4e>
   852e4:	4628      	mov	r0, r5
   852e6:	f001 fa57 	bl	86798 <_free_r>
   852ea:	2300      	movs	r3, #0
   852ec:	6323      	str	r3, [r4, #48]	; 0x30
   852ee:	2200      	movs	r2, #0
   852f0:	f9b4 300c 	ldrsh.w	r3, [r4, #12]
   852f4:	61a2      	str	r2, [r4, #24]
   852f6:	6062      	str	r2, [r4, #4]
   852f8:	061a      	lsls	r2, r3, #24
   852fa:	d43a      	bmi.n	85372 <setvbuf+0xd6>
   852fc:	f423 634a 	bic.w	r3, r3, #3232	; 0xca0
   85300:	f023 0303 	bic.w	r3, r3, #3
   85304:	f1b8 0f02 	cmp.w	r8, #2
   85308:	81a3      	strh	r3, [r4, #12]
   8530a:	d01d      	beq.n	85348 <setvbuf+0xac>
   8530c:	ab01      	add	r3, sp, #4
   8530e:	466a      	mov	r2, sp
   85310:	4621      	mov	r1, r4
   85312:	4628      	mov	r0, r5
   85314:	f001 fcde 	bl	86cd4 <__swhatbuf_r>
   85318:	89a3      	ldrh	r3, [r4, #12]
   8531a:	4318      	orrs	r0, r3
   8531c:	81a0      	strh	r0, [r4, #12]
   8531e:	2e00      	cmp	r6, #0
   85320:	d132      	bne.n	85388 <setvbuf+0xec>
   85322:	9e00      	ldr	r6, [sp, #0]
   85324:	4630      	mov	r0, r6
   85326:	f001 fd4d 	bl	86dc4 <malloc>
   8532a:	4607      	mov	r7, r0
   8532c:	2800      	cmp	r0, #0
   8532e:	d06b      	beq.n	85408 <setvbuf+0x16c>
   85330:	89a3      	ldrh	r3, [r4, #12]
   85332:	f043 0380 	orr.w	r3, r3, #128	; 0x80
   85336:	81a3      	strh	r3, [r4, #12]
   85338:	e028      	b.n	8538c <setvbuf+0xf0>
   8533a:	89a3      	ldrh	r3, [r4, #12]
   8533c:	0599      	lsls	r1, r3, #22
   8533e:	d4c7      	bmi.n	852d0 <setvbuf+0x34>
   85340:	6da0      	ldr	r0, [r4, #88]	; 0x58
   85342:	f001 fcc3 	bl	86ccc <__retarget_lock_acquire_recursive>
   85346:	e7c3      	b.n	852d0 <setvbuf+0x34>
   85348:	2500      	movs	r5, #0
   8534a:	2600      	movs	r6, #0
   8534c:	2001      	movs	r0, #1
   8534e:	6e61      	ldr	r1, [r4, #100]	; 0x64
   85350:	f104 0243 	add.w	r2, r4, #67	; 0x43
   85354:	f043 0302 	orr.w	r3, r3, #2
   85358:	60a6      	str	r6, [r4, #8]
   8535a:	07ce      	lsls	r6, r1, #31
   8535c:	81a3      	strh	r3, [r4, #12]
   8535e:	6160      	str	r0, [r4, #20]
   85360:	6022      	str	r2, [r4, #0]
   85362:	6122      	str	r2, [r4, #16]
   85364:	d401      	bmi.n	8536a <setvbuf+0xce>
   85366:	0598      	lsls	r0, r3, #22
   85368:	d53e      	bpl.n	853e8 <setvbuf+0x14c>
   8536a:	4628      	mov	r0, r5
   8536c:	b003      	add	sp, #12
   8536e:	e8bd 83f0 	ldmia.w	sp!, {r4, r5, r6, r7, r8, r9, pc}
   85372:	6921      	ldr	r1, [r4, #16]
   85374:	4628      	mov	r0, r5
   85376:	f001 fa0f 	bl	86798 <_free_r>
   8537a:	f9b4 300c 	ldrsh.w	r3, [r4, #12]
   8537e:	e7bd      	b.n	852fc <setvbuf+0x60>
   85380:	4628      	mov	r0, r5
   85382:	f001 f8e3 	bl	8654c <__sinit>
   85386:	e796      	b.n	852b6 <setvbuf+0x1a>
   85388:	2f00      	cmp	r7, #0
   8538a:	d0cb      	beq.n	85324 <setvbuf+0x88>
   8538c:	6bab      	ldr	r3, [r5, #56]	; 0x38
   8538e:	2b00      	cmp	r3, #0
   85390:	d033      	beq.n	853fa <setvbuf+0x15e>
   85392:	9b00      	ldr	r3, [sp, #0]
   85394:	f9b4 200c 	ldrsh.w	r2, [r4, #12]
   85398:	429e      	cmp	r6, r3
   8539a:	bf1c      	itt	ne
   8539c:	f442 6200 	orrne.w	r2, r2, #2048	; 0x800
   853a0:	81a2      	strhne	r2, [r4, #12]
   853a2:	f1b8 0f01 	cmp.w	r8, #1
   853a6:	bf04      	itt	eq
   853a8:	f042 0201 	orreq.w	r2, r2, #1
   853ac:	81a2      	strheq	r2, [r4, #12]
   853ae:	b292      	uxth	r2, r2
   853b0:	f012 0308 	ands.w	r3, r2, #8
   853b4:	6027      	str	r7, [r4, #0]
   853b6:	6127      	str	r7, [r4, #16]
   853b8:	6166      	str	r6, [r4, #20]
   853ba:	d00e      	beq.n	853da <setvbuf+0x13e>
   853bc:	07d1      	lsls	r1, r2, #31
   853be:	d51a      	bpl.n	853f6 <setvbuf+0x15a>
   853c0:	2300      	movs	r3, #0
   853c2:	6e65      	ldr	r5, [r4, #100]	; 0x64
   853c4:	4276      	negs	r6, r6
   853c6:	f015 0501 	ands.w	r5, r5, #1
   853ca:	61a6      	str	r6, [r4, #24]
   853cc:	60a3      	str	r3, [r4, #8]
   853ce:	d009      	beq.n	853e4 <setvbuf+0x148>
   853d0:	2500      	movs	r5, #0
   853d2:	4628      	mov	r0, r5
   853d4:	b003      	add	sp, #12
   853d6:	e8bd 83f0 	ldmia.w	sp!, {r4, r5, r6, r7, r8, r9, pc}
   853da:	60a3      	str	r3, [r4, #8]
   853dc:	6e65      	ldr	r5, [r4, #100]	; 0x64
   853de:	f015 0501 	ands.w	r5, r5, #1
   853e2:	d1f5      	bne.n	853d0 <setvbuf+0x134>
   853e4:	0593      	lsls	r3, r2, #22
   853e6:	d4c0      	bmi.n	8536a <setvbuf+0xce>
   853e8:	6da0      	ldr	r0, [r4, #88]	; 0x58
   853ea:	f001 fc71 	bl	86cd0 <__retarget_lock_release_recursive>
   853ee:	4628      	mov	r0, r5
   853f0:	b003      	add	sp, #12
   853f2:	e8bd 83f0 	ldmia.w	sp!, {r4, r5, r6, r7, r8, r9, pc}
   853f6:	60a6      	str	r6, [r4, #8]
   853f8:	e7f0      	b.n	853dc <setvbuf+0x140>
   853fa:	4628      	mov	r0, r5
   853fc:	f001 f8a6 	bl	8654c <__sinit>
   85400:	e7c7      	b.n	85392 <setvbuf+0xf6>
   85402:	f04f 35ff 	mov.w	r5, #4294967295
   85406:	e7b0      	b.n	8536a <setvbuf+0xce>
   85408:	f8dd 9000 	ldr.w	r9, [sp]
   8540c:	45b1      	cmp	r9, r6
   8540e:	d004      	beq.n	8541a <setvbuf+0x17e>
   85410:	4648      	mov	r0, r9
   85412:	f001 fcd7 	bl	86dc4 <malloc>
   85416:	4607      	mov	r7, r0
   85418:	b920      	cbnz	r0, 85424 <setvbuf+0x188>
   8541a:	f9b4 300c 	ldrsh.w	r3, [r4, #12]
   8541e:	f04f 35ff 	mov.w	r5, #4294967295
   85422:	e792      	b.n	8534a <setvbuf+0xae>
   85424:	464e      	mov	r6, r9
   85426:	e783      	b.n	85330 <setvbuf+0x94>
   85428:	20070170 	.word	0x20070170

0008542c <strlen>:
   8542c:	f020 0103 	bic.w	r1, r0, #3
   85430:	f010 0003 	ands.w	r0, r0, #3
   85434:	f1c0 0000 	rsb	r0, r0, #0
   85438:	f851 3b04 	ldr.w	r3, [r1], #4
   8543c:	f100 0c04 	add.w	ip, r0, #4
   85440:	ea4f 0ccc 	mov.w	ip, ip, lsl #3
   85444:	f06f 0200 	mvn.w	r2, #0
   85448:	bf1c      	itt	ne
   8544a:	fa22 f20c 	lsrne.w	r2, r2, ip
   8544e:	4313      	orrne	r3, r2
   85450:	f04f 0c01 	mov.w	ip, #1
   85454:	ea4c 2c0c 	orr.w	ip, ip, ip, lsl #8
   85458:	ea4c 4c0c 	orr.w	ip, ip, ip, lsl #16
   8545c:	eba3 020c 	sub.w	r2, r3, ip
   85460:	ea22 0203 	bic.w	r2, r2, r3
   85464:	ea12 12cc 	ands.w	r2, r2, ip, lsl #7
   85468:	bf04      	itt	eq
   8546a:	f851 3b04 	ldreq.w	r3, [r1], #4
   8546e:	3004      	addeq	r0, #4
   85470:	d0f4      	beq.n	8545c <strlen+0x30>
   85472:	f1c2 0100 	rsb	r1, r2, #0
   85476:	ea02 0201 	and.w	r2, r2, r1
   8547a:	fab2 f282 	clz	r2, r2
   8547e:	f1c2 021f 	rsb	r2, r2, #31
   85482:	eb00 00d2 	add.w	r0, r0, r2, lsr #3
   85486:	4770      	bx	lr

00085488 <strncpy>:
   85488:	ea40 0301 	orr.w	r3, r0, r1
   8548c:	f013 0f03 	tst.w	r3, #3
   85490:	b470      	push	{r4, r5, r6}
   85492:	4603      	mov	r3, r0
   85494:	d024      	beq.n	854e0 <strncpy+0x58>
   85496:	b1a2      	cbz	r2, 854c2 <strncpy+0x3a>
   85498:	780c      	ldrb	r4, [r1, #0]
   8549a:	3a01      	subs	r2, #1
   8549c:	701c      	strb	r4, [r3, #0]
   8549e:	3101      	adds	r1, #1
   854a0:	3301      	adds	r3, #1
   854a2:	b13c      	cbz	r4, 854b4 <strncpy+0x2c>
   854a4:	b16a      	cbz	r2, 854c2 <strncpy+0x3a>
   854a6:	f811 4b01 	ldrb.w	r4, [r1], #1
   854aa:	3a01      	subs	r2, #1
   854ac:	f803 4b01 	strb.w	r4, [r3], #1
   854b0:	2c00      	cmp	r4, #0
   854b2:	d1f7      	bne.n	854a4 <strncpy+0x1c>
   854b4:	b12a      	cbz	r2, 854c2 <strncpy+0x3a>
   854b6:	2100      	movs	r1, #0
   854b8:	441a      	add	r2, r3
   854ba:	f803 1b01 	strb.w	r1, [r3], #1
   854be:	429a      	cmp	r2, r3
   854c0:	d1fb      	bne.n	854ba <strncpy+0x32>
   854c2:	bc70      	pop	{r4, r5, r6}
   854c4:	4770      	bx	lr
   854c6:	460e      	mov	r6, r1
   854c8:	f851 5b04 	ldr.w	r5, [r1], #4
   854cc:	f1a5 3401 	sub.w	r4, r5, #16843009	; 0x1010101
   854d0:	ea24 0405 	bic.w	r4, r4, r5
   854d4:	f014 3f80 	tst.w	r4, #2155905152	; 0x80808080
   854d8:	d105      	bne.n	854e6 <strncpy+0x5e>
   854da:	3a04      	subs	r2, #4
   854dc:	f843 5b04 	str.w	r5, [r3], #4
   854e0:	2a03      	cmp	r2, #3
   854e2:	d8f0      	bhi.n	854c6 <strncpy+0x3e>
   854e4:	e7d7      	b.n	85496 <strncpy+0xe>
   854e6:	4631      	mov	r1, r6
   854e8:	e7d6      	b.n	85498 <strncpy+0x10>
   854ea:	bf00      	nop

000854ec <__sprint_r.part.0>:
   854ec:	e92d 4ff8 	stmdb	sp!, {r3, r4, r5, r6, r7, r8, r9, sl, fp, lr}
   854f0:	6e4b      	ldr	r3, [r1, #100]	; 0x64
   854f2:	4693      	mov	fp, r2
   854f4:	049c      	lsls	r4, r3, #18
   854f6:	d52f      	bpl.n	85558 <__sprint_r.part.0+0x6c>
   854f8:	6893      	ldr	r3, [r2, #8]
   854fa:	6812      	ldr	r2, [r2, #0]
   854fc:	b353      	cbz	r3, 85554 <__sprint_r.part.0+0x68>
   854fe:	460e      	mov	r6, r1
   85500:	4607      	mov	r7, r0
   85502:	f102 0908 	add.w	r9, r2, #8
   85506:	e919 0420 	ldmdb	r9, {r5, sl}
   8550a:	ea5f 089a 	movs.w	r8, sl, lsr #2
   8550e:	d017      	beq.n	85540 <__sprint_r.part.0+0x54>
   85510:	2400      	movs	r4, #0
   85512:	3d04      	subs	r5, #4
   85514:	e001      	b.n	8551a <__sprint_r.part.0+0x2e>
   85516:	45a0      	cmp	r8, r4
   85518:	d010      	beq.n	8553c <__sprint_r.part.0+0x50>
   8551a:	4632      	mov	r2, r6
   8551c:	f855 1f04 	ldr.w	r1, [r5, #4]!
   85520:	4638      	mov	r0, r7
   85522:	f001 f8b5 	bl	86690 <_fputwc_r>
   85526:	1c43      	adds	r3, r0, #1
   85528:	f104 0401 	add.w	r4, r4, #1
   8552c:	d1f3      	bne.n	85516 <__sprint_r.part.0+0x2a>
   8552e:	2300      	movs	r3, #0
   85530:	f8cb 3008 	str.w	r3, [fp, #8]
   85534:	f8cb 3004 	str.w	r3, [fp, #4]
   85538:	e8bd 8ff8 	ldmia.w	sp!, {r3, r4, r5, r6, r7, r8, r9, sl, fp, pc}
   8553c:	f8db 3008 	ldr.w	r3, [fp, #8]
   85540:	f02a 0a03 	bic.w	sl, sl, #3
   85544:	eba3 030a 	sub.w	r3, r3, sl
   85548:	f8cb 3008 	str.w	r3, [fp, #8]
   8554c:	f109 0908 	add.w	r9, r9, #8
   85550:	2b00      	cmp	r3, #0
   85552:	d1d8      	bne.n	85506 <__sprint_r.part.0+0x1a>
   85554:	2000      	movs	r0, #0
   85556:	e7ea      	b.n	8552e <__sprint_r.part.0+0x42>
   85558:	f001 fa04 	bl	86964 <__sfvwrite_r>
   8555c:	2300      	movs	r3, #0
   8555e:	f8cb 3008 	str.w	r3, [fp, #8]
   85562:	f8cb 3004 	str.w	r3, [fp, #4]
   85566:	e8bd 8ff8 	ldmia.w	sp!, {r3, r4, r5, r6, r7, r8, r9, sl, fp, pc}
   8556a:	bf00      	nop

0008556c <_vfiprintf_r>:
   8556c:	e92d 4ff0 	stmdb	sp!, {r4, r5, r6, r7, r8, r9, sl, fp, lr}
   85570:	b0ad      	sub	sp, #180	; 0xb4
   85572:	461d      	mov	r5, r3
   85574:	468b      	mov	fp, r1
   85576:	4690      	mov	r8, r2
   85578:	9307      	str	r3, [sp, #28]
   8557a:	9006      	str	r0, [sp, #24]
   8557c:	b118      	cbz	r0, 85586 <_vfiprintf_r+0x1a>
   8557e:	6b83      	ldr	r3, [r0, #56]	; 0x38
   85580:	2b00      	cmp	r3, #0
   85582:	f000 80f3 	beq.w	8576c <_vfiprintf_r+0x200>
   85586:	f8db 3064 	ldr.w	r3, [fp, #100]	; 0x64
   8558a:	f9bb 000c 	ldrsh.w	r0, [fp, #12]
   8558e:	07df      	lsls	r7, r3, #31
   85590:	b281      	uxth	r1, r0
   85592:	d402      	bmi.n	8559a <_vfiprintf_r+0x2e>
   85594:	058e      	lsls	r6, r1, #22
   85596:	f140 80fc 	bpl.w	85792 <_vfiprintf_r+0x226>
   8559a:	048c      	lsls	r4, r1, #18
   8559c:	d40a      	bmi.n	855b4 <_vfiprintf_r+0x48>
   8559e:	f8db 3064 	ldr.w	r3, [fp, #100]	; 0x64
   855a2:	f440 5100 	orr.w	r1, r0, #8192	; 0x2000
   855a6:	f423 5300 	bic.w	r3, r3, #8192	; 0x2000
   855aa:	f8ab 100c 	strh.w	r1, [fp, #12]
   855ae:	f8cb 3064 	str.w	r3, [fp, #100]	; 0x64
   855b2:	b289      	uxth	r1, r1
   855b4:	0708      	lsls	r0, r1, #28
   855b6:	f140 80b3 	bpl.w	85720 <_vfiprintf_r+0x1b4>
   855ba:	f8db 3010 	ldr.w	r3, [fp, #16]
   855be:	2b00      	cmp	r3, #0
   855c0:	f000 80ae 	beq.w	85720 <_vfiprintf_r+0x1b4>
   855c4:	f001 031a 	and.w	r3, r1, #26
   855c8:	2b0a      	cmp	r3, #10
   855ca:	f000 80b5 	beq.w	85738 <_vfiprintf_r+0x1cc>
   855ce:	2300      	movs	r3, #0
   855d0:	f10d 0a70 	add.w	sl, sp, #112	; 0x70
   855d4:	46d1      	mov	r9, sl
   855d6:	930b      	str	r3, [sp, #44]	; 0x2c
   855d8:	9303      	str	r3, [sp, #12]
   855da:	9311      	str	r3, [sp, #68]	; 0x44
   855dc:	9310      	str	r3, [sp, #64]	; 0x40
   855de:	f8cd a03c 	str.w	sl, [sp, #60]	; 0x3c
   855e2:	f8cd b010 	str.w	fp, [sp, #16]
   855e6:	f898 3000 	ldrb.w	r3, [r8]
   855ea:	4644      	mov	r4, r8
   855ec:	b1fb      	cbz	r3, 8562e <_vfiprintf_r+0xc2>
   855ee:	2b25      	cmp	r3, #37	; 0x25
   855f0:	d102      	bne.n	855f8 <_vfiprintf_r+0x8c>
   855f2:	e01c      	b.n	8562e <_vfiprintf_r+0xc2>
   855f4:	2b25      	cmp	r3, #37	; 0x25
   855f6:	d003      	beq.n	85600 <_vfiprintf_r+0x94>
   855f8:	f814 3f01 	ldrb.w	r3, [r4, #1]!
   855fc:	2b00      	cmp	r3, #0
   855fe:	d1f9      	bne.n	855f4 <_vfiprintf_r+0x88>
   85600:	eba4 0508 	sub.w	r5, r4, r8
   85604:	b19d      	cbz	r5, 8562e <_vfiprintf_r+0xc2>
   85606:	9b10      	ldr	r3, [sp, #64]	; 0x40
   85608:	9a11      	ldr	r2, [sp, #68]	; 0x44
   8560a:	3301      	adds	r3, #1
   8560c:	442a      	add	r2, r5
   8560e:	2b07      	cmp	r3, #7
   85610:	f8c9 8000 	str.w	r8, [r9]
   85614:	f8c9 5004 	str.w	r5, [r9, #4]
   85618:	9211      	str	r2, [sp, #68]	; 0x44
   8561a:	9310      	str	r3, [sp, #64]	; 0x40
   8561c:	dd7a      	ble.n	85714 <_vfiprintf_r+0x1a8>
   8561e:	2a00      	cmp	r2, #0
   85620:	f040 84b5 	bne.w	85f8e <_vfiprintf_r+0xa22>
   85624:	46d1      	mov	r9, sl
   85626:	9b03      	ldr	r3, [sp, #12]
   85628:	9210      	str	r2, [sp, #64]	; 0x40
   8562a:	442b      	add	r3, r5
   8562c:	9303      	str	r3, [sp, #12]
   8562e:	7823      	ldrb	r3, [r4, #0]
   85630:	2b00      	cmp	r3, #0
   85632:	f000 83e5 	beq.w	85e00 <_vfiprintf_r+0x894>
   85636:	2000      	movs	r0, #0
   85638:	f04f 0300 	mov.w	r3, #0
   8563c:	f104 0801 	add.w	r8, r4, #1
   85640:	f88d 3037 	strb.w	r3, [sp, #55]	; 0x37
   85644:	7862      	ldrb	r2, [r4, #1]
   85646:	4606      	mov	r6, r0
   85648:	4605      	mov	r5, r0
   8564a:	4603      	mov	r3, r0
   8564c:	f04f 34ff 	mov.w	r4, #4294967295
   85650:	f108 0801 	add.w	r8, r8, #1
   85654:	f1a2 0120 	sub.w	r1, r2, #32
   85658:	2958      	cmp	r1, #88	; 0x58
   8565a:	f200 82d9 	bhi.w	85c10 <_vfiprintf_r+0x6a4>
   8565e:	e8df f011 	tbh	[pc, r1, lsl #1]
   85662:	0228      	.short	0x0228
   85664:	02d702d7 	.word	0x02d702d7
   85668:	02d70230 	.word	0x02d70230
   8566c:	02d702d7 	.word	0x02d702d7
   85670:	02d702d7 	.word	0x02d702d7
   85674:	00a002d7 	.word	0x00a002d7
   85678:	02d70288 	.word	0x02d70288
   8567c:	02b800a8 	.word	0x02b800a8
   85680:	01a602d7 	.word	0x01a602d7
   85684:	01ab01ab 	.word	0x01ab01ab
   85688:	01ab01ab 	.word	0x01ab01ab
   8568c:	01ab01ab 	.word	0x01ab01ab
   85690:	01ab01ab 	.word	0x01ab01ab
   85694:	02d701ab 	.word	0x02d701ab
   85698:	02d702d7 	.word	0x02d702d7
   8569c:	02d702d7 	.word	0x02d702d7
   856a0:	02d702d7 	.word	0x02d702d7
   856a4:	02d702d7 	.word	0x02d702d7
   856a8:	01b902d7 	.word	0x01b902d7
   856ac:	02d702d7 	.word	0x02d702d7
   856b0:	02d702d7 	.word	0x02d702d7
   856b4:	02d702d7 	.word	0x02d702d7
   856b8:	02d702d7 	.word	0x02d702d7
   856bc:	02d702d7 	.word	0x02d702d7
   856c0:	02d7019e 	.word	0x02d7019e
   856c4:	02d702d7 	.word	0x02d702d7
   856c8:	02d702d7 	.word	0x02d702d7
   856cc:	02d701a2 	.word	0x02d701a2
   856d0:	025a02d7 	.word	0x025a02d7
   856d4:	02d702d7 	.word	0x02d702d7
   856d8:	02d702d7 	.word	0x02d702d7
   856dc:	02d702d7 	.word	0x02d702d7
   856e0:	02d702d7 	.word	0x02d702d7
   856e4:	02d702d7 	.word	0x02d702d7
   856e8:	02220261 	.word	0x02220261
   856ec:	02d702d7 	.word	0x02d702d7
   856f0:	027602d7 	.word	0x027602d7
   856f4:	02d70222 	.word	0x02d70222
   856f8:	027b02d7 	.word	0x027b02d7
   856fc:	01fc02d7 	.word	0x01fc02d7
   85700:	02100189 	.word	0x02100189
   85704:	02d702d2 	.word	0x02d702d2
   85708:	02d70295 	.word	0x02d70295
   8570c:	02d700ad 	.word	0x02d700ad
   85710:	023502d7 	.word	0x023502d7
   85714:	f109 0908 	add.w	r9, r9, #8
   85718:	9b03      	ldr	r3, [sp, #12]
   8571a:	442b      	add	r3, r5
   8571c:	9303      	str	r3, [sp, #12]
   8571e:	e786      	b.n	8562e <_vfiprintf_r+0xc2>
   85720:	4659      	mov	r1, fp
   85722:	9806      	ldr	r0, [sp, #24]
   85724:	f000 fdaa 	bl	8627c <__swsetup_r>
   85728:	bb18      	cbnz	r0, 85772 <_vfiprintf_r+0x206>
   8572a:	f8bb 100c 	ldrh.w	r1, [fp, #12]
   8572e:	f001 031a 	and.w	r3, r1, #26
   85732:	2b0a      	cmp	r3, #10
   85734:	f47f af4b 	bne.w	855ce <_vfiprintf_r+0x62>
   85738:	f9bb 300e 	ldrsh.w	r3, [fp, #14]
   8573c:	2b00      	cmp	r3, #0
   8573e:	f6ff af46 	blt.w	855ce <_vfiprintf_r+0x62>
   85742:	f8db 3064 	ldr.w	r3, [fp, #100]	; 0x64
   85746:	07db      	lsls	r3, r3, #31
   85748:	d405      	bmi.n	85756 <_vfiprintf_r+0x1ea>
   8574a:	058f      	lsls	r7, r1, #22
   8574c:	d403      	bmi.n	85756 <_vfiprintf_r+0x1ea>
   8574e:	f8db 0058 	ldr.w	r0, [fp, #88]	; 0x58
   85752:	f001 fabd 	bl	86cd0 <__retarget_lock_release_recursive>
   85756:	462b      	mov	r3, r5
   85758:	4642      	mov	r2, r8
   8575a:	4659      	mov	r1, fp
   8575c:	9806      	ldr	r0, [sp, #24]
   8575e:	f000 fd49 	bl	861f4 <__sbprintf>
   85762:	9003      	str	r0, [sp, #12]
   85764:	9803      	ldr	r0, [sp, #12]
   85766:	b02d      	add	sp, #180	; 0xb4
   85768:	e8bd 8ff0 	ldmia.w	sp!, {r4, r5, r6, r7, r8, r9, sl, fp, pc}
   8576c:	f000 feee 	bl	8654c <__sinit>
   85770:	e709      	b.n	85586 <_vfiprintf_r+0x1a>
   85772:	f8db 3064 	ldr.w	r3, [fp, #100]	; 0x64
   85776:	07d9      	lsls	r1, r3, #31
   85778:	d404      	bmi.n	85784 <_vfiprintf_r+0x218>
   8577a:	f8bb 300c 	ldrh.w	r3, [fp, #12]
   8577e:	059a      	lsls	r2, r3, #22
   85780:	f140 84ae 	bpl.w	860e0 <_vfiprintf_r+0xb74>
   85784:	f04f 33ff 	mov.w	r3, #4294967295
   85788:	9303      	str	r3, [sp, #12]
   8578a:	9803      	ldr	r0, [sp, #12]
   8578c:	b02d      	add	sp, #180	; 0xb4
   8578e:	e8bd 8ff0 	ldmia.w	sp!, {r4, r5, r6, r7, r8, r9, sl, fp, pc}
   85792:	f8db 0058 	ldr.w	r0, [fp, #88]	; 0x58
   85796:	f001 fa99 	bl	86ccc <__retarget_lock_acquire_recursive>
   8579a:	f9bb 000c 	ldrsh.w	r0, [fp, #12]
   8579e:	b281      	uxth	r1, r0
   857a0:	e6fb      	b.n	8559a <_vfiprintf_r+0x2e>
   857a2:	9907      	ldr	r1, [sp, #28]
   857a4:	460a      	mov	r2, r1
   857a6:	680d      	ldr	r5, [r1, #0]
   857a8:	3204      	adds	r2, #4
   857aa:	2d00      	cmp	r5, #0
   857ac:	9207      	str	r2, [sp, #28]
   857ae:	da02      	bge.n	857b6 <_vfiprintf_r+0x24a>
   857b0:	426d      	negs	r5, r5
   857b2:	f043 0304 	orr.w	r3, r3, #4
   857b6:	f898 2000 	ldrb.w	r2, [r8]
   857ba:	e749      	b.n	85650 <_vfiprintf_r+0xe4>
   857bc:	9508      	str	r5, [sp, #32]
   857be:	069e      	lsls	r6, r3, #26
   857c0:	f100 845a 	bmi.w	86078 <_vfiprintf_r+0xb0c>
   857c4:	9907      	ldr	r1, [sp, #28]
   857c6:	06dd      	lsls	r5, r3, #27
   857c8:	460a      	mov	r2, r1
   857ca:	f100 83ef 	bmi.w	85fac <_vfiprintf_r+0xa40>
   857ce:	0658      	lsls	r0, r3, #25
   857d0:	f140 83ec 	bpl.w	85fac <_vfiprintf_r+0xa40>
   857d4:	2700      	movs	r7, #0
   857d6:	2201      	movs	r2, #1
   857d8:	880e      	ldrh	r6, [r1, #0]
   857da:	3104      	adds	r1, #4
   857dc:	9107      	str	r1, [sp, #28]
   857de:	f04f 0100 	mov.w	r1, #0
   857e2:	2500      	movs	r5, #0
   857e4:	f88d 1037 	strb.w	r1, [sp, #55]	; 0x37
   857e8:	1c61      	adds	r1, r4, #1
   857ea:	f000 8117 	beq.w	85a1c <_vfiprintf_r+0x4b0>
   857ee:	f023 0180 	bic.w	r1, r3, #128	; 0x80
   857f2:	9102      	str	r1, [sp, #8]
   857f4:	ea56 0107 	orrs.w	r1, r6, r7
   857f8:	f040 8115 	bne.w	85a26 <_vfiprintf_r+0x4ba>
   857fc:	2c00      	cmp	r4, #0
   857fe:	f040 835b 	bne.w	85eb8 <_vfiprintf_r+0x94c>
   85802:	2a00      	cmp	r2, #0
   85804:	f040 83b6 	bne.w	85f74 <_vfiprintf_r+0xa08>
   85808:	f013 0301 	ands.w	r3, r3, #1
   8580c:	9305      	str	r3, [sp, #20]
   8580e:	f000 8455 	beq.w	860bc <_vfiprintf_r+0xb50>
   85812:	2330      	movs	r3, #48	; 0x30
   85814:	f10d 0bb0 	add.w	fp, sp, #176	; 0xb0
   85818:	f80b 3d41 	strb.w	r3, [fp, #-65]!
   8581c:	9b05      	ldr	r3, [sp, #20]
   8581e:	42a3      	cmp	r3, r4
   85820:	bfb8      	it	lt
   85822:	4623      	movlt	r3, r4
   85824:	9301      	str	r3, [sp, #4]
   85826:	b10d      	cbz	r5, 8582c <_vfiprintf_r+0x2c0>
   85828:	3301      	adds	r3, #1
   8582a:	9301      	str	r3, [sp, #4]
   8582c:	9b02      	ldr	r3, [sp, #8]
   8582e:	f013 0302 	ands.w	r3, r3, #2
   85832:	9309      	str	r3, [sp, #36]	; 0x24
   85834:	d002      	beq.n	8583c <_vfiprintf_r+0x2d0>
   85836:	9b01      	ldr	r3, [sp, #4]
   85838:	3302      	adds	r3, #2
   8583a:	9301      	str	r3, [sp, #4]
   8583c:	9b02      	ldr	r3, [sp, #8]
   8583e:	f013 0384 	ands.w	r3, r3, #132	; 0x84
   85842:	930a      	str	r3, [sp, #40]	; 0x28
   85844:	f040 8215 	bne.w	85c72 <_vfiprintf_r+0x706>
   85848:	9b08      	ldr	r3, [sp, #32]
   8584a:	9a01      	ldr	r2, [sp, #4]
   8584c:	1a9d      	subs	r5, r3, r2
   8584e:	2d00      	cmp	r5, #0
   85850:	f340 820f 	ble.w	85c72 <_vfiprintf_r+0x706>
   85854:	2d10      	cmp	r5, #16
   85856:	f340 8484 	ble.w	86162 <_vfiprintf_r+0xbf6>
   8585a:	9b10      	ldr	r3, [sp, #64]	; 0x40
   8585c:	46ce      	mov	lr, r9
   8585e:	2710      	movs	r7, #16
   85860:	46a1      	mov	r9, r4
   85862:	9a11      	ldr	r2, [sp, #68]	; 0x44
   85864:	4ec5      	ldr	r6, [pc, #788]	; (85b7c <_vfiprintf_r+0x610>)
   85866:	4619      	mov	r1, r3
   85868:	9c06      	ldr	r4, [sp, #24]
   8586a:	e007      	b.n	8587c <_vfiprintf_r+0x310>
   8586c:	f101 0c02 	add.w	ip, r1, #2
   85870:	4601      	mov	r1, r0
   85872:	f10e 0e08 	add.w	lr, lr, #8
   85876:	3d10      	subs	r5, #16
   85878:	2d10      	cmp	r5, #16
   8587a:	dd11      	ble.n	858a0 <_vfiprintf_r+0x334>
   8587c:	1c48      	adds	r0, r1, #1
   8587e:	3210      	adds	r2, #16
   85880:	2807      	cmp	r0, #7
   85882:	9211      	str	r2, [sp, #68]	; 0x44
   85884:	e88e 00c0 	stmia.w	lr, {r6, r7}
   85888:	9010      	str	r0, [sp, #64]	; 0x40
   8588a:	ddef      	ble.n	8586c <_vfiprintf_r+0x300>
   8588c:	2a00      	cmp	r2, #0
   8588e:	f040 81d9 	bne.w	85c44 <_vfiprintf_r+0x6d8>
   85892:	3d10      	subs	r5, #16
   85894:	2d10      	cmp	r5, #16
   85896:	4611      	mov	r1, r2
   85898:	f04f 0c01 	mov.w	ip, #1
   8589c:	46d6      	mov	lr, sl
   8589e:	dced      	bgt.n	8587c <_vfiprintf_r+0x310>
   858a0:	464c      	mov	r4, r9
   858a2:	4661      	mov	r1, ip
   858a4:	46f1      	mov	r9, lr
   858a6:	442a      	add	r2, r5
   858a8:	2907      	cmp	r1, #7
   858aa:	9211      	str	r2, [sp, #68]	; 0x44
   858ac:	f8c9 6000 	str.w	r6, [r9]
   858b0:	f8c9 5004 	str.w	r5, [r9, #4]
   858b4:	9110      	str	r1, [sp, #64]	; 0x40
   858b6:	f300 82eb 	bgt.w	85e90 <_vfiprintf_r+0x924>
   858ba:	f89d 5037 	ldrb.w	r5, [sp, #55]	; 0x37
   858be:	f109 0908 	add.w	r9, r9, #8
   858c2:	1c48      	adds	r0, r1, #1
   858c4:	2d00      	cmp	r5, #0
   858c6:	f040 81dc 	bne.w	85c82 <_vfiprintf_r+0x716>
   858ca:	9b09      	ldr	r3, [sp, #36]	; 0x24
   858cc:	2b00      	cmp	r3, #0
   858ce:	f000 81f6 	beq.w	85cbe <_vfiprintf_r+0x752>
   858d2:	2102      	movs	r1, #2
   858d4:	ab0e      	add	r3, sp, #56	; 0x38
   858d6:	440a      	add	r2, r1
   858d8:	2807      	cmp	r0, #7
   858da:	9211      	str	r2, [sp, #68]	; 0x44
   858dc:	9010      	str	r0, [sp, #64]	; 0x40
   858de:	f8c9 1004 	str.w	r1, [r9, #4]
   858e2:	f8c9 3000 	str.w	r3, [r9]
   858e6:	f340 81e6 	ble.w	85cb6 <_vfiprintf_r+0x74a>
   858ea:	2a00      	cmp	r2, #0
   858ec:	f040 8395 	bne.w	8601a <_vfiprintf_r+0xaae>
   858f0:	9b0a      	ldr	r3, [sp, #40]	; 0x28
   858f2:	2001      	movs	r0, #1
   858f4:	2b80      	cmp	r3, #128	; 0x80
   858f6:	4611      	mov	r1, r2
   858f8:	46d1      	mov	r9, sl
   858fa:	f040 81e4 	bne.w	85cc6 <_vfiprintf_r+0x75a>
   858fe:	9b08      	ldr	r3, [sp, #32]
   85900:	9d01      	ldr	r5, [sp, #4]
   85902:	1b5e      	subs	r6, r3, r5
   85904:	2e00      	cmp	r6, #0
   85906:	f340 81de 	ble.w	85cc6 <_vfiprintf_r+0x75a>
   8590a:	2e10      	cmp	r6, #16
   8590c:	f340 843c 	ble.w	86188 <_vfiprintf_r+0xc1c>
   85910:	46cc      	mov	ip, r9
   85912:	2710      	movs	r7, #16
   85914:	46a1      	mov	r9, r4
   85916:	4d9a      	ldr	r5, [pc, #616]	; (85b80 <_vfiprintf_r+0x614>)
   85918:	9c06      	ldr	r4, [sp, #24]
   8591a:	e007      	b.n	8592c <_vfiprintf_r+0x3c0>
   8591c:	f101 0e02 	add.w	lr, r1, #2
   85920:	4601      	mov	r1, r0
   85922:	f10c 0c08 	add.w	ip, ip, #8
   85926:	3e10      	subs	r6, #16
   85928:	2e10      	cmp	r6, #16
   8592a:	dd11      	ble.n	85950 <_vfiprintf_r+0x3e4>
   8592c:	1c48      	adds	r0, r1, #1
   8592e:	3210      	adds	r2, #16
   85930:	2807      	cmp	r0, #7
   85932:	9211      	str	r2, [sp, #68]	; 0x44
   85934:	e88c 00a0 	stmia.w	ip, {r5, r7}
   85938:	9010      	str	r0, [sp, #64]	; 0x40
   8593a:	ddef      	ble.n	8591c <_vfiprintf_r+0x3b0>
   8593c:	2a00      	cmp	r2, #0
   8593e:	f040 829b 	bne.w	85e78 <_vfiprintf_r+0x90c>
   85942:	3e10      	subs	r6, #16
   85944:	2e10      	cmp	r6, #16
   85946:	f04f 0e01 	mov.w	lr, #1
   8594a:	4611      	mov	r1, r2
   8594c:	46d4      	mov	ip, sl
   8594e:	dced      	bgt.n	8592c <_vfiprintf_r+0x3c0>
   85950:	464c      	mov	r4, r9
   85952:	46e1      	mov	r9, ip
   85954:	4432      	add	r2, r6
   85956:	f1be 0f07 	cmp.w	lr, #7
   8595a:	9211      	str	r2, [sp, #68]	; 0x44
   8595c:	e889 0060 	stmia.w	r9, {r5, r6}
   85960:	f8cd e040 	str.w	lr, [sp, #64]	; 0x40
   85964:	f300 8366 	bgt.w	86034 <_vfiprintf_r+0xac8>
   85968:	f109 0908 	add.w	r9, r9, #8
   8596c:	f10e 0001 	add.w	r0, lr, #1
   85970:	4671      	mov	r1, lr
   85972:	e1a8      	b.n	85cc6 <_vfiprintf_r+0x75a>
   85974:	9508      	str	r5, [sp, #32]
   85976:	f013 0220 	ands.w	r2, r3, #32
   8597a:	f040 8389 	bne.w	86090 <_vfiprintf_r+0xb24>
   8597e:	f013 0110 	ands.w	r1, r3, #16
   85982:	f040 8319 	bne.w	85fb8 <_vfiprintf_r+0xa4c>
   85986:	f013 0240 	ands.w	r2, r3, #64	; 0x40
   8598a:	f000 8315 	beq.w	85fb8 <_vfiprintf_r+0xa4c>
   8598e:	9807      	ldr	r0, [sp, #28]
   85990:	460a      	mov	r2, r1
   85992:	4601      	mov	r1, r0
   85994:	3104      	adds	r1, #4
   85996:	8806      	ldrh	r6, [r0, #0]
   85998:	2700      	movs	r7, #0
   8599a:	9107      	str	r1, [sp, #28]
   8599c:	e71f      	b.n	857de <_vfiprintf_r+0x272>
   8599e:	9508      	str	r5, [sp, #32]
   859a0:	f043 0310 	orr.w	r3, r3, #16
   859a4:	e7e7      	b.n	85976 <_vfiprintf_r+0x40a>
   859a6:	9508      	str	r5, [sp, #32]
   859a8:	f043 0310 	orr.w	r3, r3, #16
   859ac:	e707      	b.n	857be <_vfiprintf_r+0x252>
   859ae:	f043 0380 	orr.w	r3, r3, #128	; 0x80
   859b2:	f898 2000 	ldrb.w	r2, [r8]
   859b6:	e64b      	b.n	85650 <_vfiprintf_r+0xe4>
   859b8:	2500      	movs	r5, #0
   859ba:	f1a2 0130 	sub.w	r1, r2, #48	; 0x30
   859be:	f818 2b01 	ldrb.w	r2, [r8], #1
   859c2:	eb05 0585 	add.w	r5, r5, r5, lsl #2
   859c6:	eb01 0545 	add.w	r5, r1, r5, lsl #1
   859ca:	f1a2 0130 	sub.w	r1, r2, #48	; 0x30
   859ce:	2909      	cmp	r1, #9
   859d0:	d9f5      	bls.n	859be <_vfiprintf_r+0x452>
   859d2:	e63f      	b.n	85654 <_vfiprintf_r+0xe8>
   859d4:	9508      	str	r5, [sp, #32]
   859d6:	2800      	cmp	r0, #0
   859d8:	f040 8402 	bne.w	861e0 <_vfiprintf_r+0xc74>
   859dc:	f043 0310 	orr.w	r3, r3, #16
   859e0:	069e      	lsls	r6, r3, #26
   859e2:	f100 833d 	bmi.w	86060 <_vfiprintf_r+0xaf4>
   859e6:	9907      	ldr	r1, [sp, #28]
   859e8:	06dd      	lsls	r5, r3, #27
   859ea:	460a      	mov	r2, r1
   859ec:	f100 82f0 	bmi.w	85fd0 <_vfiprintf_r+0xa64>
   859f0:	0658      	lsls	r0, r3, #25
   859f2:	f140 82ed 	bpl.w	85fd0 <_vfiprintf_r+0xa64>
   859f6:	f9b1 6000 	ldrsh.w	r6, [r1]
   859fa:	3204      	adds	r2, #4
   859fc:	17f7      	asrs	r7, r6, #31
   859fe:	4630      	mov	r0, r6
   85a00:	4639      	mov	r1, r7
   85a02:	9207      	str	r2, [sp, #28]
   85a04:	2800      	cmp	r0, #0
   85a06:	f171 0200 	sbcs.w	r2, r1, #0
   85a0a:	f2c0 835a 	blt.w	860c2 <_vfiprintf_r+0xb56>
   85a0e:	1c61      	adds	r1, r4, #1
   85a10:	f89d 5037 	ldrb.w	r5, [sp, #55]	; 0x37
   85a14:	f04f 0201 	mov.w	r2, #1
   85a18:	f47f aee9 	bne.w	857ee <_vfiprintf_r+0x282>
   85a1c:	ea56 0107 	orrs.w	r1, r6, r7
   85a20:	f000 824b 	beq.w	85eba <_vfiprintf_r+0x94e>
   85a24:	9302      	str	r3, [sp, #8]
   85a26:	2a01      	cmp	r2, #1
   85a28:	f000 828a 	beq.w	85f40 <_vfiprintf_r+0x9d4>
   85a2c:	2a02      	cmp	r2, #2
   85a2e:	f040 825a 	bne.w	85ee6 <_vfiprintf_r+0x97a>
   85a32:	46d3      	mov	fp, sl
   85a34:	980b      	ldr	r0, [sp, #44]	; 0x2c
   85a36:	0933      	lsrs	r3, r6, #4
   85a38:	ea43 7307 	orr.w	r3, r3, r7, lsl #28
   85a3c:	0939      	lsrs	r1, r7, #4
   85a3e:	f006 020f 	and.w	r2, r6, #15
   85a42:	460f      	mov	r7, r1
   85a44:	461e      	mov	r6, r3
   85a46:	5c83      	ldrb	r3, [r0, r2]
   85a48:	f80b 3d01 	strb.w	r3, [fp, #-1]!
   85a4c:	ea56 0307 	orrs.w	r3, r6, r7
   85a50:	d1f1      	bne.n	85a36 <_vfiprintf_r+0x4ca>
   85a52:	ebaa 030b 	sub.w	r3, sl, fp
   85a56:	9305      	str	r3, [sp, #20]
   85a58:	e6e0      	b.n	8581c <_vfiprintf_r+0x2b0>
   85a5a:	2800      	cmp	r0, #0
   85a5c:	f040 83bd 	bne.w	861da <_vfiprintf_r+0xc6e>
   85a60:	0699      	lsls	r1, r3, #26
   85a62:	f100 8359 	bmi.w	86118 <_vfiprintf_r+0xbac>
   85a66:	06da      	lsls	r2, r3, #27
   85a68:	f100 80e5 	bmi.w	85c36 <_vfiprintf_r+0x6ca>
   85a6c:	065b      	lsls	r3, r3, #25
   85a6e:	f140 80e2 	bpl.w	85c36 <_vfiprintf_r+0x6ca>
   85a72:	9a07      	ldr	r2, [sp, #28]
   85a74:	6813      	ldr	r3, [r2, #0]
   85a76:	3204      	adds	r2, #4
   85a78:	9207      	str	r2, [sp, #28]
   85a7a:	f8bd 200c 	ldrh.w	r2, [sp, #12]
   85a7e:	801a      	strh	r2, [r3, #0]
   85a80:	e5b1      	b.n	855e6 <_vfiprintf_r+0x7a>
   85a82:	2278      	movs	r2, #120	; 0x78
   85a84:	2130      	movs	r1, #48	; 0x30
   85a86:	9508      	str	r5, [sp, #32]
   85a88:	9d07      	ldr	r5, [sp, #28]
   85a8a:	f88d 2039 	strb.w	r2, [sp, #57]	; 0x39
   85a8e:	1d2a      	adds	r2, r5, #4
   85a90:	9207      	str	r2, [sp, #28]
   85a92:	4a3c      	ldr	r2, [pc, #240]	; (85b84 <_vfiprintf_r+0x618>)
   85a94:	682e      	ldr	r6, [r5, #0]
   85a96:	920b      	str	r2, [sp, #44]	; 0x2c
   85a98:	f043 0302 	orr.w	r3, r3, #2
   85a9c:	f88d 1038 	strb.w	r1, [sp, #56]	; 0x38
   85aa0:	2700      	movs	r7, #0
   85aa2:	2202      	movs	r2, #2
   85aa4:	e69b      	b.n	857de <_vfiprintf_r+0x272>
   85aa6:	9508      	str	r5, [sp, #32]
   85aa8:	2800      	cmp	r0, #0
   85aaa:	d099      	beq.n	859e0 <_vfiprintf_r+0x474>
   85aac:	f88d 6037 	strb.w	r6, [sp, #55]	; 0x37
   85ab0:	e796      	b.n	859e0 <_vfiprintf_r+0x474>
   85ab2:	f898 2000 	ldrb.w	r2, [r8]
   85ab6:	2e00      	cmp	r6, #0
   85ab8:	f47f adca 	bne.w	85650 <_vfiprintf_r+0xe4>
   85abc:	2001      	movs	r0, #1
   85abe:	2620      	movs	r6, #32
   85ac0:	e5c6      	b.n	85650 <_vfiprintf_r+0xe4>
   85ac2:	f043 0301 	orr.w	r3, r3, #1
   85ac6:	f898 2000 	ldrb.w	r2, [r8]
   85aca:	e5c1      	b.n	85650 <_vfiprintf_r+0xe4>
   85acc:	9508      	str	r5, [sp, #32]
   85ace:	2800      	cmp	r0, #0
   85ad0:	f040 8380 	bne.w	861d4 <_vfiprintf_r+0xc68>
   85ad4:	492b      	ldr	r1, [pc, #172]	; (85b84 <_vfiprintf_r+0x618>)
   85ad6:	910b      	str	r1, [sp, #44]	; 0x2c
   85ad8:	069f      	lsls	r7, r3, #26
   85ada:	f100 82e5 	bmi.w	860a8 <_vfiprintf_r+0xb3c>
   85ade:	9807      	ldr	r0, [sp, #28]
   85ae0:	06de      	lsls	r6, r3, #27
   85ae2:	4601      	mov	r1, r0
   85ae4:	f100 826f 	bmi.w	85fc6 <_vfiprintf_r+0xa5a>
   85ae8:	065d      	lsls	r5, r3, #25
   85aea:	f140 826c 	bpl.w	85fc6 <_vfiprintf_r+0xa5a>
   85aee:	2700      	movs	r7, #0
   85af0:	3104      	adds	r1, #4
   85af2:	8806      	ldrh	r6, [r0, #0]
   85af4:	9107      	str	r1, [sp, #28]
   85af6:	07d8      	lsls	r0, r3, #31
   85af8:	f140 8220 	bpl.w	85f3c <_vfiprintf_r+0x9d0>
   85afc:	ea56 0107 	orrs.w	r1, r6, r7
   85b00:	f000 821c 	beq.w	85f3c <_vfiprintf_r+0x9d0>
   85b04:	2130      	movs	r1, #48	; 0x30
   85b06:	f88d 2039 	strb.w	r2, [sp, #57]	; 0x39
   85b0a:	f043 0302 	orr.w	r3, r3, #2
   85b0e:	f88d 1038 	strb.w	r1, [sp, #56]	; 0x38
   85b12:	2202      	movs	r2, #2
   85b14:	e663      	b.n	857de <_vfiprintf_r+0x272>
   85b16:	9508      	str	r5, [sp, #32]
   85b18:	2800      	cmp	r0, #0
   85b1a:	f040 8355 	bne.w	861c8 <_vfiprintf_r+0xc5c>
   85b1e:	491a      	ldr	r1, [pc, #104]	; (85b88 <_vfiprintf_r+0x61c>)
   85b20:	910b      	str	r1, [sp, #44]	; 0x2c
   85b22:	e7d9      	b.n	85ad8 <_vfiprintf_r+0x56c>
   85b24:	2201      	movs	r2, #1
   85b26:	9807      	ldr	r0, [sp, #28]
   85b28:	4611      	mov	r1, r2
   85b2a:	9201      	str	r2, [sp, #4]
   85b2c:	6802      	ldr	r2, [r0, #0]
   85b2e:	f04f 0400 	mov.w	r4, #0
   85b32:	f88d 2048 	strb.w	r2, [sp, #72]	; 0x48
   85b36:	4602      	mov	r2, r0
   85b38:	3204      	adds	r2, #4
   85b3a:	9508      	str	r5, [sp, #32]
   85b3c:	f88d 4037 	strb.w	r4, [sp, #55]	; 0x37
   85b40:	9105      	str	r1, [sp, #20]
   85b42:	9207      	str	r2, [sp, #28]
   85b44:	f10d 0b48 	add.w	fp, sp, #72	; 0x48
   85b48:	9302      	str	r3, [sp, #8]
   85b4a:	2400      	movs	r4, #0
   85b4c:	e66e      	b.n	8582c <_vfiprintf_r+0x2c0>
   85b4e:	f043 0340 	orr.w	r3, r3, #64	; 0x40
   85b52:	f898 2000 	ldrb.w	r2, [r8]
   85b56:	e57b      	b.n	85650 <_vfiprintf_r+0xe4>
   85b58:	f898 2000 	ldrb.w	r2, [r8]
   85b5c:	2a6c      	cmp	r2, #108	; 0x6c
   85b5e:	bf03      	ittte	eq
   85b60:	f898 2001 	ldrbeq.w	r2, [r8, #1]
   85b64:	f043 0320 	orreq.w	r3, r3, #32
   85b68:	f108 0801 	addeq.w	r8, r8, #1
   85b6c:	f043 0310 	orrne.w	r3, r3, #16
   85b70:	e56e      	b.n	85650 <_vfiprintf_r+0xe4>
   85b72:	f898 2000 	ldrb.w	r2, [r8]
   85b76:	2001      	movs	r0, #1
   85b78:	262b      	movs	r6, #43	; 0x2b
   85b7a:	e569      	b.n	85650 <_vfiprintf_r+0xe4>
   85b7c:	00088574 	.word	0x00088574
   85b80:	00088584 	.word	0x00088584
   85b84:	00088558 	.word	0x00088558
   85b88:	00088544 	.word	0x00088544
   85b8c:	f04f 0200 	mov.w	r2, #0
   85b90:	9907      	ldr	r1, [sp, #28]
   85b92:	9508      	str	r5, [sp, #32]
   85b94:	f8d1 b000 	ldr.w	fp, [r1]
   85b98:	f88d 2037 	strb.w	r2, [sp, #55]	; 0x37
   85b9c:	1d0d      	adds	r5, r1, #4
   85b9e:	f1bb 0f00 	cmp.w	fp, #0
   85ba2:	f000 82e4 	beq.w	8616e <_vfiprintf_r+0xc02>
   85ba6:	1c67      	adds	r7, r4, #1
   85ba8:	f000 82c3 	beq.w	86132 <_vfiprintf_r+0xbc6>
   85bac:	4622      	mov	r2, r4
   85bae:	2100      	movs	r1, #0
   85bb0:	4658      	mov	r0, fp
   85bb2:	9301      	str	r3, [sp, #4]
   85bb4:	f001 fbc6 	bl	87344 <memchr>
   85bb8:	9b01      	ldr	r3, [sp, #4]
   85bba:	2800      	cmp	r0, #0
   85bbc:	f000 82e8 	beq.w	86190 <_vfiprintf_r+0xc24>
   85bc0:	eba0 020b 	sub.w	r2, r0, fp
   85bc4:	9507      	str	r5, [sp, #28]
   85bc6:	9205      	str	r2, [sp, #20]
   85bc8:	9302      	str	r3, [sp, #8]
   85bca:	f89d 5037 	ldrb.w	r5, [sp, #55]	; 0x37
   85bce:	2400      	movs	r4, #0
   85bd0:	e624      	b.n	8581c <_vfiprintf_r+0x2b0>
   85bd2:	f898 2000 	ldrb.w	r2, [r8]
   85bd6:	f108 0701 	add.w	r7, r8, #1
   85bda:	2a2a      	cmp	r2, #42	; 0x2a
   85bdc:	f000 82e9 	beq.w	861b2 <_vfiprintf_r+0xc46>
   85be0:	f1a2 0130 	sub.w	r1, r2, #48	; 0x30
   85be4:	2909      	cmp	r1, #9
   85be6:	46b8      	mov	r8, r7
   85be8:	f04f 0400 	mov.w	r4, #0
   85bec:	f63f ad32 	bhi.w	85654 <_vfiprintf_r+0xe8>
   85bf0:	f818 2b01 	ldrb.w	r2, [r8], #1
   85bf4:	eb04 0484 	add.w	r4, r4, r4, lsl #2
   85bf8:	eb01 0444 	add.w	r4, r1, r4, lsl #1
   85bfc:	f1a2 0130 	sub.w	r1, r2, #48	; 0x30
   85c00:	2909      	cmp	r1, #9
   85c02:	d9f5      	bls.n	85bf0 <_vfiprintf_r+0x684>
   85c04:	e526      	b.n	85654 <_vfiprintf_r+0xe8>
   85c06:	f043 0320 	orr.w	r3, r3, #32
   85c0a:	f898 2000 	ldrb.w	r2, [r8]
   85c0e:	e51f      	b.n	85650 <_vfiprintf_r+0xe4>
   85c10:	9508      	str	r5, [sp, #32]
   85c12:	2800      	cmp	r0, #0
   85c14:	f040 82db 	bne.w	861ce <_vfiprintf_r+0xc62>
   85c18:	2a00      	cmp	r2, #0
   85c1a:	f000 80f1 	beq.w	85e00 <_vfiprintf_r+0x894>
   85c1e:	2101      	movs	r1, #1
   85c20:	f88d 2048 	strb.w	r2, [sp, #72]	; 0x48
   85c24:	f04f 0200 	mov.w	r2, #0
   85c28:	9101      	str	r1, [sp, #4]
   85c2a:	f88d 2037 	strb.w	r2, [sp, #55]	; 0x37
   85c2e:	9105      	str	r1, [sp, #20]
   85c30:	f10d 0b48 	add.w	fp, sp, #72	; 0x48
   85c34:	e788      	b.n	85b48 <_vfiprintf_r+0x5dc>
   85c36:	9a07      	ldr	r2, [sp, #28]
   85c38:	6813      	ldr	r3, [r2, #0]
   85c3a:	3204      	adds	r2, #4
   85c3c:	9207      	str	r2, [sp, #28]
   85c3e:	9a03      	ldr	r2, [sp, #12]
   85c40:	601a      	str	r2, [r3, #0]
   85c42:	e4d0      	b.n	855e6 <_vfiprintf_r+0x7a>
   85c44:	aa0f      	add	r2, sp, #60	; 0x3c
   85c46:	9904      	ldr	r1, [sp, #16]
   85c48:	4620      	mov	r0, r4
   85c4a:	f7ff fc4f 	bl	854ec <__sprint_r.part.0>
   85c4e:	2800      	cmp	r0, #0
   85c50:	f040 8143 	bne.w	85eda <_vfiprintf_r+0x96e>
   85c54:	9910      	ldr	r1, [sp, #64]	; 0x40
   85c56:	46d6      	mov	lr, sl
   85c58:	9a11      	ldr	r2, [sp, #68]	; 0x44
   85c5a:	f101 0c01 	add.w	ip, r1, #1
   85c5e:	e60a      	b.n	85876 <_vfiprintf_r+0x30a>
   85c60:	aa0f      	add	r2, sp, #60	; 0x3c
   85c62:	9904      	ldr	r1, [sp, #16]
   85c64:	9806      	ldr	r0, [sp, #24]
   85c66:	f7ff fc41 	bl	854ec <__sprint_r.part.0>
   85c6a:	2800      	cmp	r0, #0
   85c6c:	f040 8135 	bne.w	85eda <_vfiprintf_r+0x96e>
   85c70:	46d1      	mov	r9, sl
   85c72:	9910      	ldr	r1, [sp, #64]	; 0x40
   85c74:	f89d 5037 	ldrb.w	r5, [sp, #55]	; 0x37
   85c78:	9a11      	ldr	r2, [sp, #68]	; 0x44
   85c7a:	1c48      	adds	r0, r1, #1
   85c7c:	2d00      	cmp	r5, #0
   85c7e:	f43f ae24 	beq.w	858ca <_vfiprintf_r+0x35e>
   85c82:	2101      	movs	r1, #1
   85c84:	f10d 0537 	add.w	r5, sp, #55	; 0x37
   85c88:	440a      	add	r2, r1
   85c8a:	2807      	cmp	r0, #7
   85c8c:	9211      	str	r2, [sp, #68]	; 0x44
   85c8e:	9010      	str	r0, [sp, #64]	; 0x40
   85c90:	f8c9 1004 	str.w	r1, [r9, #4]
   85c94:	f8c9 5000 	str.w	r5, [r9]
   85c98:	f340 8109 	ble.w	85eae <_vfiprintf_r+0x942>
   85c9c:	2a00      	cmp	r2, #0
   85c9e:	f040 81af 	bne.w	86000 <_vfiprintf_r+0xa94>
   85ca2:	9b09      	ldr	r3, [sp, #36]	; 0x24
   85ca4:	2b00      	cmp	r3, #0
   85ca6:	f43f ae23 	beq.w	858f0 <_vfiprintf_r+0x384>
   85caa:	2202      	movs	r2, #2
   85cac:	4608      	mov	r0, r1
   85cae:	46d1      	mov	r9, sl
   85cb0:	ab0e      	add	r3, sp, #56	; 0x38
   85cb2:	921d      	str	r2, [sp, #116]	; 0x74
   85cb4:	931c      	str	r3, [sp, #112]	; 0x70
   85cb6:	4601      	mov	r1, r0
   85cb8:	f109 0908 	add.w	r9, r9, #8
   85cbc:	3001      	adds	r0, #1
   85cbe:	9b0a      	ldr	r3, [sp, #40]	; 0x28
   85cc0:	2b80      	cmp	r3, #128	; 0x80
   85cc2:	f43f ae1c 	beq.w	858fe <_vfiprintf_r+0x392>
   85cc6:	9b05      	ldr	r3, [sp, #20]
   85cc8:	1ae4      	subs	r4, r4, r3
   85cca:	2c00      	cmp	r4, #0
   85ccc:	dd2f      	ble.n	85d2e <_vfiprintf_r+0x7c2>
   85cce:	2c10      	cmp	r4, #16
   85cd0:	f340 8220 	ble.w	86114 <_vfiprintf_r+0xba8>
   85cd4:	46ce      	mov	lr, r9
   85cd6:	2610      	movs	r6, #16
   85cd8:	4db2      	ldr	r5, [pc, #712]	; (85fa4 <_vfiprintf_r+0xa38>)
   85cda:	9f06      	ldr	r7, [sp, #24]
   85cdc:	f8dd 9010 	ldr.w	r9, [sp, #16]
   85ce0:	e006      	b.n	85cf0 <_vfiprintf_r+0x784>
   85ce2:	1c88      	adds	r0, r1, #2
   85ce4:	4619      	mov	r1, r3
   85ce6:	f10e 0e08 	add.w	lr, lr, #8
   85cea:	3c10      	subs	r4, #16
   85cec:	2c10      	cmp	r4, #16
   85cee:	dd10      	ble.n	85d12 <_vfiprintf_r+0x7a6>
   85cf0:	1c4b      	adds	r3, r1, #1
   85cf2:	3210      	adds	r2, #16
   85cf4:	2b07      	cmp	r3, #7
   85cf6:	9211      	str	r2, [sp, #68]	; 0x44
   85cf8:	e88e 0060 	stmia.w	lr, {r5, r6}
   85cfc:	9310      	str	r3, [sp, #64]	; 0x40
   85cfe:	ddf0      	ble.n	85ce2 <_vfiprintf_r+0x776>
   85d00:	2a00      	cmp	r2, #0
   85d02:	d165      	bne.n	85dd0 <_vfiprintf_r+0x864>
   85d04:	3c10      	subs	r4, #16
   85d06:	2c10      	cmp	r4, #16
   85d08:	f04f 0001 	mov.w	r0, #1
   85d0c:	4611      	mov	r1, r2
   85d0e:	46d6      	mov	lr, sl
   85d10:	dcee      	bgt.n	85cf0 <_vfiprintf_r+0x784>
   85d12:	46f1      	mov	r9, lr
   85d14:	4422      	add	r2, r4
   85d16:	2807      	cmp	r0, #7
   85d18:	9211      	str	r2, [sp, #68]	; 0x44
   85d1a:	f8c9 5000 	str.w	r5, [r9]
   85d1e:	f8c9 4004 	str.w	r4, [r9, #4]
   85d22:	9010      	str	r0, [sp, #64]	; 0x40
   85d24:	f300 8085 	bgt.w	85e32 <_vfiprintf_r+0x8c6>
   85d28:	f109 0908 	add.w	r9, r9, #8
   85d2c:	3001      	adds	r0, #1
   85d2e:	9905      	ldr	r1, [sp, #20]
   85d30:	2807      	cmp	r0, #7
   85d32:	440a      	add	r2, r1
   85d34:	9211      	str	r2, [sp, #68]	; 0x44
   85d36:	f8c9 b000 	str.w	fp, [r9]
   85d3a:	f8c9 1004 	str.w	r1, [r9, #4]
   85d3e:	9010      	str	r0, [sp, #64]	; 0x40
   85d40:	f340 8082 	ble.w	85e48 <_vfiprintf_r+0x8dc>
   85d44:	2a00      	cmp	r2, #0
   85d46:	f040 8118 	bne.w	85f7a <_vfiprintf_r+0xa0e>
   85d4a:	9b02      	ldr	r3, [sp, #8]
   85d4c:	9210      	str	r2, [sp, #64]	; 0x40
   85d4e:	0758      	lsls	r0, r3, #29
   85d50:	d535      	bpl.n	85dbe <_vfiprintf_r+0x852>
   85d52:	9b08      	ldr	r3, [sp, #32]
   85d54:	9901      	ldr	r1, [sp, #4]
   85d56:	1a5c      	subs	r4, r3, r1
   85d58:	2c00      	cmp	r4, #0
   85d5a:	f340 80e7 	ble.w	85f2c <_vfiprintf_r+0x9c0>
   85d5e:	46d1      	mov	r9, sl
   85d60:	2c10      	cmp	r4, #16
   85d62:	f340 820d 	ble.w	86180 <_vfiprintf_r+0xc14>
   85d66:	2510      	movs	r5, #16
   85d68:	9910      	ldr	r1, [sp, #64]	; 0x40
   85d6a:	4e8f      	ldr	r6, [pc, #572]	; (85fa8 <_vfiprintf_r+0xa3c>)
   85d6c:	9f06      	ldr	r7, [sp, #24]
   85d6e:	f8dd b010 	ldr.w	fp, [sp, #16]
   85d72:	e006      	b.n	85d82 <_vfiprintf_r+0x816>
   85d74:	1c88      	adds	r0, r1, #2
   85d76:	4619      	mov	r1, r3
   85d78:	f109 0908 	add.w	r9, r9, #8
   85d7c:	3c10      	subs	r4, #16
   85d7e:	2c10      	cmp	r4, #16
   85d80:	dd11      	ble.n	85da6 <_vfiprintf_r+0x83a>
   85d82:	1c4b      	adds	r3, r1, #1
   85d84:	3210      	adds	r2, #16
   85d86:	2b07      	cmp	r3, #7
   85d88:	9211      	str	r2, [sp, #68]	; 0x44
   85d8a:	f8c9 6000 	str.w	r6, [r9]
   85d8e:	f8c9 5004 	str.w	r5, [r9, #4]
   85d92:	9310      	str	r3, [sp, #64]	; 0x40
   85d94:	ddee      	ble.n	85d74 <_vfiprintf_r+0x808>
   85d96:	bb42      	cbnz	r2, 85dea <_vfiprintf_r+0x87e>
   85d98:	3c10      	subs	r4, #16
   85d9a:	2c10      	cmp	r4, #16
   85d9c:	f04f 0001 	mov.w	r0, #1
   85da0:	4611      	mov	r1, r2
   85da2:	46d1      	mov	r9, sl
   85da4:	dced      	bgt.n	85d82 <_vfiprintf_r+0x816>
   85da6:	4422      	add	r2, r4
   85da8:	2807      	cmp	r0, #7
   85daa:	9211      	str	r2, [sp, #68]	; 0x44
   85dac:	f8c9 6000 	str.w	r6, [r9]
   85db0:	f8c9 4004 	str.w	r4, [r9, #4]
   85db4:	9010      	str	r0, [sp, #64]	; 0x40
   85db6:	dd51      	ble.n	85e5c <_vfiprintf_r+0x8f0>
   85db8:	2a00      	cmp	r2, #0
   85dba:	f040 819a 	bne.w	860f2 <_vfiprintf_r+0xb86>
   85dbe:	9b03      	ldr	r3, [sp, #12]
   85dc0:	9a08      	ldr	r2, [sp, #32]
   85dc2:	9901      	ldr	r1, [sp, #4]
   85dc4:	428a      	cmp	r2, r1
   85dc6:	bfac      	ite	ge
   85dc8:	189b      	addge	r3, r3, r2
   85dca:	185b      	addlt	r3, r3, r1
   85dcc:	9303      	str	r3, [sp, #12]
   85dce:	e04e      	b.n	85e6e <_vfiprintf_r+0x902>
   85dd0:	aa0f      	add	r2, sp, #60	; 0x3c
   85dd2:	4649      	mov	r1, r9
   85dd4:	4638      	mov	r0, r7
   85dd6:	f7ff fb89 	bl	854ec <__sprint_r.part.0>
   85dda:	2800      	cmp	r0, #0
   85ddc:	f040 813e 	bne.w	8605c <_vfiprintf_r+0xaf0>
   85de0:	9910      	ldr	r1, [sp, #64]	; 0x40
   85de2:	46d6      	mov	lr, sl
   85de4:	9a11      	ldr	r2, [sp, #68]	; 0x44
   85de6:	1c48      	adds	r0, r1, #1
   85de8:	e77f      	b.n	85cea <_vfiprintf_r+0x77e>
   85dea:	aa0f      	add	r2, sp, #60	; 0x3c
   85dec:	4659      	mov	r1, fp
   85dee:	4638      	mov	r0, r7
   85df0:	f7ff fb7c 	bl	854ec <__sprint_r.part.0>
   85df4:	b960      	cbnz	r0, 85e10 <_vfiprintf_r+0x8a4>
   85df6:	9910      	ldr	r1, [sp, #64]	; 0x40
   85df8:	46d1      	mov	r9, sl
   85dfa:	9a11      	ldr	r2, [sp, #68]	; 0x44
   85dfc:	1c48      	adds	r0, r1, #1
   85dfe:	e7bd      	b.n	85d7c <_vfiprintf_r+0x810>
   85e00:	9b11      	ldr	r3, [sp, #68]	; 0x44
   85e02:	f8dd b010 	ldr.w	fp, [sp, #16]
   85e06:	2b00      	cmp	r3, #0
   85e08:	f040 81ca 	bne.w	861a0 <_vfiprintf_r+0xc34>
   85e0c:	2300      	movs	r3, #0
   85e0e:	9310      	str	r3, [sp, #64]	; 0x40
   85e10:	f8db 3064 	ldr.w	r3, [fp, #100]	; 0x64
   85e14:	f013 0f01 	tst.w	r3, #1
   85e18:	f8bb 300c 	ldrh.w	r3, [fp, #12]
   85e1c:	d102      	bne.n	85e24 <_vfiprintf_r+0x8b8>
   85e1e:	059a      	lsls	r2, r3, #22
   85e20:	f140 80dd 	bpl.w	85fde <_vfiprintf_r+0xa72>
   85e24:	065b      	lsls	r3, r3, #25
   85e26:	f53f acad 	bmi.w	85784 <_vfiprintf_r+0x218>
   85e2a:	9803      	ldr	r0, [sp, #12]
   85e2c:	b02d      	add	sp, #180	; 0xb4
   85e2e:	e8bd 8ff0 	ldmia.w	sp!, {r4, r5, r6, r7, r8, r9, sl, fp, pc}
   85e32:	2a00      	cmp	r2, #0
   85e34:	f040 8105 	bne.w	86042 <_vfiprintf_r+0xad6>
   85e38:	2301      	movs	r3, #1
   85e3a:	46d1      	mov	r9, sl
   85e3c:	9a05      	ldr	r2, [sp, #20]
   85e3e:	f8cd b070 	str.w	fp, [sp, #112]	; 0x70
   85e42:	921d      	str	r2, [sp, #116]	; 0x74
   85e44:	9211      	str	r2, [sp, #68]	; 0x44
   85e46:	9310      	str	r3, [sp, #64]	; 0x40
   85e48:	f109 0908 	add.w	r9, r9, #8
   85e4c:	9b02      	ldr	r3, [sp, #8]
   85e4e:	0759      	lsls	r1, r3, #29
   85e50:	d504      	bpl.n	85e5c <_vfiprintf_r+0x8f0>
   85e52:	9b08      	ldr	r3, [sp, #32]
   85e54:	9901      	ldr	r1, [sp, #4]
   85e56:	1a5c      	subs	r4, r3, r1
   85e58:	2c00      	cmp	r4, #0
   85e5a:	dc81      	bgt.n	85d60 <_vfiprintf_r+0x7f4>
   85e5c:	9b03      	ldr	r3, [sp, #12]
   85e5e:	9908      	ldr	r1, [sp, #32]
   85e60:	9801      	ldr	r0, [sp, #4]
   85e62:	4281      	cmp	r1, r0
   85e64:	bfac      	ite	ge
   85e66:	185b      	addge	r3, r3, r1
   85e68:	181b      	addlt	r3, r3, r0
   85e6a:	9303      	str	r3, [sp, #12]
   85e6c:	bb72      	cbnz	r2, 85ecc <_vfiprintf_r+0x960>
   85e6e:	2300      	movs	r3, #0
   85e70:	46d1      	mov	r9, sl
   85e72:	9310      	str	r3, [sp, #64]	; 0x40
   85e74:	f7ff bbb7 	b.w	855e6 <_vfiprintf_r+0x7a>
   85e78:	aa0f      	add	r2, sp, #60	; 0x3c
   85e7a:	9904      	ldr	r1, [sp, #16]
   85e7c:	4620      	mov	r0, r4
   85e7e:	f7ff fb35 	bl	854ec <__sprint_r.part.0>
   85e82:	bb50      	cbnz	r0, 85eda <_vfiprintf_r+0x96e>
   85e84:	9910      	ldr	r1, [sp, #64]	; 0x40
   85e86:	46d4      	mov	ip, sl
   85e88:	9a11      	ldr	r2, [sp, #68]	; 0x44
   85e8a:	f101 0e01 	add.w	lr, r1, #1
   85e8e:	e54a      	b.n	85926 <_vfiprintf_r+0x3ba>
   85e90:	2a00      	cmp	r2, #0
   85e92:	f47f aee5 	bne.w	85c60 <_vfiprintf_r+0x6f4>
   85e96:	f89d 1037 	ldrb.w	r1, [sp, #55]	; 0x37
   85e9a:	2900      	cmp	r1, #0
   85e9c:	f000 811a 	beq.w	860d4 <_vfiprintf_r+0xb68>
   85ea0:	2201      	movs	r2, #1
   85ea2:	46d1      	mov	r9, sl
   85ea4:	4610      	mov	r0, r2
   85ea6:	f10d 0137 	add.w	r1, sp, #55	; 0x37
   85eaa:	921d      	str	r2, [sp, #116]	; 0x74
   85eac:	911c      	str	r1, [sp, #112]	; 0x70
   85eae:	4601      	mov	r1, r0
   85eb0:	f109 0908 	add.w	r9, r9, #8
   85eb4:	3001      	adds	r0, #1
   85eb6:	e508      	b.n	858ca <_vfiprintf_r+0x35e>
   85eb8:	9b02      	ldr	r3, [sp, #8]
   85eba:	2a01      	cmp	r2, #1
   85ebc:	f000 8097 	beq.w	85fee <_vfiprintf_r+0xa82>
   85ec0:	2a02      	cmp	r2, #2
   85ec2:	d10d      	bne.n	85ee0 <_vfiprintf_r+0x974>
   85ec4:	9302      	str	r3, [sp, #8]
   85ec6:	2600      	movs	r6, #0
   85ec8:	2700      	movs	r7, #0
   85eca:	e5b2      	b.n	85a32 <_vfiprintf_r+0x4c6>
   85ecc:	aa0f      	add	r2, sp, #60	; 0x3c
   85ece:	9904      	ldr	r1, [sp, #16]
   85ed0:	9806      	ldr	r0, [sp, #24]
   85ed2:	f7ff fb0b 	bl	854ec <__sprint_r.part.0>
   85ed6:	2800      	cmp	r0, #0
   85ed8:	d0c9      	beq.n	85e6e <_vfiprintf_r+0x902>
   85eda:	f8dd b010 	ldr.w	fp, [sp, #16]
   85ede:	e797      	b.n	85e10 <_vfiprintf_r+0x8a4>
   85ee0:	2600      	movs	r6, #0
   85ee2:	2700      	movs	r7, #0
   85ee4:	9302      	str	r3, [sp, #8]
   85ee6:	4651      	mov	r1, sl
   85ee8:	e000      	b.n	85eec <_vfiprintf_r+0x980>
   85eea:	4659      	mov	r1, fp
   85eec:	08f2      	lsrs	r2, r6, #3
   85eee:	ea42 7247 	orr.w	r2, r2, r7, lsl #29
   85ef2:	08f8      	lsrs	r0, r7, #3
   85ef4:	f006 0307 	and.w	r3, r6, #7
   85ef8:	4607      	mov	r7, r0
   85efa:	4616      	mov	r6, r2
   85efc:	3330      	adds	r3, #48	; 0x30
   85efe:	ea56 0207 	orrs.w	r2, r6, r7
   85f02:	f801 3c01 	strb.w	r3, [r1, #-1]
   85f06:	f101 3bff 	add.w	fp, r1, #4294967295
   85f0a:	d1ee      	bne.n	85eea <_vfiprintf_r+0x97e>
   85f0c:	9a02      	ldr	r2, [sp, #8]
   85f0e:	07d6      	lsls	r6, r2, #31
   85f10:	f57f ad9f 	bpl.w	85a52 <_vfiprintf_r+0x4e6>
   85f14:	2b30      	cmp	r3, #48	; 0x30
   85f16:	f43f ad9c 	beq.w	85a52 <_vfiprintf_r+0x4e6>
   85f1a:	2330      	movs	r3, #48	; 0x30
   85f1c:	3902      	subs	r1, #2
   85f1e:	f80b 3c01 	strb.w	r3, [fp, #-1]
   85f22:	ebaa 0301 	sub.w	r3, sl, r1
   85f26:	9305      	str	r3, [sp, #20]
   85f28:	468b      	mov	fp, r1
   85f2a:	e477      	b.n	8581c <_vfiprintf_r+0x2b0>
   85f2c:	9b03      	ldr	r3, [sp, #12]
   85f2e:	9a08      	ldr	r2, [sp, #32]
   85f30:	428a      	cmp	r2, r1
   85f32:	bfac      	ite	ge
   85f34:	189b      	addge	r3, r3, r2
   85f36:	185b      	addlt	r3, r3, r1
   85f38:	9303      	str	r3, [sp, #12]
   85f3a:	e798      	b.n	85e6e <_vfiprintf_r+0x902>
   85f3c:	2202      	movs	r2, #2
   85f3e:	e44e      	b.n	857de <_vfiprintf_r+0x272>
   85f40:	2f00      	cmp	r7, #0
   85f42:	bf08      	it	eq
   85f44:	2e0a      	cmpeq	r6, #10
   85f46:	d351      	bcc.n	85fec <_vfiprintf_r+0xa80>
   85f48:	46d3      	mov	fp, sl
   85f4a:	4630      	mov	r0, r6
   85f4c:	4639      	mov	r1, r7
   85f4e:	220a      	movs	r2, #10
   85f50:	2300      	movs	r3, #0
   85f52:	f001 fe85 	bl	87c60 <__aeabi_uldivmod>
   85f56:	3230      	adds	r2, #48	; 0x30
   85f58:	f80b 2d01 	strb.w	r2, [fp, #-1]!
   85f5c:	4630      	mov	r0, r6
   85f5e:	4639      	mov	r1, r7
   85f60:	2300      	movs	r3, #0
   85f62:	220a      	movs	r2, #10
   85f64:	f001 fe7c 	bl	87c60 <__aeabi_uldivmod>
   85f68:	4606      	mov	r6, r0
   85f6a:	460f      	mov	r7, r1
   85f6c:	ea56 0307 	orrs.w	r3, r6, r7
   85f70:	d1eb      	bne.n	85f4a <_vfiprintf_r+0x9de>
   85f72:	e56e      	b.n	85a52 <_vfiprintf_r+0x4e6>
   85f74:	9405      	str	r4, [sp, #20]
   85f76:	46d3      	mov	fp, sl
   85f78:	e450      	b.n	8581c <_vfiprintf_r+0x2b0>
   85f7a:	aa0f      	add	r2, sp, #60	; 0x3c
   85f7c:	9904      	ldr	r1, [sp, #16]
   85f7e:	9806      	ldr	r0, [sp, #24]
   85f80:	f7ff fab4 	bl	854ec <__sprint_r.part.0>
   85f84:	2800      	cmp	r0, #0
   85f86:	d1a8      	bne.n	85eda <_vfiprintf_r+0x96e>
   85f88:	46d1      	mov	r9, sl
   85f8a:	9a11      	ldr	r2, [sp, #68]	; 0x44
   85f8c:	e75e      	b.n	85e4c <_vfiprintf_r+0x8e0>
   85f8e:	aa0f      	add	r2, sp, #60	; 0x3c
   85f90:	9904      	ldr	r1, [sp, #16]
   85f92:	9806      	ldr	r0, [sp, #24]
   85f94:	f7ff faaa 	bl	854ec <__sprint_r.part.0>
   85f98:	2800      	cmp	r0, #0
   85f9a:	d19e      	bne.n	85eda <_vfiprintf_r+0x96e>
   85f9c:	46d1      	mov	r9, sl
   85f9e:	f7ff bbbb 	b.w	85718 <_vfiprintf_r+0x1ac>
   85fa2:	bf00      	nop
   85fa4:	00088584 	.word	0x00088584
   85fa8:	00088574 	.word	0x00088574
   85fac:	3104      	adds	r1, #4
   85fae:	6816      	ldr	r6, [r2, #0]
   85fb0:	2700      	movs	r7, #0
   85fb2:	2201      	movs	r2, #1
   85fb4:	9107      	str	r1, [sp, #28]
   85fb6:	e412      	b.n	857de <_vfiprintf_r+0x272>
   85fb8:	9807      	ldr	r0, [sp, #28]
   85fba:	2700      	movs	r7, #0
   85fbc:	4601      	mov	r1, r0
   85fbe:	3104      	adds	r1, #4
   85fc0:	6806      	ldr	r6, [r0, #0]
   85fc2:	9107      	str	r1, [sp, #28]
   85fc4:	e40b      	b.n	857de <_vfiprintf_r+0x272>
   85fc6:	680e      	ldr	r6, [r1, #0]
   85fc8:	3104      	adds	r1, #4
   85fca:	9107      	str	r1, [sp, #28]
   85fcc:	2700      	movs	r7, #0
   85fce:	e592      	b.n	85af6 <_vfiprintf_r+0x58a>
   85fd0:	6816      	ldr	r6, [r2, #0]
   85fd2:	3204      	adds	r2, #4
   85fd4:	17f7      	asrs	r7, r6, #31
   85fd6:	9207      	str	r2, [sp, #28]
   85fd8:	4630      	mov	r0, r6
   85fda:	4639      	mov	r1, r7
   85fdc:	e512      	b.n	85a04 <_vfiprintf_r+0x498>
   85fde:	f8db 0058 	ldr.w	r0, [fp, #88]	; 0x58
   85fe2:	f000 fe75 	bl	86cd0 <__retarget_lock_release_recursive>
   85fe6:	f8bb 300c 	ldrh.w	r3, [fp, #12]
   85fea:	e71b      	b.n	85e24 <_vfiprintf_r+0x8b8>
   85fec:	9b02      	ldr	r3, [sp, #8]
   85fee:	9302      	str	r3, [sp, #8]
   85ff0:	2301      	movs	r3, #1
   85ff2:	f10d 0bb0 	add.w	fp, sp, #176	; 0xb0
   85ff6:	3630      	adds	r6, #48	; 0x30
   85ff8:	f80b 6d41 	strb.w	r6, [fp, #-65]!
   85ffc:	9305      	str	r3, [sp, #20]
   85ffe:	e40d      	b.n	8581c <_vfiprintf_r+0x2b0>
   86000:	aa0f      	add	r2, sp, #60	; 0x3c
   86002:	9904      	ldr	r1, [sp, #16]
   86004:	9806      	ldr	r0, [sp, #24]
   86006:	f7ff fa71 	bl	854ec <__sprint_r.part.0>
   8600a:	2800      	cmp	r0, #0
   8600c:	f47f af65 	bne.w	85eda <_vfiprintf_r+0x96e>
   86010:	9910      	ldr	r1, [sp, #64]	; 0x40
   86012:	46d1      	mov	r9, sl
   86014:	9a11      	ldr	r2, [sp, #68]	; 0x44
   86016:	1c48      	adds	r0, r1, #1
   86018:	e457      	b.n	858ca <_vfiprintf_r+0x35e>
   8601a:	aa0f      	add	r2, sp, #60	; 0x3c
   8601c:	9904      	ldr	r1, [sp, #16]
   8601e:	9806      	ldr	r0, [sp, #24]
   86020:	f7ff fa64 	bl	854ec <__sprint_r.part.0>
   86024:	2800      	cmp	r0, #0
   86026:	f47f af58 	bne.w	85eda <_vfiprintf_r+0x96e>
   8602a:	9910      	ldr	r1, [sp, #64]	; 0x40
   8602c:	46d1      	mov	r9, sl
   8602e:	9a11      	ldr	r2, [sp, #68]	; 0x44
   86030:	1c48      	adds	r0, r1, #1
   86032:	e644      	b.n	85cbe <_vfiprintf_r+0x752>
   86034:	2a00      	cmp	r2, #0
   86036:	f040 8087 	bne.w	86148 <_vfiprintf_r+0xbdc>
   8603a:	2001      	movs	r0, #1
   8603c:	4611      	mov	r1, r2
   8603e:	46d1      	mov	r9, sl
   86040:	e641      	b.n	85cc6 <_vfiprintf_r+0x75a>
   86042:	aa0f      	add	r2, sp, #60	; 0x3c
   86044:	9904      	ldr	r1, [sp, #16]
   86046:	9806      	ldr	r0, [sp, #24]
   86048:	f7ff fa50 	bl	854ec <__sprint_r.part.0>
   8604c:	2800      	cmp	r0, #0
   8604e:	f47f af44 	bne.w	85eda <_vfiprintf_r+0x96e>
   86052:	9810      	ldr	r0, [sp, #64]	; 0x40
   86054:	46d1      	mov	r9, sl
   86056:	9a11      	ldr	r2, [sp, #68]	; 0x44
   86058:	3001      	adds	r0, #1
   8605a:	e668      	b.n	85d2e <_vfiprintf_r+0x7c2>
   8605c:	46cb      	mov	fp, r9
   8605e:	e6d7      	b.n	85e10 <_vfiprintf_r+0x8a4>
   86060:	9d07      	ldr	r5, [sp, #28]
   86062:	3507      	adds	r5, #7
   86064:	f025 0507 	bic.w	r5, r5, #7
   86068:	f105 0208 	add.w	r2, r5, #8
   8606c:	e9d5 0100 	ldrd	r0, r1, [r5]
   86070:	9207      	str	r2, [sp, #28]
   86072:	4606      	mov	r6, r0
   86074:	460f      	mov	r7, r1
   86076:	e4c5      	b.n	85a04 <_vfiprintf_r+0x498>
   86078:	9d07      	ldr	r5, [sp, #28]
   8607a:	3507      	adds	r5, #7
   8607c:	f025 0207 	bic.w	r2, r5, #7
   86080:	f102 0108 	add.w	r1, r2, #8
   86084:	e9d2 6700 	ldrd	r6, r7, [r2]
   86088:	9107      	str	r1, [sp, #28]
   8608a:	2201      	movs	r2, #1
   8608c:	f7ff bba7 	b.w	857de <_vfiprintf_r+0x272>
   86090:	9d07      	ldr	r5, [sp, #28]
   86092:	3507      	adds	r5, #7
   86094:	f025 0207 	bic.w	r2, r5, #7
   86098:	f102 0108 	add.w	r1, r2, #8
   8609c:	e9d2 6700 	ldrd	r6, r7, [r2]
   860a0:	9107      	str	r1, [sp, #28]
   860a2:	2200      	movs	r2, #0
   860a4:	f7ff bb9b 	b.w	857de <_vfiprintf_r+0x272>
   860a8:	9d07      	ldr	r5, [sp, #28]
   860aa:	3507      	adds	r5, #7
   860ac:	f025 0107 	bic.w	r1, r5, #7
   860b0:	f101 0008 	add.w	r0, r1, #8
   860b4:	9007      	str	r0, [sp, #28]
   860b6:	e9d1 6700 	ldrd	r6, r7, [r1]
   860ba:	e51c      	b.n	85af6 <_vfiprintf_r+0x58a>
   860bc:	46d3      	mov	fp, sl
   860be:	f7ff bbad 	b.w	8581c <_vfiprintf_r+0x2b0>
   860c2:	252d      	movs	r5, #45	; 0x2d
   860c4:	4276      	negs	r6, r6
   860c6:	eb67 0747 	sbc.w	r7, r7, r7, lsl #1
   860ca:	f88d 5037 	strb.w	r5, [sp, #55]	; 0x37
   860ce:	2201      	movs	r2, #1
   860d0:	f7ff bb8a 	b.w	857e8 <_vfiprintf_r+0x27c>
   860d4:	9b09      	ldr	r3, [sp, #36]	; 0x24
   860d6:	b9b3      	cbnz	r3, 86106 <_vfiprintf_r+0xb9a>
   860d8:	4611      	mov	r1, r2
   860da:	2001      	movs	r0, #1
   860dc:	46d1      	mov	r9, sl
   860de:	e5f2      	b.n	85cc6 <_vfiprintf_r+0x75a>
   860e0:	f8db 0058 	ldr.w	r0, [fp, #88]	; 0x58
   860e4:	f000 fdf4 	bl	86cd0 <__retarget_lock_release_recursive>
   860e8:	f04f 33ff 	mov.w	r3, #4294967295
   860ec:	9303      	str	r3, [sp, #12]
   860ee:	f7ff bb4c 	b.w	8578a <_vfiprintf_r+0x21e>
   860f2:	aa0f      	add	r2, sp, #60	; 0x3c
   860f4:	9904      	ldr	r1, [sp, #16]
   860f6:	9806      	ldr	r0, [sp, #24]
   860f8:	f7ff f9f8 	bl	854ec <__sprint_r.part.0>
   860fc:	2800      	cmp	r0, #0
   860fe:	f47f aeec 	bne.w	85eda <_vfiprintf_r+0x96e>
   86102:	9a11      	ldr	r2, [sp, #68]	; 0x44
   86104:	e6aa      	b.n	85e5c <_vfiprintf_r+0x8f0>
   86106:	2202      	movs	r2, #2
   86108:	ab0e      	add	r3, sp, #56	; 0x38
   8610a:	921d      	str	r2, [sp, #116]	; 0x74
   8610c:	931c      	str	r3, [sp, #112]	; 0x70
   8610e:	2001      	movs	r0, #1
   86110:	46d1      	mov	r9, sl
   86112:	e5d0      	b.n	85cb6 <_vfiprintf_r+0x74a>
   86114:	4d34      	ldr	r5, [pc, #208]	; (861e8 <_vfiprintf_r+0xc7c>)
   86116:	e5fd      	b.n	85d14 <_vfiprintf_r+0x7a8>
   86118:	9a07      	ldr	r2, [sp, #28]
   8611a:	4613      	mov	r3, r2
   8611c:	3304      	adds	r3, #4
   8611e:	9307      	str	r3, [sp, #28]
   86120:	9b03      	ldr	r3, [sp, #12]
   86122:	6811      	ldr	r1, [r2, #0]
   86124:	17dd      	asrs	r5, r3, #31
   86126:	461a      	mov	r2, r3
   86128:	462b      	mov	r3, r5
   8612a:	e9c1 2300 	strd	r2, r3, [r1]
   8612e:	f7ff ba5a 	b.w	855e6 <_vfiprintf_r+0x7a>
   86132:	4658      	mov	r0, fp
   86134:	9507      	str	r5, [sp, #28]
   86136:	9302      	str	r3, [sp, #8]
   86138:	f7ff f978 	bl	8542c <strlen>
   8613c:	2400      	movs	r4, #0
   8613e:	9005      	str	r0, [sp, #20]
   86140:	f89d 5037 	ldrb.w	r5, [sp, #55]	; 0x37
   86144:	f7ff bb6a 	b.w	8581c <_vfiprintf_r+0x2b0>
   86148:	aa0f      	add	r2, sp, #60	; 0x3c
   8614a:	9904      	ldr	r1, [sp, #16]
   8614c:	9806      	ldr	r0, [sp, #24]
   8614e:	f7ff f9cd 	bl	854ec <__sprint_r.part.0>
   86152:	2800      	cmp	r0, #0
   86154:	f47f aec1 	bne.w	85eda <_vfiprintf_r+0x96e>
   86158:	9910      	ldr	r1, [sp, #64]	; 0x40
   8615a:	46d1      	mov	r9, sl
   8615c:	9a11      	ldr	r2, [sp, #68]	; 0x44
   8615e:	1c48      	adds	r0, r1, #1
   86160:	e5b1      	b.n	85cc6 <_vfiprintf_r+0x75a>
   86162:	9910      	ldr	r1, [sp, #64]	; 0x40
   86164:	9a11      	ldr	r2, [sp, #68]	; 0x44
   86166:	3101      	adds	r1, #1
   86168:	4e20      	ldr	r6, [pc, #128]	; (861ec <_vfiprintf_r+0xc80>)
   8616a:	f7ff bb9c 	b.w	858a6 <_vfiprintf_r+0x33a>
   8616e:	2c06      	cmp	r4, #6
   86170:	bf28      	it	cs
   86172:	2406      	movcs	r4, #6
   86174:	9507      	str	r5, [sp, #28]
   86176:	9405      	str	r4, [sp, #20]
   86178:	9401      	str	r4, [sp, #4]
   8617a:	f8df b074 	ldr.w	fp, [pc, #116]	; 861f0 <_vfiprintf_r+0xc84>
   8617e:	e4e3      	b.n	85b48 <_vfiprintf_r+0x5dc>
   86180:	9810      	ldr	r0, [sp, #64]	; 0x40
   86182:	4e1a      	ldr	r6, [pc, #104]	; (861ec <_vfiprintf_r+0xc80>)
   86184:	3001      	adds	r0, #1
   86186:	e60e      	b.n	85da6 <_vfiprintf_r+0x83a>
   86188:	4686      	mov	lr, r0
   8618a:	4d17      	ldr	r5, [pc, #92]	; (861e8 <_vfiprintf_r+0xc7c>)
   8618c:	f7ff bbe2 	b.w	85954 <_vfiprintf_r+0x3e8>
   86190:	9405      	str	r4, [sp, #20]
   86192:	9507      	str	r5, [sp, #28]
   86194:	9302      	str	r3, [sp, #8]
   86196:	4604      	mov	r4, r0
   86198:	f89d 5037 	ldrb.w	r5, [sp, #55]	; 0x37
   8619c:	f7ff bb3e 	b.w	8581c <_vfiprintf_r+0x2b0>
   861a0:	9806      	ldr	r0, [sp, #24]
   861a2:	aa0f      	add	r2, sp, #60	; 0x3c
   861a4:	4659      	mov	r1, fp
   861a6:	f7ff f9a1 	bl	854ec <__sprint_r.part.0>
   861aa:	2800      	cmp	r0, #0
   861ac:	f43f ae2e 	beq.w	85e0c <_vfiprintf_r+0x8a0>
   861b0:	e62e      	b.n	85e10 <_vfiprintf_r+0x8a4>
   861b2:	9907      	ldr	r1, [sp, #28]
   861b4:	f898 2001 	ldrb.w	r2, [r8, #1]
   861b8:	680c      	ldr	r4, [r1, #0]
   861ba:	3104      	adds	r1, #4
   861bc:	ea44 74e4 	orr.w	r4, r4, r4, asr #31
   861c0:	46b8      	mov	r8, r7
   861c2:	9107      	str	r1, [sp, #28]
   861c4:	f7ff ba44 	b.w	85650 <_vfiprintf_r+0xe4>
   861c8:	f88d 6037 	strb.w	r6, [sp, #55]	; 0x37
   861cc:	e4a7      	b.n	85b1e <_vfiprintf_r+0x5b2>
   861ce:	f88d 6037 	strb.w	r6, [sp, #55]	; 0x37
   861d2:	e521      	b.n	85c18 <_vfiprintf_r+0x6ac>
   861d4:	f88d 6037 	strb.w	r6, [sp, #55]	; 0x37
   861d8:	e47c      	b.n	85ad4 <_vfiprintf_r+0x568>
   861da:	f88d 6037 	strb.w	r6, [sp, #55]	; 0x37
   861de:	e43f      	b.n	85a60 <_vfiprintf_r+0x4f4>
   861e0:	f88d 6037 	strb.w	r6, [sp, #55]	; 0x37
   861e4:	f7ff bbfa 	b.w	859dc <_vfiprintf_r+0x470>
   861e8:	00088584 	.word	0x00088584
   861ec:	00088574 	.word	0x00088574
   861f0:	0008856c 	.word	0x0008856c

000861f4 <__sbprintf>:
   861f4:	e92d 41f0 	stmdb	sp!, {r4, r5, r6, r7, r8, lr}
   861f8:	460c      	mov	r4, r1
   861fa:	f04f 0e00 	mov.w	lr, #0
   861fe:	f44f 6580 	mov.w	r5, #1024	; 0x400
   86202:	4606      	mov	r6, r0
   86204:	4617      	mov	r7, r2
   86206:	4698      	mov	r8, r3
   86208:	6e62      	ldr	r2, [r4, #100]	; 0x64
   8620a:	89e3      	ldrh	r3, [r4, #14]
   8620c:	8989      	ldrh	r1, [r1, #12]
   8620e:	f5ad 6d8d 	sub.w	sp, sp, #1128	; 0x468
   86212:	f021 0102 	bic.w	r1, r1, #2
   86216:	9219      	str	r2, [sp, #100]	; 0x64
   86218:	f8ad 300e 	strh.w	r3, [sp, #14]
   8621c:	69e2      	ldr	r2, [r4, #28]
   8621e:	6a63      	ldr	r3, [r4, #36]	; 0x24
   86220:	f8ad 100c 	strh.w	r1, [sp, #12]
   86224:	a816      	add	r0, sp, #88	; 0x58
   86226:	a91a      	add	r1, sp, #104	; 0x68
   86228:	f8cd e018 	str.w	lr, [sp, #24]
   8622c:	9207      	str	r2, [sp, #28]
   8622e:	9309      	str	r3, [sp, #36]	; 0x24
   86230:	9100      	str	r1, [sp, #0]
   86232:	9104      	str	r1, [sp, #16]
   86234:	9502      	str	r5, [sp, #8]
   86236:	9505      	str	r5, [sp, #20]
   86238:	f000 fd44 	bl	86cc4 <__retarget_lock_init_recursive>
   8623c:	4643      	mov	r3, r8
   8623e:	463a      	mov	r2, r7
   86240:	4669      	mov	r1, sp
   86242:	4630      	mov	r0, r6
   86244:	f7ff f992 	bl	8556c <_vfiprintf_r>
   86248:	1e05      	subs	r5, r0, #0
   8624a:	db07      	blt.n	8625c <__sbprintf+0x68>
   8624c:	4630      	mov	r0, r6
   8624e:	4669      	mov	r1, sp
   86250:	f000 f924 	bl	8649c <_fflush_r>
   86254:	2800      	cmp	r0, #0
   86256:	bf18      	it	ne
   86258:	f04f 35ff 	movne.w	r5, #4294967295
   8625c:	f8bd 300c 	ldrh.w	r3, [sp, #12]
   86260:	065b      	lsls	r3, r3, #25
   86262:	d503      	bpl.n	8626c <__sbprintf+0x78>
   86264:	89a3      	ldrh	r3, [r4, #12]
   86266:	f043 0340 	orr.w	r3, r3, #64	; 0x40
   8626a:	81a3      	strh	r3, [r4, #12]
   8626c:	9816      	ldr	r0, [sp, #88]	; 0x58
   8626e:	f000 fd2b 	bl	86cc8 <__retarget_lock_close_recursive>
   86272:	4628      	mov	r0, r5
   86274:	f50d 6d8d 	add.w	sp, sp, #1128	; 0x468
   86278:	e8bd 81f0 	ldmia.w	sp!, {r4, r5, r6, r7, r8, pc}

0008627c <__swsetup_r>:
   8627c:	b538      	push	{r3, r4, r5, lr}
   8627e:	4b30      	ldr	r3, [pc, #192]	; (86340 <__swsetup_r+0xc4>)
   86280:	4605      	mov	r5, r0
   86282:	6818      	ldr	r0, [r3, #0]
   86284:	460c      	mov	r4, r1
   86286:	b110      	cbz	r0, 8628e <__swsetup_r+0x12>
   86288:	6b83      	ldr	r3, [r0, #56]	; 0x38
   8628a:	2b00      	cmp	r3, #0
   8628c:	d038      	beq.n	86300 <__swsetup_r+0x84>
   8628e:	f9b4 200c 	ldrsh.w	r2, [r4, #12]
   86292:	b293      	uxth	r3, r2
   86294:	0718      	lsls	r0, r3, #28
   86296:	d50c      	bpl.n	862b2 <__swsetup_r+0x36>
   86298:	6920      	ldr	r0, [r4, #16]
   8629a:	b1a8      	cbz	r0, 862c8 <__swsetup_r+0x4c>
   8629c:	f013 0201 	ands.w	r2, r3, #1
   862a0:	d01e      	beq.n	862e0 <__swsetup_r+0x64>
   862a2:	2200      	movs	r2, #0
   862a4:	6963      	ldr	r3, [r4, #20]
   862a6:	60a2      	str	r2, [r4, #8]
   862a8:	425b      	negs	r3, r3
   862aa:	61a3      	str	r3, [r4, #24]
   862ac:	b1f0      	cbz	r0, 862ec <__swsetup_r+0x70>
   862ae:	2000      	movs	r0, #0
   862b0:	bd38      	pop	{r3, r4, r5, pc}
   862b2:	06d9      	lsls	r1, r3, #27
   862b4:	d53b      	bpl.n	8632e <__swsetup_r+0xb2>
   862b6:	0758      	lsls	r0, r3, #29
   862b8:	d425      	bmi.n	86306 <__swsetup_r+0x8a>
   862ba:	6920      	ldr	r0, [r4, #16]
   862bc:	f042 0308 	orr.w	r3, r2, #8
   862c0:	81a3      	strh	r3, [r4, #12]
   862c2:	b29b      	uxth	r3, r3
   862c4:	2800      	cmp	r0, #0
   862c6:	d1e9      	bne.n	8629c <__swsetup_r+0x20>
   862c8:	f403 7220 	and.w	r2, r3, #640	; 0x280
   862cc:	f5b2 7f00 	cmp.w	r2, #512	; 0x200
   862d0:	d0e4      	beq.n	8629c <__swsetup_r+0x20>
   862d2:	4628      	mov	r0, r5
   862d4:	4621      	mov	r1, r4
   862d6:	f000 fd2b 	bl	86d30 <__smakebuf_r>
   862da:	89a3      	ldrh	r3, [r4, #12]
   862dc:	6920      	ldr	r0, [r4, #16]
   862de:	e7dd      	b.n	8629c <__swsetup_r+0x20>
   862e0:	0799      	lsls	r1, r3, #30
   862e2:	bf58      	it	pl
   862e4:	6962      	ldrpl	r2, [r4, #20]
   862e6:	60a2      	str	r2, [r4, #8]
   862e8:	2800      	cmp	r0, #0
   862ea:	d1e0      	bne.n	862ae <__swsetup_r+0x32>
   862ec:	f9b4 300c 	ldrsh.w	r3, [r4, #12]
   862f0:	061a      	lsls	r2, r3, #24
   862f2:	d5dd      	bpl.n	862b0 <__swsetup_r+0x34>
   862f4:	f043 0340 	orr.w	r3, r3, #64	; 0x40
   862f8:	81a3      	strh	r3, [r4, #12]
   862fa:	f04f 30ff 	mov.w	r0, #4294967295
   862fe:	bd38      	pop	{r3, r4, r5, pc}
   86300:	f000 f924 	bl	8654c <__sinit>
   86304:	e7c3      	b.n	8628e <__swsetup_r+0x12>
   86306:	6b21      	ldr	r1, [r4, #48]	; 0x30
   86308:	b151      	cbz	r1, 86320 <__swsetup_r+0xa4>
   8630a:	f104 0340 	add.w	r3, r4, #64	; 0x40
   8630e:	4299      	cmp	r1, r3
   86310:	d004      	beq.n	8631c <__swsetup_r+0xa0>
   86312:	4628      	mov	r0, r5
   86314:	f000 fa40 	bl	86798 <_free_r>
   86318:	f9b4 200c 	ldrsh.w	r2, [r4, #12]
   8631c:	2300      	movs	r3, #0
   8631e:	6323      	str	r3, [r4, #48]	; 0x30
   86320:	2300      	movs	r3, #0
   86322:	6920      	ldr	r0, [r4, #16]
   86324:	f022 0224 	bic.w	r2, r2, #36	; 0x24
   86328:	e884 0009 	stmia.w	r4, {r0, r3}
   8632c:	e7c6      	b.n	862bc <__swsetup_r+0x40>
   8632e:	2309      	movs	r3, #9
   86330:	f042 0240 	orr.w	r2, r2, #64	; 0x40
   86334:	602b      	str	r3, [r5, #0]
   86336:	f04f 30ff 	mov.w	r0, #4294967295
   8633a:	81a2      	strh	r2, [r4, #12]
   8633c:	bd38      	pop	{r3, r4, r5, pc}
   8633e:	bf00      	nop
   86340:	20070170 	.word	0x20070170

00086344 <register_fini>:
   86344:	4b02      	ldr	r3, [pc, #8]	; (86350 <register_fini+0xc>)
   86346:	b113      	cbz	r3, 8634e <register_fini+0xa>
   86348:	4802      	ldr	r0, [pc, #8]	; (86354 <register_fini+0x10>)
   8634a:	f000 b805 	b.w	86358 <atexit>
   8634e:	4770      	bx	lr
   86350:	00000000 	.word	0x00000000
   86354:	000865c5 	.word	0x000865c5

00086358 <atexit>:
   86358:	2300      	movs	r3, #0
   8635a:	4601      	mov	r1, r0
   8635c:	461a      	mov	r2, r3
   8635e:	4618      	mov	r0, r3
   86360:	f001 bb56 	b.w	87a10 <__register_exitproc>

00086364 <__sflush_r>:
   86364:	f9b1 300c 	ldrsh.w	r3, [r1, #12]
   86368:	e92d 41f0 	stmdb	sp!, {r4, r5, r6, r7, r8, lr}
   8636c:	b29a      	uxth	r2, r3
   8636e:	460d      	mov	r5, r1
   86370:	0711      	lsls	r1, r2, #28
   86372:	4680      	mov	r8, r0
   86374:	d43a      	bmi.n	863ec <__sflush_r+0x88>
   86376:	686a      	ldr	r2, [r5, #4]
   86378:	f443 6300 	orr.w	r3, r3, #2048	; 0x800
   8637c:	2a00      	cmp	r2, #0
   8637e:	81ab      	strh	r3, [r5, #12]
   86380:	dd70      	ble.n	86464 <__sflush_r+0x100>
   86382:	6aac      	ldr	r4, [r5, #40]	; 0x28
   86384:	2c00      	cmp	r4, #0
   86386:	d04a      	beq.n	8641e <__sflush_r+0xba>
   86388:	2200      	movs	r2, #0
   8638a:	b29b      	uxth	r3, r3
   8638c:	f8d8 6000 	ldr.w	r6, [r8]
   86390:	f8c8 2000 	str.w	r2, [r8]
   86394:	f413 5280 	ands.w	r2, r3, #4096	; 0x1000
   86398:	d068      	beq.n	8646c <__sflush_r+0x108>
   8639a:	6d2a      	ldr	r2, [r5, #80]	; 0x50
   8639c:	075f      	lsls	r7, r3, #29
   8639e:	d505      	bpl.n	863ac <__sflush_r+0x48>
   863a0:	6869      	ldr	r1, [r5, #4]
   863a2:	6b2b      	ldr	r3, [r5, #48]	; 0x30
   863a4:	1a52      	subs	r2, r2, r1
   863a6:	b10b      	cbz	r3, 863ac <__sflush_r+0x48>
   863a8:	6beb      	ldr	r3, [r5, #60]	; 0x3c
   863aa:	1ad2      	subs	r2, r2, r3
   863ac:	2300      	movs	r3, #0
   863ae:	69e9      	ldr	r1, [r5, #28]
   863b0:	4640      	mov	r0, r8
   863b2:	47a0      	blx	r4
   863b4:	1c44      	adds	r4, r0, #1
   863b6:	d03d      	beq.n	86434 <__sflush_r+0xd0>
   863b8:	2100      	movs	r1, #0
   863ba:	f9b5 300c 	ldrsh.w	r3, [r5, #12]
   863be:	692a      	ldr	r2, [r5, #16]
   863c0:	f423 6300 	bic.w	r3, r3, #2048	; 0x800
   863c4:	81ab      	strh	r3, [r5, #12]
   863c6:	04db      	lsls	r3, r3, #19
   863c8:	6069      	str	r1, [r5, #4]
   863ca:	602a      	str	r2, [r5, #0]
   863cc:	d448      	bmi.n	86460 <__sflush_r+0xfc>
   863ce:	6b29      	ldr	r1, [r5, #48]	; 0x30
   863d0:	f8c8 6000 	str.w	r6, [r8]
   863d4:	b319      	cbz	r1, 8641e <__sflush_r+0xba>
   863d6:	f105 0340 	add.w	r3, r5, #64	; 0x40
   863da:	4299      	cmp	r1, r3
   863dc:	d002      	beq.n	863e4 <__sflush_r+0x80>
   863de:	4640      	mov	r0, r8
   863e0:	f000 f9da 	bl	86798 <_free_r>
   863e4:	2000      	movs	r0, #0
   863e6:	6328      	str	r0, [r5, #48]	; 0x30
   863e8:	e8bd 81f0 	ldmia.w	sp!, {r4, r5, r6, r7, r8, pc}
   863ec:	692e      	ldr	r6, [r5, #16]
   863ee:	b1b6      	cbz	r6, 8641e <__sflush_r+0xba>
   863f0:	0791      	lsls	r1, r2, #30
   863f2:	bf18      	it	ne
   863f4:	2300      	movne	r3, #0
   863f6:	682c      	ldr	r4, [r5, #0]
   863f8:	bf08      	it	eq
   863fa:	696b      	ldreq	r3, [r5, #20]
   863fc:	602e      	str	r6, [r5, #0]
   863fe:	1ba4      	subs	r4, r4, r6
   86400:	60ab      	str	r3, [r5, #8]
   86402:	e00a      	b.n	8641a <__sflush_r+0xb6>
   86404:	4623      	mov	r3, r4
   86406:	4632      	mov	r2, r6
   86408:	6a6f      	ldr	r7, [r5, #36]	; 0x24
   8640a:	69e9      	ldr	r1, [r5, #28]
   8640c:	4640      	mov	r0, r8
   8640e:	47b8      	blx	r7
   86410:	2800      	cmp	r0, #0
   86412:	eba4 0400 	sub.w	r4, r4, r0
   86416:	4406      	add	r6, r0
   86418:	dd04      	ble.n	86424 <__sflush_r+0xc0>
   8641a:	2c00      	cmp	r4, #0
   8641c:	dcf2      	bgt.n	86404 <__sflush_r+0xa0>
   8641e:	2000      	movs	r0, #0
   86420:	e8bd 81f0 	ldmia.w	sp!, {r4, r5, r6, r7, r8, pc}
   86424:	89ab      	ldrh	r3, [r5, #12]
   86426:	f04f 30ff 	mov.w	r0, #4294967295
   8642a:	f043 0340 	orr.w	r3, r3, #64	; 0x40
   8642e:	81ab      	strh	r3, [r5, #12]
   86430:	e8bd 81f0 	ldmia.w	sp!, {r4, r5, r6, r7, r8, pc}
   86434:	f8d8 4000 	ldr.w	r4, [r8]
   86438:	2c1d      	cmp	r4, #29
   8643a:	d8f3      	bhi.n	86424 <__sflush_r+0xc0>
   8643c:	4b16      	ldr	r3, [pc, #88]	; (86498 <__sflush_r+0x134>)
   8643e:	40e3      	lsrs	r3, r4
   86440:	43db      	mvns	r3, r3
   86442:	f013 0301 	ands.w	r3, r3, #1
   86446:	d1ed      	bne.n	86424 <__sflush_r+0xc0>
   86448:	f9b5 200c 	ldrsh.w	r2, [r5, #12]
   8644c:	6929      	ldr	r1, [r5, #16]
   8644e:	f422 6200 	bic.w	r2, r2, #2048	; 0x800
   86452:	81aa      	strh	r2, [r5, #12]
   86454:	04d2      	lsls	r2, r2, #19
   86456:	606b      	str	r3, [r5, #4]
   86458:	6029      	str	r1, [r5, #0]
   8645a:	d5b8      	bpl.n	863ce <__sflush_r+0x6a>
   8645c:	2c00      	cmp	r4, #0
   8645e:	d1b6      	bne.n	863ce <__sflush_r+0x6a>
   86460:	6528      	str	r0, [r5, #80]	; 0x50
   86462:	e7b4      	b.n	863ce <__sflush_r+0x6a>
   86464:	6bea      	ldr	r2, [r5, #60]	; 0x3c
   86466:	2a00      	cmp	r2, #0
   86468:	dc8b      	bgt.n	86382 <__sflush_r+0x1e>
   8646a:	e7d8      	b.n	8641e <__sflush_r+0xba>
   8646c:	2301      	movs	r3, #1
   8646e:	69e9      	ldr	r1, [r5, #28]
   86470:	4640      	mov	r0, r8
   86472:	47a0      	blx	r4
   86474:	1c43      	adds	r3, r0, #1
   86476:	4602      	mov	r2, r0
   86478:	d002      	beq.n	86480 <__sflush_r+0x11c>
   8647a:	89ab      	ldrh	r3, [r5, #12]
   8647c:	6aac      	ldr	r4, [r5, #40]	; 0x28
   8647e:	e78d      	b.n	8639c <__sflush_r+0x38>
   86480:	f8d8 3000 	ldr.w	r3, [r8]
   86484:	2b00      	cmp	r3, #0
   86486:	d0f8      	beq.n	8647a <__sflush_r+0x116>
   86488:	2b1d      	cmp	r3, #29
   8648a:	d001      	beq.n	86490 <__sflush_r+0x12c>
   8648c:	2b16      	cmp	r3, #22
   8648e:	d1c9      	bne.n	86424 <__sflush_r+0xc0>
   86490:	f8c8 6000 	str.w	r6, [r8]
   86494:	e7c3      	b.n	8641e <__sflush_r+0xba>
   86496:	bf00      	nop
   86498:	20400001 	.word	0x20400001

0008649c <_fflush_r>:
   8649c:	b538      	push	{r3, r4, r5, lr}
   8649e:	460d      	mov	r5, r1
   864a0:	4604      	mov	r4, r0
   864a2:	b108      	cbz	r0, 864a8 <_fflush_r+0xc>
   864a4:	6b83      	ldr	r3, [r0, #56]	; 0x38
   864a6:	b1bb      	cbz	r3, 864d8 <_fflush_r+0x3c>
   864a8:	f9b5 000c 	ldrsh.w	r0, [r5, #12]
   864ac:	b188      	cbz	r0, 864d2 <_fflush_r+0x36>
   864ae:	6e6b      	ldr	r3, [r5, #100]	; 0x64
   864b0:	07db      	lsls	r3, r3, #31
   864b2:	d401      	bmi.n	864b8 <_fflush_r+0x1c>
   864b4:	0581      	lsls	r1, r0, #22
   864b6:	d517      	bpl.n	864e8 <_fflush_r+0x4c>
   864b8:	4620      	mov	r0, r4
   864ba:	4629      	mov	r1, r5
   864bc:	f7ff ff52 	bl	86364 <__sflush_r>
   864c0:	6e6b      	ldr	r3, [r5, #100]	; 0x64
   864c2:	4604      	mov	r4, r0
   864c4:	07da      	lsls	r2, r3, #31
   864c6:	d402      	bmi.n	864ce <_fflush_r+0x32>
   864c8:	89ab      	ldrh	r3, [r5, #12]
   864ca:	059b      	lsls	r3, r3, #22
   864cc:	d507      	bpl.n	864de <_fflush_r+0x42>
   864ce:	4620      	mov	r0, r4
   864d0:	bd38      	pop	{r3, r4, r5, pc}
   864d2:	4604      	mov	r4, r0
   864d4:	4620      	mov	r0, r4
   864d6:	bd38      	pop	{r3, r4, r5, pc}
   864d8:	f000 f838 	bl	8654c <__sinit>
   864dc:	e7e4      	b.n	864a8 <_fflush_r+0xc>
   864de:	6da8      	ldr	r0, [r5, #88]	; 0x58
   864e0:	f000 fbf6 	bl	86cd0 <__retarget_lock_release_recursive>
   864e4:	4620      	mov	r0, r4
   864e6:	bd38      	pop	{r3, r4, r5, pc}
   864e8:	6da8      	ldr	r0, [r5, #88]	; 0x58
   864ea:	f000 fbef 	bl	86ccc <__retarget_lock_acquire_recursive>
   864ee:	e7e3      	b.n	864b8 <_fflush_r+0x1c>

000864f0 <_cleanup_r>:
   864f0:	4901      	ldr	r1, [pc, #4]	; (864f8 <_cleanup_r+0x8>)
   864f2:	f000 bbb1 	b.w	86c58 <_fwalk_reent>
   864f6:	bf00      	nop
   864f8:	00087af9 	.word	0x00087af9

000864fc <std.isra.0>:
   864fc:	2300      	movs	r3, #0
   864fe:	b510      	push	{r4, lr}
   86500:	4604      	mov	r4, r0
   86502:	8181      	strh	r1, [r0, #12]
   86504:	81c2      	strh	r2, [r0, #14]
   86506:	6003      	str	r3, [r0, #0]
   86508:	6043      	str	r3, [r0, #4]
   8650a:	6083      	str	r3, [r0, #8]
   8650c:	6643      	str	r3, [r0, #100]	; 0x64
   8650e:	6103      	str	r3, [r0, #16]
   86510:	6143      	str	r3, [r0, #20]
   86512:	6183      	str	r3, [r0, #24]
   86514:	4619      	mov	r1, r3
   86516:	2208      	movs	r2, #8
   86518:	305c      	adds	r0, #92	; 0x5c
   8651a:	f7fe fe69 	bl	851f0 <memset>
   8651e:	4807      	ldr	r0, [pc, #28]	; (8653c <std.isra.0+0x40>)
   86520:	4907      	ldr	r1, [pc, #28]	; (86540 <std.isra.0+0x44>)
   86522:	4a08      	ldr	r2, [pc, #32]	; (86544 <std.isra.0+0x48>)
   86524:	4b08      	ldr	r3, [pc, #32]	; (86548 <std.isra.0+0x4c>)
   86526:	6220      	str	r0, [r4, #32]
   86528:	61e4      	str	r4, [r4, #28]
   8652a:	6261      	str	r1, [r4, #36]	; 0x24
   8652c:	62a2      	str	r2, [r4, #40]	; 0x28
   8652e:	62e3      	str	r3, [r4, #44]	; 0x2c
   86530:	f104 0058 	add.w	r0, r4, #88	; 0x58
   86534:	e8bd 4010 	ldmia.w	sp!, {r4, lr}
   86538:	f000 bbc4 	b.w	86cc4 <__retarget_lock_init_recursive>
   8653c:	00087841 	.word	0x00087841
   86540:	00087865 	.word	0x00087865
   86544:	000878a1 	.word	0x000878a1
   86548:	000878c1 	.word	0x000878c1

0008654c <__sinit>:
   8654c:	b510      	push	{r4, lr}
   8654e:	4604      	mov	r4, r0
   86550:	4814      	ldr	r0, [pc, #80]	; (865a4 <__sinit+0x58>)
   86552:	f000 fbbb 	bl	86ccc <__retarget_lock_acquire_recursive>
   86556:	6ba2      	ldr	r2, [r4, #56]	; 0x38
   86558:	b9fa      	cbnz	r2, 8659a <__sinit+0x4e>
   8655a:	2003      	movs	r0, #3
   8655c:	4912      	ldr	r1, [pc, #72]	; (865a8 <__sinit+0x5c>)
   8655e:	f504 733b 	add.w	r3, r4, #748	; 0x2ec
   86562:	f8c4 32e8 	str.w	r3, [r4, #744]	; 0x2e8
   86566:	f8c4 22e0 	str.w	r2, [r4, #736]	; 0x2e0
   8656a:	f8c4 02e4 	str.w	r0, [r4, #740]	; 0x2e4
   8656e:	63e1      	str	r1, [r4, #60]	; 0x3c
   86570:	6860      	ldr	r0, [r4, #4]
   86572:	2104      	movs	r1, #4
   86574:	f7ff ffc2 	bl	864fc <std.isra.0>
   86578:	68a0      	ldr	r0, [r4, #8]
   8657a:	2201      	movs	r2, #1
   8657c:	2109      	movs	r1, #9
   8657e:	f7ff ffbd 	bl	864fc <std.isra.0>
   86582:	68e0      	ldr	r0, [r4, #12]
   86584:	2202      	movs	r2, #2
   86586:	2112      	movs	r1, #18
   86588:	f7ff ffb8 	bl	864fc <std.isra.0>
   8658c:	2301      	movs	r3, #1
   8658e:	4805      	ldr	r0, [pc, #20]	; (865a4 <__sinit+0x58>)
   86590:	63a3      	str	r3, [r4, #56]	; 0x38
   86592:	e8bd 4010 	ldmia.w	sp!, {r4, lr}
   86596:	f000 bb9b 	b.w	86cd0 <__retarget_lock_release_recursive>
   8659a:	4802      	ldr	r0, [pc, #8]	; (865a4 <__sinit+0x58>)
   8659c:	e8bd 4010 	ldmia.w	sp!, {r4, lr}
   865a0:	f000 bb96 	b.w	86cd0 <__retarget_lock_release_recursive>
   865a4:	2007ae5c 	.word	0x2007ae5c
   865a8:	000864f1 	.word	0x000864f1

000865ac <__sfp_lock_acquire>:
   865ac:	4801      	ldr	r0, [pc, #4]	; (865b4 <__sfp_lock_acquire+0x8>)
   865ae:	f000 bb8d 	b.w	86ccc <__retarget_lock_acquire_recursive>
   865b2:	bf00      	nop
   865b4:	2007ae70 	.word	0x2007ae70

000865b8 <__sfp_lock_release>:
   865b8:	4801      	ldr	r0, [pc, #4]	; (865c0 <__sfp_lock_release+0x8>)
   865ba:	f000 bb89 	b.w	86cd0 <__retarget_lock_release_recursive>
   865be:	bf00      	nop
   865c0:	2007ae70 	.word	0x2007ae70

000865c4 <__libc_fini_array>:
   865c4:	b538      	push	{r3, r4, r5, lr}
   865c6:	4c0a      	ldr	r4, [pc, #40]	; (865f0 <__libc_fini_array+0x2c>)
   865c8:	4d0a      	ldr	r5, [pc, #40]	; (865f4 <__libc_fini_array+0x30>)
   865ca:	1b64      	subs	r4, r4, r5
   865cc:	10a4      	asrs	r4, r4, #2
   865ce:	d00a      	beq.n	865e6 <__libc_fini_array+0x22>
   865d0:	f104 4380 	add.w	r3, r4, #1073741824	; 0x40000000
   865d4:	3b01      	subs	r3, #1
   865d6:	eb05 0583 	add.w	r5, r5, r3, lsl #2
   865da:	3c01      	subs	r4, #1
   865dc:	f855 3904 	ldr.w	r3, [r5], #-4
   865e0:	4798      	blx	r3
   865e2:	2c00      	cmp	r4, #0
   865e4:	d1f9      	bne.n	865da <__libc_fini_array+0x16>
   865e6:	e8bd 4038 	ldmia.w	sp!, {r3, r4, r5, lr}
   865ea:	f002 b867 	b.w	886bc <_fini>
   865ee:	bf00      	nop
   865f0:	000886cc 	.word	0x000886cc
   865f4:	000886c8 	.word	0x000886c8

000865f8 <__fputwc>:
   865f8:	e92d 43f0 	stmdb	sp!, {r4, r5, r6, r7, r8, r9, lr}
   865fc:	b083      	sub	sp, #12
   865fe:	4607      	mov	r7, r0
   86600:	4688      	mov	r8, r1
   86602:	4614      	mov	r4, r2
   86604:	f000 fb50 	bl	86ca8 <__locale_mb_cur_max>
   86608:	2801      	cmp	r0, #1
   8660a:	d033      	beq.n	86674 <__fputwc+0x7c>
   8660c:	4642      	mov	r2, r8
   8660e:	f104 035c 	add.w	r3, r4, #92	; 0x5c
   86612:	a901      	add	r1, sp, #4
   86614:	4638      	mov	r0, r7
   86616:	f001 f9af 	bl	87978 <_wcrtomb_r>
   8661a:	1c42      	adds	r2, r0, #1
   8661c:	4606      	mov	r6, r0
   8661e:	d022      	beq.n	86666 <__fputwc+0x6e>
   86620:	b390      	cbz	r0, 86688 <__fputwc+0x90>
   86622:	f89d 1004 	ldrb.w	r1, [sp, #4]
   86626:	2500      	movs	r5, #0
   86628:	f10d 0904 	add.w	r9, sp, #4
   8662c:	e008      	b.n	86640 <__fputwc+0x48>
   8662e:	6823      	ldr	r3, [r4, #0]
   86630:	1c5a      	adds	r2, r3, #1
   86632:	6022      	str	r2, [r4, #0]
   86634:	7019      	strb	r1, [r3, #0]
   86636:	3501      	adds	r5, #1
   86638:	42b5      	cmp	r5, r6
   8663a:	d225      	bcs.n	86688 <__fputwc+0x90>
   8663c:	f815 1009 	ldrb.w	r1, [r5, r9]
   86640:	68a3      	ldr	r3, [r4, #8]
   86642:	3b01      	subs	r3, #1
   86644:	2b00      	cmp	r3, #0
   86646:	60a3      	str	r3, [r4, #8]
   86648:	daf1      	bge.n	8662e <__fputwc+0x36>
   8664a:	69a2      	ldr	r2, [r4, #24]
   8664c:	4293      	cmp	r3, r2
   8664e:	db01      	blt.n	86654 <__fputwc+0x5c>
   86650:	290a      	cmp	r1, #10
   86652:	d1ec      	bne.n	8662e <__fputwc+0x36>
   86654:	4622      	mov	r2, r4
   86656:	4638      	mov	r0, r7
   86658:	f001 f936 	bl	878c8 <__swbuf_r>
   8665c:	1c43      	adds	r3, r0, #1
   8665e:	d1ea      	bne.n	86636 <__fputwc+0x3e>
   86660:	b003      	add	sp, #12
   86662:	e8bd 83f0 	ldmia.w	sp!, {r4, r5, r6, r7, r8, r9, pc}
   86666:	89a3      	ldrh	r3, [r4, #12]
   86668:	f043 0340 	orr.w	r3, r3, #64	; 0x40
   8666c:	81a3      	strh	r3, [r4, #12]
   8666e:	b003      	add	sp, #12
   86670:	e8bd 83f0 	ldmia.w	sp!, {r4, r5, r6, r7, r8, r9, pc}
   86674:	f108 33ff 	add.w	r3, r8, #4294967295
   86678:	2bfe      	cmp	r3, #254	; 0xfe
   8667a:	d8c7      	bhi.n	8660c <__fputwc+0x14>
   8667c:	fa5f f188 	uxtb.w	r1, r8
   86680:	4606      	mov	r6, r0
   86682:	f88d 1004 	strb.w	r1, [sp, #4]
   86686:	e7ce      	b.n	86626 <__fputwc+0x2e>
   86688:	4640      	mov	r0, r8
   8668a:	b003      	add	sp, #12
   8668c:	e8bd 83f0 	ldmia.w	sp!, {r4, r5, r6, r7, r8, r9, pc}

00086690 <_fputwc_r>:
   86690:	b530      	push	{r4, r5, lr}
   86692:	6e53      	ldr	r3, [r2, #100]	; 0x64
   86694:	4614      	mov	r4, r2
   86696:	f013 0f01 	tst.w	r3, #1
   8669a:	f9b2 300c 	ldrsh.w	r3, [r2, #12]
   8669e:	b083      	sub	sp, #12
   866a0:	4605      	mov	r5, r0
   866a2:	b29a      	uxth	r2, r3
   866a4:	d101      	bne.n	866aa <_fputwc_r+0x1a>
   866a6:	0590      	lsls	r0, r2, #22
   866a8:	d51c      	bpl.n	866e4 <_fputwc_r+0x54>
   866aa:	0490      	lsls	r0, r2, #18
   866ac:	d406      	bmi.n	866bc <_fputwc_r+0x2c>
   866ae:	6e62      	ldr	r2, [r4, #100]	; 0x64
   866b0:	f443 5300 	orr.w	r3, r3, #8192	; 0x2000
   866b4:	f442 5200 	orr.w	r2, r2, #8192	; 0x2000
   866b8:	81a3      	strh	r3, [r4, #12]
   866ba:	6662      	str	r2, [r4, #100]	; 0x64
   866bc:	4628      	mov	r0, r5
   866be:	4622      	mov	r2, r4
   866c0:	f7ff ff9a 	bl	865f8 <__fputwc>
   866c4:	6e63      	ldr	r3, [r4, #100]	; 0x64
   866c6:	4605      	mov	r5, r0
   866c8:	07da      	lsls	r2, r3, #31
   866ca:	d402      	bmi.n	866d2 <_fputwc_r+0x42>
   866cc:	89a3      	ldrh	r3, [r4, #12]
   866ce:	059b      	lsls	r3, r3, #22
   866d0:	d502      	bpl.n	866d8 <_fputwc_r+0x48>
   866d2:	4628      	mov	r0, r5
   866d4:	b003      	add	sp, #12
   866d6:	bd30      	pop	{r4, r5, pc}
   866d8:	6da0      	ldr	r0, [r4, #88]	; 0x58
   866da:	f000 faf9 	bl	86cd0 <__retarget_lock_release_recursive>
   866de:	4628      	mov	r0, r5
   866e0:	b003      	add	sp, #12
   866e2:	bd30      	pop	{r4, r5, pc}
   866e4:	6da0      	ldr	r0, [r4, #88]	; 0x58
   866e6:	9101      	str	r1, [sp, #4]
   866e8:	f000 faf0 	bl	86ccc <__retarget_lock_acquire_recursive>
   866ec:	f9b4 300c 	ldrsh.w	r3, [r4, #12]
   866f0:	9901      	ldr	r1, [sp, #4]
   866f2:	b29a      	uxth	r2, r3
   866f4:	e7d9      	b.n	866aa <_fputwc_r+0x1a>
   866f6:	bf00      	nop

000866f8 <_malloc_trim_r>:
   866f8:	b5f8      	push	{r3, r4, r5, r6, r7, lr}
   866fa:	460c      	mov	r4, r1
   866fc:	4f23      	ldr	r7, [pc, #140]	; (8678c <_malloc_trim_r+0x94>)
   866fe:	4606      	mov	r6, r0
   86700:	f000 feca 	bl	87498 <__malloc_lock>
   86704:	68bb      	ldr	r3, [r7, #8]
   86706:	f5c4 617e 	rsb	r1, r4, #4064	; 0xfe0
   8670a:	685d      	ldr	r5, [r3, #4]
   8670c:	310f      	adds	r1, #15
   8670e:	f025 0503 	bic.w	r5, r5, #3
   86712:	4429      	add	r1, r5
   86714:	f421 617f 	bic.w	r1, r1, #4080	; 0xff0
   86718:	f021 010f 	bic.w	r1, r1, #15
   8671c:	f5a1 5480 	sub.w	r4, r1, #4096	; 0x1000
   86720:	f5b4 5f80 	cmp.w	r4, #4096	; 0x1000
   86724:	db07      	blt.n	86736 <_malloc_trim_r+0x3e>
   86726:	2100      	movs	r1, #0
   86728:	4630      	mov	r0, r6
   8672a:	f001 f877 	bl	8781c <_sbrk_r>
   8672e:	68bb      	ldr	r3, [r7, #8]
   86730:	442b      	add	r3, r5
   86732:	4298      	cmp	r0, r3
   86734:	d004      	beq.n	86740 <_malloc_trim_r+0x48>
   86736:	4630      	mov	r0, r6
   86738:	f000 feb4 	bl	874a4 <__malloc_unlock>
   8673c:	2000      	movs	r0, #0
   8673e:	bdf8      	pop	{r3, r4, r5, r6, r7, pc}
   86740:	4261      	negs	r1, r4
   86742:	4630      	mov	r0, r6
   86744:	f001 f86a 	bl	8781c <_sbrk_r>
   86748:	3001      	adds	r0, #1
   8674a:	d00d      	beq.n	86768 <_malloc_trim_r+0x70>
   8674c:	4b10      	ldr	r3, [pc, #64]	; (86790 <_malloc_trim_r+0x98>)
   8674e:	68ba      	ldr	r2, [r7, #8]
   86750:	6819      	ldr	r1, [r3, #0]
   86752:	1b2d      	subs	r5, r5, r4
   86754:	f045 0501 	orr.w	r5, r5, #1
   86758:	4630      	mov	r0, r6
   8675a:	1b09      	subs	r1, r1, r4
   8675c:	6055      	str	r5, [r2, #4]
   8675e:	6019      	str	r1, [r3, #0]
   86760:	f000 fea0 	bl	874a4 <__malloc_unlock>
   86764:	2001      	movs	r0, #1
   86766:	bdf8      	pop	{r3, r4, r5, r6, r7, pc}
   86768:	2100      	movs	r1, #0
   8676a:	4630      	mov	r0, r6
   8676c:	f001 f856 	bl	8781c <_sbrk_r>
   86770:	68ba      	ldr	r2, [r7, #8]
   86772:	1a83      	subs	r3, r0, r2
   86774:	2b0f      	cmp	r3, #15
   86776:	ddde      	ble.n	86736 <_malloc_trim_r+0x3e>
   86778:	4c06      	ldr	r4, [pc, #24]	; (86794 <_malloc_trim_r+0x9c>)
   8677a:	4905      	ldr	r1, [pc, #20]	; (86790 <_malloc_trim_r+0x98>)
   8677c:	6824      	ldr	r4, [r4, #0]
   8677e:	f043 0301 	orr.w	r3, r3, #1
   86782:	1b00      	subs	r0, r0, r4
   86784:	6053      	str	r3, [r2, #4]
   86786:	6008      	str	r0, [r1, #0]
   86788:	e7d5      	b.n	86736 <_malloc_trim_r+0x3e>
   8678a:	bf00      	nop
   8678c:	20070710 	.word	0x20070710
   86790:	2007ade8 	.word	0x2007ade8
   86794:	20070b18 	.word	0x20070b18

00086798 <_free_r>:
   86798:	2900      	cmp	r1, #0
   8679a:	d044      	beq.n	86826 <_free_r+0x8e>
   8679c:	e92d 41f0 	stmdb	sp!, {r4, r5, r6, r7, r8, lr}
   867a0:	460d      	mov	r5, r1
   867a2:	4680      	mov	r8, r0
   867a4:	f000 fe78 	bl	87498 <__malloc_lock>
   867a8:	f855 7c04 	ldr.w	r7, [r5, #-4]
   867ac:	4969      	ldr	r1, [pc, #420]	; (86954 <_free_r+0x1bc>)
   867ae:	f1a5 0408 	sub.w	r4, r5, #8
   867b2:	f027 0301 	bic.w	r3, r7, #1
   867b6:	18e2      	adds	r2, r4, r3
   867b8:	688e      	ldr	r6, [r1, #8]
   867ba:	6850      	ldr	r0, [r2, #4]
   867bc:	42b2      	cmp	r2, r6
   867be:	f020 0003 	bic.w	r0, r0, #3
   867c2:	d05e      	beq.n	86882 <_free_r+0xea>
   867c4:	07fe      	lsls	r6, r7, #31
   867c6:	6050      	str	r0, [r2, #4]
   867c8:	d40b      	bmi.n	867e2 <_free_r+0x4a>
   867ca:	f855 7c08 	ldr.w	r7, [r5, #-8]
   867ce:	f101 0e08 	add.w	lr, r1, #8
   867d2:	1be4      	subs	r4, r4, r7
   867d4:	68a5      	ldr	r5, [r4, #8]
   867d6:	443b      	add	r3, r7
   867d8:	4575      	cmp	r5, lr
   867da:	d06d      	beq.n	868b8 <_free_r+0x120>
   867dc:	68e7      	ldr	r7, [r4, #12]
   867de:	60ef      	str	r7, [r5, #12]
   867e0:	60bd      	str	r5, [r7, #8]
   867e2:	1815      	adds	r5, r2, r0
   867e4:	686d      	ldr	r5, [r5, #4]
   867e6:	07ed      	lsls	r5, r5, #31
   867e8:	d53e      	bpl.n	86868 <_free_r+0xd0>
   867ea:	f043 0201 	orr.w	r2, r3, #1
   867ee:	6062      	str	r2, [r4, #4]
   867f0:	50e3      	str	r3, [r4, r3]
   867f2:	f5b3 7f00 	cmp.w	r3, #512	; 0x200
   867f6:	d217      	bcs.n	86828 <_free_r+0x90>
   867f8:	2201      	movs	r2, #1
   867fa:	08db      	lsrs	r3, r3, #3
   867fc:	1098      	asrs	r0, r3, #2
   867fe:	684d      	ldr	r5, [r1, #4]
   86800:	4413      	add	r3, r2
   86802:	f851 7033 	ldr.w	r7, [r1, r3, lsl #3]
   86806:	4082      	lsls	r2, r0
   86808:	eb01 00c3 	add.w	r0, r1, r3, lsl #3
   8680c:	432a      	orrs	r2, r5
   8680e:	3808      	subs	r0, #8
   86810:	60e0      	str	r0, [r4, #12]
   86812:	60a7      	str	r7, [r4, #8]
   86814:	604a      	str	r2, [r1, #4]
   86816:	f841 4033 	str.w	r4, [r1, r3, lsl #3]
   8681a:	60fc      	str	r4, [r7, #12]
   8681c:	4640      	mov	r0, r8
   8681e:	e8bd 41f0 	ldmia.w	sp!, {r4, r5, r6, r7, r8, lr}
   86822:	f000 be3f 	b.w	874a4 <__malloc_unlock>
   86826:	4770      	bx	lr
   86828:	0a5a      	lsrs	r2, r3, #9
   8682a:	2a04      	cmp	r2, #4
   8682c:	d852      	bhi.n	868d4 <_free_r+0x13c>
   8682e:	099a      	lsrs	r2, r3, #6
   86830:	f102 0739 	add.w	r7, r2, #57	; 0x39
   86834:	00ff      	lsls	r7, r7, #3
   86836:	f102 0538 	add.w	r5, r2, #56	; 0x38
   8683a:	19c8      	adds	r0, r1, r7
   8683c:	59ca      	ldr	r2, [r1, r7]
   8683e:	3808      	subs	r0, #8
   86840:	4290      	cmp	r0, r2
   86842:	d04f      	beq.n	868e4 <_free_r+0x14c>
   86844:	6851      	ldr	r1, [r2, #4]
   86846:	f021 0103 	bic.w	r1, r1, #3
   8684a:	428b      	cmp	r3, r1
   8684c:	d232      	bcs.n	868b4 <_free_r+0x11c>
   8684e:	6892      	ldr	r2, [r2, #8]
   86850:	4290      	cmp	r0, r2
   86852:	d1f7      	bne.n	86844 <_free_r+0xac>
   86854:	68c3      	ldr	r3, [r0, #12]
   86856:	60a0      	str	r0, [r4, #8]
   86858:	60e3      	str	r3, [r4, #12]
   8685a:	609c      	str	r4, [r3, #8]
   8685c:	60c4      	str	r4, [r0, #12]
   8685e:	4640      	mov	r0, r8
   86860:	e8bd 41f0 	ldmia.w	sp!, {r4, r5, r6, r7, r8, lr}
   86864:	f000 be1e 	b.w	874a4 <__malloc_unlock>
   86868:	6895      	ldr	r5, [r2, #8]
   8686a:	4f3b      	ldr	r7, [pc, #236]	; (86958 <_free_r+0x1c0>)
   8686c:	4403      	add	r3, r0
   8686e:	42bd      	cmp	r5, r7
   86870:	d040      	beq.n	868f4 <_free_r+0x15c>
   86872:	68d0      	ldr	r0, [r2, #12]
   86874:	f043 0201 	orr.w	r2, r3, #1
   86878:	60e8      	str	r0, [r5, #12]
   8687a:	6085      	str	r5, [r0, #8]
   8687c:	6062      	str	r2, [r4, #4]
   8687e:	50e3      	str	r3, [r4, r3]
   86880:	e7b7      	b.n	867f2 <_free_r+0x5a>
   86882:	07ff      	lsls	r7, r7, #31
   86884:	4403      	add	r3, r0
   86886:	d407      	bmi.n	86898 <_free_r+0x100>
   86888:	f855 5c08 	ldr.w	r5, [r5, #-8]
   8688c:	1b64      	subs	r4, r4, r5
   8688e:	68e2      	ldr	r2, [r4, #12]
   86890:	68a0      	ldr	r0, [r4, #8]
   86892:	442b      	add	r3, r5
   86894:	60c2      	str	r2, [r0, #12]
   86896:	6090      	str	r0, [r2, #8]
   86898:	4a30      	ldr	r2, [pc, #192]	; (8695c <_free_r+0x1c4>)
   8689a:	f043 0001 	orr.w	r0, r3, #1
   8689e:	6812      	ldr	r2, [r2, #0]
   868a0:	6060      	str	r0, [r4, #4]
   868a2:	4293      	cmp	r3, r2
   868a4:	608c      	str	r4, [r1, #8]
   868a6:	d3b9      	bcc.n	8681c <_free_r+0x84>
   868a8:	4b2d      	ldr	r3, [pc, #180]	; (86960 <_free_r+0x1c8>)
   868aa:	4640      	mov	r0, r8
   868ac:	6819      	ldr	r1, [r3, #0]
   868ae:	f7ff ff23 	bl	866f8 <_malloc_trim_r>
   868b2:	e7b3      	b.n	8681c <_free_r+0x84>
   868b4:	4610      	mov	r0, r2
   868b6:	e7cd      	b.n	86854 <_free_r+0xbc>
   868b8:	1811      	adds	r1, r2, r0
   868ba:	6849      	ldr	r1, [r1, #4]
   868bc:	07c9      	lsls	r1, r1, #31
   868be:	d444      	bmi.n	8694a <_free_r+0x1b2>
   868c0:	6891      	ldr	r1, [r2, #8]
   868c2:	4403      	add	r3, r0
   868c4:	68d2      	ldr	r2, [r2, #12]
   868c6:	f043 0001 	orr.w	r0, r3, #1
   868ca:	60ca      	str	r2, [r1, #12]
   868cc:	6091      	str	r1, [r2, #8]
   868ce:	6060      	str	r0, [r4, #4]
   868d0:	50e3      	str	r3, [r4, r3]
   868d2:	e7a3      	b.n	8681c <_free_r+0x84>
   868d4:	2a14      	cmp	r2, #20
   868d6:	d816      	bhi.n	86906 <_free_r+0x16e>
   868d8:	f102 075c 	add.w	r7, r2, #92	; 0x5c
   868dc:	00ff      	lsls	r7, r7, #3
   868de:	f102 055b 	add.w	r5, r2, #91	; 0x5b
   868e2:	e7aa      	b.n	8683a <_free_r+0xa2>
   868e4:	2301      	movs	r3, #1
   868e6:	10aa      	asrs	r2, r5, #2
   868e8:	684d      	ldr	r5, [r1, #4]
   868ea:	4093      	lsls	r3, r2
   868ec:	432b      	orrs	r3, r5
   868ee:	604b      	str	r3, [r1, #4]
   868f0:	4603      	mov	r3, r0
   868f2:	e7b0      	b.n	86856 <_free_r+0xbe>
   868f4:	f043 0201 	orr.w	r2, r3, #1
   868f8:	614c      	str	r4, [r1, #20]
   868fa:	610c      	str	r4, [r1, #16]
   868fc:	60e5      	str	r5, [r4, #12]
   868fe:	60a5      	str	r5, [r4, #8]
   86900:	6062      	str	r2, [r4, #4]
   86902:	50e3      	str	r3, [r4, r3]
   86904:	e78a      	b.n	8681c <_free_r+0x84>
   86906:	2a54      	cmp	r2, #84	; 0x54
   86908:	d806      	bhi.n	86918 <_free_r+0x180>
   8690a:	0b1a      	lsrs	r2, r3, #12
   8690c:	f102 076f 	add.w	r7, r2, #111	; 0x6f
   86910:	00ff      	lsls	r7, r7, #3
   86912:	f102 056e 	add.w	r5, r2, #110	; 0x6e
   86916:	e790      	b.n	8683a <_free_r+0xa2>
   86918:	f5b2 7faa 	cmp.w	r2, #340	; 0x154
   8691c:	d806      	bhi.n	8692c <_free_r+0x194>
   8691e:	0bda      	lsrs	r2, r3, #15
   86920:	f102 0778 	add.w	r7, r2, #120	; 0x78
   86924:	00ff      	lsls	r7, r7, #3
   86926:	f102 0577 	add.w	r5, r2, #119	; 0x77
   8692a:	e786      	b.n	8683a <_free_r+0xa2>
   8692c:	f240 5054 	movw	r0, #1364	; 0x554
   86930:	4282      	cmp	r2, r0
   86932:	d806      	bhi.n	86942 <_free_r+0x1aa>
   86934:	0c9a      	lsrs	r2, r3, #18
   86936:	f102 077d 	add.w	r7, r2, #125	; 0x7d
   8693a:	00ff      	lsls	r7, r7, #3
   8693c:	f102 057c 	add.w	r5, r2, #124	; 0x7c
   86940:	e77b      	b.n	8683a <_free_r+0xa2>
   86942:	f44f 777e 	mov.w	r7, #1016	; 0x3f8
   86946:	257e      	movs	r5, #126	; 0x7e
   86948:	e777      	b.n	8683a <_free_r+0xa2>
   8694a:	f043 0101 	orr.w	r1, r3, #1
   8694e:	6061      	str	r1, [r4, #4]
   86950:	6013      	str	r3, [r2, #0]
   86952:	e763      	b.n	8681c <_free_r+0x84>
   86954:	20070710 	.word	0x20070710
   86958:	20070718 	.word	0x20070718
   8695c:	20070b1c 	.word	0x20070b1c
   86960:	2007ae18 	.word	0x2007ae18

00086964 <__sfvwrite_r>:
   86964:	6893      	ldr	r3, [r2, #8]
   86966:	2b00      	cmp	r3, #0
   86968:	d071      	beq.n	86a4e <__sfvwrite_r+0xea>
   8696a:	e92d 4ff0 	stmdb	sp!, {r4, r5, r6, r7, r8, r9, sl, fp, lr}
   8696e:	898b      	ldrh	r3, [r1, #12]
   86970:	b083      	sub	sp, #12
   86972:	460c      	mov	r4, r1
   86974:	0719      	lsls	r1, r3, #28
   86976:	9000      	str	r0, [sp, #0]
   86978:	4616      	mov	r6, r2
   8697a:	d525      	bpl.n	869c8 <__sfvwrite_r+0x64>
   8697c:	6922      	ldr	r2, [r4, #16]
   8697e:	b31a      	cbz	r2, 869c8 <__sfvwrite_r+0x64>
   86980:	f013 0002 	ands.w	r0, r3, #2
   86984:	6835      	ldr	r5, [r6, #0]
   86986:	d02b      	beq.n	869e0 <__sfvwrite_r+0x7c>
   86988:	f04f 0900 	mov.w	r9, #0
   8698c:	46b0      	mov	r8, r6
   8698e:	464f      	mov	r7, r9
   86990:	f8df a2c0 	ldr.w	sl, [pc, #704]	; 86c54 <__sfvwrite_r+0x2f0>
   86994:	2f00      	cmp	r7, #0
   86996:	d055      	beq.n	86a44 <__sfvwrite_r+0xe0>
   86998:	4557      	cmp	r7, sl
   8699a:	463b      	mov	r3, r7
   8699c:	464a      	mov	r2, r9
   8699e:	bf28      	it	cs
   869a0:	4653      	movcs	r3, sl
   869a2:	69e1      	ldr	r1, [r4, #28]
   869a4:	9800      	ldr	r0, [sp, #0]
   869a6:	6a66      	ldr	r6, [r4, #36]	; 0x24
   869a8:	47b0      	blx	r6
   869aa:	2800      	cmp	r0, #0
   869ac:	dd56      	ble.n	86a5c <__sfvwrite_r+0xf8>
   869ae:	f8d8 3008 	ldr.w	r3, [r8, #8]
   869b2:	4481      	add	r9, r0
   869b4:	1a1b      	subs	r3, r3, r0
   869b6:	1a3f      	subs	r7, r7, r0
   869b8:	f8c8 3008 	str.w	r3, [r8, #8]
   869bc:	2b00      	cmp	r3, #0
   869be:	d1e9      	bne.n	86994 <__sfvwrite_r+0x30>
   869c0:	2000      	movs	r0, #0
   869c2:	b003      	add	sp, #12
   869c4:	e8bd 8ff0 	ldmia.w	sp!, {r4, r5, r6, r7, r8, r9, sl, fp, pc}
   869c8:	4621      	mov	r1, r4
   869ca:	9800      	ldr	r0, [sp, #0]
   869cc:	f7ff fc56 	bl	8627c <__swsetup_r>
   869d0:	2800      	cmp	r0, #0
   869d2:	f040 8135 	bne.w	86c40 <__sfvwrite_r+0x2dc>
   869d6:	89a3      	ldrh	r3, [r4, #12]
   869d8:	6835      	ldr	r5, [r6, #0]
   869da:	f013 0002 	ands.w	r0, r3, #2
   869de:	d1d3      	bne.n	86988 <__sfvwrite_r+0x24>
   869e0:	f013 0901 	ands.w	r9, r3, #1
   869e4:	d144      	bne.n	86a70 <__sfvwrite_r+0x10c>
   869e6:	464f      	mov	r7, r9
   869e8:	9601      	str	r6, [sp, #4]
   869ea:	b337      	cbz	r7, 86a3a <__sfvwrite_r+0xd6>
   869ec:	059a      	lsls	r2, r3, #22
   869ee:	f8d4 8008 	ldr.w	r8, [r4, #8]
   869f2:	f140 8085 	bpl.w	86b00 <__sfvwrite_r+0x19c>
   869f6:	4547      	cmp	r7, r8
   869f8:	46c3      	mov	fp, r8
   869fa:	f0c0 80ad 	bcc.w	86b58 <__sfvwrite_r+0x1f4>
   869fe:	f413 6f90 	tst.w	r3, #1152	; 0x480
   86a02:	f040 80ae 	bne.w	86b62 <__sfvwrite_r+0x1fe>
   86a06:	46ba      	mov	sl, r7
   86a08:	6820      	ldr	r0, [r4, #0]
   86a0a:	465a      	mov	r2, fp
   86a0c:	4649      	mov	r1, r9
   86a0e:	f000 fcdf 	bl	873d0 <memmove>
   86a12:	68a2      	ldr	r2, [r4, #8]
   86a14:	6823      	ldr	r3, [r4, #0]
   86a16:	eba2 0208 	sub.w	r2, r2, r8
   86a1a:	445b      	add	r3, fp
   86a1c:	60a2      	str	r2, [r4, #8]
   86a1e:	6023      	str	r3, [r4, #0]
   86a20:	9a01      	ldr	r2, [sp, #4]
   86a22:	44d1      	add	r9, sl
   86a24:	6893      	ldr	r3, [r2, #8]
   86a26:	eba7 070a 	sub.w	r7, r7, sl
   86a2a:	eba3 030a 	sub.w	r3, r3, sl
   86a2e:	6093      	str	r3, [r2, #8]
   86a30:	2b00      	cmp	r3, #0
   86a32:	d0c5      	beq.n	869c0 <__sfvwrite_r+0x5c>
   86a34:	89a3      	ldrh	r3, [r4, #12]
   86a36:	2f00      	cmp	r7, #0
   86a38:	d1d8      	bne.n	869ec <__sfvwrite_r+0x88>
   86a3a:	f8d5 9000 	ldr.w	r9, [r5]
   86a3e:	686f      	ldr	r7, [r5, #4]
   86a40:	3508      	adds	r5, #8
   86a42:	e7d2      	b.n	869ea <__sfvwrite_r+0x86>
   86a44:	f8d5 9000 	ldr.w	r9, [r5]
   86a48:	686f      	ldr	r7, [r5, #4]
   86a4a:	3508      	adds	r5, #8
   86a4c:	e7a2      	b.n	86994 <__sfvwrite_r+0x30>
   86a4e:	2000      	movs	r0, #0
   86a50:	4770      	bx	lr
   86a52:	4621      	mov	r1, r4
   86a54:	9800      	ldr	r0, [sp, #0]
   86a56:	f7ff fd21 	bl	8649c <_fflush_r>
   86a5a:	b378      	cbz	r0, 86abc <__sfvwrite_r+0x158>
   86a5c:	f9b4 300c 	ldrsh.w	r3, [r4, #12]
   86a60:	f04f 30ff 	mov.w	r0, #4294967295
   86a64:	f043 0340 	orr.w	r3, r3, #64	; 0x40
   86a68:	81a3      	strh	r3, [r4, #12]
   86a6a:	b003      	add	sp, #12
   86a6c:	e8bd 8ff0 	ldmia.w	sp!, {r4, r5, r6, r7, r8, r9, sl, fp, pc}
   86a70:	4681      	mov	r9, r0
   86a72:	4633      	mov	r3, r6
   86a74:	464e      	mov	r6, r9
   86a76:	46a8      	mov	r8, r5
   86a78:	469a      	mov	sl, r3
   86a7a:	464d      	mov	r5, r9
   86a7c:	b356      	cbz	r6, 86ad4 <__sfvwrite_r+0x170>
   86a7e:	2800      	cmp	r0, #0
   86a80:	d032      	beq.n	86ae8 <__sfvwrite_r+0x184>
   86a82:	45b1      	cmp	r9, r6
   86a84:	46cb      	mov	fp, r9
   86a86:	bf28      	it	cs
   86a88:	46b3      	movcs	fp, r6
   86a8a:	6820      	ldr	r0, [r4, #0]
   86a8c:	6923      	ldr	r3, [r4, #16]
   86a8e:	465f      	mov	r7, fp
   86a90:	4298      	cmp	r0, r3
   86a92:	6962      	ldr	r2, [r4, #20]
   86a94:	d904      	bls.n	86aa0 <__sfvwrite_r+0x13c>
   86a96:	68a3      	ldr	r3, [r4, #8]
   86a98:	4413      	add	r3, r2
   86a9a:	459b      	cmp	fp, r3
   86a9c:	f300 80a8 	bgt.w	86bf0 <__sfvwrite_r+0x28c>
   86aa0:	4593      	cmp	fp, r2
   86aa2:	db4d      	blt.n	86b40 <__sfvwrite_r+0x1dc>
   86aa4:	4613      	mov	r3, r2
   86aa6:	6a67      	ldr	r7, [r4, #36]	; 0x24
   86aa8:	462a      	mov	r2, r5
   86aaa:	69e1      	ldr	r1, [r4, #28]
   86aac:	9800      	ldr	r0, [sp, #0]
   86aae:	47b8      	blx	r7
   86ab0:	1e07      	subs	r7, r0, #0
   86ab2:	ddd3      	ble.n	86a5c <__sfvwrite_r+0xf8>
   86ab4:	ebb9 0907 	subs.w	r9, r9, r7
   86ab8:	d0cb      	beq.n	86a52 <__sfvwrite_r+0xee>
   86aba:	2001      	movs	r0, #1
   86abc:	f8da 3008 	ldr.w	r3, [sl, #8]
   86ac0:	443d      	add	r5, r7
   86ac2:	1bdb      	subs	r3, r3, r7
   86ac4:	1bf6      	subs	r6, r6, r7
   86ac6:	f8ca 3008 	str.w	r3, [sl, #8]
   86aca:	2b00      	cmp	r3, #0
   86acc:	f43f af78 	beq.w	869c0 <__sfvwrite_r+0x5c>
   86ad0:	2e00      	cmp	r6, #0
   86ad2:	d1d4      	bne.n	86a7e <__sfvwrite_r+0x11a>
   86ad4:	f108 0308 	add.w	r3, r8, #8
   86ad8:	f853 6c04 	ldr.w	r6, [r3, #-4]
   86adc:	4698      	mov	r8, r3
   86ade:	f853 5c08 	ldr.w	r5, [r3, #-8]
   86ae2:	3308      	adds	r3, #8
   86ae4:	2e00      	cmp	r6, #0
   86ae6:	d0f7      	beq.n	86ad8 <__sfvwrite_r+0x174>
   86ae8:	4632      	mov	r2, r6
   86aea:	210a      	movs	r1, #10
   86aec:	4628      	mov	r0, r5
   86aee:	f000 fc29 	bl	87344 <memchr>
   86af2:	2800      	cmp	r0, #0
   86af4:	f000 80a1 	beq.w	86c3a <__sfvwrite_r+0x2d6>
   86af8:	3001      	adds	r0, #1
   86afa:	eba0 0905 	sub.w	r9, r0, r5
   86afe:	e7c0      	b.n	86a82 <__sfvwrite_r+0x11e>
   86b00:	6820      	ldr	r0, [r4, #0]
   86b02:	6923      	ldr	r3, [r4, #16]
   86b04:	4298      	cmp	r0, r3
   86b06:	d802      	bhi.n	86b0e <__sfvwrite_r+0x1aa>
   86b08:	6963      	ldr	r3, [r4, #20]
   86b0a:	429f      	cmp	r7, r3
   86b0c:	d25d      	bcs.n	86bca <__sfvwrite_r+0x266>
   86b0e:	45b8      	cmp	r8, r7
   86b10:	bf28      	it	cs
   86b12:	46b8      	movcs	r8, r7
   86b14:	4649      	mov	r1, r9
   86b16:	4642      	mov	r2, r8
   86b18:	f000 fc5a 	bl	873d0 <memmove>
   86b1c:	68a3      	ldr	r3, [r4, #8]
   86b1e:	6822      	ldr	r2, [r4, #0]
   86b20:	eba3 0308 	sub.w	r3, r3, r8
   86b24:	4442      	add	r2, r8
   86b26:	60a3      	str	r3, [r4, #8]
   86b28:	6022      	str	r2, [r4, #0]
   86b2a:	b10b      	cbz	r3, 86b30 <__sfvwrite_r+0x1cc>
   86b2c:	46c2      	mov	sl, r8
   86b2e:	e777      	b.n	86a20 <__sfvwrite_r+0xbc>
   86b30:	4621      	mov	r1, r4
   86b32:	9800      	ldr	r0, [sp, #0]
   86b34:	f7ff fcb2 	bl	8649c <_fflush_r>
   86b38:	2800      	cmp	r0, #0
   86b3a:	d18f      	bne.n	86a5c <__sfvwrite_r+0xf8>
   86b3c:	46c2      	mov	sl, r8
   86b3e:	e76f      	b.n	86a20 <__sfvwrite_r+0xbc>
   86b40:	465a      	mov	r2, fp
   86b42:	4629      	mov	r1, r5
   86b44:	f000 fc44 	bl	873d0 <memmove>
   86b48:	68a2      	ldr	r2, [r4, #8]
   86b4a:	6823      	ldr	r3, [r4, #0]
   86b4c:	eba2 020b 	sub.w	r2, r2, fp
   86b50:	445b      	add	r3, fp
   86b52:	60a2      	str	r2, [r4, #8]
   86b54:	6023      	str	r3, [r4, #0]
   86b56:	e7ad      	b.n	86ab4 <__sfvwrite_r+0x150>
   86b58:	46b8      	mov	r8, r7
   86b5a:	46ba      	mov	sl, r7
   86b5c:	46bb      	mov	fp, r7
   86b5e:	6820      	ldr	r0, [r4, #0]
   86b60:	e753      	b.n	86a0a <__sfvwrite_r+0xa6>
   86b62:	6962      	ldr	r2, [r4, #20]
   86b64:	6820      	ldr	r0, [r4, #0]
   86b66:	6921      	ldr	r1, [r4, #16]
   86b68:	eb02 0842 	add.w	r8, r2, r2, lsl #1
   86b6c:	eba0 0a01 	sub.w	sl, r0, r1
   86b70:	eb08 78d8 	add.w	r8, r8, r8, lsr #31
   86b74:	f10a 0001 	add.w	r0, sl, #1
   86b78:	ea4f 0868 	mov.w	r8, r8, asr #1
   86b7c:	4438      	add	r0, r7
   86b7e:	4540      	cmp	r0, r8
   86b80:	4642      	mov	r2, r8
   86b82:	bf84      	itt	hi
   86b84:	4680      	movhi	r8, r0
   86b86:	4642      	movhi	r2, r8
   86b88:	055b      	lsls	r3, r3, #21
   86b8a:	d544      	bpl.n	86c16 <__sfvwrite_r+0x2b2>
   86b8c:	4611      	mov	r1, r2
   86b8e:	9800      	ldr	r0, [sp, #0]
   86b90:	f000 f920 	bl	86dd4 <_malloc_r>
   86b94:	4683      	mov	fp, r0
   86b96:	2800      	cmp	r0, #0
   86b98:	d055      	beq.n	86c46 <__sfvwrite_r+0x2e2>
   86b9a:	4652      	mov	r2, sl
   86b9c:	6921      	ldr	r1, [r4, #16]
   86b9e:	f7fe fab1 	bl	85104 <memcpy>
   86ba2:	89a3      	ldrh	r3, [r4, #12]
   86ba4:	f423 6390 	bic.w	r3, r3, #1152	; 0x480
   86ba8:	f043 0380 	orr.w	r3, r3, #128	; 0x80
   86bac:	81a3      	strh	r3, [r4, #12]
   86bae:	eb0b 000a 	add.w	r0, fp, sl
   86bb2:	eba8 030a 	sub.w	r3, r8, sl
   86bb6:	f8c4 b010 	str.w	fp, [r4, #16]
   86bba:	f8c4 8014 	str.w	r8, [r4, #20]
   86bbe:	6020      	str	r0, [r4, #0]
   86bc0:	60a3      	str	r3, [r4, #8]
   86bc2:	46b8      	mov	r8, r7
   86bc4:	46ba      	mov	sl, r7
   86bc6:	46bb      	mov	fp, r7
   86bc8:	e71f      	b.n	86a0a <__sfvwrite_r+0xa6>
   86bca:	f06f 4200 	mvn.w	r2, #2147483648	; 0x80000000
   86bce:	42ba      	cmp	r2, r7
   86bd0:	bf28      	it	cs
   86bd2:	463a      	movcs	r2, r7
   86bd4:	fb92 f2f3 	sdiv	r2, r2, r3
   86bd8:	69e1      	ldr	r1, [r4, #28]
   86bda:	fb03 f302 	mul.w	r3, r3, r2
   86bde:	9800      	ldr	r0, [sp, #0]
   86be0:	464a      	mov	r2, r9
   86be2:	6a66      	ldr	r6, [r4, #36]	; 0x24
   86be4:	47b0      	blx	r6
   86be6:	f1b0 0a00 	subs.w	sl, r0, #0
   86bea:	f73f af19 	bgt.w	86a20 <__sfvwrite_r+0xbc>
   86bee:	e735      	b.n	86a5c <__sfvwrite_r+0xf8>
   86bf0:	461a      	mov	r2, r3
   86bf2:	4629      	mov	r1, r5
   86bf4:	9301      	str	r3, [sp, #4]
   86bf6:	f000 fbeb 	bl	873d0 <memmove>
   86bfa:	6822      	ldr	r2, [r4, #0]
   86bfc:	9b01      	ldr	r3, [sp, #4]
   86bfe:	4621      	mov	r1, r4
   86c00:	441a      	add	r2, r3
   86c02:	6022      	str	r2, [r4, #0]
   86c04:	9800      	ldr	r0, [sp, #0]
   86c06:	f7ff fc49 	bl	8649c <_fflush_r>
   86c0a:	9b01      	ldr	r3, [sp, #4]
   86c0c:	2800      	cmp	r0, #0
   86c0e:	f47f af25 	bne.w	86a5c <__sfvwrite_r+0xf8>
   86c12:	461f      	mov	r7, r3
   86c14:	e74e      	b.n	86ab4 <__sfvwrite_r+0x150>
   86c16:	9800      	ldr	r0, [sp, #0]
   86c18:	f000 fc4a 	bl	874b0 <_realloc_r>
   86c1c:	4683      	mov	fp, r0
   86c1e:	2800      	cmp	r0, #0
   86c20:	d1c5      	bne.n	86bae <__sfvwrite_r+0x24a>
   86c22:	9d00      	ldr	r5, [sp, #0]
   86c24:	6921      	ldr	r1, [r4, #16]
   86c26:	4628      	mov	r0, r5
   86c28:	f7ff fdb6 	bl	86798 <_free_r>
   86c2c:	220c      	movs	r2, #12
   86c2e:	f9b4 300c 	ldrsh.w	r3, [r4, #12]
   86c32:	602a      	str	r2, [r5, #0]
   86c34:	f023 0380 	bic.w	r3, r3, #128	; 0x80
   86c38:	e712      	b.n	86a60 <__sfvwrite_r+0xfc>
   86c3a:	f106 0901 	add.w	r9, r6, #1
   86c3e:	e720      	b.n	86a82 <__sfvwrite_r+0x11e>
   86c40:	f04f 30ff 	mov.w	r0, #4294967295
   86c44:	e6bd      	b.n	869c2 <__sfvwrite_r+0x5e>
   86c46:	220c      	movs	r2, #12
   86c48:	9900      	ldr	r1, [sp, #0]
   86c4a:	f9b4 300c 	ldrsh.w	r3, [r4, #12]
   86c4e:	600a      	str	r2, [r1, #0]
   86c50:	e706      	b.n	86a60 <__sfvwrite_r+0xfc>
   86c52:	bf00      	nop
   86c54:	7ffffc00 	.word	0x7ffffc00

00086c58 <_fwalk_reent>:
   86c58:	e92d 43f8 	stmdb	sp!, {r3, r4, r5, r6, r7, r8, r9, lr}
   86c5c:	f510 7638 	adds.w	r6, r0, #736	; 0x2e0
   86c60:	d01e      	beq.n	86ca0 <_fwalk_reent+0x48>
   86c62:	4688      	mov	r8, r1
   86c64:	4607      	mov	r7, r0
   86c66:	f04f 0900 	mov.w	r9, #0
   86c6a:	6875      	ldr	r5, [r6, #4]
   86c6c:	68b4      	ldr	r4, [r6, #8]
   86c6e:	3d01      	subs	r5, #1
   86c70:	d410      	bmi.n	86c94 <_fwalk_reent+0x3c>
   86c72:	89a3      	ldrh	r3, [r4, #12]
   86c74:	3d01      	subs	r5, #1
   86c76:	2b01      	cmp	r3, #1
   86c78:	d908      	bls.n	86c8c <_fwalk_reent+0x34>
   86c7a:	f9b4 300e 	ldrsh.w	r3, [r4, #14]
   86c7e:	3301      	adds	r3, #1
   86c80:	d004      	beq.n	86c8c <_fwalk_reent+0x34>
   86c82:	4621      	mov	r1, r4
   86c84:	4638      	mov	r0, r7
   86c86:	47c0      	blx	r8
   86c88:	ea49 0900 	orr.w	r9, r9, r0
   86c8c:	1c6b      	adds	r3, r5, #1
   86c8e:	f104 0468 	add.w	r4, r4, #104	; 0x68
   86c92:	d1ee      	bne.n	86c72 <_fwalk_reent+0x1a>
   86c94:	6836      	ldr	r6, [r6, #0]
   86c96:	2e00      	cmp	r6, #0
   86c98:	d1e7      	bne.n	86c6a <_fwalk_reent+0x12>
   86c9a:	4648      	mov	r0, r9
   86c9c:	e8bd 83f8 	ldmia.w	sp!, {r3, r4, r5, r6, r7, r8, r9, pc}
   86ca0:	46b1      	mov	r9, r6
   86ca2:	4648      	mov	r0, r9
   86ca4:	e8bd 83f8 	ldmia.w	sp!, {r3, r4, r5, r6, r7, r8, r9, pc}

00086ca8 <__locale_mb_cur_max>:
   86ca8:	4b04      	ldr	r3, [pc, #16]	; (86cbc <__locale_mb_cur_max+0x14>)
   86caa:	4a05      	ldr	r2, [pc, #20]	; (86cc0 <__locale_mb_cur_max+0x18>)
   86cac:	681b      	ldr	r3, [r3, #0]
   86cae:	6b5b      	ldr	r3, [r3, #52]	; 0x34
   86cb0:	2b00      	cmp	r3, #0
   86cb2:	bf08      	it	eq
   86cb4:	4613      	moveq	r3, r2
   86cb6:	f893 0128 	ldrb.w	r0, [r3, #296]	; 0x128
   86cba:	4770      	bx	lr
   86cbc:	20070170 	.word	0x20070170
   86cc0:	200705a4 	.word	0x200705a4

00086cc4 <__retarget_lock_init_recursive>:
   86cc4:	4770      	bx	lr
   86cc6:	bf00      	nop

00086cc8 <__retarget_lock_close_recursive>:
   86cc8:	4770      	bx	lr
   86cca:	bf00      	nop

00086ccc <__retarget_lock_acquire_recursive>:
   86ccc:	4770      	bx	lr
   86cce:	bf00      	nop

00086cd0 <__retarget_lock_release_recursive>:
   86cd0:	4770      	bx	lr
   86cd2:	bf00      	nop

00086cd4 <__swhatbuf_r>:
   86cd4:	b570      	push	{r4, r5, r6, lr}
   86cd6:	460c      	mov	r4, r1
   86cd8:	f9b1 100e 	ldrsh.w	r1, [r1, #14]
   86cdc:	b090      	sub	sp, #64	; 0x40
   86cde:	2900      	cmp	r1, #0
   86ce0:	4615      	mov	r5, r2
   86ce2:	461e      	mov	r6, r3
   86ce4:	db14      	blt.n	86d10 <__swhatbuf_r+0x3c>
   86ce6:	aa01      	add	r2, sp, #4
   86ce8:	f000 ff68 	bl	87bbc <_fstat_r>
   86cec:	2800      	cmp	r0, #0
   86cee:	db0f      	blt.n	86d10 <__swhatbuf_r+0x3c>
   86cf0:	9a02      	ldr	r2, [sp, #8]
   86cf2:	f44f 6380 	mov.w	r3, #1024	; 0x400
   86cf6:	f402 4270 	and.w	r2, r2, #61440	; 0xf000
   86cfa:	f5a2 5200 	sub.w	r2, r2, #8192	; 0x2000
   86cfe:	fab2 f282 	clz	r2, r2
   86d02:	f44f 6000 	mov.w	r0, #2048	; 0x800
   86d06:	0952      	lsrs	r2, r2, #5
   86d08:	6032      	str	r2, [r6, #0]
   86d0a:	602b      	str	r3, [r5, #0]
   86d0c:	b010      	add	sp, #64	; 0x40
   86d0e:	bd70      	pop	{r4, r5, r6, pc}
   86d10:	2300      	movs	r3, #0
   86d12:	89a2      	ldrh	r2, [r4, #12]
   86d14:	6033      	str	r3, [r6, #0]
   86d16:	f012 0080 	ands.w	r0, r2, #128	; 0x80
   86d1a:	d004      	beq.n	86d26 <__swhatbuf_r+0x52>
   86d1c:	2240      	movs	r2, #64	; 0x40
   86d1e:	4618      	mov	r0, r3
   86d20:	602a      	str	r2, [r5, #0]
   86d22:	b010      	add	sp, #64	; 0x40
   86d24:	bd70      	pop	{r4, r5, r6, pc}
   86d26:	f44f 6380 	mov.w	r3, #1024	; 0x400
   86d2a:	602b      	str	r3, [r5, #0]
   86d2c:	b010      	add	sp, #64	; 0x40
   86d2e:	bd70      	pop	{r4, r5, r6, pc}

00086d30 <__smakebuf_r>:
   86d30:	898a      	ldrh	r2, [r1, #12]
   86d32:	460b      	mov	r3, r1
   86d34:	0792      	lsls	r2, r2, #30
   86d36:	d506      	bpl.n	86d46 <__smakebuf_r+0x16>
   86d38:	2101      	movs	r1, #1
   86d3a:	f103 0243 	add.w	r2, r3, #67	; 0x43
   86d3e:	6159      	str	r1, [r3, #20]
   86d40:	601a      	str	r2, [r3, #0]
   86d42:	611a      	str	r2, [r3, #16]
   86d44:	4770      	bx	lr
   86d46:	b5f0      	push	{r4, r5, r6, r7, lr}
   86d48:	b083      	sub	sp, #12
   86d4a:	ab01      	add	r3, sp, #4
   86d4c:	466a      	mov	r2, sp
   86d4e:	460c      	mov	r4, r1
   86d50:	4606      	mov	r6, r0
   86d52:	f7ff ffbf 	bl	86cd4 <__swhatbuf_r>
   86d56:	9900      	ldr	r1, [sp, #0]
   86d58:	4605      	mov	r5, r0
   86d5a:	4630      	mov	r0, r6
   86d5c:	f000 f83a 	bl	86dd4 <_malloc_r>
   86d60:	f9b4 300c 	ldrsh.w	r3, [r4, #12]
   86d64:	b1d8      	cbz	r0, 86d9e <__smakebuf_r+0x6e>
   86d66:	e89d 0006 	ldmia.w	sp, {r1, r2}
   86d6a:	4f15      	ldr	r7, [pc, #84]	; (86dc0 <__smakebuf_r+0x90>)
   86d6c:	f043 0380 	orr.w	r3, r3, #128	; 0x80
   86d70:	63f7      	str	r7, [r6, #60]	; 0x3c
   86d72:	81a3      	strh	r3, [r4, #12]
   86d74:	6020      	str	r0, [r4, #0]
   86d76:	6120      	str	r0, [r4, #16]
   86d78:	6161      	str	r1, [r4, #20]
   86d7a:	b91a      	cbnz	r2, 86d84 <__smakebuf_r+0x54>
   86d7c:	432b      	orrs	r3, r5
   86d7e:	81a3      	strh	r3, [r4, #12]
   86d80:	b003      	add	sp, #12
   86d82:	bdf0      	pop	{r4, r5, r6, r7, pc}
   86d84:	4630      	mov	r0, r6
   86d86:	f9b4 100e 	ldrsh.w	r1, [r4, #14]
   86d8a:	f000 ff2b 	bl	87be4 <_isatty_r>
   86d8e:	b1a0      	cbz	r0, 86dba <__smakebuf_r+0x8a>
   86d90:	89a3      	ldrh	r3, [r4, #12]
   86d92:	f023 0303 	bic.w	r3, r3, #3
   86d96:	f043 0301 	orr.w	r3, r3, #1
   86d9a:	b21b      	sxth	r3, r3
   86d9c:	e7ee      	b.n	86d7c <__smakebuf_r+0x4c>
   86d9e:	059a      	lsls	r2, r3, #22
   86da0:	d4ee      	bmi.n	86d80 <__smakebuf_r+0x50>
   86da2:	2101      	movs	r1, #1
   86da4:	f023 0303 	bic.w	r3, r3, #3
   86da8:	f104 0243 	add.w	r2, r4, #67	; 0x43
   86dac:	f043 0302 	orr.w	r3, r3, #2
   86db0:	81a3      	strh	r3, [r4, #12]
   86db2:	6161      	str	r1, [r4, #20]
   86db4:	6022      	str	r2, [r4, #0]
   86db6:	6122      	str	r2, [r4, #16]
   86db8:	e7e2      	b.n	86d80 <__smakebuf_r+0x50>
   86dba:	f9b4 300c 	ldrsh.w	r3, [r4, #12]
   86dbe:	e7dd      	b.n	86d7c <__smakebuf_r+0x4c>
   86dc0:	000864f1 	.word	0x000864f1

00086dc4 <malloc>:
   86dc4:	4b02      	ldr	r3, [pc, #8]	; (86dd0 <malloc+0xc>)
   86dc6:	4601      	mov	r1, r0
   86dc8:	6818      	ldr	r0, [r3, #0]
   86dca:	f000 b803 	b.w	86dd4 <_malloc_r>
   86dce:	bf00      	nop
   86dd0:	20070170 	.word	0x20070170

00086dd4 <_malloc_r>:
   86dd4:	e92d 4ff0 	stmdb	sp!, {r4, r5, r6, r7, r8, r9, sl, fp, lr}
   86dd8:	f101 060b 	add.w	r6, r1, #11
   86ddc:	2e16      	cmp	r6, #22
   86dde:	b083      	sub	sp, #12
   86de0:	4605      	mov	r5, r0
   86de2:	f240 809e 	bls.w	86f22 <_malloc_r+0x14e>
   86de6:	f036 0607 	bics.w	r6, r6, #7
   86dea:	f100 80bd 	bmi.w	86f68 <_malloc_r+0x194>
   86dee:	42b1      	cmp	r1, r6
   86df0:	f200 80ba 	bhi.w	86f68 <_malloc_r+0x194>
   86df4:	f000 fb50 	bl	87498 <__malloc_lock>
   86df8:	f5b6 7ffc 	cmp.w	r6, #504	; 0x1f8
   86dfc:	f0c0 8285 	bcc.w	8730a <_malloc_r+0x536>
   86e00:	0a73      	lsrs	r3, r6, #9
   86e02:	f000 80b8 	beq.w	86f76 <_malloc_r+0x1a2>
   86e06:	2b04      	cmp	r3, #4
   86e08:	f200 816c 	bhi.w	870e4 <_malloc_r+0x310>
   86e0c:	09b3      	lsrs	r3, r6, #6
   86e0e:	f103 0039 	add.w	r0, r3, #57	; 0x39
   86e12:	f103 0e38 	add.w	lr, r3, #56	; 0x38
   86e16:	00c1      	lsls	r1, r0, #3
   86e18:	4fb8      	ldr	r7, [pc, #736]	; (870fc <_malloc_r+0x328>)
   86e1a:	4439      	add	r1, r7
   86e1c:	684c      	ldr	r4, [r1, #4]
   86e1e:	3908      	subs	r1, #8
   86e20:	42a1      	cmp	r1, r4
   86e22:	d106      	bne.n	86e32 <_malloc_r+0x5e>
   86e24:	e00c      	b.n	86e40 <_malloc_r+0x6c>
   86e26:	2a00      	cmp	r2, #0
   86e28:	f280 80ab 	bge.w	86f82 <_malloc_r+0x1ae>
   86e2c:	68e4      	ldr	r4, [r4, #12]
   86e2e:	42a1      	cmp	r1, r4
   86e30:	d006      	beq.n	86e40 <_malloc_r+0x6c>
   86e32:	6863      	ldr	r3, [r4, #4]
   86e34:	f023 0303 	bic.w	r3, r3, #3
   86e38:	1b9a      	subs	r2, r3, r6
   86e3a:	2a0f      	cmp	r2, #15
   86e3c:	ddf3      	ble.n	86e26 <_malloc_r+0x52>
   86e3e:	4670      	mov	r0, lr
   86e40:	693c      	ldr	r4, [r7, #16]
   86e42:	f8df e2cc 	ldr.w	lr, [pc, #716]	; 87110 <_malloc_r+0x33c>
   86e46:	4574      	cmp	r4, lr
   86e48:	f000 819e 	beq.w	87188 <_malloc_r+0x3b4>
   86e4c:	6863      	ldr	r3, [r4, #4]
   86e4e:	f023 0303 	bic.w	r3, r3, #3
   86e52:	1b9a      	subs	r2, r3, r6
   86e54:	2a0f      	cmp	r2, #15
   86e56:	f300 8183 	bgt.w	87160 <_malloc_r+0x38c>
   86e5a:	2a00      	cmp	r2, #0
   86e5c:	f8c7 e014 	str.w	lr, [r7, #20]
   86e60:	f8c7 e010 	str.w	lr, [r7, #16]
   86e64:	f280 8091 	bge.w	86f8a <_malloc_r+0x1b6>
   86e68:	f5b3 7f00 	cmp.w	r3, #512	; 0x200
   86e6c:	f080 8154 	bcs.w	87118 <_malloc_r+0x344>
   86e70:	2201      	movs	r2, #1
   86e72:	08db      	lsrs	r3, r3, #3
   86e74:	6879      	ldr	r1, [r7, #4]
   86e76:	ea4f 0ca3 	mov.w	ip, r3, asr #2
   86e7a:	4413      	add	r3, r2
   86e7c:	f857 8033 	ldr.w	r8, [r7, r3, lsl #3]
   86e80:	fa02 f20c 	lsl.w	r2, r2, ip
   86e84:	eb07 0cc3 	add.w	ip, r7, r3, lsl #3
   86e88:	430a      	orrs	r2, r1
   86e8a:	f1ac 0108 	sub.w	r1, ip, #8
   86e8e:	60e1      	str	r1, [r4, #12]
   86e90:	f8c4 8008 	str.w	r8, [r4, #8]
   86e94:	607a      	str	r2, [r7, #4]
   86e96:	f847 4033 	str.w	r4, [r7, r3, lsl #3]
   86e9a:	f8c8 400c 	str.w	r4, [r8, #12]
   86e9e:	2401      	movs	r4, #1
   86ea0:	1083      	asrs	r3, r0, #2
   86ea2:	409c      	lsls	r4, r3
   86ea4:	4294      	cmp	r4, r2
   86ea6:	d87d      	bhi.n	86fa4 <_malloc_r+0x1d0>
   86ea8:	4214      	tst	r4, r2
   86eaa:	d106      	bne.n	86eba <_malloc_r+0xe6>
   86eac:	f020 0003 	bic.w	r0, r0, #3
   86eb0:	0064      	lsls	r4, r4, #1
   86eb2:	4214      	tst	r4, r2
   86eb4:	f100 0004 	add.w	r0, r0, #4
   86eb8:	d0fa      	beq.n	86eb0 <_malloc_r+0xdc>
   86eba:	eb07 09c0 	add.w	r9, r7, r0, lsl #3
   86ebe:	46cc      	mov	ip, r9
   86ec0:	4680      	mov	r8, r0
   86ec2:	f8dc 300c 	ldr.w	r3, [ip, #12]
   86ec6:	459c      	cmp	ip, r3
   86ec8:	d107      	bne.n	86eda <_malloc_r+0x106>
   86eca:	e15f      	b.n	8718c <_malloc_r+0x3b8>
   86ecc:	2a00      	cmp	r2, #0
   86ece:	f280 816d 	bge.w	871ac <_malloc_r+0x3d8>
   86ed2:	68db      	ldr	r3, [r3, #12]
   86ed4:	459c      	cmp	ip, r3
   86ed6:	f000 8159 	beq.w	8718c <_malloc_r+0x3b8>
   86eda:	6859      	ldr	r1, [r3, #4]
   86edc:	f021 0103 	bic.w	r1, r1, #3
   86ee0:	1b8a      	subs	r2, r1, r6
   86ee2:	2a0f      	cmp	r2, #15
   86ee4:	ddf2      	ble.n	86ecc <_malloc_r+0xf8>
   86ee6:	68dc      	ldr	r4, [r3, #12]
   86ee8:	f8d3 c008 	ldr.w	ip, [r3, #8]
   86eec:	f046 0801 	orr.w	r8, r6, #1
   86ef0:	4628      	mov	r0, r5
   86ef2:	441e      	add	r6, r3
   86ef4:	f042 0501 	orr.w	r5, r2, #1
   86ef8:	f8c3 8004 	str.w	r8, [r3, #4]
   86efc:	f8cc 400c 	str.w	r4, [ip, #12]
   86f00:	f8c4 c008 	str.w	ip, [r4, #8]
   86f04:	617e      	str	r6, [r7, #20]
   86f06:	613e      	str	r6, [r7, #16]
   86f08:	f8c6 e00c 	str.w	lr, [r6, #12]
   86f0c:	f8c6 e008 	str.w	lr, [r6, #8]
   86f10:	6075      	str	r5, [r6, #4]
   86f12:	505a      	str	r2, [r3, r1]
   86f14:	9300      	str	r3, [sp, #0]
   86f16:	f000 fac5 	bl	874a4 <__malloc_unlock>
   86f1a:	9b00      	ldr	r3, [sp, #0]
   86f1c:	f103 0408 	add.w	r4, r3, #8
   86f20:	e01e      	b.n	86f60 <_malloc_r+0x18c>
   86f22:	2910      	cmp	r1, #16
   86f24:	d820      	bhi.n	86f68 <_malloc_r+0x194>
   86f26:	f000 fab7 	bl	87498 <__malloc_lock>
   86f2a:	2610      	movs	r6, #16
   86f2c:	2318      	movs	r3, #24
   86f2e:	2002      	movs	r0, #2
   86f30:	4f72      	ldr	r7, [pc, #456]	; (870fc <_malloc_r+0x328>)
   86f32:	443b      	add	r3, r7
   86f34:	685c      	ldr	r4, [r3, #4]
   86f36:	f1a3 0208 	sub.w	r2, r3, #8
   86f3a:	4294      	cmp	r4, r2
   86f3c:	f000 812f 	beq.w	8719e <_malloc_r+0x3ca>
   86f40:	6863      	ldr	r3, [r4, #4]
   86f42:	68e1      	ldr	r1, [r4, #12]
   86f44:	f023 0303 	bic.w	r3, r3, #3
   86f48:	4423      	add	r3, r4
   86f4a:	685a      	ldr	r2, [r3, #4]
   86f4c:	68a6      	ldr	r6, [r4, #8]
   86f4e:	f042 0201 	orr.w	r2, r2, #1
   86f52:	60f1      	str	r1, [r6, #12]
   86f54:	4628      	mov	r0, r5
   86f56:	608e      	str	r6, [r1, #8]
   86f58:	605a      	str	r2, [r3, #4]
   86f5a:	f000 faa3 	bl	874a4 <__malloc_unlock>
   86f5e:	3408      	adds	r4, #8
   86f60:	4620      	mov	r0, r4
   86f62:	b003      	add	sp, #12
   86f64:	e8bd 8ff0 	ldmia.w	sp!, {r4, r5, r6, r7, r8, r9, sl, fp, pc}
   86f68:	2400      	movs	r4, #0
   86f6a:	230c      	movs	r3, #12
   86f6c:	4620      	mov	r0, r4
   86f6e:	602b      	str	r3, [r5, #0]
   86f70:	b003      	add	sp, #12
   86f72:	e8bd 8ff0 	ldmia.w	sp!, {r4, r5, r6, r7, r8, r9, sl, fp, pc}
   86f76:	2040      	movs	r0, #64	; 0x40
   86f78:	f44f 7100 	mov.w	r1, #512	; 0x200
   86f7c:	f04f 0e3f 	mov.w	lr, #63	; 0x3f
   86f80:	e74a      	b.n	86e18 <_malloc_r+0x44>
   86f82:	4423      	add	r3, r4
   86f84:	685a      	ldr	r2, [r3, #4]
   86f86:	68e1      	ldr	r1, [r4, #12]
   86f88:	e7e0      	b.n	86f4c <_malloc_r+0x178>
   86f8a:	4423      	add	r3, r4
   86f8c:	685a      	ldr	r2, [r3, #4]
   86f8e:	4628      	mov	r0, r5
   86f90:	f042 0201 	orr.w	r2, r2, #1
   86f94:	605a      	str	r2, [r3, #4]
   86f96:	3408      	adds	r4, #8
   86f98:	f000 fa84 	bl	874a4 <__malloc_unlock>
   86f9c:	4620      	mov	r0, r4
   86f9e:	b003      	add	sp, #12
   86fa0:	e8bd 8ff0 	ldmia.w	sp!, {r4, r5, r6, r7, r8, r9, sl, fp, pc}
   86fa4:	68bc      	ldr	r4, [r7, #8]
   86fa6:	6863      	ldr	r3, [r4, #4]
   86fa8:	f023 0803 	bic.w	r8, r3, #3
   86fac:	45b0      	cmp	r8, r6
   86fae:	d304      	bcc.n	86fba <_malloc_r+0x1e6>
   86fb0:	eba8 0306 	sub.w	r3, r8, r6
   86fb4:	2b0f      	cmp	r3, #15
   86fb6:	f300 8085 	bgt.w	870c4 <_malloc_r+0x2f0>
   86fba:	f8df 9158 	ldr.w	r9, [pc, #344]	; 87114 <_malloc_r+0x340>
   86fbe:	4b50      	ldr	r3, [pc, #320]	; (87100 <_malloc_r+0x32c>)
   86fc0:	f8d9 2000 	ldr.w	r2, [r9]
   86fc4:	681b      	ldr	r3, [r3, #0]
   86fc6:	3201      	adds	r2, #1
   86fc8:	4433      	add	r3, r6
   86fca:	eb04 0a08 	add.w	sl, r4, r8
   86fce:	f000 8154 	beq.w	8727a <_malloc_r+0x4a6>
   86fd2:	f503 5380 	add.w	r3, r3, #4096	; 0x1000
   86fd6:	330f      	adds	r3, #15
   86fd8:	f423 6b7f 	bic.w	fp, r3, #4080	; 0xff0
   86fdc:	f02b 0b0f 	bic.w	fp, fp, #15
   86fe0:	4659      	mov	r1, fp
   86fe2:	4628      	mov	r0, r5
   86fe4:	f000 fc1a 	bl	8781c <_sbrk_r>
   86fe8:	1c41      	adds	r1, r0, #1
   86fea:	4602      	mov	r2, r0
   86fec:	f000 80fb 	beq.w	871e6 <_malloc_r+0x412>
   86ff0:	4582      	cmp	sl, r0
   86ff2:	f200 80f6 	bhi.w	871e2 <_malloc_r+0x40e>
   86ff6:	4b43      	ldr	r3, [pc, #268]	; (87104 <_malloc_r+0x330>)
   86ff8:	6819      	ldr	r1, [r3, #0]
   86ffa:	4459      	add	r1, fp
   86ffc:	6019      	str	r1, [r3, #0]
   86ffe:	f000 814c 	beq.w	8729a <_malloc_r+0x4c6>
   87002:	f8d9 0000 	ldr.w	r0, [r9]
   87006:	3001      	adds	r0, #1
   87008:	bf1b      	ittet	ne
   8700a:	eba2 0a0a 	subne.w	sl, r2, sl
   8700e:	4451      	addne	r1, sl
   87010:	f8c9 2000 	streq.w	r2, [r9]
   87014:	6019      	strne	r1, [r3, #0]
   87016:	f012 0107 	ands.w	r1, r2, #7
   8701a:	f000 8114 	beq.w	87246 <_malloc_r+0x472>
   8701e:	f1c1 0008 	rsb	r0, r1, #8
   87022:	f5c1 5180 	rsb	r1, r1, #4096	; 0x1000
   87026:	4402      	add	r2, r0
   87028:	3108      	adds	r1, #8
   8702a:	eb02 090b 	add.w	r9, r2, fp
   8702e:	f3c9 090b 	ubfx	r9, r9, #0, #12
   87032:	eba1 0909 	sub.w	r9, r1, r9
   87036:	4649      	mov	r1, r9
   87038:	4628      	mov	r0, r5
   8703a:	9301      	str	r3, [sp, #4]
   8703c:	9200      	str	r2, [sp, #0]
   8703e:	f000 fbed 	bl	8781c <_sbrk_r>
   87042:	1c43      	adds	r3, r0, #1
   87044:	e89d 000c 	ldmia.w	sp, {r2, r3}
   87048:	f000 8142 	beq.w	872d0 <_malloc_r+0x4fc>
   8704c:	1a80      	subs	r0, r0, r2
   8704e:	4448      	add	r0, r9
   87050:	f040 0001 	orr.w	r0, r0, #1
   87054:	6819      	ldr	r1, [r3, #0]
   87056:	42bc      	cmp	r4, r7
   87058:	4449      	add	r1, r9
   8705a:	60ba      	str	r2, [r7, #8]
   8705c:	6019      	str	r1, [r3, #0]
   8705e:	6050      	str	r0, [r2, #4]
   87060:	d017      	beq.n	87092 <_malloc_r+0x2be>
   87062:	f1b8 0f0f 	cmp.w	r8, #15
   87066:	f240 80fa 	bls.w	8725e <_malloc_r+0x48a>
   8706a:	f04f 0c05 	mov.w	ip, #5
   8706e:	6862      	ldr	r2, [r4, #4]
   87070:	f1a8 000c 	sub.w	r0, r8, #12
   87074:	f020 0007 	bic.w	r0, r0, #7
   87078:	f002 0201 	and.w	r2, r2, #1
   8707c:	eb04 0e00 	add.w	lr, r4, r0
   87080:	4302      	orrs	r2, r0
   87082:	280f      	cmp	r0, #15
   87084:	6062      	str	r2, [r4, #4]
   87086:	f8ce c004 	str.w	ip, [lr, #4]
   8708a:	f8ce c008 	str.w	ip, [lr, #8]
   8708e:	f200 8116 	bhi.w	872be <_malloc_r+0x4ea>
   87092:	4b1d      	ldr	r3, [pc, #116]	; (87108 <_malloc_r+0x334>)
   87094:	68bc      	ldr	r4, [r7, #8]
   87096:	681a      	ldr	r2, [r3, #0]
   87098:	4291      	cmp	r1, r2
   8709a:	bf88      	it	hi
   8709c:	6019      	strhi	r1, [r3, #0]
   8709e:	4b1b      	ldr	r3, [pc, #108]	; (8710c <_malloc_r+0x338>)
   870a0:	681a      	ldr	r2, [r3, #0]
   870a2:	4291      	cmp	r1, r2
   870a4:	6862      	ldr	r2, [r4, #4]
   870a6:	bf88      	it	hi
   870a8:	6019      	strhi	r1, [r3, #0]
   870aa:	f022 0203 	bic.w	r2, r2, #3
   870ae:	4296      	cmp	r6, r2
   870b0:	eba2 0306 	sub.w	r3, r2, r6
   870b4:	d801      	bhi.n	870ba <_malloc_r+0x2e6>
   870b6:	2b0f      	cmp	r3, #15
   870b8:	dc04      	bgt.n	870c4 <_malloc_r+0x2f0>
   870ba:	4628      	mov	r0, r5
   870bc:	f000 f9f2 	bl	874a4 <__malloc_unlock>
   870c0:	2400      	movs	r4, #0
   870c2:	e74d      	b.n	86f60 <_malloc_r+0x18c>
   870c4:	f046 0201 	orr.w	r2, r6, #1
   870c8:	f043 0301 	orr.w	r3, r3, #1
   870cc:	4426      	add	r6, r4
   870ce:	6062      	str	r2, [r4, #4]
   870d0:	4628      	mov	r0, r5
   870d2:	60be      	str	r6, [r7, #8]
   870d4:	3408      	adds	r4, #8
   870d6:	6073      	str	r3, [r6, #4]
   870d8:	f000 f9e4 	bl	874a4 <__malloc_unlock>
   870dc:	4620      	mov	r0, r4
   870de:	b003      	add	sp, #12
   870e0:	e8bd 8ff0 	ldmia.w	sp!, {r4, r5, r6, r7, r8, r9, sl, fp, pc}
   870e4:	2b14      	cmp	r3, #20
   870e6:	d970      	bls.n	871ca <_malloc_r+0x3f6>
   870e8:	2b54      	cmp	r3, #84	; 0x54
   870ea:	f200 80a2 	bhi.w	87232 <_malloc_r+0x45e>
   870ee:	0b33      	lsrs	r3, r6, #12
   870f0:	f103 006f 	add.w	r0, r3, #111	; 0x6f
   870f4:	f103 0e6e 	add.w	lr, r3, #110	; 0x6e
   870f8:	00c1      	lsls	r1, r0, #3
   870fa:	e68d      	b.n	86e18 <_malloc_r+0x44>
   870fc:	20070710 	.word	0x20070710
   87100:	2007ae18 	.word	0x2007ae18
   87104:	2007ade8 	.word	0x2007ade8
   87108:	2007ae10 	.word	0x2007ae10
   8710c:	2007ae14 	.word	0x2007ae14
   87110:	20070718 	.word	0x20070718
   87114:	20070b18 	.word	0x20070b18
   87118:	0a5a      	lsrs	r2, r3, #9
   8711a:	2a04      	cmp	r2, #4
   8711c:	d95b      	bls.n	871d6 <_malloc_r+0x402>
   8711e:	2a14      	cmp	r2, #20
   87120:	f200 80ae 	bhi.w	87280 <_malloc_r+0x4ac>
   87124:	f102 015c 	add.w	r1, r2, #92	; 0x5c
   87128:	00c9      	lsls	r1, r1, #3
   8712a:	325b      	adds	r2, #91	; 0x5b
   8712c:	eb07 0c01 	add.w	ip, r7, r1
   87130:	5879      	ldr	r1, [r7, r1]
   87132:	f1ac 0c08 	sub.w	ip, ip, #8
   87136:	458c      	cmp	ip, r1
   87138:	f000 8088 	beq.w	8724c <_malloc_r+0x478>
   8713c:	684a      	ldr	r2, [r1, #4]
   8713e:	f022 0203 	bic.w	r2, r2, #3
   87142:	4293      	cmp	r3, r2
   87144:	d273      	bcs.n	8722e <_malloc_r+0x45a>
   87146:	6889      	ldr	r1, [r1, #8]
   87148:	458c      	cmp	ip, r1
   8714a:	d1f7      	bne.n	8713c <_malloc_r+0x368>
   8714c:	f8dc 300c 	ldr.w	r3, [ip, #12]
   87150:	687a      	ldr	r2, [r7, #4]
   87152:	60e3      	str	r3, [r4, #12]
   87154:	f8c4 c008 	str.w	ip, [r4, #8]
   87158:	609c      	str	r4, [r3, #8]
   8715a:	f8cc 400c 	str.w	r4, [ip, #12]
   8715e:	e69e      	b.n	86e9e <_malloc_r+0xca>
   87160:	f046 0c01 	orr.w	ip, r6, #1
   87164:	f042 0101 	orr.w	r1, r2, #1
   87168:	4426      	add	r6, r4
   8716a:	f8c4 c004 	str.w	ip, [r4, #4]
   8716e:	4628      	mov	r0, r5
   87170:	617e      	str	r6, [r7, #20]
   87172:	613e      	str	r6, [r7, #16]
   87174:	f8c6 e00c 	str.w	lr, [r6, #12]
   87178:	f8c6 e008 	str.w	lr, [r6, #8]
   8717c:	6071      	str	r1, [r6, #4]
   8717e:	50e2      	str	r2, [r4, r3]
   87180:	f000 f990 	bl	874a4 <__malloc_unlock>
   87184:	3408      	adds	r4, #8
   87186:	e6eb      	b.n	86f60 <_malloc_r+0x18c>
   87188:	687a      	ldr	r2, [r7, #4]
   8718a:	e688      	b.n	86e9e <_malloc_r+0xca>
   8718c:	f108 0801 	add.w	r8, r8, #1
   87190:	f018 0f03 	tst.w	r8, #3
   87194:	f10c 0c08 	add.w	ip, ip, #8
   87198:	f47f ae93 	bne.w	86ec2 <_malloc_r+0xee>
   8719c:	e02d      	b.n	871fa <_malloc_r+0x426>
   8719e:	68dc      	ldr	r4, [r3, #12]
   871a0:	42a3      	cmp	r3, r4
   871a2:	bf08      	it	eq
   871a4:	3002      	addeq	r0, #2
   871a6:	f43f ae4b 	beq.w	86e40 <_malloc_r+0x6c>
   871aa:	e6c9      	b.n	86f40 <_malloc_r+0x16c>
   871ac:	461c      	mov	r4, r3
   871ae:	4419      	add	r1, r3
   871b0:	684a      	ldr	r2, [r1, #4]
   871b2:	68db      	ldr	r3, [r3, #12]
   871b4:	f854 6f08 	ldr.w	r6, [r4, #8]!
   871b8:	f042 0201 	orr.w	r2, r2, #1
   871bc:	604a      	str	r2, [r1, #4]
   871be:	4628      	mov	r0, r5
   871c0:	60f3      	str	r3, [r6, #12]
   871c2:	609e      	str	r6, [r3, #8]
   871c4:	f000 f96e 	bl	874a4 <__malloc_unlock>
   871c8:	e6ca      	b.n	86f60 <_malloc_r+0x18c>
   871ca:	f103 005c 	add.w	r0, r3, #92	; 0x5c
   871ce:	f103 0e5b 	add.w	lr, r3, #91	; 0x5b
   871d2:	00c1      	lsls	r1, r0, #3
   871d4:	e620      	b.n	86e18 <_malloc_r+0x44>
   871d6:	099a      	lsrs	r2, r3, #6
   871d8:	f102 0139 	add.w	r1, r2, #57	; 0x39
   871dc:	00c9      	lsls	r1, r1, #3
   871de:	3238      	adds	r2, #56	; 0x38
   871e0:	e7a4      	b.n	8712c <_malloc_r+0x358>
   871e2:	42bc      	cmp	r4, r7
   871e4:	d054      	beq.n	87290 <_malloc_r+0x4bc>
   871e6:	68bc      	ldr	r4, [r7, #8]
   871e8:	6862      	ldr	r2, [r4, #4]
   871ea:	f022 0203 	bic.w	r2, r2, #3
   871ee:	e75e      	b.n	870ae <_malloc_r+0x2da>
   871f0:	f859 3908 	ldr.w	r3, [r9], #-8
   871f4:	4599      	cmp	r9, r3
   871f6:	f040 8086 	bne.w	87306 <_malloc_r+0x532>
   871fa:	f010 0f03 	tst.w	r0, #3
   871fe:	f100 30ff 	add.w	r0, r0, #4294967295
   87202:	d1f5      	bne.n	871f0 <_malloc_r+0x41c>
   87204:	687b      	ldr	r3, [r7, #4]
   87206:	ea23 0304 	bic.w	r3, r3, r4
   8720a:	607b      	str	r3, [r7, #4]
   8720c:	0064      	lsls	r4, r4, #1
   8720e:	429c      	cmp	r4, r3
   87210:	f63f aec8 	bhi.w	86fa4 <_malloc_r+0x1d0>
   87214:	2c00      	cmp	r4, #0
   87216:	f43f aec5 	beq.w	86fa4 <_malloc_r+0x1d0>
   8721a:	421c      	tst	r4, r3
   8721c:	4640      	mov	r0, r8
   8721e:	f47f ae4c 	bne.w	86eba <_malloc_r+0xe6>
   87222:	0064      	lsls	r4, r4, #1
   87224:	421c      	tst	r4, r3
   87226:	f100 0004 	add.w	r0, r0, #4
   8722a:	d0fa      	beq.n	87222 <_malloc_r+0x44e>
   8722c:	e645      	b.n	86eba <_malloc_r+0xe6>
   8722e:	468c      	mov	ip, r1
   87230:	e78c      	b.n	8714c <_malloc_r+0x378>
   87232:	f5b3 7faa 	cmp.w	r3, #340	; 0x154
   87236:	d815      	bhi.n	87264 <_malloc_r+0x490>
   87238:	0bf3      	lsrs	r3, r6, #15
   8723a:	f103 0078 	add.w	r0, r3, #120	; 0x78
   8723e:	f103 0e77 	add.w	lr, r3, #119	; 0x77
   87242:	00c1      	lsls	r1, r0, #3
   87244:	e5e8      	b.n	86e18 <_malloc_r+0x44>
   87246:	f44f 5180 	mov.w	r1, #4096	; 0x1000
   8724a:	e6ee      	b.n	8702a <_malloc_r+0x256>
   8724c:	2101      	movs	r1, #1
   8724e:	687b      	ldr	r3, [r7, #4]
   87250:	1092      	asrs	r2, r2, #2
   87252:	fa01 f202 	lsl.w	r2, r1, r2
   87256:	431a      	orrs	r2, r3
   87258:	607a      	str	r2, [r7, #4]
   8725a:	4663      	mov	r3, ip
   8725c:	e779      	b.n	87152 <_malloc_r+0x37e>
   8725e:	2301      	movs	r3, #1
   87260:	6053      	str	r3, [r2, #4]
   87262:	e72a      	b.n	870ba <_malloc_r+0x2e6>
   87264:	f240 5254 	movw	r2, #1364	; 0x554
   87268:	4293      	cmp	r3, r2
   8726a:	d822      	bhi.n	872b2 <_malloc_r+0x4de>
   8726c:	0cb3      	lsrs	r3, r6, #18
   8726e:	f103 007d 	add.w	r0, r3, #125	; 0x7d
   87272:	f103 0e7c 	add.w	lr, r3, #124	; 0x7c
   87276:	00c1      	lsls	r1, r0, #3
   87278:	e5ce      	b.n	86e18 <_malloc_r+0x44>
   8727a:	f103 0b10 	add.w	fp, r3, #16
   8727e:	e6af      	b.n	86fe0 <_malloc_r+0x20c>
   87280:	2a54      	cmp	r2, #84	; 0x54
   87282:	d829      	bhi.n	872d8 <_malloc_r+0x504>
   87284:	0b1a      	lsrs	r2, r3, #12
   87286:	f102 016f 	add.w	r1, r2, #111	; 0x6f
   8728a:	00c9      	lsls	r1, r1, #3
   8728c:	326e      	adds	r2, #110	; 0x6e
   8728e:	e74d      	b.n	8712c <_malloc_r+0x358>
   87290:	4b20      	ldr	r3, [pc, #128]	; (87314 <_malloc_r+0x540>)
   87292:	6819      	ldr	r1, [r3, #0]
   87294:	4459      	add	r1, fp
   87296:	6019      	str	r1, [r3, #0]
   87298:	e6b3      	b.n	87002 <_malloc_r+0x22e>
   8729a:	f3ca 000b 	ubfx	r0, sl, #0, #12
   8729e:	2800      	cmp	r0, #0
   872a0:	f47f aeaf 	bne.w	87002 <_malloc_r+0x22e>
   872a4:	eb08 030b 	add.w	r3, r8, fp
   872a8:	68ba      	ldr	r2, [r7, #8]
   872aa:	f043 0301 	orr.w	r3, r3, #1
   872ae:	6053      	str	r3, [r2, #4]
   872b0:	e6ef      	b.n	87092 <_malloc_r+0x2be>
   872b2:	207f      	movs	r0, #127	; 0x7f
   872b4:	f44f 717e 	mov.w	r1, #1016	; 0x3f8
   872b8:	f04f 0e7e 	mov.w	lr, #126	; 0x7e
   872bc:	e5ac      	b.n	86e18 <_malloc_r+0x44>
   872be:	f104 0108 	add.w	r1, r4, #8
   872c2:	4628      	mov	r0, r5
   872c4:	9300      	str	r3, [sp, #0]
   872c6:	f7ff fa67 	bl	86798 <_free_r>
   872ca:	9b00      	ldr	r3, [sp, #0]
   872cc:	6819      	ldr	r1, [r3, #0]
   872ce:	e6e0      	b.n	87092 <_malloc_r+0x2be>
   872d0:	2001      	movs	r0, #1
   872d2:	f04f 0900 	mov.w	r9, #0
   872d6:	e6bd      	b.n	87054 <_malloc_r+0x280>
   872d8:	f5b2 7faa 	cmp.w	r2, #340	; 0x154
   872dc:	d805      	bhi.n	872ea <_malloc_r+0x516>
   872de:	0bda      	lsrs	r2, r3, #15
   872e0:	f102 0178 	add.w	r1, r2, #120	; 0x78
   872e4:	00c9      	lsls	r1, r1, #3
   872e6:	3277      	adds	r2, #119	; 0x77
   872e8:	e720      	b.n	8712c <_malloc_r+0x358>
   872ea:	f240 5154 	movw	r1, #1364	; 0x554
   872ee:	428a      	cmp	r2, r1
   872f0:	d805      	bhi.n	872fe <_malloc_r+0x52a>
   872f2:	0c9a      	lsrs	r2, r3, #18
   872f4:	f102 017d 	add.w	r1, r2, #125	; 0x7d
   872f8:	00c9      	lsls	r1, r1, #3
   872fa:	327c      	adds	r2, #124	; 0x7c
   872fc:	e716      	b.n	8712c <_malloc_r+0x358>
   872fe:	f44f 717e 	mov.w	r1, #1016	; 0x3f8
   87302:	227e      	movs	r2, #126	; 0x7e
   87304:	e712      	b.n	8712c <_malloc_r+0x358>
   87306:	687b      	ldr	r3, [r7, #4]
   87308:	e780      	b.n	8720c <_malloc_r+0x438>
   8730a:	08f0      	lsrs	r0, r6, #3
   8730c:	f106 0308 	add.w	r3, r6, #8
   87310:	e60e      	b.n	86f30 <_malloc_r+0x15c>
   87312:	bf00      	nop
   87314:	2007ade8 	.word	0x2007ade8

00087318 <__ascii_mbtowc>:
   87318:	b082      	sub	sp, #8
   8731a:	b149      	cbz	r1, 87330 <__ascii_mbtowc+0x18>
   8731c:	b15a      	cbz	r2, 87336 <__ascii_mbtowc+0x1e>
   8731e:	b16b      	cbz	r3, 8733c <__ascii_mbtowc+0x24>
   87320:	7813      	ldrb	r3, [r2, #0]
   87322:	600b      	str	r3, [r1, #0]
   87324:	7812      	ldrb	r2, [r2, #0]
   87326:	1c10      	adds	r0, r2, #0
   87328:	bf18      	it	ne
   8732a:	2001      	movne	r0, #1
   8732c:	b002      	add	sp, #8
   8732e:	4770      	bx	lr
   87330:	a901      	add	r1, sp, #4
   87332:	2a00      	cmp	r2, #0
   87334:	d1f3      	bne.n	8731e <__ascii_mbtowc+0x6>
   87336:	4610      	mov	r0, r2
   87338:	b002      	add	sp, #8
   8733a:	4770      	bx	lr
   8733c:	f06f 0001 	mvn.w	r0, #1
   87340:	e7f4      	b.n	8732c <__ascii_mbtowc+0x14>
   87342:	bf00      	nop

00087344 <memchr>:
   87344:	0783      	lsls	r3, r0, #30
   87346:	b470      	push	{r4, r5, r6}
   87348:	b2cd      	uxtb	r5, r1
   8734a:	d03d      	beq.n	873c8 <memchr+0x84>
   8734c:	1e54      	subs	r4, r2, #1
   8734e:	b30a      	cbz	r2, 87394 <memchr+0x50>
   87350:	7803      	ldrb	r3, [r0, #0]
   87352:	42ab      	cmp	r3, r5
   87354:	d01f      	beq.n	87396 <memchr+0x52>
   87356:	1c43      	adds	r3, r0, #1
   87358:	e005      	b.n	87366 <memchr+0x22>
   8735a:	f114 34ff 	adds.w	r4, r4, #4294967295
   8735e:	d319      	bcc.n	87394 <memchr+0x50>
   87360:	7802      	ldrb	r2, [r0, #0]
   87362:	42aa      	cmp	r2, r5
   87364:	d017      	beq.n	87396 <memchr+0x52>
   87366:	f013 0f03 	tst.w	r3, #3
   8736a:	4618      	mov	r0, r3
   8736c:	f103 0301 	add.w	r3, r3, #1
   87370:	d1f3      	bne.n	8735a <memchr+0x16>
   87372:	2c03      	cmp	r4, #3
   87374:	d811      	bhi.n	8739a <memchr+0x56>
   87376:	b34c      	cbz	r4, 873cc <memchr+0x88>
   87378:	7803      	ldrb	r3, [r0, #0]
   8737a:	42ab      	cmp	r3, r5
   8737c:	d00b      	beq.n	87396 <memchr+0x52>
   8737e:	4404      	add	r4, r0
   87380:	1c43      	adds	r3, r0, #1
   87382:	e002      	b.n	8738a <memchr+0x46>
   87384:	7802      	ldrb	r2, [r0, #0]
   87386:	42aa      	cmp	r2, r5
   87388:	d005      	beq.n	87396 <memchr+0x52>
   8738a:	429c      	cmp	r4, r3
   8738c:	4618      	mov	r0, r3
   8738e:	f103 0301 	add.w	r3, r3, #1
   87392:	d1f7      	bne.n	87384 <memchr+0x40>
   87394:	2000      	movs	r0, #0
   87396:	bc70      	pop	{r4, r5, r6}
   87398:	4770      	bx	lr
   8739a:	0209      	lsls	r1, r1, #8
   8739c:	b289      	uxth	r1, r1
   8739e:	4329      	orrs	r1, r5
   873a0:	ea41 4101 	orr.w	r1, r1, r1, lsl #16
   873a4:	6803      	ldr	r3, [r0, #0]
   873a6:	4606      	mov	r6, r0
   873a8:	404b      	eors	r3, r1
   873aa:	f1a3 3201 	sub.w	r2, r3, #16843009	; 0x1010101
   873ae:	ea22 0303 	bic.w	r3, r2, r3
   873b2:	f013 3f80 	tst.w	r3, #2155905152	; 0x80808080
   873b6:	f100 0004 	add.w	r0, r0, #4
   873ba:	d103      	bne.n	873c4 <memchr+0x80>
   873bc:	3c04      	subs	r4, #4
   873be:	2c03      	cmp	r4, #3
   873c0:	d8f0      	bhi.n	873a4 <memchr+0x60>
   873c2:	e7d8      	b.n	87376 <memchr+0x32>
   873c4:	4630      	mov	r0, r6
   873c6:	e7d7      	b.n	87378 <memchr+0x34>
   873c8:	4614      	mov	r4, r2
   873ca:	e7d2      	b.n	87372 <memchr+0x2e>
   873cc:	4620      	mov	r0, r4
   873ce:	e7e2      	b.n	87396 <memchr+0x52>

000873d0 <memmove>:
   873d0:	4288      	cmp	r0, r1
   873d2:	b5f0      	push	{r4, r5, r6, r7, lr}
   873d4:	d90d      	bls.n	873f2 <memmove+0x22>
   873d6:	188b      	adds	r3, r1, r2
   873d8:	4298      	cmp	r0, r3
   873da:	d20a      	bcs.n	873f2 <memmove+0x22>
   873dc:	1884      	adds	r4, r0, r2
   873de:	2a00      	cmp	r2, #0
   873e0:	d051      	beq.n	87486 <memmove+0xb6>
   873e2:	4622      	mov	r2, r4
   873e4:	f813 4d01 	ldrb.w	r4, [r3, #-1]!
   873e8:	4299      	cmp	r1, r3
   873ea:	f802 4d01 	strb.w	r4, [r2, #-1]!
   873ee:	d1f9      	bne.n	873e4 <memmove+0x14>
   873f0:	bdf0      	pop	{r4, r5, r6, r7, pc}
   873f2:	2a0f      	cmp	r2, #15
   873f4:	d948      	bls.n	87488 <memmove+0xb8>
   873f6:	ea41 0300 	orr.w	r3, r1, r0
   873fa:	079b      	lsls	r3, r3, #30
   873fc:	d146      	bne.n	8748c <memmove+0xbc>
   873fe:	4615      	mov	r5, r2
   87400:	f100 0410 	add.w	r4, r0, #16
   87404:	f101 0310 	add.w	r3, r1, #16
   87408:	f853 6c10 	ldr.w	r6, [r3, #-16]
   8740c:	3d10      	subs	r5, #16
   8740e:	f844 6c10 	str.w	r6, [r4, #-16]
   87412:	f853 6c0c 	ldr.w	r6, [r3, #-12]
   87416:	2d0f      	cmp	r5, #15
   87418:	f844 6c0c 	str.w	r6, [r4, #-12]
   8741c:	f853 6c08 	ldr.w	r6, [r3, #-8]
   87420:	f104 0410 	add.w	r4, r4, #16
   87424:	f844 6c18 	str.w	r6, [r4, #-24]
   87428:	f853 6c04 	ldr.w	r6, [r3, #-4]
   8742c:	f103 0310 	add.w	r3, r3, #16
   87430:	f844 6c14 	str.w	r6, [r4, #-20]
   87434:	d8e8      	bhi.n	87408 <memmove+0x38>
   87436:	f1a2 0310 	sub.w	r3, r2, #16
   8743a:	f023 030f 	bic.w	r3, r3, #15
   8743e:	f002 0e0f 	and.w	lr, r2, #15
   87442:	3310      	adds	r3, #16
   87444:	f1be 0f03 	cmp.w	lr, #3
   87448:	4419      	add	r1, r3
   8744a:	4403      	add	r3, r0
   8744c:	d921      	bls.n	87492 <memmove+0xc2>
   8744e:	460e      	mov	r6, r1
   87450:	4674      	mov	r4, lr
   87452:	1f1d      	subs	r5, r3, #4
   87454:	f856 7b04 	ldr.w	r7, [r6], #4
   87458:	3c04      	subs	r4, #4
   8745a:	2c03      	cmp	r4, #3
   8745c:	f845 7f04 	str.w	r7, [r5, #4]!
   87460:	d8f8      	bhi.n	87454 <memmove+0x84>
   87462:	f1ae 0404 	sub.w	r4, lr, #4
   87466:	f024 0403 	bic.w	r4, r4, #3
   8746a:	3404      	adds	r4, #4
   8746c:	4421      	add	r1, r4
   8746e:	4423      	add	r3, r4
   87470:	f002 0203 	and.w	r2, r2, #3
   87474:	b162      	cbz	r2, 87490 <memmove+0xc0>
   87476:	3b01      	subs	r3, #1
   87478:	440a      	add	r2, r1
   8747a:	f811 4b01 	ldrb.w	r4, [r1], #1
   8747e:	428a      	cmp	r2, r1
   87480:	f803 4f01 	strb.w	r4, [r3, #1]!
   87484:	d1f9      	bne.n	8747a <memmove+0xaa>
   87486:	bdf0      	pop	{r4, r5, r6, r7, pc}
   87488:	4603      	mov	r3, r0
   8748a:	e7f3      	b.n	87474 <memmove+0xa4>
   8748c:	4603      	mov	r3, r0
   8748e:	e7f2      	b.n	87476 <memmove+0xa6>
   87490:	bdf0      	pop	{r4, r5, r6, r7, pc}
   87492:	4672      	mov	r2, lr
   87494:	e7ee      	b.n	87474 <memmove+0xa4>
   87496:	bf00      	nop

00087498 <__malloc_lock>:
   87498:	4801      	ldr	r0, [pc, #4]	; (874a0 <__malloc_lock+0x8>)
   8749a:	f7ff bc17 	b.w	86ccc <__retarget_lock_acquire_recursive>
   8749e:	bf00      	nop
   874a0:	2007ae60 	.word	0x2007ae60

000874a4 <__malloc_unlock>:
   874a4:	4801      	ldr	r0, [pc, #4]	; (874ac <__malloc_unlock+0x8>)
   874a6:	f7ff bc13 	b.w	86cd0 <__retarget_lock_release_recursive>
   874aa:	bf00      	nop
   874ac:	2007ae60 	.word	0x2007ae60

000874b0 <_realloc_r>:
   874b0:	2900      	cmp	r1, #0
   874b2:	f000 8094 	beq.w	875de <_realloc_r+0x12e>
   874b6:	e92d 4ff0 	stmdb	sp!, {r4, r5, r6, r7, r8, r9, sl, fp, lr}
   874ba:	460c      	mov	r4, r1
   874bc:	4615      	mov	r5, r2
   874be:	b083      	sub	sp, #12
   874c0:	4680      	mov	r8, r0
   874c2:	f105 060b 	add.w	r6, r5, #11
   874c6:	f7ff ffe7 	bl	87498 <__malloc_lock>
   874ca:	f854 ec04 	ldr.w	lr, [r4, #-4]
   874ce:	2e16      	cmp	r6, #22
   874d0:	f02e 0703 	bic.w	r7, lr, #3
   874d4:	f1a4 0908 	sub.w	r9, r4, #8
   874d8:	d83c      	bhi.n	87554 <_realloc_r+0xa4>
   874da:	2210      	movs	r2, #16
   874dc:	4616      	mov	r6, r2
   874de:	42b5      	cmp	r5, r6
   874e0:	d83d      	bhi.n	8755e <_realloc_r+0xae>
   874e2:	4297      	cmp	r7, r2
   874e4:	da43      	bge.n	8756e <_realloc_r+0xbe>
   874e6:	4bc6      	ldr	r3, [pc, #792]	; (87800 <_realloc_r+0x350>)
   874e8:	eb09 0007 	add.w	r0, r9, r7
   874ec:	6899      	ldr	r1, [r3, #8]
   874ee:	4288      	cmp	r0, r1
   874f0:	f000 80c3 	beq.w	8767a <_realloc_r+0x1ca>
   874f4:	6843      	ldr	r3, [r0, #4]
   874f6:	f023 0101 	bic.w	r1, r3, #1
   874fa:	4401      	add	r1, r0
   874fc:	6849      	ldr	r1, [r1, #4]
   874fe:	07c9      	lsls	r1, r1, #31
   87500:	d54d      	bpl.n	8759e <_realloc_r+0xee>
   87502:	f01e 0f01 	tst.w	lr, #1
   87506:	f000 809b 	beq.w	87640 <_realloc_r+0x190>
   8750a:	4629      	mov	r1, r5
   8750c:	4640      	mov	r0, r8
   8750e:	f7ff fc61 	bl	86dd4 <_malloc_r>
   87512:	4605      	mov	r5, r0
   87514:	2800      	cmp	r0, #0
   87516:	d03b      	beq.n	87590 <_realloc_r+0xe0>
   87518:	f854 3c04 	ldr.w	r3, [r4, #-4]
   8751c:	f1a0 0208 	sub.w	r2, r0, #8
   87520:	f023 0301 	bic.w	r3, r3, #1
   87524:	444b      	add	r3, r9
   87526:	429a      	cmp	r2, r3
   87528:	f000 812b 	beq.w	87782 <_realloc_r+0x2d2>
   8752c:	1f3a      	subs	r2, r7, #4
   8752e:	2a24      	cmp	r2, #36	; 0x24
   87530:	f200 8118 	bhi.w	87764 <_realloc_r+0x2b4>
   87534:	2a13      	cmp	r2, #19
   87536:	f200 80eb 	bhi.w	87710 <_realloc_r+0x260>
   8753a:	4603      	mov	r3, r0
   8753c:	4622      	mov	r2, r4
   8753e:	6811      	ldr	r1, [r2, #0]
   87540:	6019      	str	r1, [r3, #0]
   87542:	6851      	ldr	r1, [r2, #4]
   87544:	6059      	str	r1, [r3, #4]
   87546:	6892      	ldr	r2, [r2, #8]
   87548:	609a      	str	r2, [r3, #8]
   8754a:	4621      	mov	r1, r4
   8754c:	4640      	mov	r0, r8
   8754e:	f7ff f923 	bl	86798 <_free_r>
   87552:	e01d      	b.n	87590 <_realloc_r+0xe0>
   87554:	f026 0607 	bic.w	r6, r6, #7
   87558:	2e00      	cmp	r6, #0
   8755a:	4632      	mov	r2, r6
   8755c:	dabf      	bge.n	874de <_realloc_r+0x2e>
   8755e:	2500      	movs	r5, #0
   87560:	230c      	movs	r3, #12
   87562:	4628      	mov	r0, r5
   87564:	f8c8 3000 	str.w	r3, [r8]
   87568:	b003      	add	sp, #12
   8756a:	e8bd 8ff0 	ldmia.w	sp!, {r4, r5, r6, r7, r8, r9, sl, fp, pc}
   8756e:	4625      	mov	r5, r4
   87570:	1bbb      	subs	r3, r7, r6
   87572:	2b0f      	cmp	r3, #15
   87574:	f8d9 2004 	ldr.w	r2, [r9, #4]
   87578:	d81d      	bhi.n	875b6 <_realloc_r+0x106>
   8757a:	f002 0201 	and.w	r2, r2, #1
   8757e:	433a      	orrs	r2, r7
   87580:	eb09 0107 	add.w	r1, r9, r7
   87584:	f8c9 2004 	str.w	r2, [r9, #4]
   87588:	684b      	ldr	r3, [r1, #4]
   8758a:	f043 0301 	orr.w	r3, r3, #1
   8758e:	604b      	str	r3, [r1, #4]
   87590:	4640      	mov	r0, r8
   87592:	f7ff ff87 	bl	874a4 <__malloc_unlock>
   87596:	4628      	mov	r0, r5
   87598:	b003      	add	sp, #12
   8759a:	e8bd 8ff0 	ldmia.w	sp!, {r4, r5, r6, r7, r8, r9, sl, fp, pc}
   8759e:	f023 0303 	bic.w	r3, r3, #3
   875a2:	18f9      	adds	r1, r7, r3
   875a4:	4291      	cmp	r1, r2
   875a6:	db1d      	blt.n	875e4 <_realloc_r+0x134>
   875a8:	68c3      	ldr	r3, [r0, #12]
   875aa:	6882      	ldr	r2, [r0, #8]
   875ac:	4625      	mov	r5, r4
   875ae:	60d3      	str	r3, [r2, #12]
   875b0:	460f      	mov	r7, r1
   875b2:	609a      	str	r2, [r3, #8]
   875b4:	e7dc      	b.n	87570 <_realloc_r+0xc0>
   875b6:	f002 0201 	and.w	r2, r2, #1
   875ba:	eb09 0106 	add.w	r1, r9, r6
   875be:	f043 0301 	orr.w	r3, r3, #1
   875c2:	4332      	orrs	r2, r6
   875c4:	f8c9 2004 	str.w	r2, [r9, #4]
   875c8:	444f      	add	r7, r9
   875ca:	604b      	str	r3, [r1, #4]
   875cc:	687b      	ldr	r3, [r7, #4]
   875ce:	3108      	adds	r1, #8
   875d0:	f043 0301 	orr.w	r3, r3, #1
   875d4:	607b      	str	r3, [r7, #4]
   875d6:	4640      	mov	r0, r8
   875d8:	f7ff f8de 	bl	86798 <_free_r>
   875dc:	e7d8      	b.n	87590 <_realloc_r+0xe0>
   875de:	4611      	mov	r1, r2
   875e0:	f7ff bbf8 	b.w	86dd4 <_malloc_r>
   875e4:	f01e 0f01 	tst.w	lr, #1
   875e8:	d18f      	bne.n	8750a <_realloc_r+0x5a>
   875ea:	f854 1c08 	ldr.w	r1, [r4, #-8]
   875ee:	eba9 0a01 	sub.w	sl, r9, r1
   875f2:	f8da 1004 	ldr.w	r1, [sl, #4]
   875f6:	f021 0103 	bic.w	r1, r1, #3
   875fa:	440b      	add	r3, r1
   875fc:	443b      	add	r3, r7
   875fe:	4293      	cmp	r3, r2
   87600:	db26      	blt.n	87650 <_realloc_r+0x1a0>
   87602:	4655      	mov	r5, sl
   87604:	68c1      	ldr	r1, [r0, #12]
   87606:	6880      	ldr	r0, [r0, #8]
   87608:	1f3a      	subs	r2, r7, #4
   8760a:	60c1      	str	r1, [r0, #12]
   8760c:	6088      	str	r0, [r1, #8]
   8760e:	f855 0f08 	ldr.w	r0, [r5, #8]!
   87612:	f8da 100c 	ldr.w	r1, [sl, #12]
   87616:	2a24      	cmp	r2, #36	; 0x24
   87618:	60c1      	str	r1, [r0, #12]
   8761a:	6088      	str	r0, [r1, #8]
   8761c:	d826      	bhi.n	8766c <_realloc_r+0x1bc>
   8761e:	2a13      	cmp	r2, #19
   87620:	f240 8081 	bls.w	87726 <_realloc_r+0x276>
   87624:	6821      	ldr	r1, [r4, #0]
   87626:	2a1b      	cmp	r2, #27
   87628:	f8ca 1008 	str.w	r1, [sl, #8]
   8762c:	6861      	ldr	r1, [r4, #4]
   8762e:	f8ca 100c 	str.w	r1, [sl, #12]
   87632:	f200 80ad 	bhi.w	87790 <_realloc_r+0x2e0>
   87636:	f104 0008 	add.w	r0, r4, #8
   8763a:	f10a 0210 	add.w	r2, sl, #16
   8763e:	e074      	b.n	8772a <_realloc_r+0x27a>
   87640:	f854 3c08 	ldr.w	r3, [r4, #-8]
   87644:	eba9 0a03 	sub.w	sl, r9, r3
   87648:	f8da 1004 	ldr.w	r1, [sl, #4]
   8764c:	f021 0103 	bic.w	r1, r1, #3
   87650:	187b      	adds	r3, r7, r1
   87652:	4293      	cmp	r3, r2
   87654:	f6ff af59 	blt.w	8750a <_realloc_r+0x5a>
   87658:	4655      	mov	r5, sl
   8765a:	f8da 100c 	ldr.w	r1, [sl, #12]
   8765e:	f855 0f08 	ldr.w	r0, [r5, #8]!
   87662:	1f3a      	subs	r2, r7, #4
   87664:	2a24      	cmp	r2, #36	; 0x24
   87666:	60c1      	str	r1, [r0, #12]
   87668:	6088      	str	r0, [r1, #8]
   8766a:	d9d8      	bls.n	8761e <_realloc_r+0x16e>
   8766c:	4621      	mov	r1, r4
   8766e:	4628      	mov	r0, r5
   87670:	461f      	mov	r7, r3
   87672:	46d1      	mov	r9, sl
   87674:	f7ff feac 	bl	873d0 <memmove>
   87678:	e77a      	b.n	87570 <_realloc_r+0xc0>
   8767a:	6841      	ldr	r1, [r0, #4]
   8767c:	f106 0010 	add.w	r0, r6, #16
   87680:	f021 0b03 	bic.w	fp, r1, #3
   87684:	44bb      	add	fp, r7
   87686:	4583      	cmp	fp, r0
   87688:	da58      	bge.n	8773c <_realloc_r+0x28c>
   8768a:	f01e 0f01 	tst.w	lr, #1
   8768e:	f47f af3c 	bne.w	8750a <_realloc_r+0x5a>
   87692:	f854 1c08 	ldr.w	r1, [r4, #-8]
   87696:	eba9 0a01 	sub.w	sl, r9, r1
   8769a:	f8da 1004 	ldr.w	r1, [sl, #4]
   8769e:	f021 0103 	bic.w	r1, r1, #3
   876a2:	448b      	add	fp, r1
   876a4:	4558      	cmp	r0, fp
   876a6:	dcd3      	bgt.n	87650 <_realloc_r+0x1a0>
   876a8:	4655      	mov	r5, sl
   876aa:	f8da 100c 	ldr.w	r1, [sl, #12]
   876ae:	f855 0f08 	ldr.w	r0, [r5, #8]!
   876b2:	1f3a      	subs	r2, r7, #4
   876b4:	2a24      	cmp	r2, #36	; 0x24
   876b6:	60c1      	str	r1, [r0, #12]
   876b8:	6088      	str	r0, [r1, #8]
   876ba:	f200 808d 	bhi.w	877d8 <_realloc_r+0x328>
   876be:	2a13      	cmp	r2, #19
   876c0:	f240 8087 	bls.w	877d2 <_realloc_r+0x322>
   876c4:	6821      	ldr	r1, [r4, #0]
   876c6:	2a1b      	cmp	r2, #27
   876c8:	f8ca 1008 	str.w	r1, [sl, #8]
   876cc:	6861      	ldr	r1, [r4, #4]
   876ce:	f8ca 100c 	str.w	r1, [sl, #12]
   876d2:	f200 8088 	bhi.w	877e6 <_realloc_r+0x336>
   876d6:	f104 0108 	add.w	r1, r4, #8
   876da:	f10a 0210 	add.w	r2, sl, #16
   876de:	6808      	ldr	r0, [r1, #0]
   876e0:	6010      	str	r0, [r2, #0]
   876e2:	6848      	ldr	r0, [r1, #4]
   876e4:	6050      	str	r0, [r2, #4]
   876e6:	6889      	ldr	r1, [r1, #8]
   876e8:	6091      	str	r1, [r2, #8]
   876ea:	ebab 0206 	sub.w	r2, fp, r6
   876ee:	eb0a 0106 	add.w	r1, sl, r6
   876f2:	f042 0201 	orr.w	r2, r2, #1
   876f6:	6099      	str	r1, [r3, #8]
   876f8:	604a      	str	r2, [r1, #4]
   876fa:	f8da 3004 	ldr.w	r3, [sl, #4]
   876fe:	4640      	mov	r0, r8
   87700:	f003 0301 	and.w	r3, r3, #1
   87704:	431e      	orrs	r6, r3
   87706:	f8ca 6004 	str.w	r6, [sl, #4]
   8770a:	f7ff fecb 	bl	874a4 <__malloc_unlock>
   8770e:	e742      	b.n	87596 <_realloc_r+0xe6>
   87710:	6823      	ldr	r3, [r4, #0]
   87712:	2a1b      	cmp	r2, #27
   87714:	6003      	str	r3, [r0, #0]
   87716:	6863      	ldr	r3, [r4, #4]
   87718:	6043      	str	r3, [r0, #4]
   8771a:	d827      	bhi.n	8776c <_realloc_r+0x2bc>
   8771c:	f100 0308 	add.w	r3, r0, #8
   87720:	f104 0208 	add.w	r2, r4, #8
   87724:	e70b      	b.n	8753e <_realloc_r+0x8e>
   87726:	4620      	mov	r0, r4
   87728:	462a      	mov	r2, r5
   8772a:	6801      	ldr	r1, [r0, #0]
   8772c:	461f      	mov	r7, r3
   8772e:	6011      	str	r1, [r2, #0]
   87730:	6841      	ldr	r1, [r0, #4]
   87732:	46d1      	mov	r9, sl
   87734:	6051      	str	r1, [r2, #4]
   87736:	6883      	ldr	r3, [r0, #8]
   87738:	6093      	str	r3, [r2, #8]
   8773a:	e719      	b.n	87570 <_realloc_r+0xc0>
   8773c:	ebab 0b06 	sub.w	fp, fp, r6
   87740:	eb09 0106 	add.w	r1, r9, r6
   87744:	f04b 0201 	orr.w	r2, fp, #1
   87748:	6099      	str	r1, [r3, #8]
   8774a:	604a      	str	r2, [r1, #4]
   8774c:	f854 3c04 	ldr.w	r3, [r4, #-4]
   87750:	4640      	mov	r0, r8
   87752:	f003 0301 	and.w	r3, r3, #1
   87756:	431e      	orrs	r6, r3
   87758:	f844 6c04 	str.w	r6, [r4, #-4]
   8775c:	f7ff fea2 	bl	874a4 <__malloc_unlock>
   87760:	4625      	mov	r5, r4
   87762:	e718      	b.n	87596 <_realloc_r+0xe6>
   87764:	4621      	mov	r1, r4
   87766:	f7ff fe33 	bl	873d0 <memmove>
   8776a:	e6ee      	b.n	8754a <_realloc_r+0x9a>
   8776c:	68a3      	ldr	r3, [r4, #8]
   8776e:	2a24      	cmp	r2, #36	; 0x24
   87770:	6083      	str	r3, [r0, #8]
   87772:	68e3      	ldr	r3, [r4, #12]
   87774:	60c3      	str	r3, [r0, #12]
   87776:	d018      	beq.n	877aa <_realloc_r+0x2fa>
   87778:	f100 0310 	add.w	r3, r0, #16
   8777c:	f104 0210 	add.w	r2, r4, #16
   87780:	e6dd      	b.n	8753e <_realloc_r+0x8e>
   87782:	f850 3c04 	ldr.w	r3, [r0, #-4]
   87786:	4625      	mov	r5, r4
   87788:	f023 0303 	bic.w	r3, r3, #3
   8778c:	441f      	add	r7, r3
   8778e:	e6ef      	b.n	87570 <_realloc_r+0xc0>
   87790:	68a1      	ldr	r1, [r4, #8]
   87792:	2a24      	cmp	r2, #36	; 0x24
   87794:	f8ca 1010 	str.w	r1, [sl, #16]
   87798:	68e1      	ldr	r1, [r4, #12]
   8779a:	f8ca 1014 	str.w	r1, [sl, #20]
   8779e:	d00d      	beq.n	877bc <_realloc_r+0x30c>
   877a0:	f104 0010 	add.w	r0, r4, #16
   877a4:	f10a 0218 	add.w	r2, sl, #24
   877a8:	e7bf      	b.n	8772a <_realloc_r+0x27a>
   877aa:	6922      	ldr	r2, [r4, #16]
   877ac:	f100 0318 	add.w	r3, r0, #24
   877b0:	6102      	str	r2, [r0, #16]
   877b2:	6961      	ldr	r1, [r4, #20]
   877b4:	f104 0218 	add.w	r2, r4, #24
   877b8:	6141      	str	r1, [r0, #20]
   877ba:	e6c0      	b.n	8753e <_realloc_r+0x8e>
   877bc:	6922      	ldr	r2, [r4, #16]
   877be:	f104 0018 	add.w	r0, r4, #24
   877c2:	f8ca 2018 	str.w	r2, [sl, #24]
   877c6:	6961      	ldr	r1, [r4, #20]
   877c8:	f10a 0220 	add.w	r2, sl, #32
   877cc:	f8ca 101c 	str.w	r1, [sl, #28]
   877d0:	e7ab      	b.n	8772a <_realloc_r+0x27a>
   877d2:	4621      	mov	r1, r4
   877d4:	462a      	mov	r2, r5
   877d6:	e782      	b.n	876de <_realloc_r+0x22e>
   877d8:	4621      	mov	r1, r4
   877da:	4628      	mov	r0, r5
   877dc:	9301      	str	r3, [sp, #4]
   877de:	f7ff fdf7 	bl	873d0 <memmove>
   877e2:	9b01      	ldr	r3, [sp, #4]
   877e4:	e781      	b.n	876ea <_realloc_r+0x23a>
   877e6:	68a1      	ldr	r1, [r4, #8]
   877e8:	2a24      	cmp	r2, #36	; 0x24
   877ea:	f8ca 1010 	str.w	r1, [sl, #16]
   877ee:	68e1      	ldr	r1, [r4, #12]
   877f0:	f8ca 1014 	str.w	r1, [sl, #20]
   877f4:	d006      	beq.n	87804 <_realloc_r+0x354>
   877f6:	f104 0110 	add.w	r1, r4, #16
   877fa:	f10a 0218 	add.w	r2, sl, #24
   877fe:	e76e      	b.n	876de <_realloc_r+0x22e>
   87800:	20070710 	.word	0x20070710
   87804:	6922      	ldr	r2, [r4, #16]
   87806:	f104 0118 	add.w	r1, r4, #24
   8780a:	f8ca 2018 	str.w	r2, [sl, #24]
   8780e:	6960      	ldr	r0, [r4, #20]
   87810:	f10a 0220 	add.w	r2, sl, #32
   87814:	f8ca 001c 	str.w	r0, [sl, #28]
   87818:	e761      	b.n	876de <_realloc_r+0x22e>
   8781a:	bf00      	nop

0008781c <_sbrk_r>:
   8781c:	b538      	push	{r3, r4, r5, lr}
   8781e:	2300      	movs	r3, #0
   87820:	4c06      	ldr	r4, [pc, #24]	; (8783c <_sbrk_r+0x20>)
   87822:	4605      	mov	r5, r0
   87824:	4608      	mov	r0, r1
   87826:	6023      	str	r3, [r4, #0]
   87828:	f7fc f95c 	bl	83ae4 <_sbrk>
   8782c:	1c43      	adds	r3, r0, #1
   8782e:	d000      	beq.n	87832 <_sbrk_r+0x16>
   87830:	bd38      	pop	{r3, r4, r5, pc}
   87832:	6823      	ldr	r3, [r4, #0]
   87834:	2b00      	cmp	r3, #0
   87836:	d0fb      	beq.n	87830 <_sbrk_r+0x14>
   87838:	602b      	str	r3, [r5, #0]
   8783a:	bd38      	pop	{r3, r4, r5, pc}
   8783c:	2007ae74 	.word	0x2007ae74

00087840 <__sread>:
   87840:	b510      	push	{r4, lr}
   87842:	460c      	mov	r4, r1
   87844:	f9b1 100e 	ldrsh.w	r1, [r1, #14]
   87848:	f000 f9f4 	bl	87c34 <_read_r>
   8784c:	2800      	cmp	r0, #0
   8784e:	db03      	blt.n	87858 <__sread+0x18>
   87850:	6d23      	ldr	r3, [r4, #80]	; 0x50
   87852:	4403      	add	r3, r0
   87854:	6523      	str	r3, [r4, #80]	; 0x50
   87856:	bd10      	pop	{r4, pc}
   87858:	89a3      	ldrh	r3, [r4, #12]
   8785a:	f423 5380 	bic.w	r3, r3, #4096	; 0x1000
   8785e:	81a3      	strh	r3, [r4, #12]
   87860:	bd10      	pop	{r4, pc}
   87862:	bf00      	nop

00087864 <__swrite>:
   87864:	e92d 41f0 	stmdb	sp!, {r4, r5, r6, r7, r8, lr}
   87868:	460c      	mov	r4, r1
   8786a:	f9b1 100c 	ldrsh.w	r1, [r1, #12]
   8786e:	461f      	mov	r7, r3
   87870:	05cb      	lsls	r3, r1, #23
   87872:	4616      	mov	r6, r2
   87874:	4605      	mov	r5, r0
   87876:	d507      	bpl.n	87888 <__swrite+0x24>
   87878:	f9b4 100e 	ldrsh.w	r1, [r4, #14]
   8787c:	2302      	movs	r3, #2
   8787e:	2200      	movs	r2, #0
   87880:	f000 f9c2 	bl	87c08 <_lseek_r>
   87884:	f9b4 100c 	ldrsh.w	r1, [r4, #12]
   87888:	f421 5180 	bic.w	r1, r1, #4096	; 0x1000
   8788c:	81a1      	strh	r1, [r4, #12]
   8788e:	463b      	mov	r3, r7
   87890:	4632      	mov	r2, r6
   87892:	f9b4 100e 	ldrsh.w	r1, [r4, #14]
   87896:	4628      	mov	r0, r5
   87898:	e8bd 41f0 	ldmia.w	sp!, {r4, r5, r6, r7, r8, lr}
   8789c:	f000 b8a2 	b.w	879e4 <_write_r>

000878a0 <__sseek>:
   878a0:	b510      	push	{r4, lr}
   878a2:	460c      	mov	r4, r1
   878a4:	f9b1 100e 	ldrsh.w	r1, [r1, #14]
   878a8:	f000 f9ae 	bl	87c08 <_lseek_r>
   878ac:	89a3      	ldrh	r3, [r4, #12]
   878ae:	1c42      	adds	r2, r0, #1
   878b0:	bf0e      	itee	eq
   878b2:	f423 5380 	biceq.w	r3, r3, #4096	; 0x1000
   878b6:	f443 5380 	orrne.w	r3, r3, #4096	; 0x1000
   878ba:	6520      	strne	r0, [r4, #80]	; 0x50
   878bc:	81a3      	strh	r3, [r4, #12]
   878be:	bd10      	pop	{r4, pc}

000878c0 <__sclose>:
   878c0:	f9b1 100e 	ldrsh.w	r1, [r1, #14]
   878c4:	f000 b906 	b.w	87ad4 <_close_r>

000878c8 <__swbuf_r>:
   878c8:	b5f8      	push	{r3, r4, r5, r6, r7, lr}
   878ca:	460d      	mov	r5, r1
   878cc:	4614      	mov	r4, r2
   878ce:	4606      	mov	r6, r0
   878d0:	b110      	cbz	r0, 878d8 <__swbuf_r+0x10>
   878d2:	6b83      	ldr	r3, [r0, #56]	; 0x38
   878d4:	2b00      	cmp	r3, #0
   878d6:	d04b      	beq.n	87970 <__swbuf_r+0xa8>
   878d8:	f9b4 200c 	ldrsh.w	r2, [r4, #12]
   878dc:	69a3      	ldr	r3, [r4, #24]
   878de:	b291      	uxth	r1, r2
   878e0:	0708      	lsls	r0, r1, #28
   878e2:	60a3      	str	r3, [r4, #8]
   878e4:	d539      	bpl.n	8795a <__swbuf_r+0x92>
   878e6:	6923      	ldr	r3, [r4, #16]
   878e8:	2b00      	cmp	r3, #0
   878ea:	d036      	beq.n	8795a <__swbuf_r+0x92>
   878ec:	b2ed      	uxtb	r5, r5
   878ee:	0489      	lsls	r1, r1, #18
   878f0:	462f      	mov	r7, r5
   878f2:	d515      	bpl.n	87920 <__swbuf_r+0x58>
   878f4:	6822      	ldr	r2, [r4, #0]
   878f6:	6961      	ldr	r1, [r4, #20]
   878f8:	1ad3      	subs	r3, r2, r3
   878fa:	428b      	cmp	r3, r1
   878fc:	da1c      	bge.n	87938 <__swbuf_r+0x70>
   878fe:	3301      	adds	r3, #1
   87900:	68a1      	ldr	r1, [r4, #8]
   87902:	1c50      	adds	r0, r2, #1
   87904:	3901      	subs	r1, #1
   87906:	60a1      	str	r1, [r4, #8]
   87908:	6020      	str	r0, [r4, #0]
   8790a:	7015      	strb	r5, [r2, #0]
   8790c:	6962      	ldr	r2, [r4, #20]
   8790e:	429a      	cmp	r2, r3
   87910:	d01a      	beq.n	87948 <__swbuf_r+0x80>
   87912:	89a3      	ldrh	r3, [r4, #12]
   87914:	07db      	lsls	r3, r3, #31
   87916:	d501      	bpl.n	8791c <__swbuf_r+0x54>
   87918:	2d0a      	cmp	r5, #10
   8791a:	d015      	beq.n	87948 <__swbuf_r+0x80>
   8791c:	4638      	mov	r0, r7
   8791e:	bdf8      	pop	{r3, r4, r5, r6, r7, pc}
   87920:	6e61      	ldr	r1, [r4, #100]	; 0x64
   87922:	f442 5200 	orr.w	r2, r2, #8192	; 0x2000
   87926:	f421 5100 	bic.w	r1, r1, #8192	; 0x2000
   8792a:	81a2      	strh	r2, [r4, #12]
   8792c:	6822      	ldr	r2, [r4, #0]
   8792e:	6661      	str	r1, [r4, #100]	; 0x64
   87930:	6961      	ldr	r1, [r4, #20]
   87932:	1ad3      	subs	r3, r2, r3
   87934:	428b      	cmp	r3, r1
   87936:	dbe2      	blt.n	878fe <__swbuf_r+0x36>
   87938:	4621      	mov	r1, r4
   8793a:	4630      	mov	r0, r6
   8793c:	f7fe fdae 	bl	8649c <_fflush_r>
   87940:	b940      	cbnz	r0, 87954 <__swbuf_r+0x8c>
   87942:	2301      	movs	r3, #1
   87944:	6822      	ldr	r2, [r4, #0]
   87946:	e7db      	b.n	87900 <__swbuf_r+0x38>
   87948:	4621      	mov	r1, r4
   8794a:	4630      	mov	r0, r6
   8794c:	f7fe fda6 	bl	8649c <_fflush_r>
   87950:	2800      	cmp	r0, #0
   87952:	d0e3      	beq.n	8791c <__swbuf_r+0x54>
   87954:	f04f 37ff 	mov.w	r7, #4294967295
   87958:	e7e0      	b.n	8791c <__swbuf_r+0x54>
   8795a:	4621      	mov	r1, r4
   8795c:	4630      	mov	r0, r6
   8795e:	f7fe fc8d 	bl	8627c <__swsetup_r>
   87962:	2800      	cmp	r0, #0
   87964:	d1f6      	bne.n	87954 <__swbuf_r+0x8c>
   87966:	f9b4 200c 	ldrsh.w	r2, [r4, #12]
   8796a:	6923      	ldr	r3, [r4, #16]
   8796c:	b291      	uxth	r1, r2
   8796e:	e7bd      	b.n	878ec <__swbuf_r+0x24>
   87970:	f7fe fdec 	bl	8654c <__sinit>
   87974:	e7b0      	b.n	878d8 <__swbuf_r+0x10>
   87976:	bf00      	nop

00087978 <_wcrtomb_r>:
   87978:	b5f0      	push	{r4, r5, r6, r7, lr}
   8797a:	4606      	mov	r6, r0
   8797c:	b085      	sub	sp, #20
   8797e:	461f      	mov	r7, r3
   87980:	b189      	cbz	r1, 879a6 <_wcrtomb_r+0x2e>
   87982:	4c10      	ldr	r4, [pc, #64]	; (879c4 <_wcrtomb_r+0x4c>)
   87984:	4d10      	ldr	r5, [pc, #64]	; (879c8 <_wcrtomb_r+0x50>)
   87986:	6824      	ldr	r4, [r4, #0]
   87988:	6b64      	ldr	r4, [r4, #52]	; 0x34
   8798a:	2c00      	cmp	r4, #0
   8798c:	bf08      	it	eq
   8798e:	462c      	moveq	r4, r5
   87990:	f8d4 40e0 	ldr.w	r4, [r4, #224]	; 0xe0
   87994:	47a0      	blx	r4
   87996:	1c43      	adds	r3, r0, #1
   87998:	d103      	bne.n	879a2 <_wcrtomb_r+0x2a>
   8799a:	2200      	movs	r2, #0
   8799c:	238a      	movs	r3, #138	; 0x8a
   8799e:	603a      	str	r2, [r7, #0]
   879a0:	6033      	str	r3, [r6, #0]
   879a2:	b005      	add	sp, #20
   879a4:	bdf0      	pop	{r4, r5, r6, r7, pc}
   879a6:	460c      	mov	r4, r1
   879a8:	4a06      	ldr	r2, [pc, #24]	; (879c4 <_wcrtomb_r+0x4c>)
   879aa:	4d07      	ldr	r5, [pc, #28]	; (879c8 <_wcrtomb_r+0x50>)
   879ac:	6811      	ldr	r1, [r2, #0]
   879ae:	4622      	mov	r2, r4
   879b0:	6b4c      	ldr	r4, [r1, #52]	; 0x34
   879b2:	a901      	add	r1, sp, #4
   879b4:	2c00      	cmp	r4, #0
   879b6:	bf08      	it	eq
   879b8:	462c      	moveq	r4, r5
   879ba:	f8d4 40e0 	ldr.w	r4, [r4, #224]	; 0xe0
   879be:	47a0      	blx	r4
   879c0:	e7e9      	b.n	87996 <_wcrtomb_r+0x1e>
   879c2:	bf00      	nop
   879c4:	20070170 	.word	0x20070170
   879c8:	200705a4 	.word	0x200705a4

000879cc <__ascii_wctomb>:
   879cc:	b119      	cbz	r1, 879d6 <__ascii_wctomb+0xa>
   879ce:	2aff      	cmp	r2, #255	; 0xff
   879d0:	d803      	bhi.n	879da <__ascii_wctomb+0xe>
   879d2:	700a      	strb	r2, [r1, #0]
   879d4:	2101      	movs	r1, #1
   879d6:	4608      	mov	r0, r1
   879d8:	4770      	bx	lr
   879da:	238a      	movs	r3, #138	; 0x8a
   879dc:	f04f 31ff 	mov.w	r1, #4294967295
   879e0:	6003      	str	r3, [r0, #0]
   879e2:	e7f8      	b.n	879d6 <__ascii_wctomb+0xa>

000879e4 <_write_r>:
   879e4:	b5f8      	push	{r3, r4, r5, r6, r7, lr}
   879e6:	460e      	mov	r6, r1
   879e8:	2500      	movs	r5, #0
   879ea:	4c08      	ldr	r4, [pc, #32]	; (87a0c <_write_r+0x28>)
   879ec:	4611      	mov	r1, r2
   879ee:	4607      	mov	r7, r0
   879f0:	461a      	mov	r2, r3
   879f2:	4630      	mov	r0, r6
   879f4:	6025      	str	r5, [r4, #0]
   879f6:	f7fa f8bd 	bl	81b74 <_write>
   879fa:	1c43      	adds	r3, r0, #1
   879fc:	d000      	beq.n	87a00 <_write_r+0x1c>
   879fe:	bdf8      	pop	{r3, r4, r5, r6, r7, pc}
   87a00:	6823      	ldr	r3, [r4, #0]
   87a02:	2b00      	cmp	r3, #0
   87a04:	d0fb      	beq.n	879fe <_write_r+0x1a>
   87a06:	603b      	str	r3, [r7, #0]
   87a08:	bdf8      	pop	{r3, r4, r5, r6, r7, pc}
   87a0a:	bf00      	nop
   87a0c:	2007ae74 	.word	0x2007ae74

00087a10 <__register_exitproc>:
   87a10:	e92d 43f8 	stmdb	sp!, {r3, r4, r5, r6, r7, r8, r9, lr}
   87a14:	4d2c      	ldr	r5, [pc, #176]	; (87ac8 <__register_exitproc+0xb8>)
   87a16:	4606      	mov	r6, r0
   87a18:	6828      	ldr	r0, [r5, #0]
   87a1a:	4698      	mov	r8, r3
   87a1c:	460f      	mov	r7, r1
   87a1e:	4691      	mov	r9, r2
   87a20:	f7ff f954 	bl	86ccc <__retarget_lock_acquire_recursive>
   87a24:	4b29      	ldr	r3, [pc, #164]	; (87acc <__register_exitproc+0xbc>)
   87a26:	681c      	ldr	r4, [r3, #0]
   87a28:	f8d4 3148 	ldr.w	r3, [r4, #328]	; 0x148
   87a2c:	2b00      	cmp	r3, #0
   87a2e:	d03e      	beq.n	87aae <__register_exitproc+0x9e>
   87a30:	685a      	ldr	r2, [r3, #4]
   87a32:	2a1f      	cmp	r2, #31
   87a34:	dc1c      	bgt.n	87a70 <__register_exitproc+0x60>
   87a36:	f102 0e01 	add.w	lr, r2, #1
   87a3a:	b176      	cbz	r6, 87a5a <__register_exitproc+0x4a>
   87a3c:	2101      	movs	r1, #1
   87a3e:	eb03 0482 	add.w	r4, r3, r2, lsl #2
   87a42:	f8c4 9088 	str.w	r9, [r4, #136]	; 0x88
   87a46:	f8d3 0188 	ldr.w	r0, [r3, #392]	; 0x188
   87a4a:	4091      	lsls	r1, r2
   87a4c:	4308      	orrs	r0, r1
   87a4e:	2e02      	cmp	r6, #2
   87a50:	f8c3 0188 	str.w	r0, [r3, #392]	; 0x188
   87a54:	f8c4 8108 	str.w	r8, [r4, #264]	; 0x108
   87a58:	d023      	beq.n	87aa2 <__register_exitproc+0x92>
   87a5a:	3202      	adds	r2, #2
   87a5c:	f8c3 e004 	str.w	lr, [r3, #4]
   87a60:	6828      	ldr	r0, [r5, #0]
   87a62:	f843 7022 	str.w	r7, [r3, r2, lsl #2]
   87a66:	f7ff f933 	bl	86cd0 <__retarget_lock_release_recursive>
   87a6a:	2000      	movs	r0, #0
   87a6c:	e8bd 83f8 	ldmia.w	sp!, {r3, r4, r5, r6, r7, r8, r9, pc}
   87a70:	4b17      	ldr	r3, [pc, #92]	; (87ad0 <__register_exitproc+0xc0>)
   87a72:	b30b      	cbz	r3, 87ab8 <__register_exitproc+0xa8>
   87a74:	f44f 70c8 	mov.w	r0, #400	; 0x190
   87a78:	f7ff f9a4 	bl	86dc4 <malloc>
   87a7c:	4603      	mov	r3, r0
   87a7e:	b1d8      	cbz	r0, 87ab8 <__register_exitproc+0xa8>
   87a80:	2000      	movs	r0, #0
   87a82:	f8d4 1148 	ldr.w	r1, [r4, #328]	; 0x148
   87a86:	f04f 0e01 	mov.w	lr, #1
   87a8a:	6058      	str	r0, [r3, #4]
   87a8c:	6019      	str	r1, [r3, #0]
   87a8e:	4602      	mov	r2, r0
   87a90:	f8c4 3148 	str.w	r3, [r4, #328]	; 0x148
   87a94:	f8c3 0188 	str.w	r0, [r3, #392]	; 0x188
   87a98:	f8c3 018c 	str.w	r0, [r3, #396]	; 0x18c
   87a9c:	2e00      	cmp	r6, #0
   87a9e:	d0dc      	beq.n	87a5a <__register_exitproc+0x4a>
   87aa0:	e7cc      	b.n	87a3c <__register_exitproc+0x2c>
   87aa2:	f8d3 018c 	ldr.w	r0, [r3, #396]	; 0x18c
   87aa6:	4301      	orrs	r1, r0
   87aa8:	f8c3 118c 	str.w	r1, [r3, #396]	; 0x18c
   87aac:	e7d5      	b.n	87a5a <__register_exitproc+0x4a>
   87aae:	f504 73a6 	add.w	r3, r4, #332	; 0x14c
   87ab2:	f8c4 3148 	str.w	r3, [r4, #328]	; 0x148
   87ab6:	e7bb      	b.n	87a30 <__register_exitproc+0x20>
   87ab8:	6828      	ldr	r0, [r5, #0]
   87aba:	f7ff f909 	bl	86cd0 <__retarget_lock_release_recursive>
   87abe:	f04f 30ff 	mov.w	r0, #4294967295
   87ac2:	e8bd 83f8 	ldmia.w	sp!, {r3, r4, r5, r6, r7, r8, r9, pc}
   87ac6:	bf00      	nop
   87ac8:	200705a0 	.word	0x200705a0
   87acc:	00088540 	.word	0x00088540
   87ad0:	00086dc5 	.word	0x00086dc5

00087ad4 <_close_r>:
   87ad4:	b538      	push	{r3, r4, r5, lr}
   87ad6:	2300      	movs	r3, #0
   87ad8:	4c06      	ldr	r4, [pc, #24]	; (87af4 <_close_r+0x20>)
   87ada:	4605      	mov	r5, r0
   87adc:	4608      	mov	r0, r1
   87ade:	6023      	str	r3, [r4, #0]
   87ae0:	f7fc f816 	bl	83b10 <_close>
   87ae4:	1c43      	adds	r3, r0, #1
   87ae6:	d000      	beq.n	87aea <_close_r+0x16>
   87ae8:	bd38      	pop	{r3, r4, r5, pc}
   87aea:	6823      	ldr	r3, [r4, #0]
   87aec:	2b00      	cmp	r3, #0
   87aee:	d0fb      	beq.n	87ae8 <_close_r+0x14>
   87af0:	602b      	str	r3, [r5, #0]
   87af2:	bd38      	pop	{r3, r4, r5, pc}
   87af4:	2007ae74 	.word	0x2007ae74

00087af8 <_fclose_r>:
   87af8:	b570      	push	{r4, r5, r6, lr}
   87afa:	b159      	cbz	r1, 87b14 <_fclose_r+0x1c>
   87afc:	4605      	mov	r5, r0
   87afe:	460c      	mov	r4, r1
   87b00:	b110      	cbz	r0, 87b08 <_fclose_r+0x10>
   87b02:	6b83      	ldr	r3, [r0, #56]	; 0x38
   87b04:	2b00      	cmp	r3, #0
   87b06:	d03c      	beq.n	87b82 <_fclose_r+0x8a>
   87b08:	6e63      	ldr	r3, [r4, #100]	; 0x64
   87b0a:	07d8      	lsls	r0, r3, #31
   87b0c:	d505      	bpl.n	87b1a <_fclose_r+0x22>
   87b0e:	f9b4 300c 	ldrsh.w	r3, [r4, #12]
   87b12:	b92b      	cbnz	r3, 87b20 <_fclose_r+0x28>
   87b14:	2600      	movs	r6, #0
   87b16:	4630      	mov	r0, r6
   87b18:	bd70      	pop	{r4, r5, r6, pc}
   87b1a:	89a3      	ldrh	r3, [r4, #12]
   87b1c:	0599      	lsls	r1, r3, #22
   87b1e:	d53c      	bpl.n	87b9a <_fclose_r+0xa2>
   87b20:	4621      	mov	r1, r4
   87b22:	4628      	mov	r0, r5
   87b24:	f7fe fc1e 	bl	86364 <__sflush_r>
   87b28:	6ae3      	ldr	r3, [r4, #44]	; 0x2c
   87b2a:	4606      	mov	r6, r0
   87b2c:	b133      	cbz	r3, 87b3c <_fclose_r+0x44>
   87b2e:	69e1      	ldr	r1, [r4, #28]
   87b30:	4628      	mov	r0, r5
   87b32:	4798      	blx	r3
   87b34:	2800      	cmp	r0, #0
   87b36:	bfb8      	it	lt
   87b38:	f04f 36ff 	movlt.w	r6, #4294967295
   87b3c:	89a3      	ldrh	r3, [r4, #12]
   87b3e:	061a      	lsls	r2, r3, #24
   87b40:	d422      	bmi.n	87b88 <_fclose_r+0x90>
   87b42:	6b21      	ldr	r1, [r4, #48]	; 0x30
   87b44:	b141      	cbz	r1, 87b58 <_fclose_r+0x60>
   87b46:	f104 0340 	add.w	r3, r4, #64	; 0x40
   87b4a:	4299      	cmp	r1, r3
   87b4c:	d002      	beq.n	87b54 <_fclose_r+0x5c>
   87b4e:	4628      	mov	r0, r5
   87b50:	f7fe fe22 	bl	86798 <_free_r>
   87b54:	2300      	movs	r3, #0
   87b56:	6323      	str	r3, [r4, #48]	; 0x30
   87b58:	6c61      	ldr	r1, [r4, #68]	; 0x44
   87b5a:	b121      	cbz	r1, 87b66 <_fclose_r+0x6e>
   87b5c:	4628      	mov	r0, r5
   87b5e:	f7fe fe1b 	bl	86798 <_free_r>
   87b62:	2300      	movs	r3, #0
   87b64:	6463      	str	r3, [r4, #68]	; 0x44
   87b66:	f7fe fd21 	bl	865ac <__sfp_lock_acquire>
   87b6a:	2200      	movs	r2, #0
   87b6c:	6e63      	ldr	r3, [r4, #100]	; 0x64
   87b6e:	81a2      	strh	r2, [r4, #12]
   87b70:	07db      	lsls	r3, r3, #31
   87b72:	d50e      	bpl.n	87b92 <_fclose_r+0x9a>
   87b74:	6da0      	ldr	r0, [r4, #88]	; 0x58
   87b76:	f7ff f8a7 	bl	86cc8 <__retarget_lock_close_recursive>
   87b7a:	f7fe fd1d 	bl	865b8 <__sfp_lock_release>
   87b7e:	4630      	mov	r0, r6
   87b80:	bd70      	pop	{r4, r5, r6, pc}
   87b82:	f7fe fce3 	bl	8654c <__sinit>
   87b86:	e7bf      	b.n	87b08 <_fclose_r+0x10>
   87b88:	6921      	ldr	r1, [r4, #16]
   87b8a:	4628      	mov	r0, r5
   87b8c:	f7fe fe04 	bl	86798 <_free_r>
   87b90:	e7d7      	b.n	87b42 <_fclose_r+0x4a>
   87b92:	6da0      	ldr	r0, [r4, #88]	; 0x58
   87b94:	f7ff f89c 	bl	86cd0 <__retarget_lock_release_recursive>
   87b98:	e7ec      	b.n	87b74 <_fclose_r+0x7c>
   87b9a:	6da0      	ldr	r0, [r4, #88]	; 0x58
   87b9c:	f7ff f896 	bl	86ccc <__retarget_lock_acquire_recursive>
   87ba0:	f9b4 300c 	ldrsh.w	r3, [r4, #12]
   87ba4:	2b00      	cmp	r3, #0
   87ba6:	d1bb      	bne.n	87b20 <_fclose_r+0x28>
   87ba8:	6e66      	ldr	r6, [r4, #100]	; 0x64
   87baa:	f016 0601 	ands.w	r6, r6, #1
   87bae:	d1b1      	bne.n	87b14 <_fclose_r+0x1c>
   87bb0:	6da0      	ldr	r0, [r4, #88]	; 0x58
   87bb2:	f7ff f88d 	bl	86cd0 <__retarget_lock_release_recursive>
   87bb6:	4630      	mov	r0, r6
   87bb8:	bd70      	pop	{r4, r5, r6, pc}
   87bba:	bf00      	nop

00087bbc <_fstat_r>:
   87bbc:	b570      	push	{r4, r5, r6, lr}
   87bbe:	460d      	mov	r5, r1
   87bc0:	2300      	movs	r3, #0
   87bc2:	4c07      	ldr	r4, [pc, #28]	; (87be0 <_fstat_r+0x24>)
   87bc4:	4606      	mov	r6, r0
   87bc6:	4611      	mov	r1, r2
   87bc8:	4628      	mov	r0, r5
   87bca:	6023      	str	r3, [r4, #0]
   87bcc:	f7fb ffa3 	bl	83b16 <_fstat>
   87bd0:	1c43      	adds	r3, r0, #1
   87bd2:	d000      	beq.n	87bd6 <_fstat_r+0x1a>
   87bd4:	bd70      	pop	{r4, r5, r6, pc}
   87bd6:	6823      	ldr	r3, [r4, #0]
   87bd8:	2b00      	cmp	r3, #0
   87bda:	d0fb      	beq.n	87bd4 <_fstat_r+0x18>
   87bdc:	6033      	str	r3, [r6, #0]
   87bde:	bd70      	pop	{r4, r5, r6, pc}
   87be0:	2007ae74 	.word	0x2007ae74

00087be4 <_isatty_r>:
   87be4:	b538      	push	{r3, r4, r5, lr}
   87be6:	2300      	movs	r3, #0
   87be8:	4c06      	ldr	r4, [pc, #24]	; (87c04 <_isatty_r+0x20>)
   87bea:	4605      	mov	r5, r0
   87bec:	4608      	mov	r0, r1
   87bee:	6023      	str	r3, [r4, #0]
   87bf0:	f7fb ff96 	bl	83b20 <_isatty>
   87bf4:	1c43      	adds	r3, r0, #1
   87bf6:	d000      	beq.n	87bfa <_isatty_r+0x16>
   87bf8:	bd38      	pop	{r3, r4, r5, pc}
   87bfa:	6823      	ldr	r3, [r4, #0]
   87bfc:	2b00      	cmp	r3, #0
   87bfe:	d0fb      	beq.n	87bf8 <_isatty_r+0x14>
   87c00:	602b      	str	r3, [r5, #0]
   87c02:	bd38      	pop	{r3, r4, r5, pc}
   87c04:	2007ae74 	.word	0x2007ae74

00087c08 <_lseek_r>:
   87c08:	b5f8      	push	{r3, r4, r5, r6, r7, lr}
   87c0a:	460e      	mov	r6, r1
   87c0c:	2500      	movs	r5, #0
   87c0e:	4c08      	ldr	r4, [pc, #32]	; (87c30 <_lseek_r+0x28>)
   87c10:	4611      	mov	r1, r2
   87c12:	4607      	mov	r7, r0
   87c14:	461a      	mov	r2, r3
   87c16:	4630      	mov	r0, r6
   87c18:	6025      	str	r5, [r4, #0]
   87c1a:	f7fb ff83 	bl	83b24 <_lseek>
   87c1e:	1c43      	adds	r3, r0, #1
   87c20:	d000      	beq.n	87c24 <_lseek_r+0x1c>
   87c22:	bdf8      	pop	{r3, r4, r5, r6, r7, pc}
   87c24:	6823      	ldr	r3, [r4, #0]
   87c26:	2b00      	cmp	r3, #0
   87c28:	d0fb      	beq.n	87c22 <_lseek_r+0x1a>
   87c2a:	603b      	str	r3, [r7, #0]
   87c2c:	bdf8      	pop	{r3, r4, r5, r6, r7, pc}
   87c2e:	bf00      	nop
   87c30:	2007ae74 	.word	0x2007ae74

00087c34 <_read_r>:
   87c34:	b5f8      	push	{r3, r4, r5, r6, r7, lr}
   87c36:	460e      	mov	r6, r1
   87c38:	2500      	movs	r5, #0
   87c3a:	4c08      	ldr	r4, [pc, #32]	; (87c5c <_read_r+0x28>)
   87c3c:	4611      	mov	r1, r2
   87c3e:	4607      	mov	r7, r0
   87c40:	461a      	mov	r2, r3
   87c42:	4630      	mov	r0, r6
   87c44:	6025      	str	r5, [r4, #0]
   87c46:	f7f9 ff75 	bl	81b34 <_read>
   87c4a:	1c43      	adds	r3, r0, #1
   87c4c:	d000      	beq.n	87c50 <_read_r+0x1c>
   87c4e:	bdf8      	pop	{r3, r4, r5, r6, r7, pc}
   87c50:	6823      	ldr	r3, [r4, #0]
   87c52:	2b00      	cmp	r3, #0
   87c54:	d0fb      	beq.n	87c4e <_read_r+0x1a>
   87c56:	603b      	str	r3, [r7, #0]
   87c58:	bdf8      	pop	{r3, r4, r5, r6, r7, pc}
   87c5a:	bf00      	nop
   87c5c:	2007ae74 	.word	0x2007ae74

00087c60 <__aeabi_uldivmod>:
   87c60:	b953      	cbnz	r3, 87c78 <__aeabi_uldivmod+0x18>
   87c62:	b94a      	cbnz	r2, 87c78 <__aeabi_uldivmod+0x18>
   87c64:	2900      	cmp	r1, #0
   87c66:	bf08      	it	eq
   87c68:	2800      	cmpeq	r0, #0
   87c6a:	bf1c      	itt	ne
   87c6c:	f04f 31ff 	movne.w	r1, #4294967295
   87c70:	f04f 30ff 	movne.w	r0, #4294967295
   87c74:	f000 b97a 	b.w	87f6c <__aeabi_idiv0>
   87c78:	f1ad 0c08 	sub.w	ip, sp, #8
   87c7c:	e96d ce04 	strd	ip, lr, [sp, #-16]!
   87c80:	f000 f806 	bl	87c90 <__udivmoddi4>
   87c84:	f8dd e004 	ldr.w	lr, [sp, #4]
   87c88:	e9dd 2302 	ldrd	r2, r3, [sp, #8]
   87c8c:	b004      	add	sp, #16
   87c8e:	4770      	bx	lr

00087c90 <__udivmoddi4>:
   87c90:	e92d 47f0 	stmdb	sp!, {r4, r5, r6, r7, r8, r9, sl, lr}
   87c94:	468c      	mov	ip, r1
   87c96:	460e      	mov	r6, r1
   87c98:	4604      	mov	r4, r0
   87c9a:	9d08      	ldr	r5, [sp, #32]
   87c9c:	2b00      	cmp	r3, #0
   87c9e:	d150      	bne.n	87d42 <__udivmoddi4+0xb2>
   87ca0:	428a      	cmp	r2, r1
   87ca2:	4617      	mov	r7, r2
   87ca4:	d96c      	bls.n	87d80 <__udivmoddi4+0xf0>
   87ca6:	fab2 fe82 	clz	lr, r2
   87caa:	f1be 0f00 	cmp.w	lr, #0
   87cae:	d00b      	beq.n	87cc8 <__udivmoddi4+0x38>
   87cb0:	f1ce 0c20 	rsb	ip, lr, #32
   87cb4:	fa01 f60e 	lsl.w	r6, r1, lr
   87cb8:	fa20 fc0c 	lsr.w	ip, r0, ip
   87cbc:	fa02 f70e 	lsl.w	r7, r2, lr
   87cc0:	ea4c 0c06 	orr.w	ip, ip, r6
   87cc4:	fa00 f40e 	lsl.w	r4, r0, lr
   87cc8:	0c3a      	lsrs	r2, r7, #16
   87cca:	fbbc f9f2 	udiv	r9, ip, r2
   87cce:	b2bb      	uxth	r3, r7
   87cd0:	fb02 cc19 	mls	ip, r2, r9, ip
   87cd4:	fb09 fa03 	mul.w	sl, r9, r3
   87cd8:	ea4f 4814 	mov.w	r8, r4, lsr #16
   87cdc:	ea48 460c 	orr.w	r6, r8, ip, lsl #16
   87ce0:	45b2      	cmp	sl, r6
   87ce2:	d90a      	bls.n	87cfa <__udivmoddi4+0x6a>
   87ce4:	19f6      	adds	r6, r6, r7
   87ce6:	f109 31ff 	add.w	r1, r9, #4294967295
   87cea:	f080 8125 	bcs.w	87f38 <__udivmoddi4+0x2a8>
   87cee:	45b2      	cmp	sl, r6
   87cf0:	f240 8122 	bls.w	87f38 <__udivmoddi4+0x2a8>
   87cf4:	f1a9 0902 	sub.w	r9, r9, #2
   87cf8:	443e      	add	r6, r7
   87cfa:	eba6 060a 	sub.w	r6, r6, sl
   87cfe:	fbb6 f0f2 	udiv	r0, r6, r2
   87d02:	fb02 6610 	mls	r6, r2, r0, r6
   87d06:	fb00 f303 	mul.w	r3, r0, r3
   87d0a:	b2a4      	uxth	r4, r4
   87d0c:	ea44 4406 	orr.w	r4, r4, r6, lsl #16
   87d10:	42a3      	cmp	r3, r4
   87d12:	d909      	bls.n	87d28 <__udivmoddi4+0x98>
   87d14:	19e4      	adds	r4, r4, r7
   87d16:	f100 32ff 	add.w	r2, r0, #4294967295
   87d1a:	f080 810b 	bcs.w	87f34 <__udivmoddi4+0x2a4>
   87d1e:	42a3      	cmp	r3, r4
   87d20:	f240 8108 	bls.w	87f34 <__udivmoddi4+0x2a4>
   87d24:	3802      	subs	r0, #2
   87d26:	443c      	add	r4, r7
   87d28:	2100      	movs	r1, #0
   87d2a:	1ae4      	subs	r4, r4, r3
   87d2c:	ea40 4009 	orr.w	r0, r0, r9, lsl #16
   87d30:	2d00      	cmp	r5, #0
   87d32:	d062      	beq.n	87dfa <__udivmoddi4+0x16a>
   87d34:	2300      	movs	r3, #0
   87d36:	fa24 f40e 	lsr.w	r4, r4, lr
   87d3a:	602c      	str	r4, [r5, #0]
   87d3c:	606b      	str	r3, [r5, #4]
   87d3e:	e8bd 87f0 	ldmia.w	sp!, {r4, r5, r6, r7, r8, r9, sl, pc}
   87d42:	428b      	cmp	r3, r1
   87d44:	d907      	bls.n	87d56 <__udivmoddi4+0xc6>
   87d46:	2d00      	cmp	r5, #0
   87d48:	d055      	beq.n	87df6 <__udivmoddi4+0x166>
   87d4a:	2100      	movs	r1, #0
   87d4c:	e885 0041 	stmia.w	r5, {r0, r6}
   87d50:	4608      	mov	r0, r1
   87d52:	e8bd 87f0 	ldmia.w	sp!, {r4, r5, r6, r7, r8, r9, sl, pc}
   87d56:	fab3 f183 	clz	r1, r3
   87d5a:	2900      	cmp	r1, #0
   87d5c:	f040 808f 	bne.w	87e7e <__udivmoddi4+0x1ee>
   87d60:	42b3      	cmp	r3, r6
   87d62:	d302      	bcc.n	87d6a <__udivmoddi4+0xda>
   87d64:	4282      	cmp	r2, r0
   87d66:	f200 80fc 	bhi.w	87f62 <__udivmoddi4+0x2d2>
   87d6a:	1a84      	subs	r4, r0, r2
   87d6c:	eb66 0603 	sbc.w	r6, r6, r3
   87d70:	2001      	movs	r0, #1
   87d72:	46b4      	mov	ip, r6
   87d74:	2d00      	cmp	r5, #0
   87d76:	d040      	beq.n	87dfa <__udivmoddi4+0x16a>
   87d78:	e885 1010 	stmia.w	r5, {r4, ip}
   87d7c:	e8bd 87f0 	ldmia.w	sp!, {r4, r5, r6, r7, r8, r9, sl, pc}
   87d80:	b912      	cbnz	r2, 87d88 <__udivmoddi4+0xf8>
   87d82:	2701      	movs	r7, #1
   87d84:	fbb7 f7f2 	udiv	r7, r7, r2
   87d88:	fab7 fe87 	clz	lr, r7
   87d8c:	f1be 0f00 	cmp.w	lr, #0
   87d90:	d135      	bne.n	87dfe <__udivmoddi4+0x16e>
   87d92:	2101      	movs	r1, #1
   87d94:	1bf6      	subs	r6, r6, r7
   87d96:	ea4f 4c17 	mov.w	ip, r7, lsr #16
   87d9a:	fa1f f887 	uxth.w	r8, r7
   87d9e:	fbb6 f2fc 	udiv	r2, r6, ip
   87da2:	fb0c 6612 	mls	r6, ip, r2, r6
   87da6:	fb08 f002 	mul.w	r0, r8, r2
   87daa:	0c23      	lsrs	r3, r4, #16
   87dac:	ea43 4606 	orr.w	r6, r3, r6, lsl #16
   87db0:	42b0      	cmp	r0, r6
   87db2:	d907      	bls.n	87dc4 <__udivmoddi4+0x134>
   87db4:	19f6      	adds	r6, r6, r7
   87db6:	f102 33ff 	add.w	r3, r2, #4294967295
   87dba:	d202      	bcs.n	87dc2 <__udivmoddi4+0x132>
   87dbc:	42b0      	cmp	r0, r6
   87dbe:	f200 80d2 	bhi.w	87f66 <__udivmoddi4+0x2d6>
   87dc2:	461a      	mov	r2, r3
   87dc4:	1a36      	subs	r6, r6, r0
   87dc6:	fbb6 f0fc 	udiv	r0, r6, ip
   87dca:	fb0c 6610 	mls	r6, ip, r0, r6
   87dce:	fb08 f800 	mul.w	r8, r8, r0
   87dd2:	b2a3      	uxth	r3, r4
   87dd4:	ea43 4406 	orr.w	r4, r3, r6, lsl #16
   87dd8:	45a0      	cmp	r8, r4
   87dda:	d907      	bls.n	87dec <__udivmoddi4+0x15c>
   87ddc:	19e4      	adds	r4, r4, r7
   87dde:	f100 33ff 	add.w	r3, r0, #4294967295
   87de2:	d202      	bcs.n	87dea <__udivmoddi4+0x15a>
   87de4:	45a0      	cmp	r8, r4
   87de6:	f200 80b9 	bhi.w	87f5c <__udivmoddi4+0x2cc>
   87dea:	4618      	mov	r0, r3
   87dec:	eba4 0408 	sub.w	r4, r4, r8
   87df0:	ea40 4002 	orr.w	r0, r0, r2, lsl #16
   87df4:	e79c      	b.n	87d30 <__udivmoddi4+0xa0>
   87df6:	4629      	mov	r1, r5
   87df8:	4628      	mov	r0, r5
   87dfa:	e8bd 87f0 	ldmia.w	sp!, {r4, r5, r6, r7, r8, r9, sl, pc}
   87dfe:	fa07 f70e 	lsl.w	r7, r7, lr
   87e02:	f1ce 0320 	rsb	r3, lr, #32
   87e06:	fa26 f203 	lsr.w	r2, r6, r3
   87e0a:	ea4f 4c17 	mov.w	ip, r7, lsr #16
   87e0e:	fbb2 f1fc 	udiv	r1, r2, ip
   87e12:	fa1f f887 	uxth.w	r8, r7
   87e16:	fb0c 2211 	mls	r2, ip, r1, r2
   87e1a:	fa06 f60e 	lsl.w	r6, r6, lr
   87e1e:	fa20 f303 	lsr.w	r3, r0, r3
   87e22:	fb01 f908 	mul.w	r9, r1, r8
   87e26:	4333      	orrs	r3, r6
   87e28:	0c1e      	lsrs	r6, r3, #16
   87e2a:	ea46 4602 	orr.w	r6, r6, r2, lsl #16
   87e2e:	45b1      	cmp	r9, r6
   87e30:	fa00 f40e 	lsl.w	r4, r0, lr
   87e34:	d909      	bls.n	87e4a <__udivmoddi4+0x1ba>
   87e36:	19f6      	adds	r6, r6, r7
   87e38:	f101 32ff 	add.w	r2, r1, #4294967295
   87e3c:	f080 808c 	bcs.w	87f58 <__udivmoddi4+0x2c8>
   87e40:	45b1      	cmp	r9, r6
   87e42:	f240 8089 	bls.w	87f58 <__udivmoddi4+0x2c8>
   87e46:	3902      	subs	r1, #2
   87e48:	443e      	add	r6, r7
   87e4a:	eba6 0609 	sub.w	r6, r6, r9
   87e4e:	fbb6 f0fc 	udiv	r0, r6, ip
   87e52:	fb0c 6210 	mls	r2, ip, r0, r6
   87e56:	fb00 f908 	mul.w	r9, r0, r8
   87e5a:	b29e      	uxth	r6, r3
   87e5c:	ea46 4602 	orr.w	r6, r6, r2, lsl #16
   87e60:	45b1      	cmp	r9, r6
   87e62:	d907      	bls.n	87e74 <__udivmoddi4+0x1e4>
   87e64:	19f6      	adds	r6, r6, r7
   87e66:	f100 33ff 	add.w	r3, r0, #4294967295
   87e6a:	d271      	bcs.n	87f50 <__udivmoddi4+0x2c0>
   87e6c:	45b1      	cmp	r9, r6
   87e6e:	d96f      	bls.n	87f50 <__udivmoddi4+0x2c0>
   87e70:	3802      	subs	r0, #2
   87e72:	443e      	add	r6, r7
   87e74:	eba6 0609 	sub.w	r6, r6, r9
   87e78:	ea40 4101 	orr.w	r1, r0, r1, lsl #16
   87e7c:	e78f      	b.n	87d9e <__udivmoddi4+0x10e>
   87e7e:	f1c1 0720 	rsb	r7, r1, #32
   87e82:	fa22 f807 	lsr.w	r8, r2, r7
   87e86:	408b      	lsls	r3, r1
   87e88:	ea48 0303 	orr.w	r3, r8, r3
   87e8c:	fa26 f407 	lsr.w	r4, r6, r7
   87e90:	ea4f 4e13 	mov.w	lr, r3, lsr #16
   87e94:	fbb4 f9fe 	udiv	r9, r4, lr
   87e98:	fa1f fc83 	uxth.w	ip, r3
   87e9c:	fb0e 4419 	mls	r4, lr, r9, r4
   87ea0:	408e      	lsls	r6, r1
   87ea2:	fa20 f807 	lsr.w	r8, r0, r7
   87ea6:	fb09 fa0c 	mul.w	sl, r9, ip
   87eaa:	ea48 0806 	orr.w	r8, r8, r6
   87eae:	ea4f 4618 	mov.w	r6, r8, lsr #16
   87eb2:	ea46 4404 	orr.w	r4, r6, r4, lsl #16
   87eb6:	45a2      	cmp	sl, r4
   87eb8:	fa02 f201 	lsl.w	r2, r2, r1
   87ebc:	fa00 f601 	lsl.w	r6, r0, r1
   87ec0:	d908      	bls.n	87ed4 <__udivmoddi4+0x244>
   87ec2:	18e4      	adds	r4, r4, r3
   87ec4:	f109 30ff 	add.w	r0, r9, #4294967295
   87ec8:	d244      	bcs.n	87f54 <__udivmoddi4+0x2c4>
   87eca:	45a2      	cmp	sl, r4
   87ecc:	d942      	bls.n	87f54 <__udivmoddi4+0x2c4>
   87ece:	f1a9 0902 	sub.w	r9, r9, #2
   87ed2:	441c      	add	r4, r3
   87ed4:	eba4 040a 	sub.w	r4, r4, sl
   87ed8:	fbb4 f0fe 	udiv	r0, r4, lr
   87edc:	fb0e 4410 	mls	r4, lr, r0, r4
   87ee0:	fb00 fc0c 	mul.w	ip, r0, ip
   87ee4:	fa1f f888 	uxth.w	r8, r8
   87ee8:	ea48 4404 	orr.w	r4, r8, r4, lsl #16
   87eec:	45a4      	cmp	ip, r4
   87eee:	d907      	bls.n	87f00 <__udivmoddi4+0x270>
   87ef0:	18e4      	adds	r4, r4, r3
   87ef2:	f100 3eff 	add.w	lr, r0, #4294967295
   87ef6:	d229      	bcs.n	87f4c <__udivmoddi4+0x2bc>
   87ef8:	45a4      	cmp	ip, r4
   87efa:	d927      	bls.n	87f4c <__udivmoddi4+0x2bc>
   87efc:	3802      	subs	r0, #2
   87efe:	441c      	add	r4, r3
   87f00:	ea40 4009 	orr.w	r0, r0, r9, lsl #16
   87f04:	fba0 8902 	umull	r8, r9, r0, r2
   87f08:	eba4 0c0c 	sub.w	ip, r4, ip
   87f0c:	45cc      	cmp	ip, r9
   87f0e:	46c2      	mov	sl, r8
   87f10:	46ce      	mov	lr, r9
   87f12:	d315      	bcc.n	87f40 <__udivmoddi4+0x2b0>
   87f14:	d012      	beq.n	87f3c <__udivmoddi4+0x2ac>
   87f16:	b155      	cbz	r5, 87f2e <__udivmoddi4+0x29e>
   87f18:	ebb6 030a 	subs.w	r3, r6, sl
   87f1c:	eb6c 060e 	sbc.w	r6, ip, lr
   87f20:	fa06 f707 	lsl.w	r7, r6, r7
   87f24:	40cb      	lsrs	r3, r1
   87f26:	431f      	orrs	r7, r3
   87f28:	40ce      	lsrs	r6, r1
   87f2a:	602f      	str	r7, [r5, #0]
   87f2c:	606e      	str	r6, [r5, #4]
   87f2e:	2100      	movs	r1, #0
   87f30:	e8bd 87f0 	ldmia.w	sp!, {r4, r5, r6, r7, r8, r9, sl, pc}
   87f34:	4610      	mov	r0, r2
   87f36:	e6f7      	b.n	87d28 <__udivmoddi4+0x98>
   87f38:	4689      	mov	r9, r1
   87f3a:	e6de      	b.n	87cfa <__udivmoddi4+0x6a>
   87f3c:	4546      	cmp	r6, r8
   87f3e:	d2ea      	bcs.n	87f16 <__udivmoddi4+0x286>
   87f40:	ebb8 0a02 	subs.w	sl, r8, r2
   87f44:	eb69 0e03 	sbc.w	lr, r9, r3
   87f48:	3801      	subs	r0, #1
   87f4a:	e7e4      	b.n	87f16 <__udivmoddi4+0x286>
   87f4c:	4670      	mov	r0, lr
   87f4e:	e7d7      	b.n	87f00 <__udivmoddi4+0x270>
   87f50:	4618      	mov	r0, r3
   87f52:	e78f      	b.n	87e74 <__udivmoddi4+0x1e4>
   87f54:	4681      	mov	r9, r0
   87f56:	e7bd      	b.n	87ed4 <__udivmoddi4+0x244>
   87f58:	4611      	mov	r1, r2
   87f5a:	e776      	b.n	87e4a <__udivmoddi4+0x1ba>
   87f5c:	3802      	subs	r0, #2
   87f5e:	443c      	add	r4, r7
   87f60:	e744      	b.n	87dec <__udivmoddi4+0x15c>
   87f62:	4608      	mov	r0, r1
   87f64:	e706      	b.n	87d74 <__udivmoddi4+0xe4>
   87f66:	3a02      	subs	r2, #2
   87f68:	443e      	add	r6, r7
   87f6a:	e72b      	b.n	87dc4 <__udivmoddi4+0x134>

00087f6c <__aeabi_idiv0>:
   87f6c:	4770      	bx	lr
   87f6e:	bf00      	nop
   87f70:	74736554 	.word	0x74736554
   87f74:	6972705f 	.word	0x6972705f
   87f78:	203a746e 	.word	0x203a746e
   87f7c:	65736143 	.word	0x65736143
   87f80:	65205820 	.word	0x65205820
   87f84:	7265746e 	.word	0x7265746e
   87f88:	61006465 	.word	0x61006465
   87f8c:	61757463 	.word	0x61757463
   87f90:	736f506c 	.word	0x736f506c
   87f94:	6f697469 	.word	0x6f697469
   87f98:	2520586e 	.word	0x2520586e
   87f9c:	61000a69 	.word	0x61000a69
   87fa0:	61757463 	.word	0x61757463
   87fa4:	736f506c 	.word	0x736f506c
   87fa8:	6f697469 	.word	0x6f697469
   87fac:	2520596e 	.word	0x2520596e
   87fb0:	73000a69 	.word	0x73000a69
   87fb4:	74726174 	.word	0x74726174
   87fb8:	6c676e41 	.word	0x6c676e41
   87fbc:	69252065 	.word	0x69252065
   87fc0:	6554000a 	.word	0x6554000a
   87fc4:	705f7473 	.word	0x705f7473
   87fc8:	746e6972 	.word	0x746e6972
   87fcc:	6143203a 	.word	0x6143203a
   87fd0:	30206573 	.word	0x30206573
   87fd4:	746e6520 	.word	0x746e6520
   87fd8:	64657265 	.word	0x64657265
   87fdc:	5553000a 	.word	0x5553000a
   87fe0:	53454343 	.word	0x53454343
   87fe4:	72203a53 	.word	0x72203a53
   87fe8:	69656365 	.word	0x69656365
   87fec:	20646576 	.word	0x20646576
   87ff0:	726f6f63 	.word	0x726f6f63
   87ff4:	616e6964 	.word	0x616e6964
   87ff8:	21736574 	.word	0x21736574
   87ffc:	5245000a 	.word	0x5245000a
   88000:	3a524f52 	.word	0x3a524f52
   88004:	206f4e20 	.word	0x206f4e20
   88008:	726f6f63 	.word	0x726f6f63
   8800c:	616e6964 	.word	0x616e6964
   88010:	20736574 	.word	0x20736574
   88014:	65636572 	.word	0x65636572
   88018:	64657669 	.word	0x64657669
   8801c:	6f726620 	.word	0x6f726620
   88020:	454d206d 	.word	0x454d206d
   88024:	0a214147 	.word	0x0a214147
   88028:	73655400 	.word	0x73655400
   8802c:	72705f74 	.word	0x72705f74
   88030:	3a746e69 	.word	0x3a746e69
   88034:	73614320 	.word	0x73614320
   88038:	20312065 	.word	0x20312065
   8803c:	65746e65 	.word	0x65746e65
   88040:	0a646572 	.word	0x0a646572
   88044:	73655400 	.word	0x73655400
   88048:	72705f74 	.word	0x72705f74
   8804c:	3a746e69 	.word	0x3a746e69
   88050:	73614320 	.word	0x73614320
   88054:	20322065 	.word	0x20322065
   88058:	65746e65 	.word	0x65746e65
   8805c:	00646572 	.word	0x00646572
   88060:	74736554 	.word	0x74736554
   88064:	6972705f 	.word	0x6972705f
   88068:	203a746e 	.word	0x203a746e
   8806c:	65736143 	.word	0x65736143
   88070:	65203320 	.word	0x65203320
   88074:	7265746e 	.word	0x7265746e
   88078:	000a6465 	.word	0x000a6465
   8807c:	74736554 	.word	0x74736554
   88080:	6972705f 	.word	0x6972705f
   88084:	203a746e 	.word	0x203a746e
   88088:	65736143 	.word	0x65736143
   8808c:	65203420 	.word	0x65203420
   88090:	7265746e 	.word	0x7265746e
   88094:	000a6465 	.word	0x000a6465
   88098:	65736163 	.word	0x65736163
   8809c:	203a3320 	.word	0x203a3320
   880a0:	646e6573 	.word	0x646e6573
   880a4:	6361705f 	.word	0x6361705f
   880a8:	6567616b 	.word	0x6567616b
   880ac:	43555320 	.word	0x43555320
   880b0:	46534543 	.word	0x46534543
   880b4:	2e2e4c55 	.word	0x2e2e4c55
   880b8:	000a202e 	.word	0x000a202e
   880bc:	74736554 	.word	0x74736554
   880c0:	6972705f 	.word	0x6972705f
   880c4:	203a746e 	.word	0x203a746e
   880c8:	65736143 	.word	0x65736143
   880cc:	65203520 	.word	0x65203520
   880d0:	7265746e 	.word	0x7265746e
   880d4:	000a6465 	.word	0x000a6465
   880d8:	74736554 	.word	0x74736554
   880dc:	6972705f 	.word	0x6972705f
   880e0:	203a746e 	.word	0x203a746e
   880e4:	65736143 	.word	0x65736143
   880e8:	65203620 	.word	0x65203620
   880ec:	7265746e 	.word	0x7265746e
   880f0:	000a6465 	.word	0x000a6465
   880f4:	74736554 	.word	0x74736554
   880f8:	6972705f 	.word	0x6972705f
   880fc:	203a746e 	.word	0x203a746e
   88100:	65736143 	.word	0x65736143
   88104:	65203720 	.word	0x65203720
   88108:	7265746e 	.word	0x7265746e
   8810c:	000a6465 	.word	0x000a6465
   88110:	74736554 	.word	0x74736554
   88114:	6972705f 	.word	0x6972705f
   88118:	203a746e 	.word	0x203a746e
   8811c:	65736143 	.word	0x65736143
   88120:	65203820 	.word	0x65203820
   88124:	7265746e 	.word	0x7265746e
   88128:	000a6465 	.word	0x000a6465
   8812c:	58736f70 	.word	0x58736f70
   88130:	00692520 	.word	0x00692520
   88134:	59736f70 	.word	0x59736f70
   88138:	00692520 	.word	0x00692520
   8813c:	4f525245 	.word	0x4f525245
   88140:	66203a52 	.word	0x66203a52
   88144:	656c6961 	.word	0x656c6961
   88148:	6f742064 	.word	0x6f742064
   8814c:	74656620 	.word	0x74656620
   88150:	70206863 	.word	0x70206863
   88154:	7469736f 	.word	0x7469736f
   88158:	206e6f69 	.word	0x206e6f69
   8815c:	61746164 	.word	0x61746164
   88160:	6f726620 	.word	0x6f726620
   88164:	454d206d 	.word	0x454d206d
   88168:	000a4147 	.word	0x000a4147
   8816c:	2d2d2d2d 	.word	0x2d2d2d2d
   88170:	2d2d2d2d 	.word	0x2d2d2d2d
   88174:	2d2d2d2d 	.word	0x2d2d2d2d
   88178:	732d2d2d 	.word	0x732d2d2d
   8817c:	6c706d61 	.word	0x6c706d61
   88180:	6d695465 	.word	0x6d695465
   88184:	25203a65 	.word	0x25203a65
   88188:	2d2d2069 	.word	0x2d2d2069
   8818c:	2d2d2d2d 	.word	0x2d2d2d2d
   88190:	2d2d2d2d 	.word	0x2d2d2d2d
   88194:	2d2d2d2d 	.word	0x2d2d2d2d
   88198:	000a2d2d 	.word	0x000a2d2d
   8819c:	49525f4e 	.word	0x49525f4e
   881a0:	20544847 	.word	0x20544847
   881a4:	20696c25 	.word	0x20696c25
   881a8:	5f4e000a 	.word	0x5f4e000a
   881ac:	5446454c 	.word	0x5446454c
   881b0:	696c2520 	.word	0x696c2520
   881b4:	52000a20 	.word	0x52000a20
   881b8:	203a5345 	.word	0x203a5345
   881bc:	000a6925 	.word	0x000a6925
   881c0:	43524943 	.word	0x43524943
   881c4:	6925203a 	.word	0x6925203a
   881c8:	6964000a 	.word	0x6964000a
   881cc:	6e617473 	.word	0x6e617473
   881d0:	654c6563 	.word	0x654c6563
   881d4:	203a7466 	.word	0x203a7466
   881d8:	0a206925 	.word	0x0a206925
   881dc:	73696400 	.word	0x73696400
   881e0:	636e6174 	.word	0x636e6174
   881e4:	67695265 	.word	0x67695265
   881e8:	203a7468 	.word	0x203a7468
   881ec:	0a206925 	.word	0x0a206925
   881f0:	6e696c00 	.word	0x6e696c00
   881f4:	4c726165 	.word	0x4c726165
   881f8:	41746665 	.word	0x41746665
   881fc:	61757463 	.word	0x61757463
   88200:	6925206c 	.word	0x6925206c
   88204:	6c000a20 	.word	0x6c000a20
   88208:	61656e69 	.word	0x61656e69
   8820c:	67695272 	.word	0x67695272
   88210:	63417468 	.word	0x63417468
   88214:	6c617574 	.word	0x6c617574
   88218:	20692520 	.word	0x20692520
   8821c:	5f50000a 	.word	0x5f50000a
   88220:	5f727265 	.word	0x5f727265
   88224:	7466654c 	.word	0x7466654c
   88228:	6925203a 	.word	0x6925203a
   8822c:	5f50000a 	.word	0x5f50000a
   88230:	5f727265 	.word	0x5f727265
   88234:	68676948 	.word	0x68676948
   88238:	6925203a 	.word	0x6925203a
   8823c:	5f44000a 	.word	0x5f44000a
   88240:	5f727265 	.word	0x5f727265
   88244:	7466654c 	.word	0x7466654c
   88248:	20692520 	.word	0x20692520
   8824c:	5f44000a 	.word	0x5f44000a
   88250:	5f727265 	.word	0x5f727265
   88254:	68676952 	.word	0x68676952
   88258:	69252074 	.word	0x69252074
   8825c:	49000a20 	.word	0x49000a20
   88260:	7272655f 	.word	0x7272655f
   88264:	66654c5f 	.word	0x66654c5f
   88268:	69252074 	.word	0x69252074
   8826c:	49000a20 	.word	0x49000a20
   88270:	7272655f 	.word	0x7272655f
   88274:	6769525f 	.word	0x6769525f
   88278:	25207468 	.word	0x25207468
   8827c:	000a2069 	.word	0x000a2069
   88280:	7550636d 	.word	0x7550636d
   88284:	4c65736c 	.word	0x4c65736c
   88288:	4f746665 	.word	0x4f746665
   8828c:	203a646c 	.word	0x203a646c
   88290:	000a6925 	.word	0x000a6925
   88294:	7550636d 	.word	0x7550636d
   88298:	5265736c 	.word	0x5265736c
   8829c:	74686769 	.word	0x74686769
   882a0:	3a646c4f 	.word	0x3a646c4f
   882a4:	0a692520 	.word	0x0a692520
   882a8:	4f525000 	.word	0x4f525000
   882ac:	54524f50 	.word	0x54524f50
   882b0:	454e4f49 	.word	0x454e4f49
   882b4:	20414c4c 	.word	0x20414c4c
   882b8:	504d4f4b 	.word	0x504d4f4b
   882bc:	45534e45 	.word	0x45534e45
   882c0:	474e4952 	.word	0x474e4952
   882c4:	203a4e45 	.word	0x203a4e45
   882c8:	000a6925 	.word	0x000a6925
   882cc:	49524544 	.word	0x49524544
   882d0:	49524556 	.word	0x49524556
   882d4:	2053474e 	.word	0x2053474e
   882d8:	504d4f4b 	.word	0x504d4f4b
   882dc:	45534e45 	.word	0x45534e45
   882e0:	474e4952 	.word	0x474e4952
   882e4:	203a4e45 	.word	0x203a4e45
   882e8:	000a6925 	.word	0x000a6925
   882ec:	45544e49 	.word	0x45544e49
   882f0:	52455247 	.word	0x52455247
   882f4:	53474e49 	.word	0x53474e49
   882f8:	4d4f4b20 	.word	0x4d4f4b20
   882fc:	534e4550 	.word	0x534e4550
   88300:	4e495245 	.word	0x4e495245
   88304:	3a4e4547 	.word	0x3a4e4547
   88308:	0a692520 	.word	0x0a692520
   8830c:	45564f00 	.word	0x45564f00
   88310:	48542052 	.word	0x48542052
   88314:	20454552 	.word	0x20454552
   88318:	444e5548 	.word	0x444e5548
   8831c:	0a444552 	.word	0x0a444552
   88320:	50636d00 	.word	0x50636d00
   88324:	65736c75 	.word	0x65736c75
   88328:	7466654c 	.word	0x7466654c
   8832c:	20464220 	.word	0x20464220
   88330:	72726f63 	.word	0x72726f63
   88334:	69746365 	.word	0x69746365
   88338:	25206e6f 	.word	0x25206e6f
   8833c:	6d000a69 	.word	0x6d000a69
   88340:	6c755063 	.word	0x6c755063
   88344:	69526573 	.word	0x69526573
   88348:	20746867 	.word	0x20746867
   8834c:	63204642 	.word	0x63204642
   88350:	6572726f 	.word	0x6572726f
   88354:	6f697463 	.word	0x6f697463
   88358:	6925206e 	.word	0x6925206e
   8835c:	636d000a 	.word	0x636d000a
   88360:	736c7550 	.word	0x736c7550
   88364:	66654c65 	.word	0x66654c65
   88368:	46412074 	.word	0x46412074
   8836c:	726f6320 	.word	0x726f6320
   88370:	74636572 	.word	0x74636572
   88374:	206e6f69 	.word	0x206e6f69
   88378:	000a6925 	.word	0x000a6925
   8837c:	7550636d 	.word	0x7550636d
   88380:	5265736c 	.word	0x5265736c
   88384:	74686769 	.word	0x74686769
   88388:	20464120 	.word	0x20464120
   8838c:	72726f63 	.word	0x72726f63
   88390:	69746365 	.word	0x69746365
   88394:	25206e6f 	.word	0x25206e6f
   88398:	00000a69 	.word	0x00000a69
   8839c:	00000001 	.word	0x00000001
   883a0:	00000002 	.word	0x00000002
   883a4:	00000004 	.word	0x00000004
   883a8:	00000008 	.word	0x00000008
   883ac:	00000010 	.word	0x00000010
   883b0:	00000020 	.word	0x00000020
   883b4:	00000040 	.word	0x00000040
   883b8:	00000080 	.word	0x00000080
   883bc:	00000100 	.word	0x00000100
   883c0:	00000200 	.word	0x00000200
   883c4:	00000400 	.word	0x00000400
   883c8:	4f525245 	.word	0x4f525245
   883cc:	6d202152 	.word	0x6d202152
   883d0:	6c755063 	.word	0x6c755063
   883d4:	654c6573 	.word	0x654c6573
   883d8:	70207466 	.word	0x70207466
   883dc:	6d617261 	.word	0x6d617261
   883e0:	20736920 	.word	0x20736920
   883e4:	7265766f 	.word	0x7265766f
   883e8:	66656420 	.word	0x66656420
   883ec:	64656e69 	.word	0x64656e69
   883f0:	67656e20 	.word	0x67656e20
   883f4:	76697461 	.word	0x76697461
   883f8:	696c2065 	.word	0x696c2065
   883fc:	0a74696d 	.word	0x0a74696d
   88400:	52524500 	.word	0x52524500
   88404:	2021524f 	.word	0x2021524f
   88408:	7550636d 	.word	0x7550636d
   8840c:	4c65736c 	.word	0x4c65736c
   88410:	20746665 	.word	0x20746665
   88414:	61726170 	.word	0x61726170
   88418:	7369206d 	.word	0x7369206d
   8841c:	65766f20 	.word	0x65766f20
   88420:	65642072 	.word	0x65642072
   88424:	656e6966 	.word	0x656e6966
   88428:	6f702064 	.word	0x6f702064
   8842c:	69746973 	.word	0x69746973
   88430:	6c206576 	.word	0x6c206576
   88434:	74696d69 	.word	0x74696d69
   88438:	000a      	.short	0x000a
   8843a:	5245      	.short	0x5245
   8843c:	21524f52 	.word	0x21524f52
   88440:	50636d20 	.word	0x50636d20
   88444:	65736c75 	.word	0x65736c75
   88448:	68676952 	.word	0x68676952
   8844c:	61702074 	.word	0x61702074
   88450:	206d6172 	.word	0x206d6172
   88454:	6f207369 	.word	0x6f207369
   88458:	20726576 	.word	0x20726576
   8845c:	69666564 	.word	0x69666564
   88460:	2064656e 	.word	0x2064656e
   88464:	6167656e 	.word	0x6167656e
   88468:	65766974 	.word	0x65766974
   8846c:	6d696c20 	.word	0x6d696c20
   88470:	000a7469 	.word	0x000a7469
   88474:	4f525245 	.word	0x4f525245
   88478:	6d202152 	.word	0x6d202152
   8847c:	6c755063 	.word	0x6c755063
   88480:	69526573 	.word	0x69526573
   88484:	20746867 	.word	0x20746867
   88488:	61726170 	.word	0x61726170
   8848c:	7369206d 	.word	0x7369206d
   88490:	65766f20 	.word	0x65766f20
   88494:	65642072 	.word	0x65642072
   88498:	656e6966 	.word	0x656e6966
   8849c:	6f702064 	.word	0x6f702064
   884a0:	69746973 	.word	0x69746973
   884a4:	6c206576 	.word	0x6c206576
   884a8:	74696d69 	.word	0x74696d69
   884ac:	000a      	.short	0x000a
   884ae:	6f43      	.short	0x6f43
   884b0:	6c6f736e 	.word	0x6c6f736e
   884b4:	65722065 	.word	0x65722065
   884b8:	0a796461 	.word	0x0a796461
   884bc:	3d3d3d00 	.word	0x3d3d3d00
   884c0:	3d3d3d3d 	.word	0x3d3d3d3d
   884c4:	3d3d3d3d 	.word	0x3d3d3d3d
   884c8:	000a3d3d 	.word	0x000a3d3d
   884cc:	75676572 	.word	0x75676572
   884d0:	6f74616c 	.word	0x6f74616c
   884d4:	6f700072 	.word	0x6f700072
   884d8:	69746973 	.word	0x69746973
   884dc:	63006e6f 	.word	0x63006e6f
   884e0:	72746e6f 	.word	0x72746e6f
   884e4:	65436c6f 	.word	0x65436c6f
   884e8:	7265746e 	.word	0x7265746e
   884ec:	00          	.byte	0x00
   884ed:	49          	.byte	0x49
   884ee:	4c44      	.short	0x4c44
   884f0:	0045      	.short	0x0045
   884f2:	6d54      	.short	0x6d54
   884f4:	76532072 	.word	0x76532072
   884f8:	00000063 	.word	0x00000063
   884fc:	00000000 	.word	0x00000000

00088500 <atanhi>:
   88500:	0561bb4f 3fddac67 54442d18 3fe921fb     O.a.g..?.-DT.!.?
   88510:	d281f69b 3fef730b 54442d18 3ff921fb     .....s.?.-DT.!.?

00088520 <atanlo>:
   88520:	222f65e2 3c7a2b7f 33145c07 3c81a626     .e/".+z<.\.3&..<
   88530:	7af0cbbd 3c700788 33145c07 3c91a626     ...z..p<.\.3&..<

00088540 <_global_impure_ptr>:
   88540:	20070178 33323130 37363534 42413938     x.. 0123456789AB
   88550:	46454443 00000000 33323130 37363534     CDEF....01234567
   88560:	62613938 66656463 00000000 6c756e28     89abcdef....(nul
   88570:	0000296c                                l)..

00088574 <blanks.7217>:
   88574:	20202020 20202020 20202020 20202020                     

00088584 <zeroes.7218>:
   88584:	30303030 30303030 30303030 30303030     0000000000000000
   88594:	00000043 49534f50 00000058 0000002e     C...POSIX.......

000885a4 <_ctype_>:
   885a4:	20202000 20202020 28282020 20282828     .         ((((( 
   885b4:	20202020 20202020 20202020 20202020                     
   885c4:	10108820 10101010 10101010 10101010      ...............
   885d4:	04040410 04040404 10040404 10101010     ................
   885e4:	41411010 41414141 01010101 01010101     ..AAAAAA........
   885f4:	01010101 01010101 01010101 10101010     ................
   88604:	42421010 42424242 02020202 02020202     ..BBBBBB........
   88614:	02020202 02020202 02020202 10101010     ................
   88624:	00000020 00000000 00000000 00000000      ...............
	...

000886a8 <_init>:
   886a8:	b5f8      	push	{r3, r4, r5, r6, r7, lr}
   886aa:	bf00      	nop
   886ac:	bcf8      	pop	{r3, r4, r5, r6, r7}
   886ae:	bc08      	pop	{r3}
   886b0:	469e      	mov	lr, r3
   886b2:	4770      	bx	lr

000886b4 <__init_array_start>:
   886b4:	00086345 	.word	0x00086345

000886b8 <__frame_dummy_init_array_entry>:
   886b8:	00080119                                ....

000886bc <_fini>:
   886bc:	b5f8      	push	{r3, r4, r5, r6, r7, lr}
   886be:	bf00      	nop
   886c0:	bcf8      	pop	{r3, r4, r5, r6, r7}
   886c2:	bc08      	pop	{r3}
   886c4:	469e      	mov	lr, r3
   886c6:	4770      	bx	lr

000886c8 <__fini_array_start>:
   886c8:	000800f5 	.word	0x000800f5

Disassembly of section .relocate:

20070000 <SystemInit>:
20070000:	f44f 6380 	mov.w	r3, #1024	; 0x400
20070004:	4a17      	ldr	r2, [pc, #92]	; (20070064 <SystemInit+0x64>)
20070006:	6013      	str	r3, [r2, #0]
20070008:	f8c2 3200 	str.w	r3, [r2, #512]	; 0x200
2007000c:	4b16      	ldr	r3, [pc, #88]	; (20070068 <SystemInit+0x68>)
2007000e:	6a1a      	ldr	r2, [r3, #32]
20070010:	01d2      	lsls	r2, r2, #7
20070012:	d520      	bpl.n	20070056 <SystemInit+0x56>
20070014:	4a15      	ldr	r2, [pc, #84]	; (2007006c <SystemInit+0x6c>)
20070016:	621a      	str	r2, [r3, #32]
20070018:	6e9a      	ldr	r2, [r3, #104]	; 0x68
2007001a:	03d1      	lsls	r1, r2, #15
2007001c:	d5fc      	bpl.n	20070018 <SystemInit+0x18>
2007001e:	6b1a      	ldr	r2, [r3, #48]	; 0x30
20070020:	f022 0203 	bic.w	r2, r2, #3
20070024:	f042 0201 	orr.w	r2, r2, #1
20070028:	631a      	str	r2, [r3, #48]	; 0x30
2007002a:	6e9a      	ldr	r2, [r3, #104]	; 0x68
2007002c:	0712      	lsls	r2, r2, #28
2007002e:	d5fc      	bpl.n	2007002a <SystemInit+0x2a>
20070030:	4a0f      	ldr	r2, [pc, #60]	; (20070070 <SystemInit+0x70>)
20070032:	629a      	str	r2, [r3, #40]	; 0x28
20070034:	6e9a      	ldr	r2, [r3, #104]	; 0x68
20070036:	0790      	lsls	r0, r2, #30
20070038:	d5fc      	bpl.n	20070034 <SystemInit+0x34>
2007003a:	2211      	movs	r2, #17
2007003c:	631a      	str	r2, [r3, #48]	; 0x30
2007003e:	6e9a      	ldr	r2, [r3, #104]	; 0x68
20070040:	0711      	lsls	r1, r2, #28
20070042:	d5fc      	bpl.n	2007003e <SystemInit+0x3e>
20070044:	2212      	movs	r2, #18
20070046:	631a      	str	r2, [r3, #48]	; 0x30
20070048:	6e9a      	ldr	r2, [r3, #104]	; 0x68
2007004a:	0712      	lsls	r2, r2, #28
2007004c:	d5fc      	bpl.n	20070048 <SystemInit+0x48>
2007004e:	4a09      	ldr	r2, [pc, #36]	; (20070074 <SystemInit+0x74>)
20070050:	4b09      	ldr	r3, [pc, #36]	; (20070078 <SystemInit+0x78>)
20070052:	601a      	str	r2, [r3, #0]
20070054:	4770      	bx	lr
20070056:	4a09      	ldr	r2, [pc, #36]	; (2007007c <SystemInit+0x7c>)
20070058:	621a      	str	r2, [r3, #32]
2007005a:	6e9a      	ldr	r2, [r3, #104]	; 0x68
2007005c:	07d0      	lsls	r0, r2, #31
2007005e:	d5fc      	bpl.n	2007005a <SystemInit+0x5a>
20070060:	e7d8      	b.n	20070014 <SystemInit+0x14>
20070062:	bf00      	nop
20070064:	400e0a00 	.word	0x400e0a00
20070068:	400e0600 	.word	0x400e0600
2007006c:	01370809 	.word	0x01370809
20070070:	200d3f01 	.word	0x200d3f01
20070074:	0501bd00 	.word	0x0501bd00
20070078:	2007016c 	.word	0x2007016c
2007007c:	00370809 	.word	0x00370809

20070080 <system_init_flash>:
20070080:	4b11      	ldr	r3, [pc, #68]	; (200700c8 <system_init_flash+0x48>)
20070082:	4a12      	ldr	r2, [pc, #72]	; (200700cc <system_init_flash+0x4c>)
20070084:	4298      	cmp	r0, r3
20070086:	4b12      	ldr	r3, [pc, #72]	; (200700d0 <system_init_flash+0x50>)
20070088:	d803      	bhi.n	20070092 <system_init_flash+0x12>
2007008a:	2100      	movs	r1, #0
2007008c:	6011      	str	r1, [r2, #0]
2007008e:	6019      	str	r1, [r3, #0]
20070090:	4770      	bx	lr
20070092:	4910      	ldr	r1, [pc, #64]	; (200700d4 <system_init_flash+0x54>)
20070094:	4288      	cmp	r0, r1
20070096:	d802      	bhi.n	2007009e <system_init_flash+0x1e>
20070098:	f44f 7180 	mov.w	r1, #256	; 0x100
2007009c:	e7f6      	b.n	2007008c <system_init_flash+0xc>
2007009e:	490e      	ldr	r1, [pc, #56]	; (200700d8 <system_init_flash+0x58>)
200700a0:	4288      	cmp	r0, r1
200700a2:	d802      	bhi.n	200700aa <system_init_flash+0x2a>
200700a4:	f44f 7100 	mov.w	r1, #512	; 0x200
200700a8:	e7f0      	b.n	2007008c <system_init_flash+0xc>
200700aa:	490c      	ldr	r1, [pc, #48]	; (200700dc <system_init_flash+0x5c>)
200700ac:	4288      	cmp	r0, r1
200700ae:	d802      	bhi.n	200700b6 <system_init_flash+0x36>
200700b0:	f44f 7140 	mov.w	r1, #768	; 0x300
200700b4:	e7ea      	b.n	2007008c <system_init_flash+0xc>
200700b6:	490a      	ldr	r1, [pc, #40]	; (200700e0 <system_init_flash+0x60>)
200700b8:	4288      	cmp	r0, r1
200700ba:	bf94      	ite	ls
200700bc:	f44f 6180 	movls.w	r1, #1024	; 0x400
200700c0:	f44f 61a0 	movhi.w	r1, #1280	; 0x500
200700c4:	e7e2      	b.n	2007008c <system_init_flash+0xc>
200700c6:	bf00      	nop
200700c8:	0121eabf 	.word	0x0121eabf
200700cc:	400e0a00 	.word	0x400e0a00
200700d0:	400e0c00 	.word	0x400e0c00
200700d4:	02faf07f 	.word	0x02faf07f
200700d8:	03d08fff 	.word	0x03d08fff
200700dc:	04c4b3ff 	.word	0x04c4b3ff
200700e0:	055d4a7f 	.word	0x055d4a7f

200700e4 <Kd>:
200700e4:	38d1b717                                ...8

200700e8 <Ki>:
200700e8:	3ca3d70a                                ...<

200700ec <Kp>:
200700ec:	3f9d70a4                                .p.?

200700f0 <Ts>:
200700f0:	3e99999a                                ...>

200700f4 <WheelCircum>:
200700f4:	42468c75                                u.FB

200700f8 <dPP>:
200700f8:	3eb07c85                                .|.>

200700fc <doubleToIntFactor>:
200700fc:	000186a0                                ....

20070100 <linearSpeedMargin>:
20070100:	40a00000                                ...@

20070104 <resolution>:
20070104:	00000090                                ....

20070108 <wheelToWheel>:
20070108:	421e0000                                ...B

2007010c <msPerTick>:
2007010c:	00000001                                ....

20070110 <packet_pab>:
	...
20070118:	20070c1b 00000001 00000008              ... ........

20070124 <packet_pos>:
	...
2007012c:	20070c1c 00000001 00000010              ... ........

20070138 <packet_rec_pab>:
	...
20070140:	20070c10 00000001 00000008              ... ........

2007014c <packet_rec_pos>:
	...
20070154:	20070c11 0000000a 00000010              ... ........

20070160 <uxCriticalNesting>:
20070160:	aaaaaaaa                                ....

20070164 <xFreeBytesRemaining>:
20070164:	0000a000                                ....

20070168 <xNextTaskUnblockTime>:
20070168:	ffffffff                                ....

2007016c <SystemCoreClock>:
2007016c:	003d0900                                ..=.

20070170 <_impure_ptr>:
20070170:	20070178 00000000                       x.. ....

20070178 <impure_data>:
20070178:	00000000 20070464 200704cc 20070534     ....d.. ... 4.. 
	...
20070220:	00000001 00000000 abcd330e e66d1234     .........3..4.m.
20070230:	0005deec 0000000b 00000000 00000000     ................
	...

200705a0 <__atexit_recursive_mutex>:
200705a0:	2007ae50                                P.. 

200705a4 <__global_locale>:
200705a4:	00000043 00000000 00000000 00000000     C...............
	...
200705c4:	00000043 00000000 00000000 00000000     C...............
	...
200705e4:	00000043 00000000 00000000 00000000     C...............
	...
20070604:	00000043 00000000 00000000 00000000     C...............
	...
20070624:	00000043 00000000 00000000 00000000     C...............
	...
20070644:	00000043 00000000 00000000 00000000     C...............
	...
20070664:	00000043 00000000 00000000 00000000     C...............
	...
20070684:	000879cd 00087319 00000000 000885a4     .y...s..........
20070694:	000885a0 00088554 00088554 00088554     ....T...T...T...
200706a4:	00088554 00088554 00088554 00088554     T...T...T...T...
200706b4:	00088554 00088554 ffffffff ffffffff     T...T...........
200706c4:	ffffffff 0000ffff 53410001 00494943     ..........ASCII.
	...
200706ec:	53410000 00494943 00000000 00000000     ..ASCII.........
	...

20070710 <__malloc_av_>:
	...
20070718:	20070710 20070710 20070718 20070718     ... ... ... ... 
20070728:	20070720 20070720 20070728 20070728      ..  .. (.. (.. 
20070738:	20070730 20070730 20070738 20070738     0.. 0.. 8.. 8.. 
20070748:	20070740 20070740 20070748 20070748     @.. @.. H.. H.. 
20070758:	20070750 20070750 20070758 20070758     P.. P.. X.. X.. 
20070768:	20070760 20070760 20070768 20070768     `.. `.. h.. h.. 
20070778:	20070770 20070770 20070778 20070778     p.. p.. x.. x.. 
20070788:	20070780 20070780 20070788 20070788     ... ... ... ... 
20070798:	20070790 20070790 20070798 20070798     ... ... ... ... 
200707a8:	200707a0 200707a0 200707a8 200707a8     ... ... ... ... 
200707b8:	200707b0 200707b0 200707b8 200707b8     ... ... ... ... 
200707c8:	200707c0 200707c0 200707c8 200707c8     ... ... ... ... 
200707d8:	200707d0 200707d0 200707d8 200707d8     ... ... ... ... 
200707e8:	200707e0 200707e0 200707e8 200707e8     ... ... ... ... 
200707f8:	200707f0 200707f0 200707f8 200707f8     ... ... ... ... 
20070808:	20070800 20070800 20070808 20070808     ... ... ... ... 
20070818:	20070810 20070810 20070818 20070818     ... ... ... ... 
20070828:	20070820 20070820 20070828 20070828      ..  .. (.. (.. 
20070838:	20070830 20070830 20070838 20070838     0.. 0.. 8.. 8.. 
20070848:	20070840 20070840 20070848 20070848     @.. @.. H.. H.. 
20070858:	20070850 20070850 20070858 20070858     P.. P.. X.. X.. 
20070868:	20070860 20070860 20070868 20070868     `.. `.. h.. h.. 
20070878:	20070870 20070870 20070878 20070878     p.. p.. x.. x.. 
20070888:	20070880 20070880 20070888 20070888     ... ... ... ... 
20070898:	20070890 20070890 20070898 20070898     ... ... ... ... 
200708a8:	200708a0 200708a0 200708a8 200708a8     ... ... ... ... 
200708b8:	200708b0 200708b0 200708b8 200708b8     ... ... ... ... 
200708c8:	200708c0 200708c0 200708c8 200708c8     ... ... ... ... 
200708d8:	200708d0 200708d0 200708d8 200708d8     ... ... ... ... 
200708e8:	200708e0 200708e0 200708e8 200708e8     ... ... ... ... 
200708f8:	200708f0 200708f0 200708f8 200708f8     ... ... ... ... 
20070908:	20070900 20070900 20070908 20070908     ... ... ... ... 
20070918:	20070910 20070910 20070918 20070918     ... ... ... ... 
20070928:	20070920 20070920 20070928 20070928      ..  .. (.. (.. 
20070938:	20070930 20070930 20070938 20070938     0.. 0.. 8.. 8.. 
20070948:	20070940 20070940 20070948 20070948     @.. @.. H.. H.. 
20070958:	20070950 20070950 20070958 20070958     P.. P.. X.. X.. 
20070968:	20070960 20070960 20070968 20070968     `.. `.. h.. h.. 
20070978:	20070970 20070970 20070978 20070978     p.. p.. x.. x.. 
20070988:	20070980 20070980 20070988 20070988     ... ... ... ... 
20070998:	20070990 20070990 20070998 20070998     ... ... ... ... 
200709a8:	200709a0 200709a0 200709a8 200709a8     ... ... ... ... 
200709b8:	200709b0 200709b0 200709b8 200709b8     ... ... ... ... 
200709c8:	200709c0 200709c0 200709c8 200709c8     ... ... ... ... 
200709d8:	200709d0 200709d0 200709d8 200709d8     ... ... ... ... 
200709e8:	200709e0 200709e0 200709e8 200709e8     ... ... ... ... 
200709f8:	200709f0 200709f0 200709f8 200709f8     ... ... ... ... 
20070a08:	20070a00 20070a00 20070a08 20070a08     ... ... ... ... 
20070a18:	20070a10 20070a10 20070a18 20070a18     ... ... ... ... 
20070a28:	20070a20 20070a20 20070a28 20070a28      ..  .. (.. (.. 
20070a38:	20070a30 20070a30 20070a38 20070a38     0.. 0.. 8.. 8.. 
20070a48:	20070a40 20070a40 20070a48 20070a48     @.. @.. H.. H.. 
20070a58:	20070a50 20070a50 20070a58 20070a58     P.. P.. X.. X.. 
20070a68:	20070a60 20070a60 20070a68 20070a68     `.. `.. h.. h.. 
20070a78:	20070a70 20070a70 20070a78 20070a78     p.. p.. x.. x.. 
20070a88:	20070a80 20070a80 20070a88 20070a88     ... ... ... ... 
20070a98:	20070a90 20070a90 20070a98 20070a98     ... ... ... ... 
20070aa8:	20070aa0 20070aa0 20070aa8 20070aa8     ... ... ... ... 
20070ab8:	20070ab0 20070ab0 20070ab8 20070ab8     ... ... ... ... 
20070ac8:	20070ac0 20070ac0 20070ac8 20070ac8     ... ... ... ... 
20070ad8:	20070ad0 20070ad0 20070ad8 20070ad8     ... ... ... ... 
20070ae8:	20070ae0 20070ae0 20070ae8 20070ae8     ... ... ... ... 
20070af8:	20070af0 20070af0 20070af8 20070af8     ... ... ... ... 
20070b08:	20070b00 20070b00 20070b08 20070b08     ... ... ... ... 

20070b18 <__malloc_sbrk_base>:
20070b18:	ffffffff                                ....

20070b1c <__malloc_trim_threshold>:
20070b1c:	00020000                                ....
